
kernel:     file format elf64-littleriscv


Disassembly of section .text:

0000000080000000 <_entry>:
    80000000:	0000b117          	auipc	sp,0xb
    80000004:	41013103          	ld	sp,1040(sp) # 8000b410 <_GLOBAL_OFFSET_TABLE_+0x8>
    80000008:	00001537          	lui	a0,0x1
    8000000c:	f14025f3          	csrr	a1,mhartid
    80000010:	00158593          	addi	a1,a1,1
    80000014:	02b50533          	mul	a0,a0,a1
    80000018:	00a10133          	add	sp,sp,a0
    8000001c:	460060ef          	jal	ra,8000647c <start>

0000000080000020 <spin>:
    80000020:	0000006f          	j	80000020 <spin>
	...

0000000080001000 <_ZN5Riscv14supervisorTrapEv>:
.align 4
.global _ZN5Riscv14supervisorTrapEv
.type _ZN5Riscv14supervisorTrapEv, @function

_ZN5Riscv14supervisorTrapEv:
     addi sp, sp, -256
    80001000:	f0010113          	addi	sp,sp,-256
     .irp index, 0,1,2,3,4,5,6,7,8,9,10,11,12,13,14,15,16,17,18,19,20,21,22,23,24,25,26,27,28,29,30,31
     sd x\index, \index * 8(sp)
     .endr
    80001004:	00013023          	sd	zero,0(sp)
    80001008:	00113423          	sd	ra,8(sp)
    8000100c:	00213823          	sd	sp,16(sp)
    80001010:	00313c23          	sd	gp,24(sp)
    80001014:	02413023          	sd	tp,32(sp)
    80001018:	02513423          	sd	t0,40(sp)
    8000101c:	02613823          	sd	t1,48(sp)
    80001020:	02713c23          	sd	t2,56(sp)
    80001024:	04813023          	sd	s0,64(sp)
    80001028:	04913423          	sd	s1,72(sp)
    8000102c:	04a13823          	sd	a0,80(sp)
    80001030:	04b13c23          	sd	a1,88(sp)
    80001034:	06c13023          	sd	a2,96(sp)
    80001038:	06d13423          	sd	a3,104(sp)
    8000103c:	06e13823          	sd	a4,112(sp)
    80001040:	06f13c23          	sd	a5,120(sp)
    80001044:	09013023          	sd	a6,128(sp)
    80001048:	09113423          	sd	a7,136(sp)
    8000104c:	09213823          	sd	s2,144(sp)
    80001050:	09313c23          	sd	s3,152(sp)
    80001054:	0b413023          	sd	s4,160(sp)
    80001058:	0b513423          	sd	s5,168(sp)
    8000105c:	0b613823          	sd	s6,176(sp)
    80001060:	0b713c23          	sd	s7,184(sp)
    80001064:	0d813023          	sd	s8,192(sp)
    80001068:	0d913423          	sd	s9,200(sp)
    8000106c:	0da13823          	sd	s10,208(sp)
    80001070:	0db13c23          	sd	s11,216(sp)
    80001074:	0fc13023          	sd	t3,224(sp)
    80001078:	0fd13423          	sd	t4,232(sp)
    8000107c:	0fe13823          	sd	t5,240(sp)
    80001080:	0ff13c23          	sd	t6,248(sp)

     call _ZN5Riscv20handleSupervisorTrapEmmmmmmmm
    80001084:	125000ef          	jal	ra,800019a8 <_ZN5Riscv20handleSupervisorTrapEmmmmmmmm>

     # pop all registers from stack
     .irp index, 0,1,2,3,4,5,6,7,8,9/*,10*/,11,12,13,14,15,16,17,18,19,20,21,22,23,24,25,26,27,28,29,30,31
     ld x\index, \index * 8(sp)
     .endr
    80001088:	00013003          	ld	zero,0(sp)
    8000108c:	00813083          	ld	ra,8(sp)
    80001090:	01013103          	ld	sp,16(sp)
    80001094:	01813183          	ld	gp,24(sp)
    80001098:	02013203          	ld	tp,32(sp)
    8000109c:	02813283          	ld	t0,40(sp)
    800010a0:	03013303          	ld	t1,48(sp)
    800010a4:	03813383          	ld	t2,56(sp)
    800010a8:	04013403          	ld	s0,64(sp)
    800010ac:	04813483          	ld	s1,72(sp)
    800010b0:	05813583          	ld	a1,88(sp)
    800010b4:	06013603          	ld	a2,96(sp)
    800010b8:	06813683          	ld	a3,104(sp)
    800010bc:	07013703          	ld	a4,112(sp)
    800010c0:	07813783          	ld	a5,120(sp)
    800010c4:	08013803          	ld	a6,128(sp)
    800010c8:	08813883          	ld	a7,136(sp)
    800010cc:	09013903          	ld	s2,144(sp)
    800010d0:	09813983          	ld	s3,152(sp)
    800010d4:	0a013a03          	ld	s4,160(sp)
    800010d8:	0a813a83          	ld	s5,168(sp)
    800010dc:	0b013b03          	ld	s6,176(sp)
    800010e0:	0b813b83          	ld	s7,184(sp)
    800010e4:	0c013c03          	ld	s8,192(sp)
    800010e8:	0c813c83          	ld	s9,200(sp)
    800010ec:	0d013d03          	ld	s10,208(sp)
    800010f0:	0d813d83          	ld	s11,216(sp)
    800010f4:	0e013e03          	ld	t3,224(sp)
    800010f8:	0e813e83          	ld	t4,232(sp)
    800010fc:	0f013f03          	ld	t5,240(sp)
    80001100:	0f813f83          	ld	t6,248(sp)
     addi sp, sp, 256
    80001104:	10010113          	addi	sp,sp,256

     sret
    80001108:	10200073          	sret
    8000110c:	0000                	unimp
	...

0000000080001110 <_ZN7_thread13switchContextEPNS_7ContextES1_>:
.global _ZN7_thread13switchContextEPNS_7ContextES1_
.type _ZN7_thread13switchContextEPNS_7ContextES1_, @function
_ZN7_thread13switchContextEPNS_7ContextES1_:

   
    sd ra, 0(a0)
    80001110:	00153023          	sd	ra,0(a0) # 1000 <_entry-0x7ffff000>
    sd sp, 8(a0)
    80001114:	00253423          	sd	sp,8(a0)

   
    ld ra, 0(a1)
    80001118:	0005b083          	ld	ra,0(a1)
    ld sp, 8(a1)
    8000111c:	0085b103          	ld	sp,8(a1)

    ret
    80001120:	00008067          	ret

0000000080001124 <copy_and_swap>:
# a1 holds expected value
# a2 holds desired value
# a0 holds return value, 0 if successful, !0 otherwise
.global copy_and_swap
copy_and_swap:
    lr.w t0, (a0)          # Load original value.
    80001124:	100522af          	lr.w	t0,(a0)
    bne t0, a1, fail       # Doesn’t match, so fail.
    80001128:	00b29a63          	bne	t0,a1,8000113c <fail>
    sc.w t0, a2, (a0)      # Try to update.
    8000112c:	18c522af          	sc.w	t0,a2,(a0)
    bnez t0, copy_and_swap # Retry if store-conditional failed.
    80001130:	fe029ae3          	bnez	t0,80001124 <copy_and_swap>
    li a0, 0               # Set return to success.
    80001134:	00000513          	li	a0,0
    jr ra                  # Return.
    80001138:	00008067          	ret

000000008000113c <fail>:
    fail:
    li a0, 1               # Set return to failure.
    8000113c:	00100513          	li	a0,1
    80001140:	00008067          	ret

0000000080001144 <_ZN7kBufferC1Ev>:
#include "../h/Buffer.h"

kBuffer::kBuffer(): count(0), head(0), tail(0){
    80001144:	ff010113          	addi	sp,sp,-16
    80001148:	00813423          	sd	s0,8(sp)
    8000114c:	01010413          	addi	s0,sp,16
    80001150:	00052023          	sw	zero,0(a0)
    80001154:	00052223          	sw	zero,4(a0)
    80001158:	00052423          	sw	zero,8(a0)

}
    8000115c:	00813403          	ld	s0,8(sp)
    80001160:	01010113          	addi	sp,sp,16
    80001164:	00008067          	ret

0000000080001168 <_ZN7kBuffer3putEc>:

void kBuffer::put(char c) {
    80001168:	ff010113          	addi	sp,sp,-16
    8000116c:	00813423          	sd	s0,8(sp)
    80001170:	01010413          	addi	s0,sp,16
    buffer[tail] = c;
    80001174:	00852783          	lw	a5,8(a0)
    80001178:	00f50733          	add	a4,a0,a5
    8000117c:	00b70623          	sb	a1,12(a4)
    tail = (tail + 1 ) % kBuffer::capacity;
    80001180:	0017879b          	addiw	a5,a5,1
    80001184:	41f7d71b          	sraiw	a4,a5,0x1f
    80001188:	0187571b          	srliw	a4,a4,0x18
    8000118c:	00e787bb          	addw	a5,a5,a4
    80001190:	0ff7f793          	andi	a5,a5,255
    80001194:	40e787bb          	subw	a5,a5,a4
    80001198:	00f52423          	sw	a5,8(a0)
    count++;
    8000119c:	00052783          	lw	a5,0(a0)
    800011a0:	0017879b          	addiw	a5,a5,1
    800011a4:	00f52023          	sw	a5,0(a0)
}
    800011a8:	00813403          	ld	s0,8(sp)
    800011ac:	01010113          	addi	sp,sp,16
    800011b0:	00008067          	ret

00000000800011b4 <_ZN7kBuffer3getEv>:


char kBuffer::get() {
    800011b4:	ff010113          	addi	sp,sp,-16
    800011b8:	00813423          	sd	s0,8(sp)
    800011bc:	01010413          	addi	s0,sp,16
    800011c0:	00050713          	mv	a4,a0
    char x = buffer[head];
    800011c4:	00452783          	lw	a5,4(a0)
    800011c8:	00f506b3          	add	a3,a0,a5
    800011cc:	00c6c503          	lbu	a0,12(a3)
    head = (head + 1 ) % kBuffer::capacity;
    800011d0:	0017879b          	addiw	a5,a5,1
    800011d4:	41f7d69b          	sraiw	a3,a5,0x1f
    800011d8:	0186d69b          	srliw	a3,a3,0x18
    800011dc:	00d787bb          	addw	a5,a5,a3
    800011e0:	0ff7f793          	andi	a5,a5,255
    800011e4:	40d787bb          	subw	a5,a5,a3
    800011e8:	00f72223          	sw	a5,4(a4)
    count--;
    800011ec:	00072783          	lw	a5,0(a4)
    800011f0:	fff7879b          	addiw	a5,a5,-1
    800011f4:	00f72023          	sw	a5,0(a4)
    return x;
}
    800011f8:	00813403          	ld	s0,8(sp)
    800011fc:	01010113          	addi	sp,sp,16
    80001200:	00008067          	ret

0000000080001204 <_ZN7kBuffer6isFullEv>:

bool kBuffer::isFull() {
    80001204:	ff010113          	addi	sp,sp,-16
    80001208:	00813423          	sd	s0,8(sp)
    8000120c:	01010413          	addi	s0,sp,16
    return count == capacity;
    80001210:	00052503          	lw	a0,0(a0)
    80001214:	f0050513          	addi	a0,a0,-256
}
    80001218:	00153513          	seqz	a0,a0
    8000121c:	00813403          	ld	s0,8(sp)
    80001220:	01010113          	addi	sp,sp,16
    80001224:	00008067          	ret

0000000080001228 <_ZN7kBuffer7isEmptyEv>:

bool kBuffer::isEmpty() {
    80001228:	ff010113          	addi	sp,sp,-16
    8000122c:	00813423          	sd	s0,8(sp)
    80001230:	01010413          	addi	s0,sp,16
    return count == 0;
    80001234:	00052503          	lw	a0,0(a0)
}
    80001238:	00153513          	seqz	a0,a0
    8000123c:	00813403          	ld	s0,8(sp)
    80001240:	01010113          	addi	sp,sp,16
    80001244:	00008067          	ret

0000000080001248 <_ZN8_console10ensureInitEv>:
_sem* _console::outSem = nullptr;

bool _console::initialized = false;

void _console::ensureInit() {
    if (initialized) return;
    80001248:	0000a797          	auipc	a5,0xa
    8000124c:	5b87c783          	lbu	a5,1464(a5) # 8000b800 <_ZN8_console11initializedE>
    80001250:	00078463          	beqz	a5,80001258 <_ZN8_console10ensureInitEv+0x10>
    80001254:	00008067          	ret
void _console::ensureInit() {
    80001258:	fe010113          	addi	sp,sp,-32
    8000125c:	00113c23          	sd	ra,24(sp)
    80001260:	00813823          	sd	s0,16(sp)
    80001264:	00913423          	sd	s1,8(sp)
    80001268:	01213023          	sd	s2,0(sp)
    8000126c:	02010413          	addi	s0,sp,32
    inbuff  = new kBuffer();
    80001270:	10c00513          	li	a0,268
    80001274:	00001097          	auipc	ra,0x1
    80001278:	4b0080e7          	jalr	1200(ra) # 80002724 <_Znwm>
    8000127c:	00050493          	mv	s1,a0
    80001280:	00000097          	auipc	ra,0x0
    80001284:	ec4080e7          	jalr	-316(ra) # 80001144 <_ZN7kBufferC1Ev>
    80001288:	0000a797          	auipc	a5,0xa
    8000128c:	5897bc23          	sd	s1,1432(a5) # 8000b820 <_ZN8_console6inbuffE>
    outbuff = new kBuffer();
    80001290:	10c00513          	li	a0,268
    80001294:	00001097          	auipc	ra,0x1
    80001298:	490080e7          	jalr	1168(ra) # 80002724 <_Znwm>
    8000129c:	00050493          	mv	s1,a0
    800012a0:	00000097          	auipc	ra,0x0
    800012a4:	ea4080e7          	jalr	-348(ra) # 80001144 <_ZN7kBufferC1Ev>
    800012a8:	0000a797          	auipc	a5,0xa
    800012ac:	5697b823          	sd	s1,1392(a5) # 8000b818 <_ZN8_console7outbuffE>

class _sem {
public:

    void* operator new(size_t size){
        void* ptr = MemoryAllocator::kmalloc(size);
    800012b0:	02000513          	li	a0,32
    800012b4:	00000097          	auipc	ra,0x0
    800012b8:	38c080e7          	jalr	908(ra) # 80001640 <_ZN15MemoryAllocator7kmallocEm>
    800012bc:	00050493          	mv	s1,a0
    inSem   = new _sem(0);
    800012c0:	00000593          	li	a1,0
    800012c4:	00001097          	auipc	ra,0x1
    800012c8:	d00080e7          	jalr	-768(ra) # 80001fc4 <_ZN4_semC1Ei>
    800012cc:	0000a797          	auipc	a5,0xa
    800012d0:	5497b223          	sd	s1,1348(a5) # 8000b810 <_ZN8_console5inSemE>
    800012d4:	02000513          	li	a0,32
    800012d8:	00000097          	auipc	ra,0x0
    800012dc:	368080e7          	jalr	872(ra) # 80001640 <_ZN15MemoryAllocator7kmallocEm>
    800012e0:	00050493          	mv	s1,a0
    outSem  = new _sem(256);
    800012e4:	10000593          	li	a1,256
    800012e8:	00001097          	auipc	ra,0x1
    800012ec:	cdc080e7          	jalr	-804(ra) # 80001fc4 <_ZN4_semC1Ei>
    800012f0:	0000a797          	auipc	a5,0xa
    800012f4:	5097bc23          	sd	s1,1304(a5) # 8000b808 <_ZN8_console6outSemE>
    initialized = true;
    800012f8:	00100793          	li	a5,1
    800012fc:	0000a717          	auipc	a4,0xa
    80001300:	50f70223          	sb	a5,1284(a4) # 8000b800 <_ZN8_console11initializedE>
}
    80001304:	01813083          	ld	ra,24(sp)
    80001308:	01013403          	ld	s0,16(sp)
    8000130c:	00813483          	ld	s1,8(sp)
    80001310:	00013903          	ld	s2,0(sp)
    80001314:	02010113          	addi	sp,sp,32
    80001318:	00008067          	ret
    inbuff  = new kBuffer();
    8000131c:	00050913          	mv	s2,a0
    80001320:	00048513          	mv	a0,s1
    80001324:	00001097          	auipc	ra,0x1
    80001328:	428080e7          	jalr	1064(ra) # 8000274c <_ZdlPv>
    8000132c:	00090513          	mv	a0,s2
    80001330:	0000b097          	auipc	ra,0xb
    80001334:	678080e7          	jalr	1656(ra) # 8000c9a8 <_Unwind_Resume>
    outbuff = new kBuffer();
    80001338:	00050913          	mv	s2,a0
    8000133c:	00048513          	mv	a0,s1
    80001340:	00001097          	auipc	ra,0x1
    80001344:	40c080e7          	jalr	1036(ra) # 8000274c <_ZdlPv>
    80001348:	00090513          	mv	a0,s2
    8000134c:	0000b097          	auipc	ra,0xb
    80001350:	65c080e7          	jalr	1628(ra) # 8000c9a8 <_Unwind_Resume>
    inSem   = new _sem(0);
    80001354:	00050913          	mv	s2,a0
    80001358:	00048513          	mv	a0,s1
    8000135c:	00001097          	auipc	ra,0x1
    80001360:	3f0080e7          	jalr	1008(ra) # 8000274c <_ZdlPv>
    80001364:	00090513          	mv	a0,s2
    80001368:	0000b097          	auipc	ra,0xb
    8000136c:	640080e7          	jalr	1600(ra) # 8000c9a8 <_Unwind_Resume>
    outSem  = new _sem(256);
    80001370:	00050913          	mv	s2,a0
    80001374:	00048513          	mv	a0,s1
    80001378:	00001097          	auipc	ra,0x1
    8000137c:	3d4080e7          	jalr	980(ra) # 8000274c <_ZdlPv>
    80001380:	00090513          	mv	a0,s2
    80001384:	0000b097          	auipc	ra,0xb
    80001388:	624080e7          	jalr	1572(ra) # 8000c9a8 <_Unwind_Resume>

000000008000138c <_ZN8_console4getcEv>:



char _console::getc() {
    8000138c:	ff010113          	addi	sp,sp,-16
    80001390:	00113423          	sd	ra,8(sp)
    80001394:	00813023          	sd	s0,0(sp)
    80001398:	01010413          	addi	s0,sp,16
    ensureInit();
    8000139c:	00000097          	auipc	ra,0x0
    800013a0:	eac080e7          	jalr	-340(ra) # 80001248 <_ZN8_console10ensureInitEv>

    return inbuff->get();
    800013a4:	0000a517          	auipc	a0,0xa
    800013a8:	47c53503          	ld	a0,1148(a0) # 8000b820 <_ZN8_console6inbuffE>
    800013ac:	00000097          	auipc	ra,0x0
    800013b0:	e08080e7          	jalr	-504(ra) # 800011b4 <_ZN7kBuffer3getEv>
}
    800013b4:	00813083          	ld	ra,8(sp)
    800013b8:	00013403          	ld	s0,0(sp)
    800013bc:	01010113          	addi	sp,sp,16
    800013c0:	00008067          	ret

00000000800013c4 <_ZN8_console4putcEc>:

void _console::putc(char c) {
    800013c4:	fe010113          	addi	sp,sp,-32
    800013c8:	00113c23          	sd	ra,24(sp)
    800013cc:	00813823          	sd	s0,16(sp)
    800013d0:	00913423          	sd	s1,8(sp)
    800013d4:	02010413          	addi	s0,sp,32
    800013d8:	00050493          	mv	s1,a0
    ensureInit();
    800013dc:	00000097          	auipc	ra,0x0
    800013e0:	e6c080e7          	jalr	-404(ra) # 80001248 <_ZN8_console10ensureInitEv>
    outbuff->put(c);
    800013e4:	00048593          	mv	a1,s1
    800013e8:	0000a517          	auipc	a0,0xa
    800013ec:	43053503          	ld	a0,1072(a0) # 8000b818 <_ZN8_console7outbuffE>
    800013f0:	00000097          	auipc	ra,0x0
    800013f4:	d78080e7          	jalr	-648(ra) # 80001168 <_ZN7kBuffer3putEc>

    	while ((*((volatile uint8*)CONSOLE_STATUS) & 0x01) && !_console::getInBuff()->isFull()) {
    800013f8:	00008497          	auipc	s1,0x8
    800013fc:	c184b483          	ld	s1,-1000(s1) # 80009010 <CONSOLE_STATUS>
    80001400:	0004c783          	lbu	a5,0(s1)
    80001404:	0017f793          	andi	a5,a5,1
    80001408:	06078463          	beqz	a5,80001470 <_ZN8_console4putcEc+0xac>
    static char getc();
    static void putc(char c);

    static kBuffer *getInBuff()
    {
        ensureInit();
    8000140c:	00000097          	auipc	ra,0x0
    80001410:	e3c080e7          	jalr	-452(ra) # 80001248 <_ZN8_console10ensureInitEv>
    80001414:	0000a517          	auipc	a0,0xa
    80001418:	40c53503          	ld	a0,1036(a0) # 8000b820 <_ZN8_console6inbuffE>
    8000141c:	00000097          	auipc	ra,0x0
    80001420:	de8080e7          	jalr	-536(ra) # 80001204 <_ZN7kBuffer6isFullEv>
    80001424:	04051663          	bnez	a0,80001470 <_ZN8_console4putcEc+0xac>
    		char c = *((volatile uint8*)CONSOLE_RX_DATA);
    80001428:	00008797          	auipc	a5,0x8
    8000142c:	bd87b783          	ld	a5,-1064(a5) # 80009000 <CONSOLE_RX_DATA>
    80001430:	0007c483          	lbu	s1,0(a5)
    80001434:	0ff4f493          	andi	s1,s1,255
    80001438:	00000097          	auipc	ra,0x0
    8000143c:	e10080e7          	jalr	-496(ra) # 80001248 <_ZN8_console10ensureInitEv>
    		_console::getInBuff()->put(c);
    80001440:	00048593          	mv	a1,s1
    80001444:	0000a517          	auipc	a0,0xa
    80001448:	3dc53503          	ld	a0,988(a0) # 8000b820 <_ZN8_console6inbuffE>
    8000144c:	00000097          	auipc	ra,0x0
    80001450:	d1c080e7          	jalr	-740(ra) # 80001168 <_ZN7kBuffer3putEc>
        ensureInit();
        return outbuff;
    }
    static _sem *getInSem()
    {
        ensureInit();
    80001454:	00000097          	auipc	ra,0x0
    80001458:	df4080e7          	jalr	-524(ra) # 80001248 <_ZN8_console10ensureInitEv>
    		_console::getInSem()->signal();
    8000145c:	0000a517          	auipc	a0,0xa
    80001460:	3b453503          	ld	a0,948(a0) # 8000b810 <_ZN8_console5inSemE>
    80001464:	00001097          	auipc	ra,0x1
    80001468:	e4c080e7          	jalr	-436(ra) # 800022b0 <_ZN4_sem6signalEv>
    	while ((*((volatile uint8*)CONSOLE_STATUS) & 0x01) && !_console::getInBuff()->isFull()) {
    8000146c:	f8dff06f          	j	800013f8 <_ZN8_console4putcEc+0x34>
    	}

    	
    	while ((*((volatile uint8*)CONSOLE_STATUS) & 0x20) && !_console::getOutBuff()->isEmpty()) {
    80001470:	0004c783          	lbu	a5,0(s1)
    80001474:	0207f793          	andi	a5,a5,32
    80001478:	06078063          	beqz	a5,800014d8 <_ZN8_console4putcEc+0x114>
        ensureInit();
    8000147c:	00000097          	auipc	ra,0x0
    80001480:	dcc080e7          	jalr	-564(ra) # 80001248 <_ZN8_console10ensureInitEv>
    80001484:	0000a517          	auipc	a0,0xa
    80001488:	39453503          	ld	a0,916(a0) # 8000b818 <_ZN8_console7outbuffE>
    8000148c:	00000097          	auipc	ra,0x0
    80001490:	d9c080e7          	jalr	-612(ra) # 80001228 <_ZN7kBuffer7isEmptyEv>
    80001494:	04051263          	bnez	a0,800014d8 <_ZN8_console4putcEc+0x114>
    80001498:	00000097          	auipc	ra,0x0
    8000149c:	db0080e7          	jalr	-592(ra) # 80001248 <_ZN8_console10ensureInitEv>
    		char c = _console::getOutBuff()->get();
    800014a0:	0000a517          	auipc	a0,0xa
    800014a4:	37853503          	ld	a0,888(a0) # 8000b818 <_ZN8_console7outbuffE>
    800014a8:	00000097          	auipc	ra,0x0
    800014ac:	d0c080e7          	jalr	-756(ra) # 800011b4 <_ZN7kBuffer3getEv>
    		*((volatile uint8*)CONSOLE_TX_DATA) = (uint8)c;
    800014b0:	00008797          	auipc	a5,0x8
    800014b4:	b587b783          	ld	a5,-1192(a5) # 80009008 <CONSOLE_TX_DATA>
    800014b8:	00a78023          	sb	a0,0(a5)
        return inSem;
    }
    static _sem *getOutSem()
    {
        ensureInit();
    800014bc:	00000097          	auipc	ra,0x0
    800014c0:	d8c080e7          	jalr	-628(ra) # 80001248 <_ZN8_console10ensureInitEv>
    		_console::getOutSem()->signal();
    800014c4:	0000a517          	auipc	a0,0xa
    800014c8:	34453503          	ld	a0,836(a0) # 8000b808 <_ZN8_console6outSemE>
    800014cc:	00001097          	auipc	ra,0x1
    800014d0:	de4080e7          	jalr	-540(ra) # 800022b0 <_ZN4_sem6signalEv>
    	while ((*((volatile uint8*)CONSOLE_STATUS) & 0x20) && !_console::getOutBuff()->isEmpty()) {
    800014d4:	f9dff06f          	j	80001470 <_ZN8_console4putcEc+0xac>
    	}
    	
    800014d8:	01813083          	ld	ra,24(sp)
    800014dc:	01013403          	ld	s0,16(sp)
    800014e0:	00813483          	ld	s1,8(sp)
    800014e4:	02010113          	addi	sp,sp,32
    800014e8:	00008067          	ret

00000000800014ec <_Z11testwrapperPv>:
#include "../h/Thread.h"

sem_t mainsem;
extern void userMain();
void testwrapper(void *)
{
    800014ec:	ff010113          	addi	sp,sp,-16
    800014f0:	00113423          	sd	ra,8(sp)
    800014f4:	00813023          	sd	s0,0(sp)
    800014f8:	01010413          	addi	s0,sp,16
    userMain();
    800014fc:	00005097          	auipc	ra,0x5
    80001500:	e2c080e7          	jalr	-468(ra) # 80006328 <_Z8userMainv>
    sem_signal(mainsem);
    80001504:	0000a517          	auipc	a0,0xa
    80001508:	32453503          	ld	a0,804(a0) # 8000b828 <mainsem>
    8000150c:	00001097          	auipc	ra,0x1
    80001510:	fdc080e7          	jalr	-36(ra) # 800024e8 <_Z10sem_signalP4_sem>
}
    80001514:	00813083          	ld	ra,8(sp)
    80001518:	00013403          	ld	s0,0(sp)
    8000151c:	01010113          	addi	sp,sp,16
    80001520:	00008067          	ret

0000000080001524 <_Z5idlefPv>:
void idlef(void *)
{
    80001524:	ff010113          	addi	sp,sp,-16
    80001528:	00113423          	sd	ra,8(sp)
    8000152c:	00813023          	sd	s0,0(sp)
    80001530:	01010413          	addi	s0,sp,16
    while (1)
        thread_dispatch();
    80001534:	00001097          	auipc	ra,0x1
    80001538:	ea8080e7          	jalr	-344(ra) # 800023dc <_Z15thread_dispatchv>
    while (1)
    8000153c:	ff9ff06f          	j	80001534 <_Z5idlefPv+0x10>

0000000080001540 <main>:
}

int main()
{
    80001540:	fd010113          	addi	sp,sp,-48
    80001544:	02113423          	sd	ra,40(sp)
    80001548:	02813023          	sd	s0,32(sp)
    8000154c:	03010413          	addi	s0,sp,48

    Riscv::w_stvec((uint64)&Riscv::supervisorTrap);
    80001550:	00000797          	auipc	a5,0x0
    80001554:	ab078793          	addi	a5,a5,-1360 # 80001000 <_ZN5Riscv14supervisorTrapEv>
    return stvec;
}

inline void Riscv::w_stvec(uint64 stvec)
{
    __asm__ volatile("csrw stvec, %[stvec]" : : [stvec] "r"(stvec));
    80001558:	10579073          	csrw	stvec,a5

    // Registruj main nit
    thread_t mainHandle;
    thread_create(&mainHandle, nullptr, nullptr);
    8000155c:	00000613          	li	a2,0
    80001560:	00000593          	li	a1,0
    80001564:	fe840513          	addi	a0,s0,-24
    80001568:	00001097          	auipc	ra,0x1
    8000156c:	de8080e7          	jalr	-536(ra) # 80002350 <_Z13thread_createPP7_threadPFvPvES2_>
    _thread::running = (_thread *)mainHandle;
    80001570:	fe843783          	ld	a5,-24(s0)
    80001574:	0000a717          	auipc	a4,0xa
    80001578:	2ef73223          	sd	a5,740(a4) # 8000b858 <_ZN7_thread7runningE>

    // Kreiraj idle nit
    thread_t idleHandle;
    thread_create(&idleHandle, idlef, nullptr);
    8000157c:	00000613          	li	a2,0
    80001580:	00000597          	auipc	a1,0x0
    80001584:	fa458593          	addi	a1,a1,-92 # 80001524 <_Z5idlefPv>
    80001588:	fe040513          	addi	a0,s0,-32
    8000158c:	00001097          	auipc	ra,0x1
    80001590:	dc4080e7          	jalr	-572(ra) # 80002350 <_Z13thread_createPP7_threadPFvPvES2_>

    sem_open(&mainsem, 0);
    80001594:	00000593          	li	a1,0
    80001598:	0000a517          	auipc	a0,0xa
    8000159c:	29050513          	addi	a0,a0,656 # 8000b828 <mainsem>
    800015a0:	00001097          	auipc	ra,0x1
    800015a4:	e94080e7          	jalr	-364(ra) # 80002434 <_Z8sem_openPP4_semj>

    thread_t testthread;
    thread_create(&testthread, testwrapper, nullptr);
    800015a8:	00000613          	li	a2,0
    800015ac:	00000597          	auipc	a1,0x0
    800015b0:	f4058593          	addi	a1,a1,-192 # 800014ec <_Z11testwrapperPv>
    800015b4:	fd840513          	addi	a0,s0,-40
    800015b8:	00001097          	auipc	ra,0x1
    800015bc:	d98080e7          	jalr	-616(ra) # 80002350 <_Z13thread_createPP7_threadPFvPvES2_>

    sem_wait(mainsem);
    800015c0:	0000a517          	auipc	a0,0xa
    800015c4:	26853503          	ld	a0,616(a0) # 8000b828 <mainsem>
    800015c8:	00001097          	auipc	ra,0x1
    800015cc:	ee8080e7          	jalr	-280(ra) # 800024b0 <_Z8sem_waitP4_sem>

    return 0;
    800015d0:	00000513          	li	a0,0
    800015d4:	02813083          	ld	ra,40(sp)
    800015d8:	02013403          	ld	s0,32(sp)
    800015dc:	03010113          	addi	sp,sp,48
    800015e0:	00008067          	ret

00000000800015e4 <_ZN15MemoryAllocator4initEv>:

    return address;
}

void MemoryAllocator::init()
{
    800015e4:	ff010113          	addi	sp,sp,-16
    800015e8:	00813423          	sd	s0,8(sp)
    800015ec:	01010413          	addi	s0,sp,16
    size_t start = (size_t)HEAP_START_ADDR;
    800015f0:	0000a797          	auipc	a5,0xa
    800015f4:	df07b783          	ld	a5,-528(a5) # 8000b3e0 <HEAP_START_ADDR>
    size_t end = (size_t)HEAP_END_ADDR;
    800015f8:	0000a717          	auipc	a4,0xa
    800015fc:	de073703          	ld	a4,-544(a4) # 8000b3d8 <HEAP_END_ADDR>

    start = start % MEM_BLOCK_SIZE == 0 ? start : (start - start % MEM_BLOCK_SIZE) + MEM_BLOCK_SIZE;
    80001600:	03f7f693          	andi	a3,a5,63
    80001604:	00068663          	beqz	a3,80001610 <_ZN15MemoryAllocator4initEv+0x2c>
    80001608:	fc07f793          	andi	a5,a5,-64
    8000160c:	04078793          	addi	a5,a5,64
    end = end % MEM_BLOCK_SIZE == 0 ? end : (end - end % MEM_BLOCK_SIZE);
    80001610:	03f77693          	andi	a3,a4,63
    80001614:	00068463          	beqz	a3,8000161c <_ZN15MemoryAllocator4initEv+0x38>
    80001618:	fc077713          	andi	a4,a4,-64

    head = (segmentHeader *)start;
    8000161c:	0000a697          	auipc	a3,0xa
    80001620:	20f6ba23          	sd	a5,532(a3) # 8000b830 <_ZN15MemoryAllocator4headE>
    head->size = end - start - MEM_BLOCK_SIZE;
    80001624:	40f70733          	sub	a4,a4,a5
    80001628:	fc070713          	addi	a4,a4,-64
    8000162c:	00e7b423          	sd	a4,8(a5)
    head->next = nullptr;
    80001630:	0007b023          	sd	zero,0(a5)
}
    80001634:	00813403          	ld	s0,8(sp)
    80001638:	01010113          	addi	sp,sp,16
    8000163c:	00008067          	ret

0000000080001640 <_ZN15MemoryAllocator7kmallocEm>:
{ // argument is in bytes
    80001640:	fe010113          	addi	sp,sp,-32
    80001644:	00113c23          	sd	ra,24(sp)
    80001648:	00813823          	sd	s0,16(sp)
    8000164c:	00913423          	sd	s1,8(sp)
    80001650:	02010413          	addi	s0,sp,32
    80001654:	00050493          	mv	s1,a0
    if (!isinit)
    80001658:	0000a797          	auipc	a5,0xa
    8000165c:	1e07c783          	lbu	a5,480(a5) # 8000b838 <_ZN15MemoryAllocator6isinitE>
    80001660:	00078e63          	beqz	a5,8000167c <_ZN15MemoryAllocator7kmallocEm+0x3c>
    size_t bytes_needed = (size_t)((size + MEM_BLOCK_SIZE - 1) / MEM_BLOCK_SIZE) * MEM_BLOCK_SIZE;
    80001664:	03f48713          	addi	a4,s1,63
    80001668:	fc077713          	andi	a4,a4,-64
    segmentHeader *curr = head;
    8000166c:	0000a797          	auipc	a5,0xa
    80001670:	1c47b783          	ld	a5,452(a5) # 8000b830 <_ZN15MemoryAllocator4headE>
    segmentHeader *prev = nullptr;
    80001674:	00000613          	li	a2,0
    80001678:	0240006f          	j	8000169c <_ZN15MemoryAllocator7kmallocEm+0x5c>
        isinit = true;
    8000167c:	00100793          	li	a5,1
    80001680:	0000a717          	auipc	a4,0xa
    80001684:	1af70c23          	sb	a5,440(a4) # 8000b838 <_ZN15MemoryAllocator6isinitE>
        init();
    80001688:	00000097          	auipc	ra,0x0
    8000168c:	f5c080e7          	jalr	-164(ra) # 800015e4 <_ZN15MemoryAllocator4initEv>
    80001690:	fd5ff06f          	j	80001664 <_ZN15MemoryAllocator7kmallocEm+0x24>
        prev = curr;
    80001694:	00078613          	mv	a2,a5
    for (; curr; curr = curr->next)
    80001698:	0007b783          	ld	a5,0(a5)
    8000169c:	00078a63          	beqz	a5,800016b0 <_ZN15MemoryAllocator7kmallocEm+0x70>
        if (curr->size >= bytes_needed)
    800016a0:	0087b683          	ld	a3,8(a5)
    800016a4:	fee6e8e3          	bltu	a3,a4,80001694 <_ZN15MemoryAllocator7kmallocEm+0x54>
            address = (void *)((size_t)curr + MEM_BLOCK_SIZE);
    800016a8:	04078513          	addi	a0,a5,64
            break;
    800016ac:	0080006f          	j	800016b4 <_ZN15MemoryAllocator7kmallocEm+0x74>
    void *address = nullptr;
    800016b0:	00078513          	mv	a0,a5
    if (!curr)
    800016b4:	06078063          	beqz	a5,80001714 <_ZN15MemoryAllocator7kmallocEm+0xd4>
    size_t remaining_bytes = curr->size - bytes_needed;
    800016b8:	0087b683          	ld	a3,8(a5)
    800016bc:	40e686b3          	sub	a3,a3,a4
    if (remaining_bytes >= 2 * MEM_BLOCK_SIZE)
    800016c0:	07f00593          	li	a1,127
    800016c4:	02d5fe63          	bgeu	a1,a3,80001700 <_ZN15MemoryAllocator7kmallocEm+0xc0>
        next_free_node = (segmentHeader *)((char *)curr + bytes_needed + MEM_BLOCK_SIZE);
    800016c8:	04070593          	addi	a1,a4,64
    800016cc:	00b785b3          	add	a1,a5,a1
        next_free_node->next = curr->next;
    800016d0:	0007b803          	ld	a6,0(a5)
    800016d4:	0105b023          	sd	a6,0(a1)
        next_free_node->size = remaining_bytes - MEM_BLOCK_SIZE;
    800016d8:	fc068693          	addi	a3,a3,-64
    800016dc:	00d5b423          	sd	a3,8(a1)
        curr->size = bytes_needed;
    800016e0:	00e7b423          	sd	a4,8(a5)
    if (prev)
    800016e4:	02060263          	beqz	a2,80001708 <_ZN15MemoryAllocator7kmallocEm+0xc8>
        prev->next = next_free_node;
    800016e8:	00b63023          	sd	a1,0(a2)
}
    800016ec:	01813083          	ld	ra,24(sp)
    800016f0:	01013403          	ld	s0,16(sp)
    800016f4:	00813483          	ld	s1,8(sp)
    800016f8:	02010113          	addi	sp,sp,32
    800016fc:	00008067          	ret
        next_free_node = curr->next;
    80001700:	0007b583          	ld	a1,0(a5)
    80001704:	fe1ff06f          	j	800016e4 <_ZN15MemoryAllocator7kmallocEm+0xa4>
        head = next_free_node;
    80001708:	0000a797          	auipc	a5,0xa
    8000170c:	12b7b423          	sd	a1,296(a5) # 8000b830 <_ZN15MemoryAllocator4headE>
    80001710:	fddff06f          	j	800016ec <_ZN15MemoryAllocator7kmallocEm+0xac>
        return nullptr;
    80001714:	00078513          	mv	a0,a5
    80001718:	fd5ff06f          	j	800016ec <_ZN15MemoryAllocator7kmallocEm+0xac>

000000008000171c <_ZN15MemoryAllocator8tryMergeEPNS_13segmentHeaderE>:

void MemoryAllocator::tryMerge(segmentHeader *block)
{
    8000171c:	ff010113          	addi	sp,sp,-16
    80001720:	00813423          	sd	s0,8(sp)
    80001724:	01010413          	addi	s0,sp,16
    if (!block)
    80001728:	00050e63          	beqz	a0,80001744 <_ZN15MemoryAllocator8tryMergeEPNS_13segmentHeaderE+0x28>
        return;

    segmentHeader *next_seg = block->next;
    8000172c:	00053783          	ld	a5,0(a0)

    if (!next_seg)
    80001730:	00078a63          	beqz	a5,80001744 <_ZN15MemoryAllocator8tryMergeEPNS_13segmentHeaderE+0x28>
        return;

    if ((char *)block + MEM_BLOCK_SIZE + block->size == (char *)next_seg)
    80001734:	00853683          	ld	a3,8(a0)
    80001738:	04068713          	addi	a4,a3,64
    8000173c:	00e50733          	add	a4,a0,a4
    80001740:	00f70863          	beq	a4,a5,80001750 <_ZN15MemoryAllocator8tryMergeEPNS_13segmentHeaderE+0x34>
    {
        block->next = next_seg->next;
        block->size += next_seg->size + MEM_BLOCK_SIZE;
    }
}
    80001744:	00813403          	ld	s0,8(sp)
    80001748:	01010113          	addi	sp,sp,16
    8000174c:	00008067          	ret
        block->next = next_seg->next;
    80001750:	0007b703          	ld	a4,0(a5)
    80001754:	00e53023          	sd	a4,0(a0)
        block->size += next_seg->size + MEM_BLOCK_SIZE;
    80001758:	0087b783          	ld	a5,8(a5)
    8000175c:	00f686b3          	add	a3,a3,a5
    80001760:	04068693          	addi	a3,a3,64
    80001764:	00d53423          	sd	a3,8(a0)
    80001768:	fddff06f          	j	80001744 <_ZN15MemoryAllocator8tryMergeEPNS_13segmentHeaderE+0x28>

000000008000176c <_ZN15MemoryAllocator5kfreeEPv>:
{
    8000176c:	fe010113          	addi	sp,sp,-32
    80001770:	00113c23          	sd	ra,24(sp)
    80001774:	00813823          	sd	s0,16(sp)
    80001778:	00913423          	sd	s1,8(sp)
    8000177c:	01213023          	sd	s2,0(sp)
    80001780:	02010413          	addi	s0,sp,32
    80001784:	00050913          	mv	s2,a0
    if (!isinit)
    80001788:	0000a797          	auipc	a5,0xa
    8000178c:	0b07c783          	lbu	a5,176(a5) # 8000b838 <_ZN15MemoryAllocator6isinitE>
    80001790:	04078663          	beqz	a5,800017dc <_ZN15MemoryAllocator5kfreeEPv+0x70>
    if (!addr)
    80001794:	0a090863          	beqz	s2,80001844 <_ZN15MemoryAllocator5kfreeEPv+0xd8>
    segmentHeader *newFree = (segmentHeader *)((char *)addr - MEM_BLOCK_SIZE);
    80001798:	fc090513          	addi	a0,s2,-64
    if ((size_t)newFree < (size_t)HEAP_START_ADDR || (size_t)newFree >= (size_t)HEAP_END_ADDR)
    8000179c:	0000a797          	auipc	a5,0xa
    800017a0:	c447b783          	ld	a5,-956(a5) # 8000b3e0 <HEAP_START_ADDR>
    800017a4:	0af56463          	bltu	a0,a5,8000184c <_ZN15MemoryAllocator5kfreeEPv+0xe0>
    800017a8:	0000a797          	auipc	a5,0xa
    800017ac:	c307b783          	ld	a5,-976(a5) # 8000b3d8 <HEAP_END_ADDR>
    800017b0:	0af57263          	bgeu	a0,a5,80001854 <_ZN15MemoryAllocator5kfreeEPv+0xe8>
    segmentHeader *curr = head;
    800017b4:	0000a717          	auipc	a4,0xa
    800017b8:	07c73703          	ld	a4,124(a4) # 8000b830 <_ZN15MemoryAllocator4headE>
    800017bc:	00070793          	mv	a5,a4
    segmentHeader *prev = nullptr;
    800017c0:	00000493          	li	s1,0
    while (curr)
    800017c4:	02078863          	beqz	a5,800017f4 <_ZN15MemoryAllocator5kfreeEPv+0x88>
        if (curr == newFree)
    800017c8:	08a78a63          	beq	a5,a0,8000185c <_ZN15MemoryAllocator5kfreeEPv+0xf0>
        if (curr > newFree)
    800017cc:	02f56463          	bltu	a0,a5,800017f4 <_ZN15MemoryAllocator5kfreeEPv+0x88>
        prev = curr;
    800017d0:	00078493          	mv	s1,a5
        curr = curr->next;
    800017d4:	0007b783          	ld	a5,0(a5)
    while (curr)
    800017d8:	fedff06f          	j	800017c4 <_ZN15MemoryAllocator5kfreeEPv+0x58>
        isinit = true;
    800017dc:	00100793          	li	a5,1
    800017e0:	0000a717          	auipc	a4,0xa
    800017e4:	04f70c23          	sb	a5,88(a4) # 8000b838 <_ZN15MemoryAllocator6isinitE>
        init();
    800017e8:	00000097          	auipc	ra,0x0
    800017ec:	dfc080e7          	jalr	-516(ra) # 800015e4 <_ZN15MemoryAllocator4initEv>
    800017f0:	fa5ff06f          	j	80001794 <_ZN15MemoryAllocator5kfreeEPv+0x28>
    if (prev)
    800017f4:	04048063          	beqz	s1,80001834 <_ZN15MemoryAllocator5kfreeEPv+0xc8>
        newFree->next = prev->next;
    800017f8:	0004b783          	ld	a5,0(s1)
    800017fc:	fcf93023          	sd	a5,-64(s2)
        prev->next = newFree;
    80001800:	00a4b023          	sd	a0,0(s1)
    tryMerge(newFree);
    80001804:	00000097          	auipc	ra,0x0
    80001808:	f18080e7          	jalr	-232(ra) # 8000171c <_ZN15MemoryAllocator8tryMergeEPNS_13segmentHeaderE>
    tryMerge(prev);
    8000180c:	00048513          	mv	a0,s1
    80001810:	00000097          	auipc	ra,0x0
    80001814:	f0c080e7          	jalr	-244(ra) # 8000171c <_ZN15MemoryAllocator8tryMergeEPNS_13segmentHeaderE>
    return 0;
    80001818:	00000513          	li	a0,0
}
    8000181c:	01813083          	ld	ra,24(sp)
    80001820:	01013403          	ld	s0,16(sp)
    80001824:	00813483          	ld	s1,8(sp)
    80001828:	00013903          	ld	s2,0(sp)
    8000182c:	02010113          	addi	sp,sp,32
    80001830:	00008067          	ret
        newFree->next = head;
    80001834:	fce93023          	sd	a4,-64(s2)
        head = newFree;
    80001838:	0000a797          	auipc	a5,0xa
    8000183c:	fea7bc23          	sd	a0,-8(a5) # 8000b830 <_ZN15MemoryAllocator4headE>
    80001840:	fc5ff06f          	j	80001804 <_ZN15MemoryAllocator5kfreeEPv+0x98>
        return -1;
    80001844:	fff00513          	li	a0,-1
    80001848:	fd5ff06f          	j	8000181c <_ZN15MemoryAllocator5kfreeEPv+0xb0>
        return -1;
    8000184c:	fff00513          	li	a0,-1
    80001850:	fcdff06f          	j	8000181c <_ZN15MemoryAllocator5kfreeEPv+0xb0>
    80001854:	fff00513          	li	a0,-1
    80001858:	fc5ff06f          	j	8000181c <_ZN15MemoryAllocator5kfreeEPv+0xb0>
            return -1;
    8000185c:	fff00513          	li	a0,-1
    80001860:	fbdff06f          	j	8000181c <_ZN15MemoryAllocator5kfreeEPv+0xb0>

0000000080001864 <_Z12_printStringPKc>:
#include "../h/print.hpp"
#include "../h/Console.h"

#include "../lib/hw.h"
void _printString(const char *string)
{
    80001864:	fe010113          	addi	sp,sp,-32
    80001868:	00113c23          	sd	ra,24(sp)
    8000186c:	00813823          	sd	s0,16(sp)
    80001870:	00913423          	sd	s1,8(sp)
    80001874:	02010413          	addi	s0,sp,32
    80001878:	00050493          	mv	s1,a0
    8000187c:	0100006f          	j	8000188c <_Z12_printStringPKc+0x28>
    while (*string != '\0')
    {
        _console::putc(*string);
    80001880:	00000097          	auipc	ra,0x0
    80001884:	b44080e7          	jalr	-1212(ra) # 800013c4 <_ZN8_console4putcEc>
        string++;
    80001888:	00148493          	addi	s1,s1,1
    while (*string != '\0')
    8000188c:	0004c503          	lbu	a0,0(s1)
    80001890:	fe0518e3          	bnez	a0,80001880 <_Z12_printStringPKc+0x1c>
    }
}
    80001894:	01813083          	ld	ra,24(sp)
    80001898:	01013403          	ld	s0,16(sp)
    8000189c:	00813483          	ld	s1,8(sp)
    800018a0:	02010113          	addi	sp,sp,32
    800018a4:	00008067          	ret

00000000800018a8 <_Z13_printIntegermmb>:

void _printInteger(uint64 integer, uint64 base, bool sign)
{
    800018a8:	fd010113          	addi	sp,sp,-48
    800018ac:	02113423          	sd	ra,40(sp)
    800018b0:	02813023          	sd	s0,32(sp)
    800018b4:	00913c23          	sd	s1,24(sp)
    800018b8:	03010413          	addi	s0,sp,48
    if (base < 2 || base > 16){
    800018bc:	ffe58713          	addi	a4,a1,-2
    800018c0:	00e00793          	li	a5,14
    800018c4:	00e7ea63          	bltu	a5,a4,800018d8 <_Z13_printIntegermmb+0x30>
    char buf[16];
    int i, neg;
    uint64 x;

    neg = 0;
    if (sign && (long long)integer < 0)
    800018c8:	02060863          	beqz	a2,800018f8 <_Z13_printIntegermmb+0x50>
    800018cc:	02054063          	bltz	a0,800018ec <_Z13_printIntegermmb+0x44>
    neg = 0;
    800018d0:	00000613          	li	a2,0
    800018d4:	0280006f          	j	800018fc <_Z13_printIntegermmb+0x54>
        _printString("Error in printInteger: base not supported\n");
    800018d8:	00007517          	auipc	a0,0x7
    800018dc:	74850513          	addi	a0,a0,1864 # 80009020 <CONSOLE_STATUS+0x10>
    800018e0:	00000097          	auipc	ra,0x0
    800018e4:	f84080e7          	jalr	-124(ra) # 80001864 <_Z12_printStringPKc>
        return;
    800018e8:	0840006f          	j	8000196c <_Z13_printIntegermmb+0xc4>
    {
        neg = 1;
        x = -(long long)integer;
    800018ec:	40a00533          	neg	a0,a0
        neg = 1;
    800018f0:	00100613          	li	a2,1
        x = -(long long)integer;
    800018f4:	0080006f          	j	800018fc <_Z13_printIntegermmb+0x54>
    neg = 0;
    800018f8:	00000613          	li	a2,0
    } else
    {
        x = integer;
    }

    i = 0;
    800018fc:	00000493          	li	s1,0
    do
    {
        buf[i++] = digits[x % base];
    80001900:	02b576b3          	remu	a3,a0,a1
    80001904:	00048713          	mv	a4,s1
    80001908:	0014849b          	addiw	s1,s1,1
    8000190c:	00007797          	auipc	a5,0x7
    80001910:	74478793          	addi	a5,a5,1860 # 80009050 <_ZZ13_printIntegermmbE6digits>
    80001914:	00d787b3          	add	a5,a5,a3
    80001918:	0007c683          	lbu	a3,0(a5)
    8000191c:	fe040793          	addi	a5,s0,-32
    80001920:	00e787b3          	add	a5,a5,a4
    80001924:	fed78823          	sb	a3,-16(a5)
    } while ((x /= base) != 0);
    80001928:	00050793          	mv	a5,a0
    8000192c:	02b55533          	divu	a0,a0,a1
    80001930:	fcb7f8e3          	bgeu	a5,a1,80001900 <_Z13_printIntegermmb+0x58>
    if (neg)
    80001934:	02060863          	beqz	a2,80001964 <_Z13_printIntegermmb+0xbc>
        buf[i++] = '-';
    80001938:	fe040793          	addi	a5,s0,-32
    8000193c:	009784b3          	add	s1,a5,s1
    80001940:	02d00793          	li	a5,45
    80001944:	fef48823          	sb	a5,-16(s1)
    80001948:	0027049b          	addiw	s1,a4,2
    8000194c:	0180006f          	j	80001964 <_Z13_printIntegermmb+0xbc>

    while (--i >= 0) { _console::putc(buf[i]); }
    80001950:	fe040793          	addi	a5,s0,-32
    80001954:	009787b3          	add	a5,a5,s1
    80001958:	ff07c503          	lbu	a0,-16(a5)
    8000195c:	00000097          	auipc	ra,0x0
    80001960:	a68080e7          	jalr	-1432(ra) # 800013c4 <_ZN8_console4putcEc>
    80001964:	fff4849b          	addiw	s1,s1,-1
    80001968:	fe04d4e3          	bgez	s1,80001950 <_Z13_printIntegermmb+0xa8>
    8000196c:	02813083          	ld	ra,40(sp)
    80001970:	02013403          	ld	s0,32(sp)
    80001974:	01813483          	ld	s1,24(sp)
    80001978:	03010113          	addi	sp,sp,48
    8000197c:	00008067          	ret

0000000080001980 <_ZN5Riscv10popSppSpieEv>:
#include "../h/Thread.h"
#include "../h/Semaphore.h"
#include "../h/Console.h"
#include "../h/print.hpp"
void Riscv::popSppSpie()
{
    80001980:	ff010113          	addi	sp,sp,-16
    80001984:	00813423          	sd	s0,8(sp)
    80001988:	01010413          	addi	s0,sp,16
	__asm__ volatile("csrw sepc, ra");
    8000198c:	14109073          	csrw	sepc,ra
    __asm__ volatile("csrs sstatus, %[mask]" : : [mask] "r"(mask));
}

inline void Riscv::mc_sstatus(uint64 mask)
{
    __asm__ volatile("csrc sstatus, %[mask]" : : [mask] "r"(mask));
    80001990:	10000793          	li	a5,256
    80001994:	1007b073          	csrc	sstatus,a5
	Riscv::mc_sstatus(Riscv::SSTATUS_SPP);
	__asm__ volatile("sret");
    80001998:	10200073          	sret
}
    8000199c:	00813403          	ld	s0,8(sp)
    800019a0:	01010113          	addi	sp,sp,16
    800019a4:	00008067          	ret

00000000800019a8 <_ZN5Riscv20handleSupervisorTrapEmmmmmmmm>:
void Riscv::handleSupervisorTrap(uint64 a0, uint64 a1, uint64 a2, uint64 a3, uint64 a4, uint64 a5, uint64 a6, uint64 a7)
{
    800019a8:	f7010113          	addi	sp,sp,-144
    800019ac:	08113423          	sd	ra,136(sp)
    800019b0:	08813023          	sd	s0,128(sp)
    800019b4:	06913c23          	sd	s1,120(sp)
    800019b8:	07213823          	sd	s2,112(sp)
    800019bc:	07313423          	sd	s3,104(sp)
    800019c0:	09010413          	addi	s0,sp,144
    800019c4:	00058493          	mv	s1,a1
    800019c8:	00060913          	mv	s2,a2
    __asm__ volatile("csrr %[scause], scause" : [scause] "=r"(scause));
    800019cc:	142027f3          	csrr	a5,scause
    800019d0:	faf43423          	sd	a5,-88(s0)
    return scause;
    800019d4:	fa843603          	ld	a2,-88(s0)

	uint64 scause = r_scause();

	if (scause == 0x0000000000000008UL || scause == 0x0000000000000009UL)
    800019d8:	ff860593          	addi	a1,a2,-8
    800019dc:	00100793          	li	a5,1
    800019e0:	04b7fc63          	bgeu	a5,a1,80001a38 <_ZN5Riscv20handleSupervisorTrapEmmmmmmmm+0x90>
		}

		w_sstatus(sstatus);
		w_sepc(sepc);
	}
	else if (scause == 0x8000000000000009UL)
    800019e4:	fff00793          	li	a5,-1
    800019e8:	03f79793          	slli	a5,a5,0x3f
    800019ec:	00978793          	addi	a5,a5,9
    800019f0:	30f60063          	beq	a2,a5,80001cf0 <_ZN5Riscv20handleSupervisorTrapEmmmmmmmm+0x348>
			}
		}

		plic_complete(irq); // Obaveštavamo PLIC da je obrada završena
	}
	else if (scause == 0x8000000000000001UL)
    800019f4:	fff00793          	li	a5,-1
    800019f8:	03f79793          	slli	a5,a5,0x3f
    800019fc:	00178793          	addi	a5,a5,1
    80001a00:	4cf61263          	bne	a2,a5,80001ec4 <_ZN5Riscv20handleSupervisorTrapEmmmmmmmm+0x51c>
	{
		_thread::timeSliceCounter++;
    80001a04:	0000a717          	auipc	a4,0xa
    80001a08:	e4c70713          	addi	a4,a4,-436 # 8000b850 <_ZN7_thread16timeSliceCounterE>
    80001a0c:	00073783          	ld	a5,0(a4)
    80001a10:	00178793          	addi	a5,a5,1
    80001a14:	00f73023          	sd	a5,0(a4)
		if (_thread::sleepingHead)
    80001a18:	0000a797          	auipc	a5,0xa
    80001a1c:	e307b783          	ld	a5,-464(a5) # 8000b848 <_ZN7_thread12sleepingHeadE>
    80001a20:	42078e63          	beqz	a5,80001e5c <_ZN5Riscv20handleSupervisorTrapEmmmmmmmm+0x4b4>
		{
			if (_thread::sleepingHead->timeSleeping > 0)
    80001a24:	0507b703          	ld	a4,80(a5)
    80001a28:	3c070e63          	beqz	a4,80001e04 <_ZN5Riscv20handleSupervisorTrapEmmmmmmmm+0x45c>
			{
				_thread::sleepingHead->timeSleeping--;
    80001a2c:	fff70713          	addi	a4,a4,-1
    80001a30:	04e7b823          	sd	a4,80(a5)
    80001a34:	3d00006f          	j	80001e04 <_ZN5Riscv20handleSupervisorTrapEmmmmmmmm+0x45c>
    __asm__ volatile("csrr %[sepc], sepc" : [sepc] "=r"(sepc));
    80001a38:	141027f3          	csrr	a5,sepc
    80001a3c:	faf43c23          	sd	a5,-72(s0)
    return sepc;
    80001a40:	fb843783          	ld	a5,-72(s0)
		uint64 volatile sepc = r_sepc() + 4;
    80001a44:	00478793          	addi	a5,a5,4
    80001a48:	f6f43c23          	sd	a5,-136(s0)
}

inline uint64 Riscv::r_sstatus()
{
    uint64 volatile sstatus;
    __asm__ volatile("csrr %[sstatus], sstatus" : [sstatus] "=r"(sstatus));
    80001a4c:	100027f3          	csrr	a5,sstatus
    80001a50:	faf43823          	sd	a5,-80(s0)
    return sstatus;
    80001a54:	fb043783          	ld	a5,-80(s0)
		uint64 volatile sstatus = r_sstatus();
    80001a58:	f8f43023          	sd	a5,-128(s0)
		switch (call)
    80001a5c:	04200793          	li	a5,66
    80001a60:	02a7e863          	bltu	a5,a0,80001a90 <_ZN5Riscv20handleSupervisorTrapEmmmmmmmm+0xe8>
    80001a64:	00251513          	slli	a0,a0,0x2
    80001a68:	00007617          	auipc	a2,0x7
    80001a6c:	62c60613          	addi	a2,a2,1580 # 80009094 <_ZZ13_printIntegermmbE6digits+0x44>
    80001a70:	00c507b3          	add	a5,a0,a2
    80001a74:	0007a783          	lw	a5,0(a5)
    80001a78:	00c787b3          	add	a5,a5,a2
    80001a7c:	00078067          	jr	a5
			writeARegister(0, (uint64)MemoryAllocator::kmalloc(bytes));
    80001a80:	00649513          	slli	a0,s1,0x6
    80001a84:	00000097          	auipc	ra,0x0
    80001a88:	bbc080e7          	jalr	-1092(ra) # 80001640 <_ZN15MemoryAllocator7kmallocEm>
    return value;
}

inline void Riscv::writeARegister(int reg_number, uint64 value)
{
    __asm__ volatile("mv a%[reg], %[val]" ::[reg] "i"(reg_number), [val] "r"(value));
    80001a8c:	00050513          	mv	a0,a0
		w_sstatus(sstatus);
    80001a90:	f8043783          	ld	a5,-128(s0)
    __asm__ volatile("csrw sstatus, %[sstatus]" : : [sstatus] "r"(sstatus));
    80001a94:	10079073          	csrw	sstatus,a5
		w_sepc(sepc);
    80001a98:	f7843783          	ld	a5,-136(s0)
    __asm__ volatile("csrw sepc, %[sepc]" : : [sepc] "r"(sepc));
    80001a9c:	14179073          	csrw	sepc,a5
        _printInteger(r_scause());
        _printString("\n");

        while(1);
	}
}
    80001aa0:	08813083          	ld	ra,136(sp)
    80001aa4:	08013403          	ld	s0,128(sp)
    80001aa8:	07813483          	ld	s1,120(sp)
    80001aac:	07013903          	ld	s2,112(sp)
    80001ab0:	06813983          	ld	s3,104(sp)
    80001ab4:	09010113          	addi	sp,sp,144
    80001ab8:	00008067          	ret
			writeARegister(0, (uint64)MemoryAllocator::kfree((void *)a1));
    80001abc:	00048513          	mv	a0,s1
    80001ac0:	00000097          	auipc	ra,0x0
    80001ac4:	cac080e7          	jalr	-852(ra) # 8000176c <_ZN15MemoryAllocator5kfreeEPv>
    __asm__ volatile("mv a%[reg], %[val]" ::[reg] "i"(reg_number), [val] "r"(value));
    80001ac8:	00050513          	mv	a0,a0
}
    80001acc:	fc5ff06f          	j	80001a90 <_ZN5Riscv20handleSupervisorTrapEmmmmmmmm+0xe8>
			void *volatile arg = (void *)a3;
    80001ad0:	f8d43423          	sd	a3,-120(s0)
			void *volatile stack_space = (void *)a4;
    80001ad4:	f8e43823          	sd	a4,-112(s0)
			*handle = _thread::createThread(body, arg, stack_space);
    80001ad8:	f8843583          	ld	a1,-120(s0)
    80001adc:	f9043603          	ld	a2,-112(s0)
    80001ae0:	00090513          	mv	a0,s2
    80001ae4:	00001097          	auipc	ra,0x1
    80001ae8:	280080e7          	jalr	640(ra) # 80002d64 <_ZN7_thread12createThreadEPFvPvES0_S0_>
    80001aec:	00a4b023          	sd	a0,0(s1)
			if (*handle)
    80001af0:	04050863          	beqz	a0,80001b40 <_ZN5Riscv20handleSupervisorTrapEmmmmmmmm+0x198>
				if (body != nullptr)
    80001af4:	04090063          	beqz	s2,80001b34 <_ZN5Riscv20handleSupervisorTrapEmmmmmmmm+0x18c>
class Scheduler
{
public:
    static Scheduler &instance()
    {
        static Scheduler instance;
    80001af8:	0000a797          	auipc	a5,0xa
    80001afc:	d487c783          	lbu	a5,-696(a5) # 8000b840 <_ZGVZN9Scheduler8instanceEvE8instance>
    80001b00:	02079063          	bnez	a5,80001b20 <_ZN5Riscv20handleSupervisorTrapEmmmmmmmm+0x178>
    void put(_thread *t);

    _thread *get();

private:
    Scheduler() : head(nullptr), tail(nullptr) {};
    80001b04:	0000a797          	auipc	a5,0xa
    80001b08:	dcc78793          	addi	a5,a5,-564 # 8000b8d0 <_ZZN9Scheduler8instanceEvE8instance>
    80001b0c:	0007b023          	sd	zero,0(a5)
    80001b10:	0007b423          	sd	zero,8(a5)
        static Scheduler instance;
    80001b14:	00100793          	li	a5,1
    80001b18:	0000a717          	auipc	a4,0xa
    80001b1c:	d2f70423          	sb	a5,-728(a4) # 8000b840 <_ZGVZN9Scheduler8instanceEvE8instance>
					Scheduler::instance().put(*handle);
    80001b20:	0004b583          	ld	a1,0(s1)
    80001b24:	0000a517          	auipc	a0,0xa
    80001b28:	dac50513          	addi	a0,a0,-596 # 8000b8d0 <_ZZN9Scheduler8instanceEvE8instance>
    80001b2c:	00000097          	auipc	ra,0x0
    80001b30:	420080e7          	jalr	1056(ra) # 80001f4c <_ZN9Scheduler3putEP7_thread>
    __asm__ volatile("mv a%[reg], %[val]" ::[reg] "i"(reg_number), [val] "r"(value));
    80001b34:	00000793          	li	a5,0
    80001b38:	00078513          	mv	a0,a5
}
    80001b3c:	f55ff06f          	j	80001a90 <_ZN5Riscv20handleSupervisorTrapEmmmmmmmm+0xe8>
    __asm__ volatile("mv a%[reg], %[val]" ::[reg] "i"(reg_number), [val] "r"(value));
    80001b40:	fff00793          	li	a5,-1
    80001b44:	00078513          	mv	a0,a5
}
    80001b48:	f49ff06f          	j	80001a90 <_ZN5Riscv20handleSupervisorTrapEmmmmmmmm+0xe8>
			_thread::timeSliceCounter = 0;
    80001b4c:	0000a797          	auipc	a5,0xa
    80001b50:	d007b223          	sd	zero,-764(a5) # 8000b850 <_ZN7_thread16timeSliceCounterE>
			if (_thread::running)
    80001b54:	0000a797          	auipc	a5,0xa
    80001b58:	d047b783          	ld	a5,-764(a5) # 8000b858 <_ZN7_thread7runningE>
    80001b5c:	02078063          	beqz	a5,80001b7c <_ZN5Riscv20handleSupervisorTrapEmmmmmmmm+0x1d4>

	uint64 getTimeSlice() const
	{
		return timeSlice;
	}
	void setFinished(bool finished) { _thread::finished = finished; };
    80001b60:	00100713          	li	a4,1
    80001b64:	04e780a3          	sb	a4,65(a5)
    __asm__ volatile("mv a%[reg], %[val]" ::[reg] "i"(reg_number), [val] "r"(value));
    80001b68:	00000793          	li	a5,0
    80001b6c:	00078513          	mv	a0,a5
			_thread::dispatch();
    80001b70:	00001097          	auipc	ra,0x1
    80001b74:	01c080e7          	jalr	28(ra) # 80002b8c <_ZN7_thread8dispatchEv>
			break;
    80001b78:	f19ff06f          	j	80001a90 <_ZN5Riscv20handleSupervisorTrapEmmmmmmmm+0xe8>
    80001b7c:	fff00793          	li	a5,-1
    80001b80:	00078513          	mv	a0,a5
}
    80001b84:	fedff06f          	j	80001b70 <_ZN5Riscv20handleSupervisorTrapEmmmmmmmm+0x1c8>
			_thread::timeSliceCounter = 0;
    80001b88:	0000a797          	auipc	a5,0xa
    80001b8c:	cc07b423          	sd	zero,-824(a5) # 8000b850 <_ZN7_thread16timeSliceCounterE>
			_thread::dispatch();
    80001b90:	00001097          	auipc	ra,0x1
    80001b94:	ffc080e7          	jalr	-4(ra) # 80002b8c <_ZN7_thread8dispatchEv>
			break;
    80001b98:	ef9ff06f          	j	80001a90 <_ZN5Riscv20handleSupervisorTrapEmmmmmmmm+0xe8>

class _sem {
public:

    void* operator new(size_t size){
        void* ptr = MemoryAllocator::kmalloc(size);
    80001b9c:	02000513          	li	a0,32
    80001ba0:	00000097          	auipc	ra,0x0
    80001ba4:	aa0080e7          	jalr	-1376(ra) # 80001640 <_ZN15MemoryAllocator7kmallocEm>
    80001ba8:	00050993          	mv	s3,a0
			*handle = new _sem(a2);
    80001bac:	0009059b          	sext.w	a1,s2
    80001bb0:	00000097          	auipc	ra,0x0
    80001bb4:	414080e7          	jalr	1044(ra) # 80001fc4 <_ZN4_semC1Ei>
    80001bb8:	0134b023          	sd	s3,0(s1)
			if (*handle)
    80001bbc:	00098863          	beqz	s3,80001bcc <_ZN5Riscv20handleSupervisorTrapEmmmmmmmm+0x224>
    __asm__ volatile("mv a%[reg], %[val]" ::[reg] "i"(reg_number), [val] "r"(value));
    80001bc0:	00000793          	li	a5,0
    80001bc4:	00078513          	mv	a0,a5
}
    80001bc8:	ec9ff06f          	j	80001a90 <_ZN5Riscv20handleSupervisorTrapEmmmmmmmm+0xe8>
    __asm__ volatile("mv a%[reg], %[val]" ::[reg] "i"(reg_number), [val] "r"(value));
    80001bcc:	fff00793          	li	a5,-1
    80001bd0:	00078513          	mv	a0,a5
}
    80001bd4:	ebdff06f          	j	80001a90 <_ZN5Riscv20handleSupervisorTrapEmmmmmmmm+0xe8>
			if (s == nullptr)
    80001bd8:	00049863          	bnez	s1,80001be8 <_ZN5Riscv20handleSupervisorTrapEmmmmmmmm+0x240>
    __asm__ volatile("mv a%[reg], %[val]" ::[reg] "i"(reg_number), [val] "r"(value));
    80001bdc:	fff00793          	li	a5,-1
    80001be0:	00078513          	mv	a0,a5
}
    80001be4:	eadff06f          	j	80001a90 <_ZN5Riscv20handleSupervisorTrapEmmmmmmmm+0xe8>
				writeARegister(0, s->close());
    80001be8:	00048513          	mv	a0,s1
    80001bec:	00000097          	auipc	ra,0x0
    80001bf0:	478080e7          	jalr	1144(ra) # 80002064 <_ZN4_sem5closeEv>
    __asm__ volatile("mv a%[reg], %[val]" ::[reg] "i"(reg_number), [val] "r"(value));
    80001bf4:	00050513          	mv	a0,a0
				delete s;
    80001bf8:	00048513          	mv	a0,s1
    80001bfc:	00001097          	auipc	ra,0x1
    80001c00:	b50080e7          	jalr	-1200(ra) # 8000274c <_ZdlPv>
    80001c04:	e8dff06f          	j	80001a90 <_ZN5Riscv20handleSupervisorTrapEmmmmmmmm+0xe8>
			if (s == nullptr)
    80001c08:	00049863          	bnez	s1,80001c18 <_ZN5Riscv20handleSupervisorTrapEmmmmmmmm+0x270>
    80001c0c:	fff00793          	li	a5,-1
    80001c10:	00078513          	mv	a0,a5
}
    80001c14:	e7dff06f          	j	80001a90 <_ZN5Riscv20handleSupervisorTrapEmmmmmmmm+0xe8>
				writeARegister(0, s->wait());
    80001c18:	00048513          	mv	a0,s1
    80001c1c:	00000097          	auipc	ra,0x0
    80001c20:	594080e7          	jalr	1428(ra) # 800021b0 <_ZN4_sem4waitEv>
    __asm__ volatile("mv a%[reg], %[val]" ::[reg] "i"(reg_number), [val] "r"(value));
    80001c24:	00050513          	mv	a0,a0
}
    80001c28:	e69ff06f          	j	80001a90 <_ZN5Riscv20handleSupervisorTrapEmmmmmmmm+0xe8>
			if (s == nullptr)
    80001c2c:	00049863          	bnez	s1,80001c3c <_ZN5Riscv20handleSupervisorTrapEmmmmmmmm+0x294>
    __asm__ volatile("mv a%[reg], %[val]" ::[reg] "i"(reg_number), [val] "r"(value));
    80001c30:	fff00793          	li	a5,-1
    80001c34:	00078513          	mv	a0,a5
}
    80001c38:	e59ff06f          	j	80001a90 <_ZN5Riscv20handleSupervisorTrapEmmmmmmmm+0xe8>
				writeARegister(0, s->signal());
    80001c3c:	00048513          	mv	a0,s1
    80001c40:	00000097          	auipc	ra,0x0
    80001c44:	670080e7          	jalr	1648(ra) # 800022b0 <_ZN4_sem6signalEv>
    __asm__ volatile("mv a%[reg], %[val]" ::[reg] "i"(reg_number), [val] "r"(value));
    80001c48:	00050513          	mv	a0,a0
}
    80001c4c:	e45ff06f          	j	80001a90 <_ZN5Riscv20handleSupervisorTrapEmmmmmmmm+0xe8>
			unsigned n = (unsigned)a2;
    80001c50:	0009059b          	sext.w	a1,s2
			if (s == nullptr)
    80001c54:	00049863          	bnez	s1,80001c64 <_ZN5Riscv20handleSupervisorTrapEmmmmmmmm+0x2bc>
    __asm__ volatile("mv a%[reg], %[val]" ::[reg] "i"(reg_number), [val] "r"(value));
    80001c58:	fff00793          	li	a5,-1
    80001c5c:	00078513          	mv	a0,a5
}
    80001c60:	e31ff06f          	j	80001a90 <_ZN5Riscv20handleSupervisorTrapEmmmmmmmm+0xe8>
				writeARegister(0, s->wait_n(n));
    80001c64:	00048513          	mv	a0,s1
    80001c68:	00000097          	auipc	ra,0x0
    80001c6c:	49c080e7          	jalr	1180(ra) # 80002104 <_ZN4_sem6wait_nEj>
    __asm__ volatile("mv a%[reg], %[val]" ::[reg] "i"(reg_number), [val] "r"(value));
    80001c70:	00050513          	mv	a0,a0
}
    80001c74:	e1dff06f          	j	80001a90 <_ZN5Riscv20handleSupervisorTrapEmmmmmmmm+0xe8>
			unsigned n = (unsigned)a2;
    80001c78:	0009059b          	sext.w	a1,s2
			if (s == nullptr)
    80001c7c:	00049863          	bnez	s1,80001c8c <_ZN5Riscv20handleSupervisorTrapEmmmmmmmm+0x2e4>
    __asm__ volatile("mv a%[reg], %[val]" ::[reg] "i"(reg_number), [val] "r"(value));
    80001c80:	fff00793          	li	a5,-1
    80001c84:	00078513          	mv	a0,a5
}
    80001c88:	e09ff06f          	j	80001a90 <_ZN5Riscv20handleSupervisorTrapEmmmmmmmm+0xe8>
				writeARegister(0, s->signal_n(n));
    80001c8c:	00048513          	mv	a0,s1
    80001c90:	00000097          	auipc	ra,0x0
    80001c94:	54c080e7          	jalr	1356(ra) # 800021dc <_ZN4_sem8signal_nEj>
    __asm__ volatile("mv a%[reg], %[val]" ::[reg] "i"(reg_number), [val] "r"(value));
    80001c98:	00050513          	mv	a0,a0
}
    80001c9c:	df5ff06f          	j	80001a90 <_ZN5Riscv20handleSupervisorTrapEmmmmmmmm+0xe8>
			if (_thread::running == nullptr)
    80001ca0:	0000a517          	auipc	a0,0xa
    80001ca4:	bb853503          	ld	a0,-1096(a0) # 8000b858 <_ZN7_thread7runningE>
    80001ca8:	00050e63          	beqz	a0,80001cc4 <_ZN5Riscv20handleSupervisorTrapEmmmmmmmm+0x31c>
				_thread::running->time_sleep(a1);
    80001cac:	00048593          	mv	a1,s1
    80001cb0:	00001097          	auipc	ra,0x1
    80001cb4:	fb4080e7          	jalr	-76(ra) # 80002c64 <_ZN7_thread10time_sleepEm>
    __asm__ volatile("mv a%[reg], %[val]" ::[reg] "i"(reg_number), [val] "r"(value));
    80001cb8:	00000793          	li	a5,0
    80001cbc:	00078513          	mv	a0,a5
}
    80001cc0:	dd1ff06f          	j	80001a90 <_ZN5Riscv20handleSupervisorTrapEmmmmmmmm+0xe8>
    __asm__ volatile("mv a%[reg], %[val]" ::[reg] "i"(reg_number), [val] "r"(value));
    80001cc4:	fff00793          	li	a5,-1
    80001cc8:	00078513          	mv	a0,a5
}
    80001ccc:	dc5ff06f          	j	80001a90 <_ZN5Riscv20handleSupervisorTrapEmmmmmmmm+0xe8>
			char c = _console::getc();
    80001cd0:	fffff097          	auipc	ra,0xfffff
    80001cd4:	6bc080e7          	jalr	1724(ra) # 8000138c <_ZN8_console4getcEv>
    __asm__ volatile("mv a%[reg], %[val]" ::[reg] "i"(reg_number), [val] "r"(value));
    80001cd8:	00050513          	mv	a0,a0
}
    80001cdc:	db5ff06f          	j	80001a90 <_ZN5Riscv20handleSupervisorTrapEmmmmmmmm+0xe8>
			_console::putc(c);
    80001ce0:	0ff4f513          	andi	a0,s1,255
    80001ce4:	fffff097          	auipc	ra,0xfffff
    80001ce8:	6e0080e7          	jalr	1760(ra) # 800013c4 <_ZN8_console4putcEc>
			break;
    80001cec:	da5ff06f          	j	80001a90 <_ZN5Riscv20handleSupervisorTrapEmmmmmmmm+0xe8>
		int irq = plic_claim(); // Potvrđujemo prekid PLIC kontroleru
    80001cf0:	00005097          	auipc	ra,0x5
    80001cf4:	fe4080e7          	jalr	-28(ra) # 80006cd4 <plic_claim>
    80001cf8:	00050913          	mv	s2,a0
		if (irq == CONSOLE_IRQ)
    80001cfc:	00a00793          	li	a5,10
    80001d00:	00f50a63          	beq	a0,a5,80001d14 <_ZN5Riscv20handleSupervisorTrapEmmmmmmmm+0x36c>
		plic_complete(irq); // Obaveštavamo PLIC da je obrada završena
    80001d04:	00090513          	mv	a0,s2
    80001d08:	00005097          	auipc	ra,0x5
    80001d0c:	004080e7          	jalr	4(ra) # 80006d0c <plic_complete>
    80001d10:	d91ff06f          	j	80001aa0 <_ZN5Riscv20handleSupervisorTrapEmmmmmmmm+0xf8>
			while ((*((volatile uint8 *)CONSOLE_STATUS) & 0x01) && !_console::getInBuff()->isFull())
    80001d14:	00007497          	auipc	s1,0x7
    80001d18:	2fc4b483          	ld	s1,764(s1) # 80009010 <CONSOLE_STATUS>
    80001d1c:	0004c783          	lbu	a5,0(s1)
    80001d20:	0017f793          	andi	a5,a5,1
    80001d24:	06078463          	beqz	a5,80001d8c <_ZN5Riscv20handleSupervisorTrapEmmmmmmmm+0x3e4>
        ensureInit();
    80001d28:	fffff097          	auipc	ra,0xfffff
    80001d2c:	520080e7          	jalr	1312(ra) # 80001248 <_ZN8_console10ensureInitEv>
    80001d30:	0000a517          	auipc	a0,0xa
    80001d34:	af053503          	ld	a0,-1296(a0) # 8000b820 <_ZN8_console6inbuffE>
    80001d38:	fffff097          	auipc	ra,0xfffff
    80001d3c:	4cc080e7          	jalr	1228(ra) # 80001204 <_ZN7kBuffer6isFullEv>
    80001d40:	04051663          	bnez	a0,80001d8c <_ZN5Riscv20handleSupervisorTrapEmmmmmmmm+0x3e4>
				char c = *((volatile uint8 *)CONSOLE_RX_DATA);
    80001d44:	00007797          	auipc	a5,0x7
    80001d48:	2bc7b783          	ld	a5,700(a5) # 80009000 <CONSOLE_RX_DATA>
    80001d4c:	0007c483          	lbu	s1,0(a5)
    80001d50:	0ff4f493          	andi	s1,s1,255
    80001d54:	fffff097          	auipc	ra,0xfffff
    80001d58:	4f4080e7          	jalr	1268(ra) # 80001248 <_ZN8_console10ensureInitEv>
				_console::getInBuff()->put(c);
    80001d5c:	00048593          	mv	a1,s1
    80001d60:	0000a517          	auipc	a0,0xa
    80001d64:	ac053503          	ld	a0,-1344(a0) # 8000b820 <_ZN8_console6inbuffE>
    80001d68:	fffff097          	auipc	ra,0xfffff
    80001d6c:	400080e7          	jalr	1024(ra) # 80001168 <_ZN7kBuffer3putEc>
        ensureInit();
    80001d70:	fffff097          	auipc	ra,0xfffff
    80001d74:	4d8080e7          	jalr	1240(ra) # 80001248 <_ZN8_console10ensureInitEv>
				_console::getInSem()->signal();
    80001d78:	0000a517          	auipc	a0,0xa
    80001d7c:	a9853503          	ld	a0,-1384(a0) # 8000b810 <_ZN8_console5inSemE>
    80001d80:	00000097          	auipc	ra,0x0
    80001d84:	530080e7          	jalr	1328(ra) # 800022b0 <_ZN4_sem6signalEv>
			while ((*((volatile uint8 *)CONSOLE_STATUS) & 0x01) && !_console::getInBuff()->isFull())
    80001d88:	f8dff06f          	j	80001d14 <_ZN5Riscv20handleSupervisorTrapEmmmmmmmm+0x36c>
			while ((*((volatile uint8 *)CONSOLE_STATUS) & 0x20) && !_console::getOutBuff()->isEmpty())
    80001d8c:	0004c783          	lbu	a5,0(s1)
    80001d90:	0207f793          	andi	a5,a5,32
    80001d94:	f60788e3          	beqz	a5,80001d04 <_ZN5Riscv20handleSupervisorTrapEmmmmmmmm+0x35c>
        ensureInit();
    80001d98:	fffff097          	auipc	ra,0xfffff
    80001d9c:	4b0080e7          	jalr	1200(ra) # 80001248 <_ZN8_console10ensureInitEv>
    80001da0:	0000a517          	auipc	a0,0xa
    80001da4:	a7853503          	ld	a0,-1416(a0) # 8000b818 <_ZN8_console7outbuffE>
    80001da8:	fffff097          	auipc	ra,0xfffff
    80001dac:	480080e7          	jalr	1152(ra) # 80001228 <_ZN7kBuffer7isEmptyEv>
    80001db0:	f4051ae3          	bnez	a0,80001d04 <_ZN5Riscv20handleSupervisorTrapEmmmmmmmm+0x35c>
    80001db4:	fffff097          	auipc	ra,0xfffff
    80001db8:	494080e7          	jalr	1172(ra) # 80001248 <_ZN8_console10ensureInitEv>
				char c = _console::getOutBuff()->get();
    80001dbc:	0000a517          	auipc	a0,0xa
    80001dc0:	a5c53503          	ld	a0,-1444(a0) # 8000b818 <_ZN8_console7outbuffE>
    80001dc4:	fffff097          	auipc	ra,0xfffff
    80001dc8:	3f0080e7          	jalr	1008(ra) # 800011b4 <_ZN7kBuffer3getEv>
				*((volatile uint8 *)CONSOLE_TX_DATA) = (uint8)c;
    80001dcc:	00007797          	auipc	a5,0x7
    80001dd0:	23c7b783          	ld	a5,572(a5) # 80009008 <CONSOLE_TX_DATA>
    80001dd4:	00a78023          	sb	a0,0(a5)
        ensureInit();
    80001dd8:	fffff097          	auipc	ra,0xfffff
    80001ddc:	470080e7          	jalr	1136(ra) # 80001248 <_ZN8_console10ensureInitEv>
				_console::getOutSem()->signal();
    80001de0:	0000a517          	auipc	a0,0xa
    80001de4:	a2853503          	ld	a0,-1496(a0) # 8000b808 <_ZN8_console6outSemE>
    80001de8:	00000097          	auipc	ra,0x0
    80001dec:	4c8080e7          	jalr	1224(ra) # 800022b0 <_ZN4_sem6signalEv>
			while ((*((volatile uint8 *)CONSOLE_STATUS) & 0x20) && !_console::getOutBuff()->isEmpty())
    80001df0:	f9dff06f          	j	80001d8c <_ZN5Riscv20handleSupervisorTrapEmmmmmmmm+0x3e4>
				Scheduler::instance().put(t);
    80001df4:	0000a517          	auipc	a0,0xa
    80001df8:	adc50513          	addi	a0,a0,-1316 # 8000b8d0 <_ZZN9Scheduler8instanceEvE8instance>
    80001dfc:	00000097          	auipc	ra,0x0
    80001e00:	150080e7          	jalr	336(ra) # 80001f4c <_ZN9Scheduler3putEP7_thread>
			while (_thread::sleepingHead && _thread::sleepingHead->timeSleeping == 0)
    80001e04:	0000a597          	auipc	a1,0xa
    80001e08:	a445b583          	ld	a1,-1468(a1) # 8000b848 <_ZN7_thread12sleepingHeadE>
    80001e0c:	04058863          	beqz	a1,80001e5c <_ZN5Riscv20handleSupervisorTrapEmmmmmmmm+0x4b4>
    80001e10:	0505b783          	ld	a5,80(a1)
    80001e14:	04079463          	bnez	a5,80001e5c <_ZN5Riscv20handleSupervisorTrapEmmmmmmmm+0x4b4>
				_thread::sleepingHead = t->waitnext;
    80001e18:	0085b783          	ld	a5,8(a1)
    80001e1c:	0000a717          	auipc	a4,0xa
    80001e20:	a2f73623          	sd	a5,-1492(a4) # 8000b848 <_ZN7_thread12sleepingHeadE>
				t->waitnext = nullptr;
    80001e24:	0005b423          	sd	zero,8(a1)
				t->isReady = true;
    80001e28:	00100793          	li	a5,1
    80001e2c:	04f58023          	sb	a5,64(a1)
    80001e30:	0000a797          	auipc	a5,0xa
    80001e34:	a107c783          	lbu	a5,-1520(a5) # 8000b840 <_ZGVZN9Scheduler8instanceEvE8instance>
    80001e38:	fa079ee3          	bnez	a5,80001df4 <_ZN5Riscv20handleSupervisorTrapEmmmmmmmm+0x44c>
    Scheduler() : head(nullptr), tail(nullptr) {};
    80001e3c:	0000a797          	auipc	a5,0xa
    80001e40:	a9478793          	addi	a5,a5,-1388 # 8000b8d0 <_ZZN9Scheduler8instanceEvE8instance>
    80001e44:	0007b023          	sd	zero,0(a5)
    80001e48:	0007b423          	sd	zero,8(a5)
        static Scheduler instance;
    80001e4c:	00100793          	li	a5,1
    80001e50:	0000a717          	auipc	a4,0xa
    80001e54:	9ef70823          	sb	a5,-1552(a4) # 8000b840 <_ZGVZN9Scheduler8instanceEvE8instance>
    80001e58:	f9dff06f          	j	80001df4 <_ZN5Riscv20handleSupervisorTrapEmmmmmmmm+0x44c>
		if (_thread::timeSliceCounter >= _thread::running->getTimeSlice())
    80001e5c:	0000a797          	auipc	a5,0xa
    80001e60:	9fc7b783          	ld	a5,-1540(a5) # 8000b858 <_ZN7_thread7runningE>
		return timeSlice;
    80001e64:	0387b783          	ld	a5,56(a5)
    80001e68:	0000a717          	auipc	a4,0xa
    80001e6c:	9e873703          	ld	a4,-1560(a4) # 8000b850 <_ZN7_thread16timeSliceCounterE>
    80001e70:	00f77863          	bgeu	a4,a5,80001e80 <_ZN5Riscv20handleSupervisorTrapEmmmmmmmm+0x4d8>
    __asm__ volatile("csrc sip, %[mask]" : : [mask] "r"(mask));
    80001e74:	00200793          	li	a5,2
    80001e78:	1447b073          	csrc	sip,a5
}
    80001e7c:	c25ff06f          	j	80001aa0 <_ZN5Riscv20handleSupervisorTrapEmmmmmmmm+0xf8>
    __asm__ volatile("csrr %[sepc], sepc" : [sepc] "=r"(sepc));
    80001e80:	141027f3          	csrr	a5,sepc
    80001e84:	fcf43423          	sd	a5,-56(s0)
    return sepc;
    80001e88:	fc843783          	ld	a5,-56(s0)
			uint64 volatile sepc = r_sepc();
    80001e8c:	f8f43c23          	sd	a5,-104(s0)
    __asm__ volatile("csrr %[sstatus], sstatus" : [sstatus] "=r"(sstatus));
    80001e90:	100027f3          	csrr	a5,sstatus
    80001e94:	fcf43023          	sd	a5,-64(s0)
    return sstatus;
    80001e98:	fc043783          	ld	a5,-64(s0)
			uint64 volatile sstatus = r_sstatus();
    80001e9c:	faf43023          	sd	a5,-96(s0)
			_thread::timeSliceCounter = 0;
    80001ea0:	0000a797          	auipc	a5,0xa
    80001ea4:	9a07b823          	sd	zero,-1616(a5) # 8000b850 <_ZN7_thread16timeSliceCounterE>
			_thread::dispatch();
    80001ea8:	00001097          	auipc	ra,0x1
    80001eac:	ce4080e7          	jalr	-796(ra) # 80002b8c <_ZN7_thread8dispatchEv>
			w_sstatus(sstatus);
    80001eb0:	fa043783          	ld	a5,-96(s0)
    __asm__ volatile("csrw sstatus, %[sstatus]" : : [sstatus] "r"(sstatus));
    80001eb4:	10079073          	csrw	sstatus,a5
			w_sepc(sepc);
    80001eb8:	f9843783          	ld	a5,-104(s0)
    __asm__ volatile("csrw sepc, %[sepc]" : : [sepc] "r"(sepc));
    80001ebc:	14179073          	csrw	sepc,a5
}
    80001ec0:	fb5ff06f          	j	80001e74 <_ZN5Riscv20handleSupervisorTrapEmmmmmmmm+0x4cc>
		_printString("Unhandled exception: SEPC = ");
    80001ec4:	00007517          	auipc	a0,0x7
    80001ec8:	1a450513          	addi	a0,a0,420 # 80009068 <_ZZ13_printIntegermmbE6digits+0x18>
    80001ecc:	00000097          	auipc	ra,0x0
    80001ed0:	998080e7          	jalr	-1640(ra) # 80001864 <_Z12_printStringPKc>
    __asm__ volatile("csrr %[sepc], sepc" : [sepc] "=r"(sepc));
    80001ed4:	141027f3          	csrr	a5,sepc
    80001ed8:	fcf43423          	sd	a5,-56(s0)
    return sepc;
    80001edc:	fc843503          	ld	a0,-56(s0)
        _printInteger(r_sepc(), 16);
    80001ee0:	00100613          	li	a2,1
    80001ee4:	01000593          	li	a1,16
    80001ee8:	00000097          	auipc	ra,0x0
    80001eec:	9c0080e7          	jalr	-1600(ra) # 800018a8 <_Z13_printIntegermmb>
        _printString(", SCAUSE = ");
    80001ef0:	00007517          	auipc	a0,0x7
    80001ef4:	19850513          	addi	a0,a0,408 # 80009088 <_ZZ13_printIntegermmbE6digits+0x38>
    80001ef8:	00000097          	auipc	ra,0x0
    80001efc:	96c080e7          	jalr	-1684(ra) # 80001864 <_Z12_printStringPKc>
    __asm__ volatile("csrr %[scause], scause" : [scause] "=r"(scause));
    80001f00:	142027f3          	csrr	a5,scause
    80001f04:	fcf43023          	sd	a5,-64(s0)
    return scause;
    80001f08:	fc043503          	ld	a0,-64(s0)
        _printInteger(r_scause());
    80001f0c:	00100613          	li	a2,1
    80001f10:	00a00593          	li	a1,10
    80001f14:	00000097          	auipc	ra,0x0
    80001f18:	994080e7          	jalr	-1644(ra) # 800018a8 <_Z13_printIntegermmb>
        _printString("\n");
    80001f1c:	00007517          	auipc	a0,0x7
    80001f20:	7d450513          	addi	a0,a0,2004 # 800096f0 <_ZTV7WorkerD+0x168>
    80001f24:	00000097          	auipc	ra,0x0
    80001f28:	940080e7          	jalr	-1728(ra) # 80001864 <_Z12_printStringPKc>
        while(1);
    80001f2c:	0000006f          	j	80001f2c <_ZN5Riscv20handleSupervisorTrapEmmmmmmmm+0x584>
			*handle = new _sem(a2);
    80001f30:	00050493          	mv	s1,a0
    80001f34:	00098513          	mv	a0,s3
    80001f38:	00001097          	auipc	ra,0x1
    80001f3c:	814080e7          	jalr	-2028(ra) # 8000274c <_ZdlPv>
    80001f40:	00048513          	mv	a0,s1
    80001f44:	0000b097          	auipc	ra,0xb
    80001f48:	a64080e7          	jalr	-1436(ra) # 8000c9a8 <_Unwind_Resume>

0000000080001f4c <_ZN9Scheduler3putEP7_thread>:
#include "../h/Scheduler.h"

#include "../h/Thread.h"

void Scheduler::put(_thread *t)
{
    80001f4c:	ff010113          	addi	sp,sp,-16
    80001f50:	00813423          	sd	s0,8(sp)
    80001f54:	01010413          	addi	s0,sp,16
    if (!t)
    80001f58:	00058e63          	beqz	a1,80001f74 <_ZN9Scheduler3putEP7_thread+0x28>
        return;
    t->next = nullptr;
    80001f5c:	0005b023          	sd	zero,0(a1)

    if (!head)
    80001f60:	00053783          	ld	a5,0(a0)
    80001f64:	00078e63          	beqz	a5,80001f80 <_ZN9Scheduler3putEP7_thread+0x34>
    {
        head = t;
    }
    else
    {
        tail->next = t;
    80001f68:	00853783          	ld	a5,8(a0)
    80001f6c:	00b7b023          	sd	a1,0(a5)
    }
    tail = t;
    80001f70:	00b53423          	sd	a1,8(a0)
}
    80001f74:	00813403          	ld	s0,8(sp)
    80001f78:	01010113          	addi	sp,sp,16
    80001f7c:	00008067          	ret
        head = t;
    80001f80:	00b53023          	sd	a1,0(a0)
    80001f84:	fedff06f          	j	80001f70 <_ZN9Scheduler3putEP7_thread+0x24>

0000000080001f88 <_ZN9Scheduler3getEv>:

_thread *Scheduler::get()
{
    80001f88:	ff010113          	addi	sp,sp,-16
    80001f8c:	00813423          	sd	s0,8(sp)
    80001f90:	01010413          	addi	s0,sp,16
    80001f94:	00050793          	mv	a5,a0
    if (!head)
    80001f98:	00053503          	ld	a0,0(a0)
    80001f9c:	00050a63          	beqz	a0,80001fb0 <_ZN9Scheduler3getEv+0x28>
    {
        return nullptr;
    }

    _thread *t = head;
    head = head->next;
    80001fa0:	00053703          	ld	a4,0(a0)
    80001fa4:	00e7b023          	sd	a4,0(a5)

    if (!head)
    80001fa8:	00070a63          	beqz	a4,80001fbc <_ZN9Scheduler3getEv+0x34>
    {
        tail = nullptr;
    }

    t->next = nullptr;
    80001fac:	00053023          	sd	zero,0(a0)
    return t;
    80001fb0:	00813403          	ld	s0,8(sp)
    80001fb4:	01010113          	addi	sp,sp,16
    80001fb8:	00008067          	ret
        tail = nullptr;
    80001fbc:	0007b423          	sd	zero,8(a5)
    80001fc0:	fedff06f          	j	80001fac <_ZN9Scheduler3getEv+0x24>

0000000080001fc4 <_ZN4_semC1Ei>:
#include "../h/Semaphore.h"
#include "../h/Thread.h"

_sem::_sem(int init) : val(init), head(nullptr), tail(nullptr), closed(false)
    80001fc4:	ff010113          	addi	sp,sp,-16
    80001fc8:	00813423          	sd	s0,8(sp)
    80001fcc:	01010413          	addi	s0,sp,16
    80001fd0:	00b52023          	sw	a1,0(a0)
    80001fd4:	00053423          	sd	zero,8(a0)
    80001fd8:	00053823          	sd	zero,16(a0)
    80001fdc:	00050c23          	sb	zero,24(a0)
{
}
    80001fe0:	00813403          	ld	s0,8(sp)
    80001fe4:	01010113          	addi	sp,sp,16
    80001fe8:	00008067          	ret

0000000080001fec <_ZN4_sem3addEP7_thread>:
{
    return signal_n(1);
}

void _sem::add(_thread *t)
{
    80001fec:	ff010113          	addi	sp,sp,-16
    80001ff0:	00813423          	sd	s0,8(sp)
    80001ff4:	01010413          	addi	s0,sp,16
    if (!t)
    80001ff8:	00058e63          	beqz	a1,80002014 <_ZN4_sem3addEP7_thread+0x28>
        return;
    t->waitnext = nullptr;
    80001ffc:	0005b423          	sd	zero,8(a1)

    if (!head)
    80002000:	00853783          	ld	a5,8(a0)
    80002004:	00078e63          	beqz	a5,80002020 <_ZN4_sem3addEP7_thread+0x34>
    {
        head = t;
    }
    else
    {
        tail->waitnext = t;
    80002008:	01053783          	ld	a5,16(a0)
    8000200c:	00b7b423          	sd	a1,8(a5)
    }
    tail = t;
    80002010:	00b53823          	sd	a1,16(a0)
}
    80002014:	00813403          	ld	s0,8(sp)
    80002018:	01010113          	addi	sp,sp,16
    8000201c:	00008067          	ret
        head = t;
    80002020:	00b53423          	sd	a1,8(a0)
    80002024:	fedff06f          	j	80002010 <_ZN4_sem3addEP7_thread+0x24>

0000000080002028 <_ZN4_sem3getEv>:
_thread *_sem::get()
{
    80002028:	ff010113          	addi	sp,sp,-16
    8000202c:	00813423          	sd	s0,8(sp)
    80002030:	01010413          	addi	s0,sp,16
    80002034:	00050793          	mv	a5,a0
    if (!head)
    80002038:	00853503          	ld	a0,8(a0)
    8000203c:	00050a63          	beqz	a0,80002050 <_ZN4_sem3getEv+0x28>
    {
        return nullptr;
    }

    _thread *t = head;
    head = head->waitnext;
    80002040:	00853703          	ld	a4,8(a0)
    80002044:	00e7b423          	sd	a4,8(a5)

    if (!head)
    80002048:	00070a63          	beqz	a4,8000205c <_ZN4_sem3getEv+0x34>
    {
        tail = nullptr;
    }

    t->waitnext = nullptr;
    8000204c:	00053423          	sd	zero,8(a0)
    return t;
}
    80002050:	00813403          	ld	s0,8(sp)
    80002054:	01010113          	addi	sp,sp,16
    80002058:	00008067          	ret
        tail = nullptr;
    8000205c:	0007b823          	sd	zero,16(a5)
    80002060:	fedff06f          	j	8000204c <_ZN4_sem3getEv+0x24>

0000000080002064 <_ZN4_sem5closeEv>:

int _sem::close()
{
    80002064:	fe010113          	addi	sp,sp,-32
    80002068:	00113c23          	sd	ra,24(sp)
    8000206c:	00813823          	sd	s0,16(sp)
    80002070:	00913423          	sd	s1,8(sp)
    80002074:	02010413          	addi	s0,sp,32
    80002078:	00050493          	mv	s1,a0
    closed = true;
    8000207c:	00100793          	li	a5,1
    80002080:	00f50c23          	sb	a5,24(a0)

    while (head)
    80002084:	0084b783          	ld	a5,8(s1)
    80002088:	06078263          	beqz	a5,800020ec <_ZN4_sem5closeEv+0x88>
    {
        _thread *t = get();
    8000208c:	00048513          	mv	a0,s1
    80002090:	00000097          	auipc	ra,0x0
    80002094:	f98080e7          	jalr	-104(ra) # 80002028 <_ZN4_sem3getEv>
        if (t)
    80002098:	fe0506e3          	beqz	a0,80002084 <_ZN4_sem5closeEv+0x20>
        {
            t->isReady = true;
    8000209c:	00100793          	li	a5,1
    800020a0:	04f50023          	sb	a5,64(a0)

            t->semStatus = -1;
    800020a4:	fff00793          	li	a5,-1
    800020a8:	04f52223          	sw	a5,68(a0)
    800020ac:	00009797          	auipc	a5,0x9
    800020b0:	7947c783          	lbu	a5,1940(a5) # 8000b840 <_ZGVZN9Scheduler8instanceEvE8instance>
    800020b4:	02079063          	bnez	a5,800020d4 <_ZN4_sem5closeEv+0x70>
    Scheduler() : head(nullptr), tail(nullptr) {};
    800020b8:	0000a797          	auipc	a5,0xa
    800020bc:	81878793          	addi	a5,a5,-2024 # 8000b8d0 <_ZZN9Scheduler8instanceEvE8instance>
    800020c0:	0007b023          	sd	zero,0(a5)
    800020c4:	0007b423          	sd	zero,8(a5)
        static Scheduler instance;
    800020c8:	00100793          	li	a5,1
    800020cc:	00009717          	auipc	a4,0x9
    800020d0:	76f70a23          	sb	a5,1908(a4) # 8000b840 <_ZGVZN9Scheduler8instanceEvE8instance>

            Scheduler::instance().put(t);
    800020d4:	00050593          	mv	a1,a0
    800020d8:	00009517          	auipc	a0,0x9
    800020dc:	7f850513          	addi	a0,a0,2040 # 8000b8d0 <_ZZN9Scheduler8instanceEvE8instance>
    800020e0:	00000097          	auipc	ra,0x0
    800020e4:	e6c080e7          	jalr	-404(ra) # 80001f4c <_ZN9Scheduler3putEP7_thread>
    800020e8:	f9dff06f          	j	80002084 <_ZN4_sem5closeEv+0x20>
        }
    }

    return 0;
}
    800020ec:	00000513          	li	a0,0
    800020f0:	01813083          	ld	ra,24(sp)
    800020f4:	01013403          	ld	s0,16(sp)
    800020f8:	00813483          	ld	s1,8(sp)
    800020fc:	02010113          	addi	sp,sp,32
    80002100:	00008067          	ret

0000000080002104 <_ZN4_sem6wait_nEj>:
int _sem::wait_n(unsigned n)
{
    if(closed) return -1;
    80002104:	01854703          	lbu	a4,24(a0)
    80002108:	08071c63          	bnez	a4,800021a0 <_ZN4_sem6wait_nEj+0x9c>
    8000210c:	00058793          	mv	a5,a1
    if(n == 0) return 0;
    80002110:	08058c63          	beqz	a1,800021a8 <_ZN4_sem6wait_nEj+0xa4>

    if(head == nullptr && val >=(int) n){
    80002114:	00853703          	ld	a4,8(a0)
    80002118:	06070263          	beqz	a4,8000217c <_ZN4_sem6wait_nEj+0x78>
{
    8000211c:	fe010113          	addi	sp,sp,-32
    80002120:	00113c23          	sd	ra,24(sp)
    80002124:	00813823          	sd	s0,16(sp)
    80002128:	00913423          	sd	s1,8(sp)
    8000212c:	02010413          	addi	s0,sp,32
        val -= n;
        return 0;
    }else{
        _thread::running->isReady = false;
    80002130:	00009497          	auipc	s1,0x9
    80002134:	72848493          	addi	s1,s1,1832 # 8000b858 <_ZN7_thread7runningE>
    80002138:	0004b583          	ld	a1,0(s1)
    8000213c:	04058023          	sb	zero,64(a1)
        _thread::running->requestedN = n; 
    80002140:	04f5a423          	sw	a5,72(a1)
        _thread::running->semStatus = 0;
    80002144:	0405a223          	sw	zero,68(a1)

        add(_thread::running); 
    80002148:	00000097          	auipc	ra,0x0
    8000214c:	ea4080e7          	jalr	-348(ra) # 80001fec <_ZN4_sem3addEP7_thread>
        _thread::dispatch();
    80002150:	00001097          	auipc	ra,0x1
    80002154:	a3c080e7          	jalr	-1476(ra) # 80002b8c <_ZN7_thread8dispatchEv>

  
        if (_thread::running->semStatus < 0) {
    80002158:	0004b783          	ld	a5,0(s1)
    8000215c:	0447a783          	lw	a5,68(a5)
    80002160:	0207cc63          	bltz	a5,80002198 <_ZN4_sem6wait_nEj+0x94>
            return -1;
        }
        return 0;
    80002164:	00000513          	li	a0,0
    }
}
    80002168:	01813083          	ld	ra,24(sp)
    8000216c:	01013403          	ld	s0,16(sp)
    80002170:	00813483          	ld	s1,8(sp)
    80002174:	02010113          	addi	sp,sp,32
    80002178:	00008067          	ret
    if(head == nullptr && val >=(int) n){
    8000217c:	00052703          	lw	a4,0(a0)
    80002180:	0005869b          	sext.w	a3,a1
    80002184:	f8d74ce3          	blt	a4,a3,8000211c <_ZN4_sem6wait_nEj+0x18>
        val -= n;
    80002188:	40b707bb          	subw	a5,a4,a1
    8000218c:	00f52023          	sw	a5,0(a0)
        return 0;
    80002190:	00000513          	li	a0,0
    80002194:	00008067          	ret
            return -1;
    80002198:	fff00513          	li	a0,-1
    8000219c:	fcdff06f          	j	80002168 <_ZN4_sem6wait_nEj+0x64>
    if(closed) return -1;
    800021a0:	fff00513          	li	a0,-1
    800021a4:	00008067          	ret
    if(n == 0) return 0;
    800021a8:	00000513          	li	a0,0
}
    800021ac:	00008067          	ret

00000000800021b0 <_ZN4_sem4waitEv>:
{   
    800021b0:	ff010113          	addi	sp,sp,-16
    800021b4:	00113423          	sd	ra,8(sp)
    800021b8:	00813023          	sd	s0,0(sp)
    800021bc:	01010413          	addi	s0,sp,16
    return wait_n(1);
    800021c0:	00100593          	li	a1,1
    800021c4:	00000097          	auipc	ra,0x0
    800021c8:	f40080e7          	jalr	-192(ra) # 80002104 <_ZN4_sem6wait_nEj>
}
    800021cc:	00813083          	ld	ra,8(sp)
    800021d0:	00013403          	ld	s0,0(sp)
    800021d4:	01010113          	addi	sp,sp,16
    800021d8:	00008067          	ret

00000000800021dc <_ZN4_sem8signal_nEj>:

int _sem::signal_n(unsigned n) {
    if (closed) return -1;
    800021dc:	01854783          	lbu	a5,24(a0)
    800021e0:	0a079463          	bnez	a5,80002288 <_ZN4_sem8signal_nEj+0xac>
int _sem::signal_n(unsigned n) {
    800021e4:	fe010113          	addi	sp,sp,-32
    800021e8:	00113c23          	sd	ra,24(sp)
    800021ec:	00813823          	sd	s0,16(sp)
    800021f0:	00913423          	sd	s1,8(sp)
    800021f4:	02010413          	addi	s0,sp,32
    800021f8:	00050493          	mv	s1,a0
    
    val += n;
    800021fc:	00052783          	lw	a5,0(a0)
    80002200:	00b785bb          	addw	a1,a5,a1
    80002204:	00b52023          	sw	a1,0(a0)
    80002208:	0140006f          	j	8000221c <_ZN4_sem8signal_nEj+0x40>
        
        val -= t->requestedN; 
        t->isReady = true;
        t->semStatus = 0;
        
        Scheduler::instance().put(t);
    8000220c:	00009517          	auipc	a0,0x9
    80002210:	6c450513          	addi	a0,a0,1732 # 8000b8d0 <_ZZN9Scheduler8instanceEvE8instance>
    80002214:	00000097          	auipc	ra,0x0
    80002218:	d38080e7          	jalr	-712(ra) # 80001f4c <_ZN9Scheduler3putEP7_thread>
    while (head && val >= (int)head->requestedN) {
    8000221c:	0084b783          	ld	a5,8(s1)
    80002220:	06078863          	beqz	a5,80002290 <_ZN4_sem8signal_nEj+0xb4>
    80002224:	0004a703          	lw	a4,0(s1)
    80002228:	0487a783          	lw	a5,72(a5)
    8000222c:	06f74e63          	blt	a4,a5,800022a8 <_ZN4_sem8signal_nEj+0xcc>
        _thread *t = get(); 
    80002230:	00048513          	mv	a0,s1
    80002234:	00000097          	auipc	ra,0x0
    80002238:	df4080e7          	jalr	-524(ra) # 80002028 <_ZN4_sem3getEv>
    8000223c:	00050593          	mv	a1,a0
        val -= t->requestedN; 
    80002240:	04852703          	lw	a4,72(a0)
    80002244:	0004a783          	lw	a5,0(s1)
    80002248:	40e787bb          	subw	a5,a5,a4
    8000224c:	00f4a023          	sw	a5,0(s1)
        t->isReady = true;
    80002250:	00100793          	li	a5,1
    80002254:	04f50023          	sb	a5,64(a0)
        t->semStatus = 0;
    80002258:	04052223          	sw	zero,68(a0)
    8000225c:	00009797          	auipc	a5,0x9
    80002260:	5e47c783          	lbu	a5,1508(a5) # 8000b840 <_ZGVZN9Scheduler8instanceEvE8instance>
    80002264:	fa0794e3          	bnez	a5,8000220c <_ZN4_sem8signal_nEj+0x30>
    Scheduler() : head(nullptr), tail(nullptr) {};
    80002268:	00009797          	auipc	a5,0x9
    8000226c:	66878793          	addi	a5,a5,1640 # 8000b8d0 <_ZZN9Scheduler8instanceEvE8instance>
    80002270:	0007b023          	sd	zero,0(a5)
    80002274:	0007b423          	sd	zero,8(a5)
        static Scheduler instance;
    80002278:	00100793          	li	a5,1
    8000227c:	00009717          	auipc	a4,0x9
    80002280:	5cf70223          	sb	a5,1476(a4) # 8000b840 <_ZGVZN9Scheduler8instanceEvE8instance>
    80002284:	f89ff06f          	j	8000220c <_ZN4_sem8signal_nEj+0x30>
    if (closed) return -1;
    80002288:	fff00513          	li	a0,-1

    }

    return 0;
    8000228c:	00008067          	ret
    return 0;
    80002290:	00000513          	li	a0,0
    80002294:	01813083          	ld	ra,24(sp)
    80002298:	01013403          	ld	s0,16(sp)
    8000229c:	00813483          	ld	s1,8(sp)
    800022a0:	02010113          	addi	sp,sp,32
    800022a4:	00008067          	ret
    return 0;
    800022a8:	00000513          	li	a0,0
    800022ac:	fe9ff06f          	j	80002294 <_ZN4_sem8signal_nEj+0xb8>

00000000800022b0 <_ZN4_sem6signalEv>:
{
    800022b0:	ff010113          	addi	sp,sp,-16
    800022b4:	00113423          	sd	ra,8(sp)
    800022b8:	00813023          	sd	s0,0(sp)
    800022bc:	01010413          	addi	s0,sp,16
    return signal_n(1);
    800022c0:	00100593          	li	a1,1
    800022c4:	00000097          	auipc	ra,0x0
    800022c8:	f18080e7          	jalr	-232(ra) # 800021dc <_ZN4_sem8signal_nEj>
}
    800022cc:	00813083          	ld	ra,8(sp)
    800022d0:	00013403          	ld	s0,0(sp)
    800022d4:	01010113          	addi	sp,sp,16
    800022d8:	00008067          	ret

00000000800022dc <_Z9mem_allocm>:
#include "../h/syscall_c.h"
#include  "../h/riscv.h"
#include "../h/Console.h"

void *mem_alloc(size_t size) {
    800022dc:	fe010113          	addi	sp,sp,-32
    800022e0:	00813c23          	sd	s0,24(sp)
    800022e4:	02010413          	addi	s0,sp,32
    size_t blocks = (size + MEM_BLOCK_SIZE - 1) / MEM_BLOCK_SIZE;
    800022e8:	03f50513          	addi	a0,a0,63
    800022ec:	00655513          	srli	a0,a0,0x6
    __asm__ volatile("mv a%[reg], %[val]" ::[reg] "i"(reg_number), [val] "r"(value));
    800022f0:	00050593          	mv	a1,a0
    800022f4:	00100793          	li	a5,1
    800022f8:	00078513          	mv	a0,a5

    Riscv::writeARegister(1, blocks);
    Riscv::writeARegister(0, 0x01);

    __asm__ volatile("ecall");
    800022fc:	00000073          	ecall
    __asm__ volatile("mv %[val], a%[reg]" : [val] "=r"(value) : [reg] "i"(reg_number));
    80002300:	00050793          	mv	a5,a0

    volatile long a0 = Riscv::readARegister(0);
    80002304:	fef43423          	sd	a5,-24(s0)
    return (void*) a0;
    80002308:	fe843503          	ld	a0,-24(s0)


}
    8000230c:	01813403          	ld	s0,24(sp)
    80002310:	02010113          	addi	sp,sp,32
    80002314:	00008067          	ret

0000000080002318 <_Z8mem_freePv>:

int mem_free (void* ptr) {
    80002318:	fe010113          	addi	sp,sp,-32
    8000231c:	00813c23          	sd	s0,24(sp)
    80002320:	02010413          	addi	s0,sp,32
    __asm__ volatile("mv a%[reg], %[val]" ::[reg] "i"(reg_number), [val] "r"(value));
    80002324:	00050593          	mv	a1,a0
    80002328:	00200793          	li	a5,2
    8000232c:	00078513          	mv	a0,a5
    Riscv::writeARegister(1, (uint64)ptr);
    Riscv::writeARegister(0, 0x02);

    __asm__ volatile("ecall");
    80002330:	00000073          	ecall
    __asm__ volatile("mv %[val], a%[reg]" : [val] "=r"(value) : [reg] "i"(reg_number));
    80002334:	00050793          	mv	a5,a0

    volatile long a0 = Riscv::readARegister(0);
    80002338:	fef43423          	sd	a5,-24(s0)
    return (int) a0;
    8000233c:	fe843503          	ld	a0,-24(s0)
}
    80002340:	0005051b          	sext.w	a0,a0
    80002344:	01813403          	ld	s0,24(sp)
    80002348:	02010113          	addi	sp,sp,32
    8000234c:	00008067          	ret

0000000080002350 <_Z13thread_createPP7_threadPFvPvES2_>:

int thread_create(thread_t* handle, void(*start_routine)(void *), void *arg) {
    80002350:	fc010113          	addi	sp,sp,-64
    80002354:	02113c23          	sd	ra,56(sp)
    80002358:	02813823          	sd	s0,48(sp)
    8000235c:	02913423          	sd	s1,40(sp)
    80002360:	03213023          	sd	s2,32(sp)
    80002364:	01313c23          	sd	s3,24(sp)
    80002368:	04010413          	addi	s0,sp,64
    8000236c:	00050913          	mv	s2,a0
    80002370:	00058493          	mv	s1,a1
    80002374:	00060993          	mv	s3,a2
    void* volatile stack = nullptr;
    80002378:	fc043423          	sd	zero,-56(s0)
    if (start_routine) {
    8000237c:	00058a63          	beqz	a1,80002390 <_Z13thread_createPP7_threadPFvPvES2_+0x40>
        stack = mem_alloc(DEFAULT_STACK_SIZE);
    80002380:	00001537          	lui	a0,0x1
    80002384:	00000097          	auipc	ra,0x0
    80002388:	f58080e7          	jalr	-168(ra) # 800022dc <_Z9mem_allocm>
    8000238c:	fca43423          	sd	a0,-56(s0)
    }


    Riscv::writeARegister(4, (uint64)stack);
    80002390:	fc843783          	ld	a5,-56(s0)
    __asm__ volatile("mv a%[reg], %[val]" ::[reg] "i"(reg_number), [val] "r"(value));
    80002394:	00078713          	mv	a4,a5
    80002398:	00098693          	mv	a3,s3
    8000239c:	00048613          	mv	a2,s1
    800023a0:	00090593          	mv	a1,s2
    800023a4:	01100793          	li	a5,17
    800023a8:	00078513          	mv	a0,a5
    Riscv::writeARegister(2, (uint64)start_routine);
    Riscv::writeARegister(1, (uint64)handle);

    Riscv::writeARegister(0, 0x11);

    __asm__ volatile("ecall");
    800023ac:	00000073          	ecall
    __asm__ volatile("mv %[val], a%[reg]" : [val] "=r"(value) : [reg] "i"(reg_number));
    800023b0:	00050793          	mv	a5,a0

    volatile long a0 = Riscv::readARegister(0);
    800023b4:	fcf43023          	sd	a5,-64(s0)
    return (int) a0;
    800023b8:	fc043503          	ld	a0,-64(s0)
}
    800023bc:	0005051b          	sext.w	a0,a0
    800023c0:	03813083          	ld	ra,56(sp)
    800023c4:	03013403          	ld	s0,48(sp)
    800023c8:	02813483          	ld	s1,40(sp)
    800023cc:	02013903          	ld	s2,32(sp)
    800023d0:	01813983          	ld	s3,24(sp)
    800023d4:	04010113          	addi	sp,sp,64
    800023d8:	00008067          	ret

00000000800023dc <_Z15thread_dispatchv>:

void thread_dispatch() {
    800023dc:	ff010113          	addi	sp,sp,-16
    800023e0:	00813423          	sd	s0,8(sp)
    800023e4:	01010413          	addi	s0,sp,16
    __asm__ volatile("mv a%[reg], %[val]" ::[reg] "i"(reg_number), [val] "r"(value));
    800023e8:	01300793          	li	a5,19
    800023ec:	00078513          	mv	a0,a5
    Riscv::writeARegister(0, 0x13);

    __asm__ volatile("ecall");
    800023f0:	00000073          	ecall

}
    800023f4:	00813403          	ld	s0,8(sp)
    800023f8:	01010113          	addi	sp,sp,16
    800023fc:	00008067          	ret

0000000080002400 <_Z11thread_exitv>:

int thread_exit() {
    80002400:	fe010113          	addi	sp,sp,-32
    80002404:	00813c23          	sd	s0,24(sp)
    80002408:	02010413          	addi	s0,sp,32
    8000240c:	01200793          	li	a5,18
    80002410:	00078513          	mv	a0,a5
    Riscv::writeARegister(0, 0x12);

    __asm__ volatile("ecall");
    80002414:	00000073          	ecall
    __asm__ volatile("mv %[val], a%[reg]" : [val] "=r"(value) : [reg] "i"(reg_number));
    80002418:	00050793          	mv	a5,a0

    volatile long a0 = Riscv::readARegister(0);
    8000241c:	fef43423          	sd	a5,-24(s0)
    return (int) a0;
    80002420:	fe843503          	ld	a0,-24(s0)

}
    80002424:	0005051b          	sext.w	a0,a0
    80002428:	01813403          	ld	s0,24(sp)
    8000242c:	02010113          	addi	sp,sp,32
    80002430:	00008067          	ret

0000000080002434 <_Z8sem_openPP4_semj>:

int sem_open(sem_t*handle, unsigned init) {
    80002434:	fe010113          	addi	sp,sp,-32
    80002438:	00813c23          	sd	s0,24(sp)
    8000243c:	02010413          	addi	s0,sp,32
    Riscv::writeARegister(2, (uint64)init);
    80002440:	02059593          	slli	a1,a1,0x20
    80002444:	0205d593          	srli	a1,a1,0x20
    __asm__ volatile("mv a%[reg], %[val]" ::[reg] "i"(reg_number), [val] "r"(value));
    80002448:	00058613          	mv	a2,a1
    8000244c:	00050593          	mv	a1,a0
    80002450:	02100793          	li	a5,33
    80002454:	00078513          	mv	a0,a5
    Riscv::writeARegister(1, (uint64)handle);

    Riscv::writeARegister(0, 0x21);

    __asm__ volatile("ecall");
    80002458:	00000073          	ecall
    __asm__ volatile("mv %[val], a%[reg]" : [val] "=r"(value) : [reg] "i"(reg_number));
    8000245c:	00050793          	mv	a5,a0

    volatile long a0 = Riscv::readARegister(0);
    80002460:	fef43423          	sd	a5,-24(s0)
    return (int) a0;
    80002464:	fe843503          	ld	a0,-24(s0)

}
    80002468:	0005051b          	sext.w	a0,a0
    8000246c:	01813403          	ld	s0,24(sp)
    80002470:	02010113          	addi	sp,sp,32
    80002474:	00008067          	ret

0000000080002478 <_Z9sem_closeP4_sem>:

int sem_close(sem_t handle) {
    80002478:	fe010113          	addi	sp,sp,-32
    8000247c:	00813c23          	sd	s0,24(sp)
    80002480:	02010413          	addi	s0,sp,32
    __asm__ volatile("mv a%[reg], %[val]" ::[reg] "i"(reg_number), [val] "r"(value));
    80002484:	00050593          	mv	a1,a0
    80002488:	02200793          	li	a5,34
    8000248c:	00078513          	mv	a0,a5
    Riscv::writeARegister(1, (uint64)handle);

    Riscv::writeARegister(0, 0x22);

    __asm__ volatile("ecall");
    80002490:	00000073          	ecall
    __asm__ volatile("mv %[val], a%[reg]" : [val] "=r"(value) : [reg] "i"(reg_number));
    80002494:	00050793          	mv	a5,a0

    volatile long a0 = Riscv::readARegister(0);
    80002498:	fef43423          	sd	a5,-24(s0)
    return (int) a0;
    8000249c:	fe843503          	ld	a0,-24(s0)
}
    800024a0:	0005051b          	sext.w	a0,a0
    800024a4:	01813403          	ld	s0,24(sp)
    800024a8:	02010113          	addi	sp,sp,32
    800024ac:	00008067          	ret

00000000800024b0 <_Z8sem_waitP4_sem>:

int sem_wait(sem_t id) {
    800024b0:	fe010113          	addi	sp,sp,-32
    800024b4:	00813c23          	sd	s0,24(sp)
    800024b8:	02010413          	addi	s0,sp,32
    __asm__ volatile("mv a%[reg], %[val]" ::[reg] "i"(reg_number), [val] "r"(value));
    800024bc:	00050593          	mv	a1,a0
    800024c0:	02300793          	li	a5,35
    800024c4:	00078513          	mv	a0,a5
    Riscv::writeARegister(1, (uint64)id);

    Riscv::writeARegister(0, 0x23);

    __asm__ volatile("ecall");
    800024c8:	00000073          	ecall
    __asm__ volatile("mv %[val], a%[reg]" : [val] "=r"(value) : [reg] "i"(reg_number));
    800024cc:	00050793          	mv	a5,a0

    volatile long a0 = Riscv::readARegister(0);
    800024d0:	fef43423          	sd	a5,-24(s0)
    return (int) a0;
    800024d4:	fe843503          	ld	a0,-24(s0)
}
    800024d8:	0005051b          	sext.w	a0,a0
    800024dc:	01813403          	ld	s0,24(sp)
    800024e0:	02010113          	addi	sp,sp,32
    800024e4:	00008067          	ret

00000000800024e8 <_Z10sem_signalP4_sem>:

int sem_signal(sem_t id) {
    800024e8:	fe010113          	addi	sp,sp,-32
    800024ec:	00813c23          	sd	s0,24(sp)
    800024f0:	02010413          	addi	s0,sp,32
    __asm__ volatile("mv a%[reg], %[val]" ::[reg] "i"(reg_number), [val] "r"(value));
    800024f4:	00050593          	mv	a1,a0
    800024f8:	02400793          	li	a5,36
    800024fc:	00078513          	mv	a0,a5
    Riscv::writeARegister(1, (uint64)id);

    Riscv::writeARegister(0, 0x24);

    __asm__ volatile("ecall");
    80002500:	00000073          	ecall
    __asm__ volatile("mv %[val], a%[reg]" : [val] "=r"(value) : [reg] "i"(reg_number));
    80002504:	00050793          	mv	a5,a0

    volatile long a0 = Riscv::readARegister(0);
    80002508:	fef43423          	sd	a5,-24(s0)
    return (int) a0;
    8000250c:	fe843503          	ld	a0,-24(s0)
}
    80002510:	0005051b          	sext.w	a0,a0
    80002514:	01813403          	ld	s0,24(sp)
    80002518:	02010113          	addi	sp,sp,32
    8000251c:	00008067          	ret

0000000080002520 <_Z10sem_wait_nP4_semj>:

int sem_wait_n(sem_t id, unsigned n)
{
    80002520:	fe010113          	addi	sp,sp,-32
    80002524:	00813c23          	sd	s0,24(sp)
    80002528:	02010413          	addi	s0,sp,32
    Riscv::writeARegister(2, (uint64)n);
    8000252c:	02059593          	slli	a1,a1,0x20
    80002530:	0205d593          	srli	a1,a1,0x20
    __asm__ volatile("mv a%[reg], %[val]" ::[reg] "i"(reg_number), [val] "r"(value));
    80002534:	00058613          	mv	a2,a1
    80002538:	00050593          	mv	a1,a0
    8000253c:	02500793          	li	a5,37
    80002540:	00078513          	mv	a0,a5
    Riscv::writeARegister(1, (uint64)id);

    Riscv::writeARegister(0, 0x25);

    __asm__ volatile("ecall");
    80002544:	00000073          	ecall
    __asm__ volatile("mv %[val], a%[reg]" : [val] "=r"(value) : [reg] "i"(reg_number));
    80002548:	00050793          	mv	a5,a0

    volatile long a0 = Riscv::readARegister(0);
    8000254c:	fef43423          	sd	a5,-24(s0)
    return (int) a0;
    80002550:	fe843503          	ld	a0,-24(s0)
}
    80002554:	0005051b          	sext.w	a0,a0
    80002558:	01813403          	ld	s0,24(sp)
    8000255c:	02010113          	addi	sp,sp,32
    80002560:	00008067          	ret

0000000080002564 <_Z12sem_signal_nP4_semj>:
int sem_signal_n(sem_t id, unsigned n)
{   
    80002564:	fe010113          	addi	sp,sp,-32
    80002568:	00813c23          	sd	s0,24(sp)
    8000256c:	02010413          	addi	s0,sp,32
    Riscv::writeARegister(2, (uint64)n);
    80002570:	02059593          	slli	a1,a1,0x20
    80002574:	0205d593          	srli	a1,a1,0x20
    __asm__ volatile("mv a%[reg], %[val]" ::[reg] "i"(reg_number), [val] "r"(value));
    80002578:	00058613          	mv	a2,a1
    8000257c:	00050593          	mv	a1,a0
    80002580:	02600793          	li	a5,38
    80002584:	00078513          	mv	a0,a5
    Riscv::writeARegister(1, (uint64)id);

    Riscv::writeARegister(0, 0x26);

    __asm__ volatile("ecall");
    80002588:	00000073          	ecall
    __asm__ volatile("mv %[val], a%[reg]" : [val] "=r"(value) : [reg] "i"(reg_number));
    8000258c:	00050793          	mv	a5,a0

    volatile long a0 = Riscv::readARegister(0);
    80002590:	fef43423          	sd	a5,-24(s0)
    return (int) a0;
    80002594:	fe843503          	ld	a0,-24(s0)
}
    80002598:	0005051b          	sext.w	a0,a0
    8000259c:	01813403          	ld	s0,24(sp)
    800025a0:	02010113          	addi	sp,sp,32
    800025a4:	00008067          	ret

00000000800025a8 <_Z10time_sleepm>:
int time_sleep(time_t t)
{
    800025a8:	fe010113          	addi	sp,sp,-32
    800025ac:	00813c23          	sd	s0,24(sp)
    800025b0:	02010413          	addi	s0,sp,32
    __asm__ volatile("mv a%[reg], %[val]" ::[reg] "i"(reg_number), [val] "r"(value));
    800025b4:	00050593          	mv	a1,a0
    800025b8:	03100793          	li	a5,49
    800025bc:	00078513          	mv	a0,a5
    Riscv::writeARegister(1, (uint64)t);
    Riscv::writeARegister(0, 0x31);

    __asm__ volatile("ecall");
    800025c0:	00000073          	ecall
    __asm__ volatile("mv %[val], a%[reg]" : [val] "=r"(value) : [reg] "i"(reg_number));
    800025c4:	00050793          	mv	a5,a0

    volatile long a0 = Riscv::readARegister(0);
    800025c8:	fef43423          	sd	a5,-24(s0)
    return (int) a0;
    800025cc:	fe843503          	ld	a0,-24(s0)
}
    800025d0:	0005051b          	sext.w	a0,a0
    800025d4:	01813403          	ld	s0,24(sp)
    800025d8:	02010113          	addi	sp,sp,32
    800025dc:	00008067          	ret

00000000800025e0 <_Z4getcv>:

char getc() {
    800025e0:	fe010113          	addi	sp,sp,-32
    800025e4:	00113c23          	sd	ra,24(sp)
    800025e8:	00813823          	sd	s0,16(sp)
    800025ec:	02010413          	addi	s0,sp,32
        ensureInit();
    800025f0:	fffff097          	auipc	ra,0xfffff
    800025f4:	c58080e7          	jalr	-936(ra) # 80001248 <_ZN8_console10ensureInitEv>
     sem_wait(reinterpret_cast<sem_t>(_console::getInSem()));
    800025f8:	00009517          	auipc	a0,0x9
    800025fc:	21853503          	ld	a0,536(a0) # 8000b810 <_ZN8_console5inSemE>
    80002600:	00000097          	auipc	ra,0x0
    80002604:	eb0080e7          	jalr	-336(ra) # 800024b0 <_Z8sem_waitP4_sem>
    __asm__ volatile("mv a%[reg], %[val]" ::[reg] "i"(reg_number), [val] "r"(value));
    80002608:	04100793          	li	a5,65
    8000260c:	00078513          	mv	a0,a5
    Riscv::writeARegister(0, 0x41);

    __asm__ volatile("ecall");
    80002610:	00000073          	ecall
    __asm__ volatile("mv %[val], a%[reg]" : [val] "=r"(value) : [reg] "i"(reg_number));
    80002614:	00050793          	mv	a5,a0

    volatile long a0 = Riscv::readARegister(0);
    80002618:	fef43423          	sd	a5,-24(s0)
    return (char) a0;
    8000261c:	fe843503          	ld	a0,-24(s0)
}
    80002620:	0ff57513          	andi	a0,a0,255
    80002624:	01813083          	ld	ra,24(sp)
    80002628:	01013403          	ld	s0,16(sp)
    8000262c:	02010113          	addi	sp,sp,32
    80002630:	00008067          	ret

0000000080002634 <_Z4putcc>:

void putc(char c) {
    80002634:	fe010113          	addi	sp,sp,-32
    80002638:	00113c23          	sd	ra,24(sp)
    8000263c:	00813823          	sd	s0,16(sp)
    80002640:	00913423          	sd	s1,8(sp)
    80002644:	02010413          	addi	s0,sp,32
    80002648:	00050493          	mv	s1,a0
        ensureInit();
    8000264c:	fffff097          	auipc	ra,0xfffff
    80002650:	bfc080e7          	jalr	-1028(ra) # 80001248 <_ZN8_console10ensureInitEv>
    sem_wait(reinterpret_cast<sem_t>(_console::getOutSem()));
    80002654:	00009517          	auipc	a0,0x9
    80002658:	1b453503          	ld	a0,436(a0) # 8000b808 <_ZN8_console6outSemE>
    8000265c:	00000097          	auipc	ra,0x0
    80002660:	e54080e7          	jalr	-428(ra) # 800024b0 <_Z8sem_waitP4_sem>
    __asm__ volatile("mv a%[reg], %[val]" ::[reg] "i"(reg_number), [val] "r"(value));
    80002664:	00048593          	mv	a1,s1
    80002668:	04200793          	li	a5,66
    8000266c:	00078513          	mv	a0,a5
    Riscv::writeARegister(1, (uint64)c);
    Riscv::writeARegister(0, 0x42);

    __asm__ volatile("ecall");
    80002670:	00000073          	ecall

}
    80002674:	01813083          	ld	ra,24(sp)
    80002678:	01013403          	ld	s0,16(sp)
    8000267c:	00813483          	ld	s1,8(sp)
    80002680:	02010113          	addi	sp,sp,32
    80002684:	00008067          	ret

0000000080002688 <_ZN6ThreadD1Ev>:
    this->myHandle = 0;
    this->body = body;
    this->arg = arg;
}

Thread::~Thread() = default;
    80002688:	ff010113          	addi	sp,sp,-16
    8000268c:	00813423          	sd	s0,8(sp)
    80002690:	01010413          	addi	s0,sp,16
    80002694:	00007797          	auipc	a5,0x7
    80002698:	b1c78793          	addi	a5,a5,-1252 # 800091b0 <_ZTV6Thread+0x10>
    8000269c:	00f53023          	sd	a5,0(a0)
    800026a0:	00813403          	ld	s0,8(sp)
    800026a4:	01010113          	addi	sp,sp,16
    800026a8:	00008067          	ret

00000000800026ac <_ZN6Thread7wrapperEPv>:
{
    return time_sleep(t);
}

void Thread::wrapper(void * arg)
{
    800026ac:	ff010113          	addi	sp,sp,-16
    800026b0:	00113423          	sd	ra,8(sp)
    800026b4:	00813023          	sd	s0,0(sp)
    800026b8:	01010413          	addi	s0,sp,16
    Thread* t = (Thread*) arg;
    t->run();
    800026bc:	00053783          	ld	a5,0(a0)
    800026c0:	0107b783          	ld	a5,16(a5)
    800026c4:	000780e7          	jalr	a5
}
    800026c8:	00813083          	ld	ra,8(sp)
    800026cc:	00013403          	ld	s0,0(sp)
    800026d0:	01010113          	addi	sp,sp,16
    800026d4:	00008067          	ret

00000000800026d8 <_ZN9SemaphoreD1Ev>:
Semaphore::Semaphore(unsigned init)
{
    sem_open(&myHandle, init);
}

Semaphore::~Semaphore()
    800026d8:	fe010113          	addi	sp,sp,-32
    800026dc:	00113c23          	sd	ra,24(sp)
    800026e0:	00813823          	sd	s0,16(sp)
    800026e4:	00913423          	sd	s1,8(sp)
    800026e8:	02010413          	addi	s0,sp,32
    800026ec:	00050493          	mv	s1,a0
    800026f0:	00007797          	auipc	a5,0x7
    800026f4:	ae878793          	addi	a5,a5,-1304 # 800091d8 <_ZTV9Semaphore+0x10>
    800026f8:	00f53023          	sd	a5,0(a0)
{
    if (!myHandle) return;
    800026fc:	00853503          	ld	a0,8(a0)
    80002700:	00050863          	beqz	a0,80002710 <_ZN9SemaphoreD1Ev+0x38>
    sem_close(myHandle);
    80002704:	00000097          	auipc	ra,0x0
    80002708:	d74080e7          	jalr	-652(ra) # 80002478 <_Z9sem_closeP4_sem>
    myHandle = 0;
    8000270c:	0004b423          	sd	zero,8(s1)
}
    80002710:	01813083          	ld	ra,24(sp)
    80002714:	01013403          	ld	s0,16(sp)
    80002718:	00813483          	ld	s1,8(sp)
    8000271c:	02010113          	addi	sp,sp,32
    80002720:	00008067          	ret

0000000080002724 <_Znwm>:
void* operator new(size_t size) {
    80002724:	ff010113          	addi	sp,sp,-16
    80002728:	00113423          	sd	ra,8(sp)
    8000272c:	00813023          	sd	s0,0(sp)
    80002730:	01010413          	addi	s0,sp,16
    return mem_alloc(size);
    80002734:	00000097          	auipc	ra,0x0
    80002738:	ba8080e7          	jalr	-1112(ra) # 800022dc <_Z9mem_allocm>
}
    8000273c:	00813083          	ld	ra,8(sp)
    80002740:	00013403          	ld	s0,0(sp)
    80002744:	01010113          	addi	sp,sp,16
    80002748:	00008067          	ret

000000008000274c <_ZdlPv>:
void operator delete(void* ptr) {
    8000274c:	ff010113          	addi	sp,sp,-16
    80002750:	00113423          	sd	ra,8(sp)
    80002754:	00813023          	sd	s0,0(sp)
    80002758:	01010413          	addi	s0,sp,16
    mem_free(ptr);
    8000275c:	00000097          	auipc	ra,0x0
    80002760:	bbc080e7          	jalr	-1092(ra) # 80002318 <_Z8mem_freePv>
}
    80002764:	00813083          	ld	ra,8(sp)
    80002768:	00013403          	ld	s0,0(sp)
    8000276c:	01010113          	addi	sp,sp,16
    80002770:	00008067          	ret

0000000080002774 <_ZN6ThreadD0Ev>:
Thread::~Thread() = default;
    80002774:	fe010113          	addi	sp,sp,-32
    80002778:	00113c23          	sd	ra,24(sp)
    8000277c:	00813823          	sd	s0,16(sp)
    80002780:	00913423          	sd	s1,8(sp)
    80002784:	02010413          	addi	s0,sp,32
    80002788:	00050493          	mv	s1,a0
    8000278c:	00000097          	auipc	ra,0x0
    80002790:	efc080e7          	jalr	-260(ra) # 80002688 <_ZN6ThreadD1Ev>
    80002794:	00048513          	mv	a0,s1
    80002798:	00000097          	auipc	ra,0x0
    8000279c:	fb4080e7          	jalr	-76(ra) # 8000274c <_ZdlPv>
    800027a0:	01813083          	ld	ra,24(sp)
    800027a4:	01013403          	ld	s0,16(sp)
    800027a8:	00813483          	ld	s1,8(sp)
    800027ac:	02010113          	addi	sp,sp,32
    800027b0:	00008067          	ret

00000000800027b4 <_ZN9SemaphoreD0Ev>:
Semaphore::~Semaphore()
    800027b4:	fe010113          	addi	sp,sp,-32
    800027b8:	00113c23          	sd	ra,24(sp)
    800027bc:	00813823          	sd	s0,16(sp)
    800027c0:	00913423          	sd	s1,8(sp)
    800027c4:	02010413          	addi	s0,sp,32
    800027c8:	00050493          	mv	s1,a0
}
    800027cc:	00000097          	auipc	ra,0x0
    800027d0:	f0c080e7          	jalr	-244(ra) # 800026d8 <_ZN9SemaphoreD1Ev>
    800027d4:	00048513          	mv	a0,s1
    800027d8:	00000097          	auipc	ra,0x0
    800027dc:	f74080e7          	jalr	-140(ra) # 8000274c <_ZdlPv>
    800027e0:	01813083          	ld	ra,24(sp)
    800027e4:	01013403          	ld	s0,16(sp)
    800027e8:	00813483          	ld	s1,8(sp)
    800027ec:	02010113          	addi	sp,sp,32
    800027f0:	00008067          	ret

00000000800027f4 <_ZN6ThreadC1EPFvPvES0_>:
Thread::Thread(void (*body)(void *), void *arg)
    800027f4:	ff010113          	addi	sp,sp,-16
    800027f8:	00813423          	sd	s0,8(sp)
    800027fc:	01010413          	addi	s0,sp,16
    80002800:	00007797          	auipc	a5,0x7
    80002804:	9b078793          	addi	a5,a5,-1616 # 800091b0 <_ZTV6Thread+0x10>
    80002808:	00f53023          	sd	a5,0(a0)
    this->myHandle = 0;
    8000280c:	00053423          	sd	zero,8(a0)
    this->body = body;
    80002810:	00b53823          	sd	a1,16(a0)
    this->arg = arg;
    80002814:	00c53c23          	sd	a2,24(a0)
}
    80002818:	00813403          	ld	s0,8(sp)
    8000281c:	01010113          	addi	sp,sp,16
    80002820:	00008067          	ret

0000000080002824 <_ZN6Thread5startEv>:
{
    80002824:	ff010113          	addi	sp,sp,-16
    80002828:	00113423          	sd	ra,8(sp)
    8000282c:	00813023          	sd	s0,0(sp)
    80002830:	01010413          	addi	s0,sp,16
    return thread_create(&myHandle, body, arg);
    80002834:	01853603          	ld	a2,24(a0)
    80002838:	01053583          	ld	a1,16(a0)
    8000283c:	00850513          	addi	a0,a0,8
    80002840:	00000097          	auipc	ra,0x0
    80002844:	b10080e7          	jalr	-1264(ra) # 80002350 <_Z13thread_createPP7_threadPFvPvES2_>
}
    80002848:	00813083          	ld	ra,8(sp)
    8000284c:	00013403          	ld	s0,0(sp)
    80002850:	01010113          	addi	sp,sp,16
    80002854:	00008067          	ret

0000000080002858 <_ZN6Thread8dispatchEv>:
{
    80002858:	ff010113          	addi	sp,sp,-16
    8000285c:	00113423          	sd	ra,8(sp)
    80002860:	00813023          	sd	s0,0(sp)
    80002864:	01010413          	addi	s0,sp,16
    thread_dispatch();
    80002868:	00000097          	auipc	ra,0x0
    8000286c:	b74080e7          	jalr	-1164(ra) # 800023dc <_Z15thread_dispatchv>
}
    80002870:	00813083          	ld	ra,8(sp)
    80002874:	00013403          	ld	s0,0(sp)
    80002878:	01010113          	addi	sp,sp,16
    8000287c:	00008067          	ret

0000000080002880 <_ZN6Thread5sleepEm>:
{
    80002880:	ff010113          	addi	sp,sp,-16
    80002884:	00113423          	sd	ra,8(sp)
    80002888:	00813023          	sd	s0,0(sp)
    8000288c:	01010413          	addi	s0,sp,16
    return time_sleep(t);
    80002890:	00000097          	auipc	ra,0x0
    80002894:	d18080e7          	jalr	-744(ra) # 800025a8 <_Z10time_sleepm>
}
    80002898:	00813083          	ld	ra,8(sp)
    8000289c:	00013403          	ld	s0,0(sp)
    800028a0:	01010113          	addi	sp,sp,16
    800028a4:	00008067          	ret

00000000800028a8 <_ZN14PeriodicThread3runEv>:
{
    this->period = period;
}

void PeriodicThread::run()
{
    800028a8:	fe010113          	addi	sp,sp,-32
    800028ac:	00113c23          	sd	ra,24(sp)
    800028b0:	00813823          	sd	s0,16(sp)
    800028b4:	00913423          	sd	s1,8(sp)
    800028b8:	02010413          	addi	s0,sp,32
    800028bc:	00050493          	mv	s1,a0
    800028c0:	01c0006f          	j	800028dc <_ZN14PeriodicThread3runEv+0x34>
    while(this->period != (time_t) -1){
        Thread::sleep(period);
    800028c4:	00000097          	auipc	ra,0x0
    800028c8:	fbc080e7          	jalr	-68(ra) # 80002880 <_ZN6Thread5sleepEm>
        periodicActivation();
    800028cc:	0004b783          	ld	a5,0(s1)
    800028d0:	0187b783          	ld	a5,24(a5)
    800028d4:	00048513          	mv	a0,s1
    800028d8:	000780e7          	jalr	a5
    while(this->period != (time_t) -1){
    800028dc:	0204b503          	ld	a0,32(s1)
    800028e0:	fff00793          	li	a5,-1
    800028e4:	fef510e3          	bne	a0,a5,800028c4 <_ZN14PeriodicThread3runEv+0x1c>
    }
}
    800028e8:	01813083          	ld	ra,24(sp)
    800028ec:	01013403          	ld	s0,16(sp)
    800028f0:	00813483          	ld	s1,8(sp)
    800028f4:	02010113          	addi	sp,sp,32
    800028f8:	00008067          	ret

00000000800028fc <_ZN6ThreadC1Ev>:
Thread::Thread()
    800028fc:	ff010113          	addi	sp,sp,-16
    80002900:	00813423          	sd	s0,8(sp)
    80002904:	01010413          	addi	s0,sp,16
    80002908:	00007797          	auipc	a5,0x7
    8000290c:	8a878793          	addi	a5,a5,-1880 # 800091b0 <_ZTV6Thread+0x10>
    80002910:	00f53023          	sd	a5,0(a0)
    myHandle = 0;
    80002914:	00053423          	sd	zero,8(a0)
    body = wrapper;
    80002918:	00000797          	auipc	a5,0x0
    8000291c:	d9478793          	addi	a5,a5,-620 # 800026ac <_ZN6Thread7wrapperEPv>
    80002920:	00f53823          	sd	a5,16(a0)
    arg = this;
    80002924:	00a53c23          	sd	a0,24(a0)
}
    80002928:	00813403          	ld	s0,8(sp)
    8000292c:	01010113          	addi	sp,sp,16
    80002930:	00008067          	ret

0000000080002934 <_ZN9SemaphoreC1Ej>:
Semaphore::Semaphore(unsigned init)
    80002934:	ff010113          	addi	sp,sp,-16
    80002938:	00113423          	sd	ra,8(sp)
    8000293c:	00813023          	sd	s0,0(sp)
    80002940:	01010413          	addi	s0,sp,16
    80002944:	00007797          	auipc	a5,0x7
    80002948:	89478793          	addi	a5,a5,-1900 # 800091d8 <_ZTV9Semaphore+0x10>
    8000294c:	00f53023          	sd	a5,0(a0)
    sem_open(&myHandle, init);
    80002950:	00850513          	addi	a0,a0,8
    80002954:	00000097          	auipc	ra,0x0
    80002958:	ae0080e7          	jalr	-1312(ra) # 80002434 <_Z8sem_openPP4_semj>
}
    8000295c:	00813083          	ld	ra,8(sp)
    80002960:	00013403          	ld	s0,0(sp)
    80002964:	01010113          	addi	sp,sp,16
    80002968:	00008067          	ret

000000008000296c <_ZN9Semaphore4waitEv>:
{
    8000296c:	ff010113          	addi	sp,sp,-16
    80002970:	00113423          	sd	ra,8(sp)
    80002974:	00813023          	sd	s0,0(sp)
    80002978:	01010413          	addi	s0,sp,16
    return sem_wait(myHandle);
    8000297c:	00853503          	ld	a0,8(a0)
    80002980:	00000097          	auipc	ra,0x0
    80002984:	b30080e7          	jalr	-1232(ra) # 800024b0 <_Z8sem_waitP4_sem>
}
    80002988:	00813083          	ld	ra,8(sp)
    8000298c:	00013403          	ld	s0,0(sp)
    80002990:	01010113          	addi	sp,sp,16
    80002994:	00008067          	ret

0000000080002998 <_ZN9Semaphore6signalEv>:
{
    80002998:	ff010113          	addi	sp,sp,-16
    8000299c:	00113423          	sd	ra,8(sp)
    800029a0:	00813023          	sd	s0,0(sp)
    800029a4:	01010413          	addi	s0,sp,16
    return sem_signal(myHandle);
    800029a8:	00853503          	ld	a0,8(a0)
    800029ac:	00000097          	auipc	ra,0x0
    800029b0:	b3c080e7          	jalr	-1220(ra) # 800024e8 <_Z10sem_signalP4_sem>
}
    800029b4:	00813083          	ld	ra,8(sp)
    800029b8:	00013403          	ld	s0,0(sp)
    800029bc:	01010113          	addi	sp,sp,16
    800029c0:	00008067          	ret

00000000800029c4 <_ZN14PeriodicThread9terminateEv>:
{
    800029c4:	ff010113          	addi	sp,sp,-16
    800029c8:	00813423          	sd	s0,8(sp)
    800029cc:	01010413          	addi	s0,sp,16
    this->period = (time_t) -1;
    800029d0:	fff00793          	li	a5,-1
    800029d4:	02f53023          	sd	a5,32(a0)
}
    800029d8:	00813403          	ld	s0,8(sp)
    800029dc:	01010113          	addi	sp,sp,16
    800029e0:	00008067          	ret

00000000800029e4 <_ZN14PeriodicThreadC1Em>:
PeriodicThread::PeriodicThread(time_t period) : Thread()
    800029e4:	fe010113          	addi	sp,sp,-32
    800029e8:	00113c23          	sd	ra,24(sp)
    800029ec:	00813823          	sd	s0,16(sp)
    800029f0:	00913423          	sd	s1,8(sp)
    800029f4:	01213023          	sd	s2,0(sp)
    800029f8:	02010413          	addi	s0,sp,32
    800029fc:	00050493          	mv	s1,a0
    80002a00:	00058913          	mv	s2,a1
    80002a04:	00000097          	auipc	ra,0x0
    80002a08:	ef8080e7          	jalr	-264(ra) # 800028fc <_ZN6ThreadC1Ev>
    80002a0c:	00006797          	auipc	a5,0x6
    80002a10:	7ec78793          	addi	a5,a5,2028 # 800091f8 <_ZTV14PeriodicThread+0x10>
    80002a14:	00f4b023          	sd	a5,0(s1)
    this->period = period;
    80002a18:	0324b023          	sd	s2,32(s1)
}
    80002a1c:	01813083          	ld	ra,24(sp)
    80002a20:	01013403          	ld	s0,16(sp)
    80002a24:	00813483          	ld	s1,8(sp)
    80002a28:	00013903          	ld	s2,0(sp)
    80002a2c:	02010113          	addi	sp,sp,32
    80002a30:	00008067          	ret

0000000080002a34 <_ZN7Console4getcEv>:

char Console::getc()
{
    80002a34:	ff010113          	addi	sp,sp,-16
    80002a38:	00113423          	sd	ra,8(sp)
    80002a3c:	00813023          	sd	s0,0(sp)
    80002a40:	01010413          	addi	s0,sp,16
    return ::getc();
    80002a44:	00000097          	auipc	ra,0x0
    80002a48:	b9c080e7          	jalr	-1124(ra) # 800025e0 <_Z4getcv>
}
    80002a4c:	00813083          	ld	ra,8(sp)
    80002a50:	00013403          	ld	s0,0(sp)
    80002a54:	01010113          	addi	sp,sp,16
    80002a58:	00008067          	ret

0000000080002a5c <_ZN7Console4putcEc>:

void Console::putc(char c)
{
    80002a5c:	ff010113          	addi	sp,sp,-16
    80002a60:	00113423          	sd	ra,8(sp)
    80002a64:	00813023          	sd	s0,0(sp)
    80002a68:	01010413          	addi	s0,sp,16
    ::putc(c);
    80002a6c:	00000097          	auipc	ra,0x0
    80002a70:	bc8080e7          	jalr	-1080(ra) # 80002634 <_Z4putcc>
}
    80002a74:	00813083          	ld	ra,8(sp)
    80002a78:	00013403          	ld	s0,0(sp)
    80002a7c:	01010113          	addi	sp,sp,16
    80002a80:	00008067          	ret

0000000080002a84 <_ZN6Thread3runEv>:
    static void dispatch();
    static int sleep(time_t);

protected:
    Thread();
    virtual void run() {}
    80002a84:	ff010113          	addi	sp,sp,-16
    80002a88:	00813423          	sd	s0,8(sp)
    80002a8c:	01010413          	addi	s0,sp,16
    80002a90:	00813403          	ld	s0,8(sp)
    80002a94:	01010113          	addi	sp,sp,16
    80002a98:	00008067          	ret

0000000080002a9c <_ZN14PeriodicThread18periodicActivationEv>:
public:
    void terminate();

protected:
    PeriodicThread(time_t period);
    virtual void periodicActivation() {}
    80002a9c:	ff010113          	addi	sp,sp,-16
    80002aa0:	00813423          	sd	s0,8(sp)
    80002aa4:	01010413          	addi	s0,sp,16
    80002aa8:	00813403          	ld	s0,8(sp)
    80002aac:	01010113          	addi	sp,sp,16
    80002ab0:	00008067          	ret

0000000080002ab4 <_ZN14PeriodicThreadD1Ev>:
class PeriodicThread : public Thread
    80002ab4:	ff010113          	addi	sp,sp,-16
    80002ab8:	00113423          	sd	ra,8(sp)
    80002abc:	00813023          	sd	s0,0(sp)
    80002ac0:	01010413          	addi	s0,sp,16
    80002ac4:	00006797          	auipc	a5,0x6
    80002ac8:	73478793          	addi	a5,a5,1844 # 800091f8 <_ZTV14PeriodicThread+0x10>
    80002acc:	00f53023          	sd	a5,0(a0)
    80002ad0:	00000097          	auipc	ra,0x0
    80002ad4:	bb8080e7          	jalr	-1096(ra) # 80002688 <_ZN6ThreadD1Ev>
    80002ad8:	00813083          	ld	ra,8(sp)
    80002adc:	00013403          	ld	s0,0(sp)
    80002ae0:	01010113          	addi	sp,sp,16
    80002ae4:	00008067          	ret

0000000080002ae8 <_ZN14PeriodicThreadD0Ev>:
    80002ae8:	fe010113          	addi	sp,sp,-32
    80002aec:	00113c23          	sd	ra,24(sp)
    80002af0:	00813823          	sd	s0,16(sp)
    80002af4:	00913423          	sd	s1,8(sp)
    80002af8:	02010413          	addi	s0,sp,32
    80002afc:	00050493          	mv	s1,a0
    80002b00:	00006797          	auipc	a5,0x6
    80002b04:	6f878793          	addi	a5,a5,1784 # 800091f8 <_ZTV14PeriodicThread+0x10>
    80002b08:	00f53023          	sd	a5,0(a0)
    80002b0c:	00000097          	auipc	ra,0x0
    80002b10:	b7c080e7          	jalr	-1156(ra) # 80002688 <_ZN6ThreadD1Ev>
    80002b14:	00048513          	mv	a0,s1
    80002b18:	00000097          	auipc	ra,0x0
    80002b1c:	c34080e7          	jalr	-972(ra) # 8000274c <_ZdlPv>
    80002b20:	01813083          	ld	ra,24(sp)
    80002b24:	01013403          	ld	s0,16(sp)
    80002b28:	00813483          	ld	s1,8(sp)
    80002b2c:	02010113          	addi	sp,sp,32
    80002b30:	00008067          	ret

0000000080002b34 <_ZN7_thread13threadWrapperEv>:
        context.sp = 0;
    }
}

void _thread::threadWrapper()
{
    80002b34:	ff010113          	addi	sp,sp,-16
    80002b38:	00113423          	sd	ra,8(sp)
    80002b3c:	00813023          	sd	s0,0(sp)
    80002b40:	01010413          	addi	s0,sp,16

    Riscv::popSppSpie();
    80002b44:	fffff097          	auipc	ra,0xfffff
    80002b48:	e3c080e7          	jalr	-452(ra) # 80001980 <_ZN5Riscv10popSppSpieEv>
    if (running->body)
    80002b4c:	00009717          	auipc	a4,0x9
    80002b50:	d0c73703          	ld	a4,-756(a4) # 8000b858 <_ZN7_thread7runningE>
    80002b54:	01073783          	ld	a5,16(a4)
    80002b58:	00078663          	beqz	a5,80002b64 <_ZN7_thread13threadWrapperEv+0x30>
        running->body(running->args);
    80002b5c:	01873503          	ld	a0,24(a4)
    80002b60:	000780e7          	jalr	a5
	void setFinished(bool finished) { _thread::finished = finished; };
    80002b64:	00009797          	auipc	a5,0x9
    80002b68:	cf47b783          	ld	a5,-780(a5) # 8000b858 <_ZN7_thread7runningE>
    80002b6c:	00100713          	li	a4,1
    80002b70:	04e780a3          	sb	a4,65(a5)

    running->setFinished(true);

    thread_dispatch();
    80002b74:	00000097          	auipc	ra,0x0
    80002b78:	868080e7          	jalr	-1944(ra) # 800023dc <_Z15thread_dispatchv>
}
    80002b7c:	00813083          	ld	ra,8(sp)
    80002b80:	00013403          	ld	s0,0(sp)
    80002b84:	01010113          	addi	sp,sp,16
    80002b88:	00008067          	ret

0000000080002b8c <_ZN7_thread8dispatchEv>:
{
    80002b8c:	fe010113          	addi	sp,sp,-32
    80002b90:	00113c23          	sd	ra,24(sp)
    80002b94:	00813823          	sd	s0,16(sp)
    80002b98:	00913423          	sd	s1,8(sp)
    80002b9c:	02010413          	addi	s0,sp,32
    _thread *old = running;
    80002ba0:	00009497          	auipc	s1,0x9
    80002ba4:	cb84b483          	ld	s1,-840(s1) # 8000b858 <_ZN7_thread7runningE>
    if (old && !old->finished && old->isReady)
    80002ba8:	04048863          	beqz	s1,80002bf8 <_ZN7_thread8dispatchEv+0x6c>
    80002bac:	0414c783          	lbu	a5,65(s1)
    80002bb0:	04079463          	bnez	a5,80002bf8 <_ZN7_thread8dispatchEv+0x6c>
    80002bb4:	0404c783          	lbu	a5,64(s1)
    80002bb8:	04078063          	beqz	a5,80002bf8 <_ZN7_thread8dispatchEv+0x6c>
    80002bbc:	00009797          	auipc	a5,0x9
    80002bc0:	c847c783          	lbu	a5,-892(a5) # 8000b840 <_ZGVZN9Scheduler8instanceEvE8instance>
    80002bc4:	02079063          	bnez	a5,80002be4 <_ZN7_thread8dispatchEv+0x58>
    Scheduler() : head(nullptr), tail(nullptr) {};
    80002bc8:	00009797          	auipc	a5,0x9
    80002bcc:	d0878793          	addi	a5,a5,-760 # 8000b8d0 <_ZZN9Scheduler8instanceEvE8instance>
    80002bd0:	0007b023          	sd	zero,0(a5)
    80002bd4:	0007b423          	sd	zero,8(a5)
        static Scheduler instance;
    80002bd8:	00100793          	li	a5,1
    80002bdc:	00009717          	auipc	a4,0x9
    80002be0:	c6f70223          	sb	a5,-924(a4) # 8000b840 <_ZGVZN9Scheduler8instanceEvE8instance>
        Scheduler::instance().put(old);
    80002be4:	00048593          	mv	a1,s1
    80002be8:	00009517          	auipc	a0,0x9
    80002bec:	ce850513          	addi	a0,a0,-792 # 8000b8d0 <_ZZN9Scheduler8instanceEvE8instance>
    80002bf0:	fffff097          	auipc	ra,0xfffff
    80002bf4:	35c080e7          	jalr	860(ra) # 80001f4c <_ZN9Scheduler3putEP7_thread>
    80002bf8:	00009797          	auipc	a5,0x9
    80002bfc:	c487c783          	lbu	a5,-952(a5) # 8000b840 <_ZGVZN9Scheduler8instanceEvE8instance>
    80002c00:	02079063          	bnez	a5,80002c20 <_ZN7_thread8dispatchEv+0x94>
    Scheduler() : head(nullptr), tail(nullptr) {};
    80002c04:	00009797          	auipc	a5,0x9
    80002c08:	ccc78793          	addi	a5,a5,-820 # 8000b8d0 <_ZZN9Scheduler8instanceEvE8instance>
    80002c0c:	0007b023          	sd	zero,0(a5)
    80002c10:	0007b423          	sd	zero,8(a5)
        static Scheduler instance;
    80002c14:	00100793          	li	a5,1
    80002c18:	00009717          	auipc	a4,0x9
    80002c1c:	c2f70423          	sb	a5,-984(a4) # 8000b840 <_ZGVZN9Scheduler8instanceEvE8instance>
    running = Scheduler::instance().get();
    80002c20:	00009517          	auipc	a0,0x9
    80002c24:	cb050513          	addi	a0,a0,-848 # 8000b8d0 <_ZZN9Scheduler8instanceEvE8instance>
    80002c28:	fffff097          	auipc	ra,0xfffff
    80002c2c:	360080e7          	jalr	864(ra) # 80001f88 <_ZN9Scheduler3getEv>
    80002c30:	00009797          	auipc	a5,0x9
    80002c34:	c2a7b423          	sd	a0,-984(a5) # 8000b858 <_ZN7_thread7runningE>
    _thread::timeSliceCounter = 0;
    80002c38:	00009797          	auipc	a5,0x9
    80002c3c:	c007bc23          	sd	zero,-1000(a5) # 8000b850 <_ZN7_thread16timeSliceCounterE>
    switchContext(&old->context, &running->context);
    80002c40:	02850593          	addi	a1,a0,40
    80002c44:	02848513          	addi	a0,s1,40
    80002c48:	ffffe097          	auipc	ra,0xffffe
    80002c4c:	4c8080e7          	jalr	1224(ra) # 80001110 <_ZN7_thread13switchContextEPNS_7ContextES1_>
}
    80002c50:	01813083          	ld	ra,24(sp)
    80002c54:	01013403          	ld	s0,16(sp)
    80002c58:	00813483          	ld	s1,8(sp)
    80002c5c:	02010113          	addi	sp,sp,32
    80002c60:	00008067          	ret

0000000080002c64 <_ZN7_thread10time_sleepEm>:
    if (n == 0)
    80002c64:	08058663          	beqz	a1,80002cf0 <_ZN7_thread10time_sleepEm+0x8c>
{
    80002c68:	ff010113          	addi	sp,sp,-16
    80002c6c:	00113423          	sd	ra,8(sp)
    80002c70:	00813023          	sd	s0,0(sp)
    80002c74:	01010413          	addi	s0,sp,16
    _thread *curr = sleepingHead;
    80002c78:	00009797          	auipc	a5,0x9
    80002c7c:	bd07b783          	ld	a5,-1072(a5) # 8000b848 <_ZN7_thread12sleepingHeadE>
    _thread *prev = nullptr;
    80002c80:	00000693          	li	a3,0
    while (curr && n >= curr->timeSleeping)
    80002c84:	00078e63          	beqz	a5,80002ca0 <_ZN7_thread10time_sleepEm+0x3c>
    80002c88:	0507b703          	ld	a4,80(a5)
    80002c8c:	00e5ea63          	bltu	a1,a4,80002ca0 <_ZN7_thread10time_sleepEm+0x3c>
        n -= curr->timeSleeping;
    80002c90:	40e585b3          	sub	a1,a1,a4
        prev = curr;
    80002c94:	00078693          	mv	a3,a5
        curr = curr->waitnext;
    80002c98:	0087b783          	ld	a5,8(a5)
    while (curr && n >= curr->timeSleeping)
    80002c9c:	fe9ff06f          	j	80002c84 <_ZN7_thread10time_sleepEm+0x20>
    _thread::running->timeSleeping = n;
    80002ca0:	00009717          	auipc	a4,0x9
    80002ca4:	bb873703          	ld	a4,-1096(a4) # 8000b858 <_ZN7_thread7runningE>
    80002ca8:	04b73823          	sd	a1,80(a4)
    _thread::running->waitnext = curr;
    80002cac:	00f73423          	sd	a5,8(a4)
    if (!prev)
    80002cb0:	02068a63          	beqz	a3,80002ce4 <_ZN7_thread10time_sleepEm+0x80>
        prev->waitnext = _thread::running;
    80002cb4:	00e6b423          	sd	a4,8(a3)
    if (curr)
    80002cb8:	00078863          	beqz	a5,80002cc8 <_ZN7_thread10time_sleepEm+0x64>
        curr->timeSleeping -= n;
    80002cbc:	0507b683          	ld	a3,80(a5)
    80002cc0:	40b685b3          	sub	a1,a3,a1
    80002cc4:	04b7b823          	sd	a1,80(a5)
    _thread::running->isReady = false;
    80002cc8:	04070023          	sb	zero,64(a4)
    _thread::dispatch();
    80002ccc:	00000097          	auipc	ra,0x0
    80002cd0:	ec0080e7          	jalr	-320(ra) # 80002b8c <_ZN7_thread8dispatchEv>
}
    80002cd4:	00813083          	ld	ra,8(sp)
    80002cd8:	00013403          	ld	s0,0(sp)
    80002cdc:	01010113          	addi	sp,sp,16
    80002ce0:	00008067          	ret
        sleepingHead = _thread::running;
    80002ce4:	00009697          	auipc	a3,0x9
    80002ce8:	b6e6b223          	sd	a4,-1180(a3) # 8000b848 <_ZN7_thread12sleepingHeadE>
    80002cec:	fcdff06f          	j	80002cb8 <_ZN7_thread10time_sleepEm+0x54>
    80002cf0:	00008067          	ret

0000000080002cf4 <_ZN7_threadC1EPFvPvES0_S0_m>:
_thread::_thread(Body body, void *args, void *stack_space, uint64 time) : next(nullptr), waitnext(nullptr), body(body), args(args), stack((uint64 *)stack_space),
    80002cf4:	ff010113          	addi	sp,sp,-16
    80002cf8:	00813423          	sd	s0,8(sp)
    80002cfc:	01010413          	addi	s0,sp,16
                                                                          timeSlice(time), isReady(true), finished(false), semStatus(0), timeSleeping(0)
    80002d00:	00053023          	sd	zero,0(a0)
    80002d04:	00053423          	sd	zero,8(a0)
    80002d08:	00b53823          	sd	a1,16(a0)
    80002d0c:	00c53c23          	sd	a2,24(a0)
    80002d10:	02d53023          	sd	a3,32(a0)
    80002d14:	02e53c23          	sd	a4,56(a0)
    80002d18:	00100793          	li	a5,1
    80002d1c:	04f50023          	sb	a5,64(a0)
    80002d20:	040500a3          	sb	zero,65(a0)
    80002d24:	04052223          	sw	zero,68(a0)
    80002d28:	04053823          	sd	zero,80(a0)
    if (body != nullptr)
    80002d2c:	02058663          	beqz	a1,80002d58 <_ZN7_threadC1EPFvPvES0_S0_m+0x64>
        context.ra = (uint64)&threadWrapper;
    80002d30:	00000797          	auipc	a5,0x0
    80002d34:	e0478793          	addi	a5,a5,-508 # 80002b34 <_ZN7_thread13threadWrapperEv>
    80002d38:	02f53423          	sd	a5,40(a0)
        context.sp = ((uint64)stack_space + DEFAULT_STACK_SIZE) & ~0xFUL;
    80002d3c:	000017b7          	lui	a5,0x1
    80002d40:	00f686b3          	add	a3,a3,a5
    80002d44:	ff06f693          	andi	a3,a3,-16
    80002d48:	02d53823          	sd	a3,48(a0)
}
    80002d4c:	00813403          	ld	s0,8(sp)
    80002d50:	01010113          	addi	sp,sp,16
    80002d54:	00008067          	ret
        context.ra = 0;
    80002d58:	02053423          	sd	zero,40(a0)
        context.sp = 0;
    80002d5c:	02053823          	sd	zero,48(a0)
}
    80002d60:	fedff06f          	j	80002d4c <_ZN7_threadC1EPFvPvES0_S0_m+0x58>

0000000080002d64 <_ZN7_thread12createThreadEPFvPvES0_S0_>:
{
    80002d64:	fd010113          	addi	sp,sp,-48
    80002d68:	02113423          	sd	ra,40(sp)
    80002d6c:	02813023          	sd	s0,32(sp)
    80002d70:	00913c23          	sd	s1,24(sp)
    80002d74:	01213823          	sd	s2,16(sp)
    80002d78:	01313423          	sd	s3,8(sp)
    80002d7c:	01413023          	sd	s4,0(sp)
    80002d80:	03010413          	addi	s0,sp,48
    80002d84:	00050913          	mv	s2,a0
    80002d88:	00058993          	mv	s3,a1
    80002d8c:	00060a13          	mv	s4,a2
		void *ptr = MemoryAllocator::kmalloc(size);
    80002d90:	05800513          	li	a0,88
    80002d94:	fffff097          	auipc	ra,0xfffff
    80002d98:	8ac080e7          	jalr	-1876(ra) # 80001640 <_ZN15MemoryAllocator7kmallocEm>
    80002d9c:	00050493          	mv	s1,a0
    return new _thread(body, args, stack, DEFAULT_TIME_SLICE);
    80002da0:	00200713          	li	a4,2
    80002da4:	000a0693          	mv	a3,s4
    80002da8:	00098613          	mv	a2,s3
    80002dac:	00090593          	mv	a1,s2
    80002db0:	00000097          	auipc	ra,0x0
    80002db4:	f44080e7          	jalr	-188(ra) # 80002cf4 <_ZN7_threadC1EPFvPvES0_S0_m>
}
    80002db8:	00048513          	mv	a0,s1
    80002dbc:	02813083          	ld	ra,40(sp)
    80002dc0:	02013403          	ld	s0,32(sp)
    80002dc4:	01813483          	ld	s1,24(sp)
    80002dc8:	01013903          	ld	s2,16(sp)
    80002dcc:	00813983          	ld	s3,8(sp)
    80002dd0:	00013a03          	ld	s4,0(sp)
    80002dd4:	03010113          	addi	sp,sp,48
    80002dd8:	00008067          	ret

0000000080002ddc <_ZN6BufferC1Ei>:
#include "buffer.hpp"

Buffer::Buffer(int _cap) : cap(_cap + 1), head(0), tail(0) {
    80002ddc:	fe010113          	addi	sp,sp,-32
    80002de0:	00113c23          	sd	ra,24(sp)
    80002de4:	00813823          	sd	s0,16(sp)
    80002de8:	00913423          	sd	s1,8(sp)
    80002dec:	01213023          	sd	s2,0(sp)
    80002df0:	02010413          	addi	s0,sp,32
    80002df4:	00050493          	mv	s1,a0
    80002df8:	00058913          	mv	s2,a1
    80002dfc:	0015879b          	addiw	a5,a1,1
    80002e00:	0007851b          	sext.w	a0,a5
    80002e04:	00f4a023          	sw	a5,0(s1)
    80002e08:	0004a823          	sw	zero,16(s1)
    80002e0c:	0004aa23          	sw	zero,20(s1)
    buffer = (int *)mem_alloc(sizeof(int) * cap);
    80002e10:	00251513          	slli	a0,a0,0x2
    80002e14:	fffff097          	auipc	ra,0xfffff
    80002e18:	4c8080e7          	jalr	1224(ra) # 800022dc <_Z9mem_allocm>
    80002e1c:	00a4b423          	sd	a0,8(s1)
    sem_open(&itemAvailable, 0);
    80002e20:	00000593          	li	a1,0
    80002e24:	02048513          	addi	a0,s1,32
    80002e28:	fffff097          	auipc	ra,0xfffff
    80002e2c:	60c080e7          	jalr	1548(ra) # 80002434 <_Z8sem_openPP4_semj>
    sem_open(&spaceAvailable, _cap);
    80002e30:	00090593          	mv	a1,s2
    80002e34:	01848513          	addi	a0,s1,24
    80002e38:	fffff097          	auipc	ra,0xfffff
    80002e3c:	5fc080e7          	jalr	1532(ra) # 80002434 <_Z8sem_openPP4_semj>
    sem_open(&mutexHead, 1);
    80002e40:	00100593          	li	a1,1
    80002e44:	02848513          	addi	a0,s1,40
    80002e48:	fffff097          	auipc	ra,0xfffff
    80002e4c:	5ec080e7          	jalr	1516(ra) # 80002434 <_Z8sem_openPP4_semj>
    sem_open(&mutexTail, 1);
    80002e50:	00100593          	li	a1,1
    80002e54:	03048513          	addi	a0,s1,48
    80002e58:	fffff097          	auipc	ra,0xfffff
    80002e5c:	5dc080e7          	jalr	1500(ra) # 80002434 <_Z8sem_openPP4_semj>
}
    80002e60:	01813083          	ld	ra,24(sp)
    80002e64:	01013403          	ld	s0,16(sp)
    80002e68:	00813483          	ld	s1,8(sp)
    80002e6c:	00013903          	ld	s2,0(sp)
    80002e70:	02010113          	addi	sp,sp,32
    80002e74:	00008067          	ret

0000000080002e78 <_ZN6Buffer3putEi>:
    sem_close(spaceAvailable);
    sem_close(mutexTail);
    sem_close(mutexHead);
}

void Buffer::put(int val) {
    80002e78:	fe010113          	addi	sp,sp,-32
    80002e7c:	00113c23          	sd	ra,24(sp)
    80002e80:	00813823          	sd	s0,16(sp)
    80002e84:	00913423          	sd	s1,8(sp)
    80002e88:	01213023          	sd	s2,0(sp)
    80002e8c:	02010413          	addi	s0,sp,32
    80002e90:	00050493          	mv	s1,a0
    80002e94:	00058913          	mv	s2,a1
    sem_wait(spaceAvailable);
    80002e98:	01853503          	ld	a0,24(a0)
    80002e9c:	fffff097          	auipc	ra,0xfffff
    80002ea0:	614080e7          	jalr	1556(ra) # 800024b0 <_Z8sem_waitP4_sem>

    sem_wait(mutexTail);
    80002ea4:	0304b503          	ld	a0,48(s1)
    80002ea8:	fffff097          	auipc	ra,0xfffff
    80002eac:	608080e7          	jalr	1544(ra) # 800024b0 <_Z8sem_waitP4_sem>
    buffer[tail] = val;
    80002eb0:	0084b783          	ld	a5,8(s1)
    80002eb4:	0144a703          	lw	a4,20(s1)
    80002eb8:	00271713          	slli	a4,a4,0x2
    80002ebc:	00e787b3          	add	a5,a5,a4
    80002ec0:	0127a023          	sw	s2,0(a5) # 1000 <_entry-0x7ffff000>
    tail = (tail + 1) % cap;
    80002ec4:	0144a783          	lw	a5,20(s1)
    80002ec8:	0017879b          	addiw	a5,a5,1
    80002ecc:	0004a703          	lw	a4,0(s1)
    80002ed0:	02e7e7bb          	remw	a5,a5,a4
    80002ed4:	00f4aa23          	sw	a5,20(s1)
    sem_signal(mutexTail);
    80002ed8:	0304b503          	ld	a0,48(s1)
    80002edc:	fffff097          	auipc	ra,0xfffff
    80002ee0:	60c080e7          	jalr	1548(ra) # 800024e8 <_Z10sem_signalP4_sem>

    sem_signal(itemAvailable);
    80002ee4:	0204b503          	ld	a0,32(s1)
    80002ee8:	fffff097          	auipc	ra,0xfffff
    80002eec:	600080e7          	jalr	1536(ra) # 800024e8 <_Z10sem_signalP4_sem>

}
    80002ef0:	01813083          	ld	ra,24(sp)
    80002ef4:	01013403          	ld	s0,16(sp)
    80002ef8:	00813483          	ld	s1,8(sp)
    80002efc:	00013903          	ld	s2,0(sp)
    80002f00:	02010113          	addi	sp,sp,32
    80002f04:	00008067          	ret

0000000080002f08 <_ZN6Buffer3getEv>:

int Buffer::get() {
    80002f08:	fe010113          	addi	sp,sp,-32
    80002f0c:	00113c23          	sd	ra,24(sp)
    80002f10:	00813823          	sd	s0,16(sp)
    80002f14:	00913423          	sd	s1,8(sp)
    80002f18:	01213023          	sd	s2,0(sp)
    80002f1c:	02010413          	addi	s0,sp,32
    80002f20:	00050493          	mv	s1,a0
    sem_wait(itemAvailable);
    80002f24:	02053503          	ld	a0,32(a0)
    80002f28:	fffff097          	auipc	ra,0xfffff
    80002f2c:	588080e7          	jalr	1416(ra) # 800024b0 <_Z8sem_waitP4_sem>

    sem_wait(mutexHead);
    80002f30:	0284b503          	ld	a0,40(s1)
    80002f34:	fffff097          	auipc	ra,0xfffff
    80002f38:	57c080e7          	jalr	1404(ra) # 800024b0 <_Z8sem_waitP4_sem>

    int ret = buffer[head];
    80002f3c:	0084b703          	ld	a4,8(s1)
    80002f40:	0104a783          	lw	a5,16(s1)
    80002f44:	00279693          	slli	a3,a5,0x2
    80002f48:	00d70733          	add	a4,a4,a3
    80002f4c:	00072903          	lw	s2,0(a4)
    head = (head + 1) % cap;
    80002f50:	0017879b          	addiw	a5,a5,1
    80002f54:	0004a703          	lw	a4,0(s1)
    80002f58:	02e7e7bb          	remw	a5,a5,a4
    80002f5c:	00f4a823          	sw	a5,16(s1)
    sem_signal(mutexHead);
    80002f60:	0284b503          	ld	a0,40(s1)
    80002f64:	fffff097          	auipc	ra,0xfffff
    80002f68:	584080e7          	jalr	1412(ra) # 800024e8 <_Z10sem_signalP4_sem>

    sem_signal(spaceAvailable);
    80002f6c:	0184b503          	ld	a0,24(s1)
    80002f70:	fffff097          	auipc	ra,0xfffff
    80002f74:	578080e7          	jalr	1400(ra) # 800024e8 <_Z10sem_signalP4_sem>

    return ret;
}
    80002f78:	00090513          	mv	a0,s2
    80002f7c:	01813083          	ld	ra,24(sp)
    80002f80:	01013403          	ld	s0,16(sp)
    80002f84:	00813483          	ld	s1,8(sp)
    80002f88:	00013903          	ld	s2,0(sp)
    80002f8c:	02010113          	addi	sp,sp,32
    80002f90:	00008067          	ret

0000000080002f94 <_ZN6Buffer6getCntEv>:

int Buffer::getCnt() {
    80002f94:	fe010113          	addi	sp,sp,-32
    80002f98:	00113c23          	sd	ra,24(sp)
    80002f9c:	00813823          	sd	s0,16(sp)
    80002fa0:	00913423          	sd	s1,8(sp)
    80002fa4:	01213023          	sd	s2,0(sp)
    80002fa8:	02010413          	addi	s0,sp,32
    80002fac:	00050493          	mv	s1,a0
    int ret;

    sem_wait(mutexHead);
    80002fb0:	02853503          	ld	a0,40(a0)
    80002fb4:	fffff097          	auipc	ra,0xfffff
    80002fb8:	4fc080e7          	jalr	1276(ra) # 800024b0 <_Z8sem_waitP4_sem>
    sem_wait(mutexTail);
    80002fbc:	0304b503          	ld	a0,48(s1)
    80002fc0:	fffff097          	auipc	ra,0xfffff
    80002fc4:	4f0080e7          	jalr	1264(ra) # 800024b0 <_Z8sem_waitP4_sem>

    if (tail >= head) {
    80002fc8:	0144a783          	lw	a5,20(s1)
    80002fcc:	0104a903          	lw	s2,16(s1)
    80002fd0:	0327ce63          	blt	a5,s2,8000300c <_ZN6Buffer6getCntEv+0x78>
        ret = tail - head;
    80002fd4:	4127893b          	subw	s2,a5,s2
    } else {
        ret = cap - head + tail;
    }

    sem_signal(mutexTail);
    80002fd8:	0304b503          	ld	a0,48(s1)
    80002fdc:	fffff097          	auipc	ra,0xfffff
    80002fe0:	50c080e7          	jalr	1292(ra) # 800024e8 <_Z10sem_signalP4_sem>
    sem_signal(mutexHead);
    80002fe4:	0284b503          	ld	a0,40(s1)
    80002fe8:	fffff097          	auipc	ra,0xfffff
    80002fec:	500080e7          	jalr	1280(ra) # 800024e8 <_Z10sem_signalP4_sem>

    return ret;
}
    80002ff0:	00090513          	mv	a0,s2
    80002ff4:	01813083          	ld	ra,24(sp)
    80002ff8:	01013403          	ld	s0,16(sp)
    80002ffc:	00813483          	ld	s1,8(sp)
    80003000:	00013903          	ld	s2,0(sp)
    80003004:	02010113          	addi	sp,sp,32
    80003008:	00008067          	ret
        ret = cap - head + tail;
    8000300c:	0004a703          	lw	a4,0(s1)
    80003010:	4127093b          	subw	s2,a4,s2
    80003014:	00f9093b          	addw	s2,s2,a5
    80003018:	fc1ff06f          	j	80002fd8 <_ZN6Buffer6getCntEv+0x44>

000000008000301c <_ZN6BufferD1Ev>:
Buffer::~Buffer() {
    8000301c:	fe010113          	addi	sp,sp,-32
    80003020:	00113c23          	sd	ra,24(sp)
    80003024:	00813823          	sd	s0,16(sp)
    80003028:	00913423          	sd	s1,8(sp)
    8000302c:	02010413          	addi	s0,sp,32
    80003030:	00050493          	mv	s1,a0
    putc('\n');
    80003034:	00a00513          	li	a0,10
    80003038:	fffff097          	auipc	ra,0xfffff
    8000303c:	5fc080e7          	jalr	1532(ra) # 80002634 <_Z4putcc>
    printString("Buffer deleted!\n");
    80003040:	00006517          	auipc	a0,0x6
    80003044:	1d850513          	addi	a0,a0,472 # 80009218 <_ZTV14PeriodicThread+0x30>
    80003048:	00002097          	auipc	ra,0x2
    8000304c:	988080e7          	jalr	-1656(ra) # 800049d0 <_Z11printStringPKc>
    80003050:	0340006f          	j	80003084 <_ZN6BufferD1Ev+0x68>
        char ch = buffer[head];
    80003054:	0084b783          	ld	a5,8(s1)
    80003058:	0104a703          	lw	a4,16(s1)
    8000305c:	00271713          	slli	a4,a4,0x2
    80003060:	00e787b3          	add	a5,a5,a4
        putc(ch);
    80003064:	0007c503          	lbu	a0,0(a5)
    80003068:	fffff097          	auipc	ra,0xfffff
    8000306c:	5cc080e7          	jalr	1484(ra) # 80002634 <_Z4putcc>
        head = (head + 1) % cap;
    80003070:	0104a783          	lw	a5,16(s1)
    80003074:	0017879b          	addiw	a5,a5,1
    80003078:	0004a703          	lw	a4,0(s1)
    8000307c:	02e7e7bb          	remw	a5,a5,a4
    80003080:	00f4a823          	sw	a5,16(s1)
    while (getCnt() > 0) {
    80003084:	00048513          	mv	a0,s1
    80003088:	00000097          	auipc	ra,0x0
    8000308c:	f0c080e7          	jalr	-244(ra) # 80002f94 <_ZN6Buffer6getCntEv>
    80003090:	fca042e3          	bgtz	a0,80003054 <_ZN6BufferD1Ev+0x38>
    putc('!');
    80003094:	02100513          	li	a0,33
    80003098:	fffff097          	auipc	ra,0xfffff
    8000309c:	59c080e7          	jalr	1436(ra) # 80002634 <_Z4putcc>
    putc('\n');
    800030a0:	00a00513          	li	a0,10
    800030a4:	fffff097          	auipc	ra,0xfffff
    800030a8:	590080e7          	jalr	1424(ra) # 80002634 <_Z4putcc>
    mem_free(buffer);
    800030ac:	0084b503          	ld	a0,8(s1)
    800030b0:	fffff097          	auipc	ra,0xfffff
    800030b4:	268080e7          	jalr	616(ra) # 80002318 <_Z8mem_freePv>
    sem_close(itemAvailable);
    800030b8:	0204b503          	ld	a0,32(s1)
    800030bc:	fffff097          	auipc	ra,0xfffff
    800030c0:	3bc080e7          	jalr	956(ra) # 80002478 <_Z9sem_closeP4_sem>
    sem_close(spaceAvailable);
    800030c4:	0184b503          	ld	a0,24(s1)
    800030c8:	fffff097          	auipc	ra,0xfffff
    800030cc:	3b0080e7          	jalr	944(ra) # 80002478 <_Z9sem_closeP4_sem>
    sem_close(mutexTail);
    800030d0:	0304b503          	ld	a0,48(s1)
    800030d4:	fffff097          	auipc	ra,0xfffff
    800030d8:	3a4080e7          	jalr	932(ra) # 80002478 <_Z9sem_closeP4_sem>
    sem_close(mutexHead);
    800030dc:	0284b503          	ld	a0,40(s1)
    800030e0:	fffff097          	auipc	ra,0xfffff
    800030e4:	398080e7          	jalr	920(ra) # 80002478 <_Z9sem_closeP4_sem>
}
    800030e8:	01813083          	ld	ra,24(sp)
    800030ec:	01013403          	ld	s0,16(sp)
    800030f0:	00813483          	ld	s1,8(sp)
    800030f4:	02010113          	addi	sp,sp,32
    800030f8:	00008067          	ret

00000000800030fc <_ZN9BufferCPPC1Ei>:
#include "buffer_CPP_API.hpp"

BufferCPP::BufferCPP(int _cap) : cap(_cap + 1), head(0), tail(0) {
    800030fc:	fd010113          	addi	sp,sp,-48
    80003100:	02113423          	sd	ra,40(sp)
    80003104:	02813023          	sd	s0,32(sp)
    80003108:	00913c23          	sd	s1,24(sp)
    8000310c:	01213823          	sd	s2,16(sp)
    80003110:	01313423          	sd	s3,8(sp)
    80003114:	03010413          	addi	s0,sp,48
    80003118:	00050493          	mv	s1,a0
    8000311c:	00058913          	mv	s2,a1
    80003120:	0015879b          	addiw	a5,a1,1
    80003124:	0007851b          	sext.w	a0,a5
    80003128:	00f4a023          	sw	a5,0(s1)
    8000312c:	0004a823          	sw	zero,16(s1)
    80003130:	0004aa23          	sw	zero,20(s1)
    buffer = (int *)mem_alloc(sizeof(int) * cap);
    80003134:	00251513          	slli	a0,a0,0x2
    80003138:	fffff097          	auipc	ra,0xfffff
    8000313c:	1a4080e7          	jalr	420(ra) # 800022dc <_Z9mem_allocm>
    80003140:	00a4b423          	sd	a0,8(s1)
    itemAvailable = new Semaphore(0);
    80003144:	01000513          	li	a0,16
    80003148:	fffff097          	auipc	ra,0xfffff
    8000314c:	5dc080e7          	jalr	1500(ra) # 80002724 <_Znwm>
    80003150:	00050993          	mv	s3,a0
    80003154:	00000593          	li	a1,0
    80003158:	fffff097          	auipc	ra,0xfffff
    8000315c:	7dc080e7          	jalr	2012(ra) # 80002934 <_ZN9SemaphoreC1Ej>
    80003160:	0334b023          	sd	s3,32(s1)
    spaceAvailable = new Semaphore(_cap);
    80003164:	01000513          	li	a0,16
    80003168:	fffff097          	auipc	ra,0xfffff
    8000316c:	5bc080e7          	jalr	1468(ra) # 80002724 <_Znwm>
    80003170:	00050993          	mv	s3,a0
    80003174:	00090593          	mv	a1,s2
    80003178:	fffff097          	auipc	ra,0xfffff
    8000317c:	7bc080e7          	jalr	1980(ra) # 80002934 <_ZN9SemaphoreC1Ej>
    80003180:	0134bc23          	sd	s3,24(s1)
    mutexHead = new Semaphore(1);
    80003184:	01000513          	li	a0,16
    80003188:	fffff097          	auipc	ra,0xfffff
    8000318c:	59c080e7          	jalr	1436(ra) # 80002724 <_Znwm>
    80003190:	00050913          	mv	s2,a0
    80003194:	00100593          	li	a1,1
    80003198:	fffff097          	auipc	ra,0xfffff
    8000319c:	79c080e7          	jalr	1948(ra) # 80002934 <_ZN9SemaphoreC1Ej>
    800031a0:	0324b423          	sd	s2,40(s1)
    mutexTail = new Semaphore(1);
    800031a4:	01000513          	li	a0,16
    800031a8:	fffff097          	auipc	ra,0xfffff
    800031ac:	57c080e7          	jalr	1404(ra) # 80002724 <_Znwm>
    800031b0:	00050913          	mv	s2,a0
    800031b4:	00100593          	li	a1,1
    800031b8:	fffff097          	auipc	ra,0xfffff
    800031bc:	77c080e7          	jalr	1916(ra) # 80002934 <_ZN9SemaphoreC1Ej>
    800031c0:	0324b823          	sd	s2,48(s1)
}
    800031c4:	02813083          	ld	ra,40(sp)
    800031c8:	02013403          	ld	s0,32(sp)
    800031cc:	01813483          	ld	s1,24(sp)
    800031d0:	01013903          	ld	s2,16(sp)
    800031d4:	00813983          	ld	s3,8(sp)
    800031d8:	03010113          	addi	sp,sp,48
    800031dc:	00008067          	ret
    itemAvailable = new Semaphore(0);
    800031e0:	00050493          	mv	s1,a0
    800031e4:	00098513          	mv	a0,s3
    800031e8:	fffff097          	auipc	ra,0xfffff
    800031ec:	564080e7          	jalr	1380(ra) # 8000274c <_ZdlPv>
    800031f0:	00048513          	mv	a0,s1
    800031f4:	00009097          	auipc	ra,0x9
    800031f8:	7b4080e7          	jalr	1972(ra) # 8000c9a8 <_Unwind_Resume>
    spaceAvailable = new Semaphore(_cap);
    800031fc:	00050493          	mv	s1,a0
    80003200:	00098513          	mv	a0,s3
    80003204:	fffff097          	auipc	ra,0xfffff
    80003208:	548080e7          	jalr	1352(ra) # 8000274c <_ZdlPv>
    8000320c:	00048513          	mv	a0,s1
    80003210:	00009097          	auipc	ra,0x9
    80003214:	798080e7          	jalr	1944(ra) # 8000c9a8 <_Unwind_Resume>
    mutexHead = new Semaphore(1);
    80003218:	00050493          	mv	s1,a0
    8000321c:	00090513          	mv	a0,s2
    80003220:	fffff097          	auipc	ra,0xfffff
    80003224:	52c080e7          	jalr	1324(ra) # 8000274c <_ZdlPv>
    80003228:	00048513          	mv	a0,s1
    8000322c:	00009097          	auipc	ra,0x9
    80003230:	77c080e7          	jalr	1916(ra) # 8000c9a8 <_Unwind_Resume>
    mutexTail = new Semaphore(1);
    80003234:	00050493          	mv	s1,a0
    80003238:	00090513          	mv	a0,s2
    8000323c:	fffff097          	auipc	ra,0xfffff
    80003240:	510080e7          	jalr	1296(ra) # 8000274c <_ZdlPv>
    80003244:	00048513          	mv	a0,s1
    80003248:	00009097          	auipc	ra,0x9
    8000324c:	760080e7          	jalr	1888(ra) # 8000c9a8 <_Unwind_Resume>

0000000080003250 <_ZN9BufferCPP3putEi>:
    delete mutexTail;
    delete mutexHead;

}

void BufferCPP::put(int val) {
    80003250:	fe010113          	addi	sp,sp,-32
    80003254:	00113c23          	sd	ra,24(sp)
    80003258:	00813823          	sd	s0,16(sp)
    8000325c:	00913423          	sd	s1,8(sp)
    80003260:	01213023          	sd	s2,0(sp)
    80003264:	02010413          	addi	s0,sp,32
    80003268:	00050493          	mv	s1,a0
    8000326c:	00058913          	mv	s2,a1
    spaceAvailable->wait();
    80003270:	01853503          	ld	a0,24(a0)
    80003274:	fffff097          	auipc	ra,0xfffff
    80003278:	6f8080e7          	jalr	1784(ra) # 8000296c <_ZN9Semaphore4waitEv>

    mutexTail->wait();
    8000327c:	0304b503          	ld	a0,48(s1)
    80003280:	fffff097          	auipc	ra,0xfffff
    80003284:	6ec080e7          	jalr	1772(ra) # 8000296c <_ZN9Semaphore4waitEv>
    buffer[tail] = val;
    80003288:	0084b783          	ld	a5,8(s1)
    8000328c:	0144a703          	lw	a4,20(s1)
    80003290:	00271713          	slli	a4,a4,0x2
    80003294:	00e787b3          	add	a5,a5,a4
    80003298:	0127a023          	sw	s2,0(a5)
    tail = (tail + 1) % cap;
    8000329c:	0144a783          	lw	a5,20(s1)
    800032a0:	0017879b          	addiw	a5,a5,1
    800032a4:	0004a703          	lw	a4,0(s1)
    800032a8:	02e7e7bb          	remw	a5,a5,a4
    800032ac:	00f4aa23          	sw	a5,20(s1)
    mutexTail->signal();
    800032b0:	0304b503          	ld	a0,48(s1)
    800032b4:	fffff097          	auipc	ra,0xfffff
    800032b8:	6e4080e7          	jalr	1764(ra) # 80002998 <_ZN9Semaphore6signalEv>

    itemAvailable->signal();
    800032bc:	0204b503          	ld	a0,32(s1)
    800032c0:	fffff097          	auipc	ra,0xfffff
    800032c4:	6d8080e7          	jalr	1752(ra) # 80002998 <_ZN9Semaphore6signalEv>

}
    800032c8:	01813083          	ld	ra,24(sp)
    800032cc:	01013403          	ld	s0,16(sp)
    800032d0:	00813483          	ld	s1,8(sp)
    800032d4:	00013903          	ld	s2,0(sp)
    800032d8:	02010113          	addi	sp,sp,32
    800032dc:	00008067          	ret

00000000800032e0 <_ZN9BufferCPP3getEv>:

int BufferCPP::get() {
    800032e0:	fe010113          	addi	sp,sp,-32
    800032e4:	00113c23          	sd	ra,24(sp)
    800032e8:	00813823          	sd	s0,16(sp)
    800032ec:	00913423          	sd	s1,8(sp)
    800032f0:	01213023          	sd	s2,0(sp)
    800032f4:	02010413          	addi	s0,sp,32
    800032f8:	00050493          	mv	s1,a0
    itemAvailable->wait();
    800032fc:	02053503          	ld	a0,32(a0)
    80003300:	fffff097          	auipc	ra,0xfffff
    80003304:	66c080e7          	jalr	1644(ra) # 8000296c <_ZN9Semaphore4waitEv>

    mutexHead->wait();
    80003308:	0284b503          	ld	a0,40(s1)
    8000330c:	fffff097          	auipc	ra,0xfffff
    80003310:	660080e7          	jalr	1632(ra) # 8000296c <_ZN9Semaphore4waitEv>

    int ret = buffer[head];
    80003314:	0084b703          	ld	a4,8(s1)
    80003318:	0104a783          	lw	a5,16(s1)
    8000331c:	00279693          	slli	a3,a5,0x2
    80003320:	00d70733          	add	a4,a4,a3
    80003324:	00072903          	lw	s2,0(a4)
    head = (head + 1) % cap;
    80003328:	0017879b          	addiw	a5,a5,1
    8000332c:	0004a703          	lw	a4,0(s1)
    80003330:	02e7e7bb          	remw	a5,a5,a4
    80003334:	00f4a823          	sw	a5,16(s1)
    mutexHead->signal();
    80003338:	0284b503          	ld	a0,40(s1)
    8000333c:	fffff097          	auipc	ra,0xfffff
    80003340:	65c080e7          	jalr	1628(ra) # 80002998 <_ZN9Semaphore6signalEv>

    spaceAvailable->signal();
    80003344:	0184b503          	ld	a0,24(s1)
    80003348:	fffff097          	auipc	ra,0xfffff
    8000334c:	650080e7          	jalr	1616(ra) # 80002998 <_ZN9Semaphore6signalEv>

    return ret;
}
    80003350:	00090513          	mv	a0,s2
    80003354:	01813083          	ld	ra,24(sp)
    80003358:	01013403          	ld	s0,16(sp)
    8000335c:	00813483          	ld	s1,8(sp)
    80003360:	00013903          	ld	s2,0(sp)
    80003364:	02010113          	addi	sp,sp,32
    80003368:	00008067          	ret

000000008000336c <_ZN9BufferCPP6getCntEv>:

int BufferCPP::getCnt() {
    8000336c:	fe010113          	addi	sp,sp,-32
    80003370:	00113c23          	sd	ra,24(sp)
    80003374:	00813823          	sd	s0,16(sp)
    80003378:	00913423          	sd	s1,8(sp)
    8000337c:	01213023          	sd	s2,0(sp)
    80003380:	02010413          	addi	s0,sp,32
    80003384:	00050493          	mv	s1,a0
    int ret;

    mutexHead->wait();
    80003388:	02853503          	ld	a0,40(a0)
    8000338c:	fffff097          	auipc	ra,0xfffff
    80003390:	5e0080e7          	jalr	1504(ra) # 8000296c <_ZN9Semaphore4waitEv>
    mutexTail->wait();
    80003394:	0304b503          	ld	a0,48(s1)
    80003398:	fffff097          	auipc	ra,0xfffff
    8000339c:	5d4080e7          	jalr	1492(ra) # 8000296c <_ZN9Semaphore4waitEv>

    if (tail >= head) {
    800033a0:	0144a783          	lw	a5,20(s1)
    800033a4:	0104a903          	lw	s2,16(s1)
    800033a8:	0327ce63          	blt	a5,s2,800033e4 <_ZN9BufferCPP6getCntEv+0x78>
        ret = tail - head;
    800033ac:	4127893b          	subw	s2,a5,s2
    } else {
        ret = cap - head + tail;
    }

    mutexTail->signal();
    800033b0:	0304b503          	ld	a0,48(s1)
    800033b4:	fffff097          	auipc	ra,0xfffff
    800033b8:	5e4080e7          	jalr	1508(ra) # 80002998 <_ZN9Semaphore6signalEv>
    mutexHead->signal();
    800033bc:	0284b503          	ld	a0,40(s1)
    800033c0:	fffff097          	auipc	ra,0xfffff
    800033c4:	5d8080e7          	jalr	1496(ra) # 80002998 <_ZN9Semaphore6signalEv>

    return ret;
}
    800033c8:	00090513          	mv	a0,s2
    800033cc:	01813083          	ld	ra,24(sp)
    800033d0:	01013403          	ld	s0,16(sp)
    800033d4:	00813483          	ld	s1,8(sp)
    800033d8:	00013903          	ld	s2,0(sp)
    800033dc:	02010113          	addi	sp,sp,32
    800033e0:	00008067          	ret
        ret = cap - head + tail;
    800033e4:	0004a703          	lw	a4,0(s1)
    800033e8:	4127093b          	subw	s2,a4,s2
    800033ec:	00f9093b          	addw	s2,s2,a5
    800033f0:	fc1ff06f          	j	800033b0 <_ZN9BufferCPP6getCntEv+0x44>

00000000800033f4 <_ZN9BufferCPPD1Ev>:
BufferCPP::~BufferCPP() {
    800033f4:	fe010113          	addi	sp,sp,-32
    800033f8:	00113c23          	sd	ra,24(sp)
    800033fc:	00813823          	sd	s0,16(sp)
    80003400:	00913423          	sd	s1,8(sp)
    80003404:	02010413          	addi	s0,sp,32
    80003408:	00050493          	mv	s1,a0
    Console::putc('\n');
    8000340c:	00a00513          	li	a0,10
    80003410:	fffff097          	auipc	ra,0xfffff
    80003414:	64c080e7          	jalr	1612(ra) # 80002a5c <_ZN7Console4putcEc>
    printString("Buffer deleted!\n");
    80003418:	00006517          	auipc	a0,0x6
    8000341c:	e0050513          	addi	a0,a0,-512 # 80009218 <_ZTV14PeriodicThread+0x30>
    80003420:	00001097          	auipc	ra,0x1
    80003424:	5b0080e7          	jalr	1456(ra) # 800049d0 <_Z11printStringPKc>
    80003428:	0340006f          	j	8000345c <_ZN9BufferCPPD1Ev+0x68>
        char ch = buffer[head];
    8000342c:	0084b783          	ld	a5,8(s1)
    80003430:	0104a703          	lw	a4,16(s1)
    80003434:	00271713          	slli	a4,a4,0x2
    80003438:	00e787b3          	add	a5,a5,a4
        Console::putc(ch);
    8000343c:	0007c503          	lbu	a0,0(a5)
    80003440:	fffff097          	auipc	ra,0xfffff
    80003444:	61c080e7          	jalr	1564(ra) # 80002a5c <_ZN7Console4putcEc>
        head = (head + 1) % cap;
    80003448:	0104a783          	lw	a5,16(s1)
    8000344c:	0017879b          	addiw	a5,a5,1
    80003450:	0004a703          	lw	a4,0(s1)
    80003454:	02e7e7bb          	remw	a5,a5,a4
    80003458:	00f4a823          	sw	a5,16(s1)
    while (getCnt()) {
    8000345c:	00048513          	mv	a0,s1
    80003460:	00000097          	auipc	ra,0x0
    80003464:	f0c080e7          	jalr	-244(ra) # 8000336c <_ZN9BufferCPP6getCntEv>
    80003468:	fc0512e3          	bnez	a0,8000342c <_ZN9BufferCPPD1Ev+0x38>
    Console::putc('!');
    8000346c:	02100513          	li	a0,33
    80003470:	fffff097          	auipc	ra,0xfffff
    80003474:	5ec080e7          	jalr	1516(ra) # 80002a5c <_ZN7Console4putcEc>
    Console::putc('\n');
    80003478:	00a00513          	li	a0,10
    8000347c:	fffff097          	auipc	ra,0xfffff
    80003480:	5e0080e7          	jalr	1504(ra) # 80002a5c <_ZN7Console4putcEc>
    mem_free(buffer);
    80003484:	0084b503          	ld	a0,8(s1)
    80003488:	fffff097          	auipc	ra,0xfffff
    8000348c:	e90080e7          	jalr	-368(ra) # 80002318 <_Z8mem_freePv>
    delete itemAvailable;
    80003490:	0204b503          	ld	a0,32(s1)
    80003494:	00050863          	beqz	a0,800034a4 <_ZN9BufferCPPD1Ev+0xb0>
    80003498:	00053783          	ld	a5,0(a0)
    8000349c:	0087b783          	ld	a5,8(a5)
    800034a0:	000780e7          	jalr	a5
    delete spaceAvailable;
    800034a4:	0184b503          	ld	a0,24(s1)
    800034a8:	00050863          	beqz	a0,800034b8 <_ZN9BufferCPPD1Ev+0xc4>
    800034ac:	00053783          	ld	a5,0(a0)
    800034b0:	0087b783          	ld	a5,8(a5)
    800034b4:	000780e7          	jalr	a5
    delete mutexTail;
    800034b8:	0304b503          	ld	a0,48(s1)
    800034bc:	00050863          	beqz	a0,800034cc <_ZN9BufferCPPD1Ev+0xd8>
    800034c0:	00053783          	ld	a5,0(a0)
    800034c4:	0087b783          	ld	a5,8(a5)
    800034c8:	000780e7          	jalr	a5
    delete mutexHead;
    800034cc:	0284b503          	ld	a0,40(s1)
    800034d0:	00050863          	beqz	a0,800034e0 <_ZN9BufferCPPD1Ev+0xec>
    800034d4:	00053783          	ld	a5,0(a0)
    800034d8:	0087b783          	ld	a5,8(a5)
    800034dc:	000780e7          	jalr	a5
}
    800034e0:	01813083          	ld	ra,24(sp)
    800034e4:	01013403          	ld	s0,16(sp)
    800034e8:	00813483          	ld	s1,8(sp)
    800034ec:	02010113          	addi	sp,sp,32
    800034f0:	00008067          	ret

00000000800034f4 <_Z20testConsumerProducerv>:

        td->sem->signal();
    }
};

void testConsumerProducer() {
    800034f4:	f8010113          	addi	sp,sp,-128
    800034f8:	06113c23          	sd	ra,120(sp)
    800034fc:	06813823          	sd	s0,112(sp)
    80003500:	06913423          	sd	s1,104(sp)
    80003504:	07213023          	sd	s2,96(sp)
    80003508:	05313c23          	sd	s3,88(sp)
    8000350c:	05413823          	sd	s4,80(sp)
    80003510:	05513423          	sd	s5,72(sp)
    80003514:	05613023          	sd	s6,64(sp)
    80003518:	03713c23          	sd	s7,56(sp)
    8000351c:	03813823          	sd	s8,48(sp)
    80003520:	03913423          	sd	s9,40(sp)
    80003524:	08010413          	addi	s0,sp,128
    delete waitForAll;
    for (int i = 0; i < threadNum; i++) {
        delete producers[i];
    }
    delete consumer;
    delete buffer;
    80003528:	00010c13          	mv	s8,sp
    printString("Unesite broj proizvodjaca?\n");
    8000352c:	00006517          	auipc	a0,0x6
    80003530:	d0450513          	addi	a0,a0,-764 # 80009230 <_ZTV14PeriodicThread+0x48>
    80003534:	00001097          	auipc	ra,0x1
    80003538:	49c080e7          	jalr	1180(ra) # 800049d0 <_Z11printStringPKc>
    getString(input, 30);
    8000353c:	01e00593          	li	a1,30
    80003540:	f8040513          	addi	a0,s0,-128
    80003544:	00001097          	auipc	ra,0x1
    80003548:	514080e7          	jalr	1300(ra) # 80004a58 <_Z9getStringPci>
    threadNum = stringToInt(input);
    8000354c:	f8040513          	addi	a0,s0,-128
    80003550:	00001097          	auipc	ra,0x1
    80003554:	5e0080e7          	jalr	1504(ra) # 80004b30 <_Z11stringToIntPKc>
    80003558:	00050993          	mv	s3,a0
    printString("Unesite velicinu bafera?\n");
    8000355c:	00006517          	auipc	a0,0x6
    80003560:	cf450513          	addi	a0,a0,-780 # 80009250 <_ZTV14PeriodicThread+0x68>
    80003564:	00001097          	auipc	ra,0x1
    80003568:	46c080e7          	jalr	1132(ra) # 800049d0 <_Z11printStringPKc>
    getString(input, 30);
    8000356c:	01e00593          	li	a1,30
    80003570:	f8040513          	addi	a0,s0,-128
    80003574:	00001097          	auipc	ra,0x1
    80003578:	4e4080e7          	jalr	1252(ra) # 80004a58 <_Z9getStringPci>
    n = stringToInt(input);
    8000357c:	f8040513          	addi	a0,s0,-128
    80003580:	00001097          	auipc	ra,0x1
    80003584:	5b0080e7          	jalr	1456(ra) # 80004b30 <_Z11stringToIntPKc>
    80003588:	00050493          	mv	s1,a0
    printString("Broj proizvodjaca ");
    8000358c:	00006517          	auipc	a0,0x6
    80003590:	ce450513          	addi	a0,a0,-796 # 80009270 <_ZTV14PeriodicThread+0x88>
    80003594:	00001097          	auipc	ra,0x1
    80003598:	43c080e7          	jalr	1084(ra) # 800049d0 <_Z11printStringPKc>
    printInt(threadNum);
    8000359c:	00000613          	li	a2,0
    800035a0:	00a00593          	li	a1,10
    800035a4:	00098513          	mv	a0,s3
    800035a8:	00001097          	auipc	ra,0x1
    800035ac:	5d8080e7          	jalr	1496(ra) # 80004b80 <_Z8printIntiii>
    printString(" i velicina bafera ");
    800035b0:	00006517          	auipc	a0,0x6
    800035b4:	cd850513          	addi	a0,a0,-808 # 80009288 <_ZTV14PeriodicThread+0xa0>
    800035b8:	00001097          	auipc	ra,0x1
    800035bc:	418080e7          	jalr	1048(ra) # 800049d0 <_Z11printStringPKc>
    printInt(n);
    800035c0:	00000613          	li	a2,0
    800035c4:	00a00593          	li	a1,10
    800035c8:	00048513          	mv	a0,s1
    800035cc:	00001097          	auipc	ra,0x1
    800035d0:	5b4080e7          	jalr	1460(ra) # 80004b80 <_Z8printIntiii>
    printString(".\n");
    800035d4:	00006517          	auipc	a0,0x6
    800035d8:	ccc50513          	addi	a0,a0,-820 # 800092a0 <_ZTV14PeriodicThread+0xb8>
    800035dc:	00001097          	auipc	ra,0x1
    800035e0:	3f4080e7          	jalr	1012(ra) # 800049d0 <_Z11printStringPKc>
    if (threadNum > n) {
    800035e4:	0334c463          	blt	s1,s3,8000360c <_Z20testConsumerProducerv+0x118>
    } else if (threadNum < 1) {
    800035e8:	03305c63          	blez	s3,80003620 <_Z20testConsumerProducerv+0x12c>
    BufferCPP *buffer = new BufferCPP(n);
    800035ec:	03800513          	li	a0,56
    800035f0:	fffff097          	auipc	ra,0xfffff
    800035f4:	134080e7          	jalr	308(ra) # 80002724 <_Znwm>
    800035f8:	00050a93          	mv	s5,a0
    800035fc:	00048593          	mv	a1,s1
    80003600:	00000097          	auipc	ra,0x0
    80003604:	afc080e7          	jalr	-1284(ra) # 800030fc <_ZN9BufferCPPC1Ei>
    80003608:	0300006f          	j	80003638 <_Z20testConsumerProducerv+0x144>
        printString("Broj proizvodjaca ne sme biti manji od velicine bafera!\n");
    8000360c:	00006517          	auipc	a0,0x6
    80003610:	c9c50513          	addi	a0,a0,-868 # 800092a8 <_ZTV14PeriodicThread+0xc0>
    80003614:	00001097          	auipc	ra,0x1
    80003618:	3bc080e7          	jalr	956(ra) # 800049d0 <_Z11printStringPKc>
        return;
    8000361c:	0140006f          	j	80003630 <_Z20testConsumerProducerv+0x13c>
        printString("Broj proizvodjaca mora biti veci od nula!\n");
    80003620:	00006517          	auipc	a0,0x6
    80003624:	cc850513          	addi	a0,a0,-824 # 800092e8 <_ZTV14PeriodicThread+0x100>
    80003628:	00001097          	auipc	ra,0x1
    8000362c:	3a8080e7          	jalr	936(ra) # 800049d0 <_Z11printStringPKc>
        return;
    80003630:	000c0113          	mv	sp,s8
    80003634:	2140006f          	j	80003848 <_Z20testConsumerProducerv+0x354>
    waitForAll = new Semaphore(0);
    80003638:	01000513          	li	a0,16
    8000363c:	fffff097          	auipc	ra,0xfffff
    80003640:	0e8080e7          	jalr	232(ra) # 80002724 <_Znwm>
    80003644:	00050913          	mv	s2,a0
    80003648:	00000593          	li	a1,0
    8000364c:	fffff097          	auipc	ra,0xfffff
    80003650:	2e8080e7          	jalr	744(ra) # 80002934 <_ZN9SemaphoreC1Ej>
    80003654:	00008797          	auipc	a5,0x8
    80003658:	2127ba23          	sd	s2,532(a5) # 8000b868 <_ZL10waitForAll>
    Thread *producers[threadNum];
    8000365c:	00399793          	slli	a5,s3,0x3
    80003660:	00f78793          	addi	a5,a5,15
    80003664:	ff07f793          	andi	a5,a5,-16
    80003668:	40f10133          	sub	sp,sp,a5
    8000366c:	00010a13          	mv	s4,sp
    thread_data threadData[threadNum + 1];
    80003670:	0019871b          	addiw	a4,s3,1
    80003674:	00171793          	slli	a5,a4,0x1
    80003678:	00e787b3          	add	a5,a5,a4
    8000367c:	00379793          	slli	a5,a5,0x3
    80003680:	00f78793          	addi	a5,a5,15
    80003684:	ff07f793          	andi	a5,a5,-16
    80003688:	40f10133          	sub	sp,sp,a5
    8000368c:	00010b13          	mv	s6,sp
    threadData[threadNum].id = threadNum;
    80003690:	00199493          	slli	s1,s3,0x1
    80003694:	013484b3          	add	s1,s1,s3
    80003698:	00349493          	slli	s1,s1,0x3
    8000369c:	009b04b3          	add	s1,s6,s1
    800036a0:	0134a023          	sw	s3,0(s1)
    threadData[threadNum].buffer = buffer;
    800036a4:	0154b423          	sd	s5,8(s1)
    threadData[threadNum].sem = waitForAll;
    800036a8:	0124b823          	sd	s2,16(s1)
    Thread *consumer = new Consumer(&threadData[threadNum]);
    800036ac:	02800513          	li	a0,40
    800036b0:	fffff097          	auipc	ra,0xfffff
    800036b4:	074080e7          	jalr	116(ra) # 80002724 <_Znwm>
    800036b8:	00050b93          	mv	s7,a0
    Consumer(thread_data *_td) : Thread(), td(_td) {}
    800036bc:	fffff097          	auipc	ra,0xfffff
    800036c0:	240080e7          	jalr	576(ra) # 800028fc <_ZN6ThreadC1Ev>
    800036c4:	00006797          	auipc	a5,0x6
    800036c8:	cb478793          	addi	a5,a5,-844 # 80009378 <_ZTV8Consumer+0x10>
    800036cc:	00fbb023          	sd	a5,0(s7)
    800036d0:	029bb023          	sd	s1,32(s7)
    consumer->start();
    800036d4:	000b8513          	mv	a0,s7
    800036d8:	fffff097          	auipc	ra,0xfffff
    800036dc:	14c080e7          	jalr	332(ra) # 80002824 <_ZN6Thread5startEv>
    threadData[0].id = 0;
    800036e0:	000b2023          	sw	zero,0(s6)
    threadData[0].buffer = buffer;
    800036e4:	015b3423          	sd	s5,8(s6)
    threadData[0].sem = waitForAll;
    800036e8:	00008797          	auipc	a5,0x8
    800036ec:	1807b783          	ld	a5,384(a5) # 8000b868 <_ZL10waitForAll>
    800036f0:	00fb3823          	sd	a5,16(s6)
    producers[0] = new ProducerKeyborad(&threadData[0]);
    800036f4:	02800513          	li	a0,40
    800036f8:	fffff097          	auipc	ra,0xfffff
    800036fc:	02c080e7          	jalr	44(ra) # 80002724 <_Znwm>
    80003700:	00050493          	mv	s1,a0
    ProducerKeyborad(thread_data *_td) : Thread(), td(_td) {}
    80003704:	fffff097          	auipc	ra,0xfffff
    80003708:	1f8080e7          	jalr	504(ra) # 800028fc <_ZN6ThreadC1Ev>
    8000370c:	00006797          	auipc	a5,0x6
    80003710:	c1c78793          	addi	a5,a5,-996 # 80009328 <_ZTV16ProducerKeyborad+0x10>
    80003714:	00f4b023          	sd	a5,0(s1)
    80003718:	0364b023          	sd	s6,32(s1)
    producers[0] = new ProducerKeyborad(&threadData[0]);
    8000371c:	009a3023          	sd	s1,0(s4)
    producers[0]->start();
    80003720:	00048513          	mv	a0,s1
    80003724:	fffff097          	auipc	ra,0xfffff
    80003728:	100080e7          	jalr	256(ra) # 80002824 <_ZN6Thread5startEv>
    for (int i = 1; i < threadNum; i++) {
    8000372c:	00100913          	li	s2,1
    80003730:	0300006f          	j	80003760 <_Z20testConsumerProducerv+0x26c>
    Producer(thread_data *_td) : Thread(), td(_td) {}
    80003734:	00006797          	auipc	a5,0x6
    80003738:	c1c78793          	addi	a5,a5,-996 # 80009350 <_ZTV8Producer+0x10>
    8000373c:	00fcb023          	sd	a5,0(s9)
    80003740:	029cb023          	sd	s1,32(s9)
        producers[i] = new Producer(&threadData[i]);
    80003744:	00391793          	slli	a5,s2,0x3
    80003748:	00fa07b3          	add	a5,s4,a5
    8000374c:	0197b023          	sd	s9,0(a5)
        producers[i]->start();
    80003750:	000c8513          	mv	a0,s9
    80003754:	fffff097          	auipc	ra,0xfffff
    80003758:	0d0080e7          	jalr	208(ra) # 80002824 <_ZN6Thread5startEv>
    for (int i = 1; i < threadNum; i++) {
    8000375c:	0019091b          	addiw	s2,s2,1
    80003760:	05395263          	bge	s2,s3,800037a4 <_Z20testConsumerProducerv+0x2b0>
        threadData[i].id = i;
    80003764:	00191493          	slli	s1,s2,0x1
    80003768:	012484b3          	add	s1,s1,s2
    8000376c:	00349493          	slli	s1,s1,0x3
    80003770:	009b04b3          	add	s1,s6,s1
    80003774:	0124a023          	sw	s2,0(s1)
        threadData[i].buffer = buffer;
    80003778:	0154b423          	sd	s5,8(s1)
        threadData[i].sem = waitForAll;
    8000377c:	00008797          	auipc	a5,0x8
    80003780:	0ec7b783          	ld	a5,236(a5) # 8000b868 <_ZL10waitForAll>
    80003784:	00f4b823          	sd	a5,16(s1)
        producers[i] = new Producer(&threadData[i]);
    80003788:	02800513          	li	a0,40
    8000378c:	fffff097          	auipc	ra,0xfffff
    80003790:	f98080e7          	jalr	-104(ra) # 80002724 <_Znwm>
    80003794:	00050c93          	mv	s9,a0
    Producer(thread_data *_td) : Thread(), td(_td) {}
    80003798:	fffff097          	auipc	ra,0xfffff
    8000379c:	164080e7          	jalr	356(ra) # 800028fc <_ZN6ThreadC1Ev>
    800037a0:	f95ff06f          	j	80003734 <_Z20testConsumerProducerv+0x240>
    Thread::dispatch();
    800037a4:	fffff097          	auipc	ra,0xfffff
    800037a8:	0b4080e7          	jalr	180(ra) # 80002858 <_ZN6Thread8dispatchEv>
    for (int i = 0; i <= threadNum; i++) {
    800037ac:	00000493          	li	s1,0
    800037b0:	0180006f          	j	800037c8 <_Z20testConsumerProducerv+0x2d4>
        waitForAll->wait();
    800037b4:	00008517          	auipc	a0,0x8
    800037b8:	0b453503          	ld	a0,180(a0) # 8000b868 <_ZL10waitForAll>
    800037bc:	fffff097          	auipc	ra,0xfffff
    800037c0:	1b0080e7          	jalr	432(ra) # 8000296c <_ZN9Semaphore4waitEv>
    for (int i = 0; i <= threadNum; i++) {
    800037c4:	0014849b          	addiw	s1,s1,1
    800037c8:	fe99d6e3          	bge	s3,s1,800037b4 <_Z20testConsumerProducerv+0x2c0>
    delete waitForAll;
    800037cc:	00008517          	auipc	a0,0x8
    800037d0:	09c53503          	ld	a0,156(a0) # 8000b868 <_ZL10waitForAll>
    800037d4:	00050863          	beqz	a0,800037e4 <_Z20testConsumerProducerv+0x2f0>
    800037d8:	00053783          	ld	a5,0(a0)
    800037dc:	0087b783          	ld	a5,8(a5)
    800037e0:	000780e7          	jalr	a5
    for (int i = 0; i <= threadNum; i++) {
    800037e4:	00000493          	li	s1,0
    800037e8:	0080006f          	j	800037f0 <_Z20testConsumerProducerv+0x2fc>
    for (int i = 0; i < threadNum; i++) {
    800037ec:	0014849b          	addiw	s1,s1,1
    800037f0:	0334d263          	bge	s1,s3,80003814 <_Z20testConsumerProducerv+0x320>
        delete producers[i];
    800037f4:	00349793          	slli	a5,s1,0x3
    800037f8:	00fa07b3          	add	a5,s4,a5
    800037fc:	0007b503          	ld	a0,0(a5)
    80003800:	fe0506e3          	beqz	a0,800037ec <_Z20testConsumerProducerv+0x2f8>
    80003804:	00053783          	ld	a5,0(a0)
    80003808:	0087b783          	ld	a5,8(a5)
    8000380c:	000780e7          	jalr	a5
    80003810:	fddff06f          	j	800037ec <_Z20testConsumerProducerv+0x2f8>
    delete consumer;
    80003814:	000b8a63          	beqz	s7,80003828 <_Z20testConsumerProducerv+0x334>
    80003818:	000bb783          	ld	a5,0(s7)
    8000381c:	0087b783          	ld	a5,8(a5)
    80003820:	000b8513          	mv	a0,s7
    80003824:	000780e7          	jalr	a5
    delete buffer;
    80003828:	000a8e63          	beqz	s5,80003844 <_Z20testConsumerProducerv+0x350>
    8000382c:	000a8513          	mv	a0,s5
    80003830:	00000097          	auipc	ra,0x0
    80003834:	bc4080e7          	jalr	-1084(ra) # 800033f4 <_ZN9BufferCPPD1Ev>
    80003838:	000a8513          	mv	a0,s5
    8000383c:	fffff097          	auipc	ra,0xfffff
    80003840:	f10080e7          	jalr	-240(ra) # 8000274c <_ZdlPv>
    80003844:	000c0113          	mv	sp,s8
}
    80003848:	f8040113          	addi	sp,s0,-128
    8000384c:	07813083          	ld	ra,120(sp)
    80003850:	07013403          	ld	s0,112(sp)
    80003854:	06813483          	ld	s1,104(sp)
    80003858:	06013903          	ld	s2,96(sp)
    8000385c:	05813983          	ld	s3,88(sp)
    80003860:	05013a03          	ld	s4,80(sp)
    80003864:	04813a83          	ld	s5,72(sp)
    80003868:	04013b03          	ld	s6,64(sp)
    8000386c:	03813b83          	ld	s7,56(sp)
    80003870:	03013c03          	ld	s8,48(sp)
    80003874:	02813c83          	ld	s9,40(sp)
    80003878:	08010113          	addi	sp,sp,128
    8000387c:	00008067          	ret
    BufferCPP *buffer = new BufferCPP(n);
    80003880:	00050493          	mv	s1,a0
    80003884:	000a8513          	mv	a0,s5
    80003888:	fffff097          	auipc	ra,0xfffff
    8000388c:	ec4080e7          	jalr	-316(ra) # 8000274c <_ZdlPv>
    80003890:	00048513          	mv	a0,s1
    80003894:	00009097          	auipc	ra,0x9
    80003898:	114080e7          	jalr	276(ra) # 8000c9a8 <_Unwind_Resume>
    waitForAll = new Semaphore(0);
    8000389c:	00050493          	mv	s1,a0
    800038a0:	00090513          	mv	a0,s2
    800038a4:	fffff097          	auipc	ra,0xfffff
    800038a8:	ea8080e7          	jalr	-344(ra) # 8000274c <_ZdlPv>
    800038ac:	00048513          	mv	a0,s1
    800038b0:	00009097          	auipc	ra,0x9
    800038b4:	0f8080e7          	jalr	248(ra) # 8000c9a8 <_Unwind_Resume>
    Thread *consumer = new Consumer(&threadData[threadNum]);
    800038b8:	00050493          	mv	s1,a0
    800038bc:	000b8513          	mv	a0,s7
    800038c0:	fffff097          	auipc	ra,0xfffff
    800038c4:	e8c080e7          	jalr	-372(ra) # 8000274c <_ZdlPv>
    800038c8:	00048513          	mv	a0,s1
    800038cc:	00009097          	auipc	ra,0x9
    800038d0:	0dc080e7          	jalr	220(ra) # 8000c9a8 <_Unwind_Resume>
    producers[0] = new ProducerKeyborad(&threadData[0]);
    800038d4:	00050913          	mv	s2,a0
    800038d8:	00048513          	mv	a0,s1
    800038dc:	fffff097          	auipc	ra,0xfffff
    800038e0:	e70080e7          	jalr	-400(ra) # 8000274c <_ZdlPv>
    800038e4:	00090513          	mv	a0,s2
    800038e8:	00009097          	auipc	ra,0x9
    800038ec:	0c0080e7          	jalr	192(ra) # 8000c9a8 <_Unwind_Resume>
        producers[i] = new Producer(&threadData[i]);
    800038f0:	00050493          	mv	s1,a0
    800038f4:	000c8513          	mv	a0,s9
    800038f8:	fffff097          	auipc	ra,0xfffff
    800038fc:	e54080e7          	jalr	-428(ra) # 8000274c <_ZdlPv>
    80003900:	00048513          	mv	a0,s1
    80003904:	00009097          	auipc	ra,0x9
    80003908:	0a4080e7          	jalr	164(ra) # 8000c9a8 <_Unwind_Resume>

000000008000390c <_ZN8Consumer3runEv>:
    void run() override {
    8000390c:	fd010113          	addi	sp,sp,-48
    80003910:	02113423          	sd	ra,40(sp)
    80003914:	02813023          	sd	s0,32(sp)
    80003918:	00913c23          	sd	s1,24(sp)
    8000391c:	01213823          	sd	s2,16(sp)
    80003920:	01313423          	sd	s3,8(sp)
    80003924:	03010413          	addi	s0,sp,48
    80003928:	00050913          	mv	s2,a0
        int i = 0;
    8000392c:	00000993          	li	s3,0
        while (!threadEnd) {
    80003930:	00008797          	auipc	a5,0x8
    80003934:	f307a783          	lw	a5,-208(a5) # 8000b860 <_ZL9threadEnd>
    80003938:	06079063          	bnez	a5,80003998 <_ZN8Consumer3runEv+0x8c>
            int key = td->buffer->get();
    8000393c:	02093783          	ld	a5,32(s2)
    80003940:	0087b503          	ld	a0,8(a5)
    80003944:	00000097          	auipc	ra,0x0
    80003948:	99c080e7          	jalr	-1636(ra) # 800032e0 <_ZN9BufferCPP3getEv>
            i++;
    8000394c:	0019849b          	addiw	s1,s3,1
    80003950:	0004899b          	sext.w	s3,s1
            Console::putc(key);
    80003954:	0ff57513          	andi	a0,a0,255
    80003958:	fffff097          	auipc	ra,0xfffff
    8000395c:	104080e7          	jalr	260(ra) # 80002a5c <_ZN7Console4putcEc>
            if (i % 80 == 0) {
    80003960:	05000793          	li	a5,80
    80003964:	02f4e4bb          	remw	s1,s1,a5
    80003968:	fc0494e3          	bnez	s1,80003930 <_ZN8Consumer3runEv+0x24>
                Console::putc('\n');
    8000396c:	00a00513          	li	a0,10
    80003970:	fffff097          	auipc	ra,0xfffff
    80003974:	0ec080e7          	jalr	236(ra) # 80002a5c <_ZN7Console4putcEc>
    80003978:	fb9ff06f          	j	80003930 <_ZN8Consumer3runEv+0x24>
            int key = td->buffer->get();
    8000397c:	02093783          	ld	a5,32(s2)
    80003980:	0087b503          	ld	a0,8(a5)
    80003984:	00000097          	auipc	ra,0x0
    80003988:	95c080e7          	jalr	-1700(ra) # 800032e0 <_ZN9BufferCPP3getEv>
            Console::putc(key);
    8000398c:	0ff57513          	andi	a0,a0,255
    80003990:	fffff097          	auipc	ra,0xfffff
    80003994:	0cc080e7          	jalr	204(ra) # 80002a5c <_ZN7Console4putcEc>
        while (td->buffer->getCnt() > 0) {
    80003998:	02093783          	ld	a5,32(s2)
    8000399c:	0087b503          	ld	a0,8(a5)
    800039a0:	00000097          	auipc	ra,0x0
    800039a4:	9cc080e7          	jalr	-1588(ra) # 8000336c <_ZN9BufferCPP6getCntEv>
    800039a8:	fca04ae3          	bgtz	a0,8000397c <_ZN8Consumer3runEv+0x70>
        td->sem->signal();
    800039ac:	02093783          	ld	a5,32(s2)
    800039b0:	0107b503          	ld	a0,16(a5)
    800039b4:	fffff097          	auipc	ra,0xfffff
    800039b8:	fe4080e7          	jalr	-28(ra) # 80002998 <_ZN9Semaphore6signalEv>
    }
    800039bc:	02813083          	ld	ra,40(sp)
    800039c0:	02013403          	ld	s0,32(sp)
    800039c4:	01813483          	ld	s1,24(sp)
    800039c8:	01013903          	ld	s2,16(sp)
    800039cc:	00813983          	ld	s3,8(sp)
    800039d0:	03010113          	addi	sp,sp,48
    800039d4:	00008067          	ret

00000000800039d8 <_ZN8ConsumerD1Ev>:
class Consumer : public Thread {
    800039d8:	ff010113          	addi	sp,sp,-16
    800039dc:	00113423          	sd	ra,8(sp)
    800039e0:	00813023          	sd	s0,0(sp)
    800039e4:	01010413          	addi	s0,sp,16
    800039e8:	00006797          	auipc	a5,0x6
    800039ec:	99078793          	addi	a5,a5,-1648 # 80009378 <_ZTV8Consumer+0x10>
    800039f0:	00f53023          	sd	a5,0(a0)
    800039f4:	fffff097          	auipc	ra,0xfffff
    800039f8:	c94080e7          	jalr	-876(ra) # 80002688 <_ZN6ThreadD1Ev>
    800039fc:	00813083          	ld	ra,8(sp)
    80003a00:	00013403          	ld	s0,0(sp)
    80003a04:	01010113          	addi	sp,sp,16
    80003a08:	00008067          	ret

0000000080003a0c <_ZN8ConsumerD0Ev>:
    80003a0c:	fe010113          	addi	sp,sp,-32
    80003a10:	00113c23          	sd	ra,24(sp)
    80003a14:	00813823          	sd	s0,16(sp)
    80003a18:	00913423          	sd	s1,8(sp)
    80003a1c:	02010413          	addi	s0,sp,32
    80003a20:	00050493          	mv	s1,a0
    80003a24:	00006797          	auipc	a5,0x6
    80003a28:	95478793          	addi	a5,a5,-1708 # 80009378 <_ZTV8Consumer+0x10>
    80003a2c:	00f53023          	sd	a5,0(a0)
    80003a30:	fffff097          	auipc	ra,0xfffff
    80003a34:	c58080e7          	jalr	-936(ra) # 80002688 <_ZN6ThreadD1Ev>
    80003a38:	00048513          	mv	a0,s1
    80003a3c:	fffff097          	auipc	ra,0xfffff
    80003a40:	d10080e7          	jalr	-752(ra) # 8000274c <_ZdlPv>
    80003a44:	01813083          	ld	ra,24(sp)
    80003a48:	01013403          	ld	s0,16(sp)
    80003a4c:	00813483          	ld	s1,8(sp)
    80003a50:	02010113          	addi	sp,sp,32
    80003a54:	00008067          	ret

0000000080003a58 <_ZN16ProducerKeyboradD1Ev>:
class ProducerKeyborad : public Thread {
    80003a58:	ff010113          	addi	sp,sp,-16
    80003a5c:	00113423          	sd	ra,8(sp)
    80003a60:	00813023          	sd	s0,0(sp)
    80003a64:	01010413          	addi	s0,sp,16
    80003a68:	00006797          	auipc	a5,0x6
    80003a6c:	8c078793          	addi	a5,a5,-1856 # 80009328 <_ZTV16ProducerKeyborad+0x10>
    80003a70:	00f53023          	sd	a5,0(a0)
    80003a74:	fffff097          	auipc	ra,0xfffff
    80003a78:	c14080e7          	jalr	-1004(ra) # 80002688 <_ZN6ThreadD1Ev>
    80003a7c:	00813083          	ld	ra,8(sp)
    80003a80:	00013403          	ld	s0,0(sp)
    80003a84:	01010113          	addi	sp,sp,16
    80003a88:	00008067          	ret

0000000080003a8c <_ZN16ProducerKeyboradD0Ev>:
    80003a8c:	fe010113          	addi	sp,sp,-32
    80003a90:	00113c23          	sd	ra,24(sp)
    80003a94:	00813823          	sd	s0,16(sp)
    80003a98:	00913423          	sd	s1,8(sp)
    80003a9c:	02010413          	addi	s0,sp,32
    80003aa0:	00050493          	mv	s1,a0
    80003aa4:	00006797          	auipc	a5,0x6
    80003aa8:	88478793          	addi	a5,a5,-1916 # 80009328 <_ZTV16ProducerKeyborad+0x10>
    80003aac:	00f53023          	sd	a5,0(a0)
    80003ab0:	fffff097          	auipc	ra,0xfffff
    80003ab4:	bd8080e7          	jalr	-1064(ra) # 80002688 <_ZN6ThreadD1Ev>
    80003ab8:	00048513          	mv	a0,s1
    80003abc:	fffff097          	auipc	ra,0xfffff
    80003ac0:	c90080e7          	jalr	-880(ra) # 8000274c <_ZdlPv>
    80003ac4:	01813083          	ld	ra,24(sp)
    80003ac8:	01013403          	ld	s0,16(sp)
    80003acc:	00813483          	ld	s1,8(sp)
    80003ad0:	02010113          	addi	sp,sp,32
    80003ad4:	00008067          	ret

0000000080003ad8 <_ZN8ProducerD1Ev>:
class Producer : public Thread {
    80003ad8:	ff010113          	addi	sp,sp,-16
    80003adc:	00113423          	sd	ra,8(sp)
    80003ae0:	00813023          	sd	s0,0(sp)
    80003ae4:	01010413          	addi	s0,sp,16
    80003ae8:	00006797          	auipc	a5,0x6
    80003aec:	86878793          	addi	a5,a5,-1944 # 80009350 <_ZTV8Producer+0x10>
    80003af0:	00f53023          	sd	a5,0(a0)
    80003af4:	fffff097          	auipc	ra,0xfffff
    80003af8:	b94080e7          	jalr	-1132(ra) # 80002688 <_ZN6ThreadD1Ev>
    80003afc:	00813083          	ld	ra,8(sp)
    80003b00:	00013403          	ld	s0,0(sp)
    80003b04:	01010113          	addi	sp,sp,16
    80003b08:	00008067          	ret

0000000080003b0c <_ZN8ProducerD0Ev>:
    80003b0c:	fe010113          	addi	sp,sp,-32
    80003b10:	00113c23          	sd	ra,24(sp)
    80003b14:	00813823          	sd	s0,16(sp)
    80003b18:	00913423          	sd	s1,8(sp)
    80003b1c:	02010413          	addi	s0,sp,32
    80003b20:	00050493          	mv	s1,a0
    80003b24:	00006797          	auipc	a5,0x6
    80003b28:	82c78793          	addi	a5,a5,-2004 # 80009350 <_ZTV8Producer+0x10>
    80003b2c:	00f53023          	sd	a5,0(a0)
    80003b30:	fffff097          	auipc	ra,0xfffff
    80003b34:	b58080e7          	jalr	-1192(ra) # 80002688 <_ZN6ThreadD1Ev>
    80003b38:	00048513          	mv	a0,s1
    80003b3c:	fffff097          	auipc	ra,0xfffff
    80003b40:	c10080e7          	jalr	-1008(ra) # 8000274c <_ZdlPv>
    80003b44:	01813083          	ld	ra,24(sp)
    80003b48:	01013403          	ld	s0,16(sp)
    80003b4c:	00813483          	ld	s1,8(sp)
    80003b50:	02010113          	addi	sp,sp,32
    80003b54:	00008067          	ret

0000000080003b58 <_ZN16ProducerKeyborad3runEv>:
    void run() override {
    80003b58:	fe010113          	addi	sp,sp,-32
    80003b5c:	00113c23          	sd	ra,24(sp)
    80003b60:	00813823          	sd	s0,16(sp)
    80003b64:	00913423          	sd	s1,8(sp)
    80003b68:	02010413          	addi	s0,sp,32
    80003b6c:	00050493          	mv	s1,a0
        int i = 0;
    80003b70:	0140006f          	j	80003b84 <_ZN16ProducerKeyborad3runEv+0x2c>
            td->buffer->put(key);
    80003b74:	0204b783          	ld	a5,32(s1)
    80003b78:	0087b503          	ld	a0,8(a5)
    80003b7c:	fffff097          	auipc	ra,0xfffff
    80003b80:	6d4080e7          	jalr	1748(ra) # 80003250 <_ZN9BufferCPP3putEi>
        while ((key = getc()) != 0x1b) {
    80003b84:	fffff097          	auipc	ra,0xfffff
    80003b88:	a5c080e7          	jalr	-1444(ra) # 800025e0 <_Z4getcv>
    80003b8c:	0005059b          	sext.w	a1,a0
    80003b90:	01b00793          	li	a5,27
    80003b94:	fef590e3          	bne	a1,a5,80003b74 <_ZN16ProducerKeyborad3runEv+0x1c>
        threadEnd = 1;
    80003b98:	00100793          	li	a5,1
    80003b9c:	00008717          	auipc	a4,0x8
    80003ba0:	ccf72223          	sw	a5,-828(a4) # 8000b860 <_ZL9threadEnd>
        td->buffer->put('!');
    80003ba4:	0204b783          	ld	a5,32(s1)
    80003ba8:	02100593          	li	a1,33
    80003bac:	0087b503          	ld	a0,8(a5)
    80003bb0:	fffff097          	auipc	ra,0xfffff
    80003bb4:	6a0080e7          	jalr	1696(ra) # 80003250 <_ZN9BufferCPP3putEi>
        td->sem->signal();
    80003bb8:	0204b783          	ld	a5,32(s1)
    80003bbc:	0107b503          	ld	a0,16(a5)
    80003bc0:	fffff097          	auipc	ra,0xfffff
    80003bc4:	dd8080e7          	jalr	-552(ra) # 80002998 <_ZN9Semaphore6signalEv>
    }
    80003bc8:	01813083          	ld	ra,24(sp)
    80003bcc:	01013403          	ld	s0,16(sp)
    80003bd0:	00813483          	ld	s1,8(sp)
    80003bd4:	02010113          	addi	sp,sp,32
    80003bd8:	00008067          	ret

0000000080003bdc <_ZN8Producer3runEv>:
    void run() override {
    80003bdc:	fe010113          	addi	sp,sp,-32
    80003be0:	00113c23          	sd	ra,24(sp)
    80003be4:	00813823          	sd	s0,16(sp)
    80003be8:	00913423          	sd	s1,8(sp)
    80003bec:	01213023          	sd	s2,0(sp)
    80003bf0:	02010413          	addi	s0,sp,32
    80003bf4:	00050493          	mv	s1,a0
        int i = 0;
    80003bf8:	00000913          	li	s2,0
    80003bfc:	0400006f          	j	80003c3c <_ZN8Producer3runEv+0x60>
            td->buffer->put(td->id + '0');
    80003c00:	0204b783          	ld	a5,32(s1)
    80003c04:	0007a583          	lw	a1,0(a5)
    80003c08:	0305859b          	addiw	a1,a1,48
    80003c0c:	0087b503          	ld	a0,8(a5)
    80003c10:	fffff097          	auipc	ra,0xfffff
    80003c14:	640080e7          	jalr	1600(ra) # 80003250 <_ZN9BufferCPP3putEi>
            i++;
    80003c18:	0019071b          	addiw	a4,s2,1
    80003c1c:	0007091b          	sext.w	s2,a4
            Thread::sleep((i + td->id) % 5);
    80003c20:	0204b783          	ld	a5,32(s1)
    80003c24:	0007a783          	lw	a5,0(a5)
    80003c28:	00e787bb          	addw	a5,a5,a4
    80003c2c:	00500513          	li	a0,5
    80003c30:	02a7e53b          	remw	a0,a5,a0
    80003c34:	fffff097          	auipc	ra,0xfffff
    80003c38:	c4c080e7          	jalr	-948(ra) # 80002880 <_ZN6Thread5sleepEm>
        while (!threadEnd) {
    80003c3c:	00008797          	auipc	a5,0x8
    80003c40:	c247a783          	lw	a5,-988(a5) # 8000b860 <_ZL9threadEnd>
    80003c44:	fa078ee3          	beqz	a5,80003c00 <_ZN8Producer3runEv+0x24>
        td->sem->signal();
    80003c48:	0204b783          	ld	a5,32(s1)
    80003c4c:	0107b503          	ld	a0,16(a5)
    80003c50:	fffff097          	auipc	ra,0xfffff
    80003c54:	d48080e7          	jalr	-696(ra) # 80002998 <_ZN9Semaphore6signalEv>
    }
    80003c58:	01813083          	ld	ra,24(sp)
    80003c5c:	01013403          	ld	s0,16(sp)
    80003c60:	00813483          	ld	s1,8(sp)
    80003c64:	00013903          	ld	s2,0(sp)
    80003c68:	02010113          	addi	sp,sp,32
    80003c6c:	00008067          	ret

0000000080003c70 <_ZN16ProducerKeyboard16producerKeyboardEPv>:
    void run() override {
        producerKeyboard(td);
    }
};

void ProducerKeyboard::producerKeyboard(void *arg) {
    80003c70:	fd010113          	addi	sp,sp,-48
    80003c74:	02113423          	sd	ra,40(sp)
    80003c78:	02813023          	sd	s0,32(sp)
    80003c7c:	00913c23          	sd	s1,24(sp)
    80003c80:	01213823          	sd	s2,16(sp)
    80003c84:	01313423          	sd	s3,8(sp)
    80003c88:	03010413          	addi	s0,sp,48
    80003c8c:	00050993          	mv	s3,a0
    80003c90:	00058493          	mv	s1,a1
    struct thread_data *data = (struct thread_data *) arg;

    int key;
    int i = 0;
    80003c94:	00000913          	li	s2,0
    while ((key = getc()) != 0x1b) {
    80003c98:	fffff097          	auipc	ra,0xfffff
    80003c9c:	948080e7          	jalr	-1720(ra) # 800025e0 <_Z4getcv>
    80003ca0:	0005059b          	sext.w	a1,a0
    80003ca4:	01b00793          	li	a5,27
    80003ca8:	02f58e63          	beq	a1,a5,80003ce4 <_ZN16ProducerKeyboard16producerKeyboardEPv+0x74>
        data->buffer->put(key);
    80003cac:	0084b503          	ld	a0,8(s1)
    80003cb0:	fffff097          	auipc	ra,0xfffff
    80003cb4:	5a0080e7          	jalr	1440(ra) # 80003250 <_ZN9BufferCPP3putEi>
        i++;
    80003cb8:	0019071b          	addiw	a4,s2,1
    80003cbc:	0007091b          	sext.w	s2,a4

        if (i % (10 * data->id) == 0) {
    80003cc0:	0004a683          	lw	a3,0(s1)
    80003cc4:	0026979b          	slliw	a5,a3,0x2
    80003cc8:	00d787bb          	addw	a5,a5,a3
    80003ccc:	0017979b          	slliw	a5,a5,0x1
    80003cd0:	02f767bb          	remw	a5,a4,a5
    80003cd4:	fc0792e3          	bnez	a5,80003c98 <_ZN16ProducerKeyboard16producerKeyboardEPv+0x28>
            Thread::dispatch();
    80003cd8:	fffff097          	auipc	ra,0xfffff
    80003cdc:	b80080e7          	jalr	-1152(ra) # 80002858 <_ZN6Thread8dispatchEv>
    80003ce0:	fb9ff06f          	j	80003c98 <_ZN16ProducerKeyboard16producerKeyboardEPv+0x28>
        }
    }

    threadEnd = 1;
    80003ce4:	00100793          	li	a5,1
    80003ce8:	00008717          	auipc	a4,0x8
    80003cec:	b8f72423          	sw	a5,-1144(a4) # 8000b870 <_ZL9threadEnd>
    td->buffer->put('!');
    80003cf0:	0209b783          	ld	a5,32(s3)
    80003cf4:	02100593          	li	a1,33
    80003cf8:	0087b503          	ld	a0,8(a5)
    80003cfc:	fffff097          	auipc	ra,0xfffff
    80003d00:	554080e7          	jalr	1364(ra) # 80003250 <_ZN9BufferCPP3putEi>

    data->wait->signal();
    80003d04:	0104b503          	ld	a0,16(s1)
    80003d08:	fffff097          	auipc	ra,0xfffff
    80003d0c:	c90080e7          	jalr	-880(ra) # 80002998 <_ZN9Semaphore6signalEv>
}
    80003d10:	02813083          	ld	ra,40(sp)
    80003d14:	02013403          	ld	s0,32(sp)
    80003d18:	01813483          	ld	s1,24(sp)
    80003d1c:	01013903          	ld	s2,16(sp)
    80003d20:	00813983          	ld	s3,8(sp)
    80003d24:	03010113          	addi	sp,sp,48
    80003d28:	00008067          	ret

0000000080003d2c <_ZN12ProducerSync8producerEPv>:
    void run() override {
        producer(td);
    }
};

void ProducerSync::producer(void *arg) {
    80003d2c:	fe010113          	addi	sp,sp,-32
    80003d30:	00113c23          	sd	ra,24(sp)
    80003d34:	00813823          	sd	s0,16(sp)
    80003d38:	00913423          	sd	s1,8(sp)
    80003d3c:	01213023          	sd	s2,0(sp)
    80003d40:	02010413          	addi	s0,sp,32
    80003d44:	00058493          	mv	s1,a1
    struct thread_data *data = (struct thread_data *) arg;

    int i = 0;
    80003d48:	00000913          	li	s2,0
    while (!threadEnd) {
    80003d4c:	00008797          	auipc	a5,0x8
    80003d50:	b247a783          	lw	a5,-1244(a5) # 8000b870 <_ZL9threadEnd>
    80003d54:	04079263          	bnez	a5,80003d98 <_ZN12ProducerSync8producerEPv+0x6c>
        data->buffer->put(data->id + '0');
    80003d58:	0004a583          	lw	a1,0(s1)
    80003d5c:	0305859b          	addiw	a1,a1,48
    80003d60:	0084b503          	ld	a0,8(s1)
    80003d64:	fffff097          	auipc	ra,0xfffff
    80003d68:	4ec080e7          	jalr	1260(ra) # 80003250 <_ZN9BufferCPP3putEi>
        i++;
    80003d6c:	0019071b          	addiw	a4,s2,1
    80003d70:	0007091b          	sext.w	s2,a4

        if (i % (10 * data->id) == 0) {
    80003d74:	0004a683          	lw	a3,0(s1)
    80003d78:	0026979b          	slliw	a5,a3,0x2
    80003d7c:	00d787bb          	addw	a5,a5,a3
    80003d80:	0017979b          	slliw	a5,a5,0x1
    80003d84:	02f767bb          	remw	a5,a4,a5
    80003d88:	fc0792e3          	bnez	a5,80003d4c <_ZN12ProducerSync8producerEPv+0x20>
            Thread::dispatch();
    80003d8c:	fffff097          	auipc	ra,0xfffff
    80003d90:	acc080e7          	jalr	-1332(ra) # 80002858 <_ZN6Thread8dispatchEv>
    80003d94:	fb9ff06f          	j	80003d4c <_ZN12ProducerSync8producerEPv+0x20>
        }
    }

    data->wait->signal();
    80003d98:	0104b503          	ld	a0,16(s1)
    80003d9c:	fffff097          	auipc	ra,0xfffff
    80003da0:	bfc080e7          	jalr	-1028(ra) # 80002998 <_ZN9Semaphore6signalEv>
}
    80003da4:	01813083          	ld	ra,24(sp)
    80003da8:	01013403          	ld	s0,16(sp)
    80003dac:	00813483          	ld	s1,8(sp)
    80003db0:	00013903          	ld	s2,0(sp)
    80003db4:	02010113          	addi	sp,sp,32
    80003db8:	00008067          	ret

0000000080003dbc <_ZN12ConsumerSync8consumerEPv>:
    void run() override {
        consumer(td);
    }
};

void ConsumerSync::consumer(void *arg) {
    80003dbc:	fd010113          	addi	sp,sp,-48
    80003dc0:	02113423          	sd	ra,40(sp)
    80003dc4:	02813023          	sd	s0,32(sp)
    80003dc8:	00913c23          	sd	s1,24(sp)
    80003dcc:	01213823          	sd	s2,16(sp)
    80003dd0:	01313423          	sd	s3,8(sp)
    80003dd4:	01413023          	sd	s4,0(sp)
    80003dd8:	03010413          	addi	s0,sp,48
    80003ddc:	00050993          	mv	s3,a0
    80003de0:	00058913          	mv	s2,a1
    struct thread_data *data = (struct thread_data *) arg;

    int i = 0;
    80003de4:	00000a13          	li	s4,0
    while (!threadEnd) {
    80003de8:	00008797          	auipc	a5,0x8
    80003dec:	a887a783          	lw	a5,-1400(a5) # 8000b870 <_ZL9threadEnd>
    80003df0:	06079e63          	bnez	a5,80003e6c <_ZN12ConsumerSync8consumerEPv+0xb0>
        int key = data->buffer->get();
    80003df4:	00893503          	ld	a0,8(s2)
    80003df8:	fffff097          	auipc	ra,0xfffff
    80003dfc:	4e8080e7          	jalr	1256(ra) # 800032e0 <_ZN9BufferCPP3getEv>
        i++;
    80003e00:	001a049b          	addiw	s1,s4,1
    80003e04:	00048a1b          	sext.w	s4,s1

        putc(key);
    80003e08:	0ff57513          	andi	a0,a0,255
    80003e0c:	fffff097          	auipc	ra,0xfffff
    80003e10:	828080e7          	jalr	-2008(ra) # 80002634 <_Z4putcc>

        if (i % (5 * data->id) == 0) {
    80003e14:	00092703          	lw	a4,0(s2)
    80003e18:	0027179b          	slliw	a5,a4,0x2
    80003e1c:	00e787bb          	addw	a5,a5,a4
    80003e20:	02f4e7bb          	remw	a5,s1,a5
    80003e24:	02078063          	beqz	a5,80003e44 <_ZN12ConsumerSync8consumerEPv+0x88>
            Thread::dispatch();
        }

        if (i % 80 == 0) {
    80003e28:	05000793          	li	a5,80
    80003e2c:	02f4e4bb          	remw	s1,s1,a5
    80003e30:	fa049ce3          	bnez	s1,80003de8 <_ZN12ConsumerSync8consumerEPv+0x2c>
            putc('\n');
    80003e34:	00a00513          	li	a0,10
    80003e38:	ffffe097          	auipc	ra,0xffffe
    80003e3c:	7fc080e7          	jalr	2044(ra) # 80002634 <_Z4putcc>
    80003e40:	fa9ff06f          	j	80003de8 <_ZN12ConsumerSync8consumerEPv+0x2c>
            Thread::dispatch();
    80003e44:	fffff097          	auipc	ra,0xfffff
    80003e48:	a14080e7          	jalr	-1516(ra) # 80002858 <_ZN6Thread8dispatchEv>
    80003e4c:	fddff06f          	j	80003e28 <_ZN12ConsumerSync8consumerEPv+0x6c>
        }
    }


    while (td->buffer->getCnt() > 0) {
        int key = td->buffer->get();
    80003e50:	0209b783          	ld	a5,32(s3)
    80003e54:	0087b503          	ld	a0,8(a5)
    80003e58:	fffff097          	auipc	ra,0xfffff
    80003e5c:	488080e7          	jalr	1160(ra) # 800032e0 <_ZN9BufferCPP3getEv>
        Console::putc(key);
    80003e60:	0ff57513          	andi	a0,a0,255
    80003e64:	fffff097          	auipc	ra,0xfffff
    80003e68:	bf8080e7          	jalr	-1032(ra) # 80002a5c <_ZN7Console4putcEc>
    while (td->buffer->getCnt() > 0) {
    80003e6c:	0209b783          	ld	a5,32(s3)
    80003e70:	0087b503          	ld	a0,8(a5)
    80003e74:	fffff097          	auipc	ra,0xfffff
    80003e78:	4f8080e7          	jalr	1272(ra) # 8000336c <_ZN9BufferCPP6getCntEv>
    80003e7c:	fca04ae3          	bgtz	a0,80003e50 <_ZN12ConsumerSync8consumerEPv+0x94>
    }

    data->wait->signal();
    80003e80:	01093503          	ld	a0,16(s2)
    80003e84:	fffff097          	auipc	ra,0xfffff
    80003e88:	b14080e7          	jalr	-1260(ra) # 80002998 <_ZN9Semaphore6signalEv>
}
    80003e8c:	02813083          	ld	ra,40(sp)
    80003e90:	02013403          	ld	s0,32(sp)
    80003e94:	01813483          	ld	s1,24(sp)
    80003e98:	01013903          	ld	s2,16(sp)
    80003e9c:	00813983          	ld	s3,8(sp)
    80003ea0:	00013a03          	ld	s4,0(sp)
    80003ea4:	03010113          	addi	sp,sp,48
    80003ea8:	00008067          	ret

0000000080003eac <_Z29producerConsumer_CPP_Sync_APIv>:

void producerConsumer_CPP_Sync_API() {
    80003eac:	f8010113          	addi	sp,sp,-128
    80003eb0:	06113c23          	sd	ra,120(sp)
    80003eb4:	06813823          	sd	s0,112(sp)
    80003eb8:	06913423          	sd	s1,104(sp)
    80003ebc:	07213023          	sd	s2,96(sp)
    80003ec0:	05313c23          	sd	s3,88(sp)
    80003ec4:	05413823          	sd	s4,80(sp)
    80003ec8:	05513423          	sd	s5,72(sp)
    80003ecc:	05613023          	sd	s6,64(sp)
    80003ed0:	03713c23          	sd	s7,56(sp)
    80003ed4:	03813823          	sd	s8,48(sp)
    80003ed8:	03913423          	sd	s9,40(sp)
    80003edc:	08010413          	addi	s0,sp,128
    for (int i = 0; i < threadNum; i++) {
        delete threads[i];
    }
    delete consumerThread;
    delete waitForAll;
    delete buffer;
    80003ee0:	00010b93          	mv	s7,sp
    printString("Unesite broj proizvodjaca?\n");
    80003ee4:	00005517          	auipc	a0,0x5
    80003ee8:	34c50513          	addi	a0,a0,844 # 80009230 <_ZTV14PeriodicThread+0x48>
    80003eec:	00001097          	auipc	ra,0x1
    80003ef0:	ae4080e7          	jalr	-1308(ra) # 800049d0 <_Z11printStringPKc>
    getString(input, 30);
    80003ef4:	01e00593          	li	a1,30
    80003ef8:	f8040513          	addi	a0,s0,-128
    80003efc:	00001097          	auipc	ra,0x1
    80003f00:	b5c080e7          	jalr	-1188(ra) # 80004a58 <_Z9getStringPci>
    threadNum = stringToInt(input);
    80003f04:	f8040513          	addi	a0,s0,-128
    80003f08:	00001097          	auipc	ra,0x1
    80003f0c:	c28080e7          	jalr	-984(ra) # 80004b30 <_Z11stringToIntPKc>
    80003f10:	00050913          	mv	s2,a0
    printString("Unesite velicinu bafera?\n");
    80003f14:	00005517          	auipc	a0,0x5
    80003f18:	33c50513          	addi	a0,a0,828 # 80009250 <_ZTV14PeriodicThread+0x68>
    80003f1c:	00001097          	auipc	ra,0x1
    80003f20:	ab4080e7          	jalr	-1356(ra) # 800049d0 <_Z11printStringPKc>
    getString(input, 30);
    80003f24:	01e00593          	li	a1,30
    80003f28:	f8040513          	addi	a0,s0,-128
    80003f2c:	00001097          	auipc	ra,0x1
    80003f30:	b2c080e7          	jalr	-1236(ra) # 80004a58 <_Z9getStringPci>
    n = stringToInt(input);
    80003f34:	f8040513          	addi	a0,s0,-128
    80003f38:	00001097          	auipc	ra,0x1
    80003f3c:	bf8080e7          	jalr	-1032(ra) # 80004b30 <_Z11stringToIntPKc>
    80003f40:	00050493          	mv	s1,a0
    printString("Broj proizvodjaca "); printInt(threadNum);
    80003f44:	00005517          	auipc	a0,0x5
    80003f48:	32c50513          	addi	a0,a0,812 # 80009270 <_ZTV14PeriodicThread+0x88>
    80003f4c:	00001097          	auipc	ra,0x1
    80003f50:	a84080e7          	jalr	-1404(ra) # 800049d0 <_Z11printStringPKc>
    80003f54:	00000613          	li	a2,0
    80003f58:	00a00593          	li	a1,10
    80003f5c:	00090513          	mv	a0,s2
    80003f60:	00001097          	auipc	ra,0x1
    80003f64:	c20080e7          	jalr	-992(ra) # 80004b80 <_Z8printIntiii>
    printString(" i velicina bafera "); printInt(n);
    80003f68:	00005517          	auipc	a0,0x5
    80003f6c:	32050513          	addi	a0,a0,800 # 80009288 <_ZTV14PeriodicThread+0xa0>
    80003f70:	00001097          	auipc	ra,0x1
    80003f74:	a60080e7          	jalr	-1440(ra) # 800049d0 <_Z11printStringPKc>
    80003f78:	00000613          	li	a2,0
    80003f7c:	00a00593          	li	a1,10
    80003f80:	00048513          	mv	a0,s1
    80003f84:	00001097          	auipc	ra,0x1
    80003f88:	bfc080e7          	jalr	-1028(ra) # 80004b80 <_Z8printIntiii>
    printString(".\n");
    80003f8c:	00005517          	auipc	a0,0x5
    80003f90:	31450513          	addi	a0,a0,788 # 800092a0 <_ZTV14PeriodicThread+0xb8>
    80003f94:	00001097          	auipc	ra,0x1
    80003f98:	a3c080e7          	jalr	-1476(ra) # 800049d0 <_Z11printStringPKc>
    if(threadNum > n) {
    80003f9c:	0324c463          	blt	s1,s2,80003fc4 <_Z29producerConsumer_CPP_Sync_APIv+0x118>
    } else if (threadNum < 1) {
    80003fa0:	03205c63          	blez	s2,80003fd8 <_Z29producerConsumer_CPP_Sync_APIv+0x12c>
    BufferCPP *buffer = new BufferCPP(n);
    80003fa4:	03800513          	li	a0,56
    80003fa8:	ffffe097          	auipc	ra,0xffffe
    80003fac:	77c080e7          	jalr	1916(ra) # 80002724 <_Znwm>
    80003fb0:	00050a93          	mv	s5,a0
    80003fb4:	00048593          	mv	a1,s1
    80003fb8:	fffff097          	auipc	ra,0xfffff
    80003fbc:	144080e7          	jalr	324(ra) # 800030fc <_ZN9BufferCPPC1Ei>
    80003fc0:	0300006f          	j	80003ff0 <_Z29producerConsumer_CPP_Sync_APIv+0x144>
        printString("Broj proizvodjaca ne sme biti manji od velicine bafera!\n");
    80003fc4:	00005517          	auipc	a0,0x5
    80003fc8:	2e450513          	addi	a0,a0,740 # 800092a8 <_ZTV14PeriodicThread+0xc0>
    80003fcc:	00001097          	auipc	ra,0x1
    80003fd0:	a04080e7          	jalr	-1532(ra) # 800049d0 <_Z11printStringPKc>
        return;
    80003fd4:	0140006f          	j	80003fe8 <_Z29producerConsumer_CPP_Sync_APIv+0x13c>
        printString("Broj proizvodjaca mora biti veci od nula!\n");
    80003fd8:	00005517          	auipc	a0,0x5
    80003fdc:	31050513          	addi	a0,a0,784 # 800092e8 <_ZTV14PeriodicThread+0x100>
    80003fe0:	00001097          	auipc	ra,0x1
    80003fe4:	9f0080e7          	jalr	-1552(ra) # 800049d0 <_Z11printStringPKc>
        return;
    80003fe8:	000b8113          	mv	sp,s7
    80003fec:	2380006f          	j	80004224 <_Z29producerConsumer_CPP_Sync_APIv+0x378>
    waitForAll = new Semaphore(0);
    80003ff0:	01000513          	li	a0,16
    80003ff4:	ffffe097          	auipc	ra,0xffffe
    80003ff8:	730080e7          	jalr	1840(ra) # 80002724 <_Znwm>
    80003ffc:	00050493          	mv	s1,a0
    80004000:	00000593          	li	a1,0
    80004004:	fffff097          	auipc	ra,0xfffff
    80004008:	930080e7          	jalr	-1744(ra) # 80002934 <_ZN9SemaphoreC1Ej>
    8000400c:	00008797          	auipc	a5,0x8
    80004010:	8697b623          	sd	s1,-1940(a5) # 8000b878 <_ZL10waitForAll>
    Thread* threads[threadNum];
    80004014:	00391793          	slli	a5,s2,0x3
    80004018:	00f78793          	addi	a5,a5,15
    8000401c:	ff07f793          	andi	a5,a5,-16
    80004020:	40f10133          	sub	sp,sp,a5
    80004024:	00010993          	mv	s3,sp
    struct thread_data data[threadNum + 1];
    80004028:	0019071b          	addiw	a4,s2,1
    8000402c:	00171793          	slli	a5,a4,0x1
    80004030:	00e787b3          	add	a5,a5,a4
    80004034:	00379793          	slli	a5,a5,0x3
    80004038:	00f78793          	addi	a5,a5,15
    8000403c:	ff07f793          	andi	a5,a5,-16
    80004040:	40f10133          	sub	sp,sp,a5
    80004044:	00010a13          	mv	s4,sp
    data[threadNum].id = threadNum;
    80004048:	00191c13          	slli	s8,s2,0x1
    8000404c:	012c07b3          	add	a5,s8,s2
    80004050:	00379793          	slli	a5,a5,0x3
    80004054:	00fa07b3          	add	a5,s4,a5
    80004058:	0127a023          	sw	s2,0(a5)
    data[threadNum].buffer = buffer;
    8000405c:	0157b423          	sd	s5,8(a5)
    data[threadNum].wait = waitForAll;
    80004060:	0097b823          	sd	s1,16(a5)
    consumerThread = new ConsumerSync(data+threadNum);
    80004064:	02800513          	li	a0,40
    80004068:	ffffe097          	auipc	ra,0xffffe
    8000406c:	6bc080e7          	jalr	1724(ra) # 80002724 <_Znwm>
    80004070:	00050b13          	mv	s6,a0
    80004074:	012c0c33          	add	s8,s8,s2
    80004078:	003c1c13          	slli	s8,s8,0x3
    8000407c:	018a0c33          	add	s8,s4,s8
    ConsumerSync(thread_data* _td):Thread(), td(_td) {}
    80004080:	fffff097          	auipc	ra,0xfffff
    80004084:	87c080e7          	jalr	-1924(ra) # 800028fc <_ZN6ThreadC1Ev>
    80004088:	00005797          	auipc	a5,0x5
    8000408c:	36878793          	addi	a5,a5,872 # 800093f0 <_ZTV12ConsumerSync+0x10>
    80004090:	00fb3023          	sd	a5,0(s6)
    80004094:	038b3023          	sd	s8,32(s6)
    consumerThread->start();
    80004098:	000b0513          	mv	a0,s6
    8000409c:	ffffe097          	auipc	ra,0xffffe
    800040a0:	788080e7          	jalr	1928(ra) # 80002824 <_ZN6Thread5startEv>
    for (int i = 0; i < threadNum; i++) {
    800040a4:	00000493          	li	s1,0
    800040a8:	0380006f          	j	800040e0 <_Z29producerConsumer_CPP_Sync_APIv+0x234>
    ProducerSync(thread_data* _td):Thread(), td(_td) {}
    800040ac:	00005797          	auipc	a5,0x5
    800040b0:	31c78793          	addi	a5,a5,796 # 800093c8 <_ZTV12ProducerSync+0x10>
    800040b4:	00fcb023          	sd	a5,0(s9)
    800040b8:	038cb023          	sd	s8,32(s9)
            threads[i] = new ProducerSync(data+i);
    800040bc:	00349793          	slli	a5,s1,0x3
    800040c0:	00f987b3          	add	a5,s3,a5
    800040c4:	0197b023          	sd	s9,0(a5)
        threads[i]->start();
    800040c8:	00349793          	slli	a5,s1,0x3
    800040cc:	00f987b3          	add	a5,s3,a5
    800040d0:	0007b503          	ld	a0,0(a5)
    800040d4:	ffffe097          	auipc	ra,0xffffe
    800040d8:	750080e7          	jalr	1872(ra) # 80002824 <_ZN6Thread5startEv>
    for (int i = 0; i < threadNum; i++) {
    800040dc:	0014849b          	addiw	s1,s1,1
    800040e0:	0b24d063          	bge	s1,s2,80004180 <_Z29producerConsumer_CPP_Sync_APIv+0x2d4>
        data[i].id = i;
    800040e4:	00149793          	slli	a5,s1,0x1
    800040e8:	009787b3          	add	a5,a5,s1
    800040ec:	00379793          	slli	a5,a5,0x3
    800040f0:	00fa07b3          	add	a5,s4,a5
    800040f4:	0097a023          	sw	s1,0(a5)
        data[i].buffer = buffer;
    800040f8:	0157b423          	sd	s5,8(a5)
        data[i].wait = waitForAll;
    800040fc:	00007717          	auipc	a4,0x7
    80004100:	77c73703          	ld	a4,1916(a4) # 8000b878 <_ZL10waitForAll>
    80004104:	00e7b823          	sd	a4,16(a5)
        if(i>0) {
    80004108:	02905863          	blez	s1,80004138 <_Z29producerConsumer_CPP_Sync_APIv+0x28c>
            threads[i] = new ProducerSync(data+i);
    8000410c:	02800513          	li	a0,40
    80004110:	ffffe097          	auipc	ra,0xffffe
    80004114:	614080e7          	jalr	1556(ra) # 80002724 <_Znwm>
    80004118:	00050c93          	mv	s9,a0
    8000411c:	00149c13          	slli	s8,s1,0x1
    80004120:	009c0c33          	add	s8,s8,s1
    80004124:	003c1c13          	slli	s8,s8,0x3
    80004128:	018a0c33          	add	s8,s4,s8
    ProducerSync(thread_data* _td):Thread(), td(_td) {}
    8000412c:	ffffe097          	auipc	ra,0xffffe
    80004130:	7d0080e7          	jalr	2000(ra) # 800028fc <_ZN6ThreadC1Ev>
    80004134:	f79ff06f          	j	800040ac <_Z29producerConsumer_CPP_Sync_APIv+0x200>
            threads[i] = new ProducerKeyboard(data+i);
    80004138:	02800513          	li	a0,40
    8000413c:	ffffe097          	auipc	ra,0xffffe
    80004140:	5e8080e7          	jalr	1512(ra) # 80002724 <_Znwm>
    80004144:	00050c93          	mv	s9,a0
    80004148:	00149c13          	slli	s8,s1,0x1
    8000414c:	009c0c33          	add	s8,s8,s1
    80004150:	003c1c13          	slli	s8,s8,0x3
    80004154:	018a0c33          	add	s8,s4,s8
    ProducerKeyboard(thread_data* _td):Thread(), td(_td) {}
    80004158:	ffffe097          	auipc	ra,0xffffe
    8000415c:	7a4080e7          	jalr	1956(ra) # 800028fc <_ZN6ThreadC1Ev>
    80004160:	00005797          	auipc	a5,0x5
    80004164:	24078793          	addi	a5,a5,576 # 800093a0 <_ZTV16ProducerKeyboard+0x10>
    80004168:	00fcb023          	sd	a5,0(s9)
    8000416c:	038cb023          	sd	s8,32(s9)
            threads[i] = new ProducerKeyboard(data+i);
    80004170:	00349793          	slli	a5,s1,0x3
    80004174:	00f987b3          	add	a5,s3,a5
    80004178:	0197b023          	sd	s9,0(a5)
    8000417c:	f4dff06f          	j	800040c8 <_Z29producerConsumer_CPP_Sync_APIv+0x21c>
    Thread::dispatch();
    80004180:	ffffe097          	auipc	ra,0xffffe
    80004184:	6d8080e7          	jalr	1752(ra) # 80002858 <_ZN6Thread8dispatchEv>
    for (int i = 0; i <= threadNum; i++) {
    80004188:	00000493          	li	s1,0
    8000418c:	0180006f          	j	800041a4 <_Z29producerConsumer_CPP_Sync_APIv+0x2f8>
        waitForAll->wait();
    80004190:	00007517          	auipc	a0,0x7
    80004194:	6e853503          	ld	a0,1768(a0) # 8000b878 <_ZL10waitForAll>
    80004198:	ffffe097          	auipc	ra,0xffffe
    8000419c:	7d4080e7          	jalr	2004(ra) # 8000296c <_ZN9Semaphore4waitEv>
    for (int i = 0; i <= threadNum; i++) {
    800041a0:	0014849b          	addiw	s1,s1,1
    800041a4:	fe9956e3          	bge	s2,s1,80004190 <_Z29producerConsumer_CPP_Sync_APIv+0x2e4>
    for (int i = 0; i < threadNum; i++) {
    800041a8:	00000493          	li	s1,0
    800041ac:	0140006f          	j	800041c0 <_Z29producerConsumer_CPP_Sync_APIv+0x314>
        delete threads[i];
    800041b0:	00053783          	ld	a5,0(a0)
    800041b4:	0087b783          	ld	a5,8(a5)
    800041b8:	000780e7          	jalr	a5
    for (int i = 0; i < threadNum; i++) {
    800041bc:	0014849b          	addiw	s1,s1,1
    800041c0:	0124dc63          	bge	s1,s2,800041d8 <_Z29producerConsumer_CPP_Sync_APIv+0x32c>
        delete threads[i];
    800041c4:	00349793          	slli	a5,s1,0x3
    800041c8:	00f987b3          	add	a5,s3,a5
    800041cc:	0007b503          	ld	a0,0(a5)
    800041d0:	fe0510e3          	bnez	a0,800041b0 <_Z29producerConsumer_CPP_Sync_APIv+0x304>
    800041d4:	fe9ff06f          	j	800041bc <_Z29producerConsumer_CPP_Sync_APIv+0x310>
    delete consumerThread;
    800041d8:	000b0a63          	beqz	s6,800041ec <_Z29producerConsumer_CPP_Sync_APIv+0x340>
    800041dc:	000b3783          	ld	a5,0(s6)
    800041e0:	0087b783          	ld	a5,8(a5)
    800041e4:	000b0513          	mv	a0,s6
    800041e8:	000780e7          	jalr	a5
    delete waitForAll;
    800041ec:	00007517          	auipc	a0,0x7
    800041f0:	68c53503          	ld	a0,1676(a0) # 8000b878 <_ZL10waitForAll>
    800041f4:	00050863          	beqz	a0,80004204 <_Z29producerConsumer_CPP_Sync_APIv+0x358>
    800041f8:	00053783          	ld	a5,0(a0)
    800041fc:	0087b783          	ld	a5,8(a5)
    80004200:	000780e7          	jalr	a5
    delete buffer;
    80004204:	000a8e63          	beqz	s5,80004220 <_Z29producerConsumer_CPP_Sync_APIv+0x374>
    80004208:	000a8513          	mv	a0,s5
    8000420c:	fffff097          	auipc	ra,0xfffff
    80004210:	1e8080e7          	jalr	488(ra) # 800033f4 <_ZN9BufferCPPD1Ev>
    80004214:	000a8513          	mv	a0,s5
    80004218:	ffffe097          	auipc	ra,0xffffe
    8000421c:	534080e7          	jalr	1332(ra) # 8000274c <_ZdlPv>
    80004220:	000b8113          	mv	sp,s7

}
    80004224:	f8040113          	addi	sp,s0,-128
    80004228:	07813083          	ld	ra,120(sp)
    8000422c:	07013403          	ld	s0,112(sp)
    80004230:	06813483          	ld	s1,104(sp)
    80004234:	06013903          	ld	s2,96(sp)
    80004238:	05813983          	ld	s3,88(sp)
    8000423c:	05013a03          	ld	s4,80(sp)
    80004240:	04813a83          	ld	s5,72(sp)
    80004244:	04013b03          	ld	s6,64(sp)
    80004248:	03813b83          	ld	s7,56(sp)
    8000424c:	03013c03          	ld	s8,48(sp)
    80004250:	02813c83          	ld	s9,40(sp)
    80004254:	08010113          	addi	sp,sp,128
    80004258:	00008067          	ret
    BufferCPP *buffer = new BufferCPP(n);
    8000425c:	00050493          	mv	s1,a0
    80004260:	000a8513          	mv	a0,s5
    80004264:	ffffe097          	auipc	ra,0xffffe
    80004268:	4e8080e7          	jalr	1256(ra) # 8000274c <_ZdlPv>
    8000426c:	00048513          	mv	a0,s1
    80004270:	00008097          	auipc	ra,0x8
    80004274:	738080e7          	jalr	1848(ra) # 8000c9a8 <_Unwind_Resume>
    waitForAll = new Semaphore(0);
    80004278:	00050913          	mv	s2,a0
    8000427c:	00048513          	mv	a0,s1
    80004280:	ffffe097          	auipc	ra,0xffffe
    80004284:	4cc080e7          	jalr	1228(ra) # 8000274c <_ZdlPv>
    80004288:	00090513          	mv	a0,s2
    8000428c:	00008097          	auipc	ra,0x8
    80004290:	71c080e7          	jalr	1820(ra) # 8000c9a8 <_Unwind_Resume>
    consumerThread = new ConsumerSync(data+threadNum);
    80004294:	00050493          	mv	s1,a0
    80004298:	000b0513          	mv	a0,s6
    8000429c:	ffffe097          	auipc	ra,0xffffe
    800042a0:	4b0080e7          	jalr	1200(ra) # 8000274c <_ZdlPv>
    800042a4:	00048513          	mv	a0,s1
    800042a8:	00008097          	auipc	ra,0x8
    800042ac:	700080e7          	jalr	1792(ra) # 8000c9a8 <_Unwind_Resume>
            threads[i] = new ProducerSync(data+i);
    800042b0:	00050493          	mv	s1,a0
    800042b4:	000c8513          	mv	a0,s9
    800042b8:	ffffe097          	auipc	ra,0xffffe
    800042bc:	494080e7          	jalr	1172(ra) # 8000274c <_ZdlPv>
    800042c0:	00048513          	mv	a0,s1
    800042c4:	00008097          	auipc	ra,0x8
    800042c8:	6e4080e7          	jalr	1764(ra) # 8000c9a8 <_Unwind_Resume>
            threads[i] = new ProducerKeyboard(data+i);
    800042cc:	00050493          	mv	s1,a0
    800042d0:	000c8513          	mv	a0,s9
    800042d4:	ffffe097          	auipc	ra,0xffffe
    800042d8:	478080e7          	jalr	1144(ra) # 8000274c <_ZdlPv>
    800042dc:	00048513          	mv	a0,s1
    800042e0:	00008097          	auipc	ra,0x8
    800042e4:	6c8080e7          	jalr	1736(ra) # 8000c9a8 <_Unwind_Resume>

00000000800042e8 <_ZN12ConsumerSyncD1Ev>:
class ConsumerSync:public Thread {
    800042e8:	ff010113          	addi	sp,sp,-16
    800042ec:	00113423          	sd	ra,8(sp)
    800042f0:	00813023          	sd	s0,0(sp)
    800042f4:	01010413          	addi	s0,sp,16
    800042f8:	00005797          	auipc	a5,0x5
    800042fc:	0f878793          	addi	a5,a5,248 # 800093f0 <_ZTV12ConsumerSync+0x10>
    80004300:	00f53023          	sd	a5,0(a0)
    80004304:	ffffe097          	auipc	ra,0xffffe
    80004308:	384080e7          	jalr	900(ra) # 80002688 <_ZN6ThreadD1Ev>
    8000430c:	00813083          	ld	ra,8(sp)
    80004310:	00013403          	ld	s0,0(sp)
    80004314:	01010113          	addi	sp,sp,16
    80004318:	00008067          	ret

000000008000431c <_ZN12ConsumerSyncD0Ev>:
    8000431c:	fe010113          	addi	sp,sp,-32
    80004320:	00113c23          	sd	ra,24(sp)
    80004324:	00813823          	sd	s0,16(sp)
    80004328:	00913423          	sd	s1,8(sp)
    8000432c:	02010413          	addi	s0,sp,32
    80004330:	00050493          	mv	s1,a0
    80004334:	00005797          	auipc	a5,0x5
    80004338:	0bc78793          	addi	a5,a5,188 # 800093f0 <_ZTV12ConsumerSync+0x10>
    8000433c:	00f53023          	sd	a5,0(a0)
    80004340:	ffffe097          	auipc	ra,0xffffe
    80004344:	348080e7          	jalr	840(ra) # 80002688 <_ZN6ThreadD1Ev>
    80004348:	00048513          	mv	a0,s1
    8000434c:	ffffe097          	auipc	ra,0xffffe
    80004350:	400080e7          	jalr	1024(ra) # 8000274c <_ZdlPv>
    80004354:	01813083          	ld	ra,24(sp)
    80004358:	01013403          	ld	s0,16(sp)
    8000435c:	00813483          	ld	s1,8(sp)
    80004360:	02010113          	addi	sp,sp,32
    80004364:	00008067          	ret

0000000080004368 <_ZN12ProducerSyncD1Ev>:
class ProducerSync:public Thread {
    80004368:	ff010113          	addi	sp,sp,-16
    8000436c:	00113423          	sd	ra,8(sp)
    80004370:	00813023          	sd	s0,0(sp)
    80004374:	01010413          	addi	s0,sp,16
    80004378:	00005797          	auipc	a5,0x5
    8000437c:	05078793          	addi	a5,a5,80 # 800093c8 <_ZTV12ProducerSync+0x10>
    80004380:	00f53023          	sd	a5,0(a0)
    80004384:	ffffe097          	auipc	ra,0xffffe
    80004388:	304080e7          	jalr	772(ra) # 80002688 <_ZN6ThreadD1Ev>
    8000438c:	00813083          	ld	ra,8(sp)
    80004390:	00013403          	ld	s0,0(sp)
    80004394:	01010113          	addi	sp,sp,16
    80004398:	00008067          	ret

000000008000439c <_ZN12ProducerSyncD0Ev>:
    8000439c:	fe010113          	addi	sp,sp,-32
    800043a0:	00113c23          	sd	ra,24(sp)
    800043a4:	00813823          	sd	s0,16(sp)
    800043a8:	00913423          	sd	s1,8(sp)
    800043ac:	02010413          	addi	s0,sp,32
    800043b0:	00050493          	mv	s1,a0
    800043b4:	00005797          	auipc	a5,0x5
    800043b8:	01478793          	addi	a5,a5,20 # 800093c8 <_ZTV12ProducerSync+0x10>
    800043bc:	00f53023          	sd	a5,0(a0)
    800043c0:	ffffe097          	auipc	ra,0xffffe
    800043c4:	2c8080e7          	jalr	712(ra) # 80002688 <_ZN6ThreadD1Ev>
    800043c8:	00048513          	mv	a0,s1
    800043cc:	ffffe097          	auipc	ra,0xffffe
    800043d0:	380080e7          	jalr	896(ra) # 8000274c <_ZdlPv>
    800043d4:	01813083          	ld	ra,24(sp)
    800043d8:	01013403          	ld	s0,16(sp)
    800043dc:	00813483          	ld	s1,8(sp)
    800043e0:	02010113          	addi	sp,sp,32
    800043e4:	00008067          	ret

00000000800043e8 <_ZN16ProducerKeyboardD1Ev>:
class ProducerKeyboard:public Thread {
    800043e8:	ff010113          	addi	sp,sp,-16
    800043ec:	00113423          	sd	ra,8(sp)
    800043f0:	00813023          	sd	s0,0(sp)
    800043f4:	01010413          	addi	s0,sp,16
    800043f8:	00005797          	auipc	a5,0x5
    800043fc:	fa878793          	addi	a5,a5,-88 # 800093a0 <_ZTV16ProducerKeyboard+0x10>
    80004400:	00f53023          	sd	a5,0(a0)
    80004404:	ffffe097          	auipc	ra,0xffffe
    80004408:	284080e7          	jalr	644(ra) # 80002688 <_ZN6ThreadD1Ev>
    8000440c:	00813083          	ld	ra,8(sp)
    80004410:	00013403          	ld	s0,0(sp)
    80004414:	01010113          	addi	sp,sp,16
    80004418:	00008067          	ret

000000008000441c <_ZN16ProducerKeyboardD0Ev>:
    8000441c:	fe010113          	addi	sp,sp,-32
    80004420:	00113c23          	sd	ra,24(sp)
    80004424:	00813823          	sd	s0,16(sp)
    80004428:	00913423          	sd	s1,8(sp)
    8000442c:	02010413          	addi	s0,sp,32
    80004430:	00050493          	mv	s1,a0
    80004434:	00005797          	auipc	a5,0x5
    80004438:	f6c78793          	addi	a5,a5,-148 # 800093a0 <_ZTV16ProducerKeyboard+0x10>
    8000443c:	00f53023          	sd	a5,0(a0)
    80004440:	ffffe097          	auipc	ra,0xffffe
    80004444:	248080e7          	jalr	584(ra) # 80002688 <_ZN6ThreadD1Ev>
    80004448:	00048513          	mv	a0,s1
    8000444c:	ffffe097          	auipc	ra,0xffffe
    80004450:	300080e7          	jalr	768(ra) # 8000274c <_ZdlPv>
    80004454:	01813083          	ld	ra,24(sp)
    80004458:	01013403          	ld	s0,16(sp)
    8000445c:	00813483          	ld	s1,8(sp)
    80004460:	02010113          	addi	sp,sp,32
    80004464:	00008067          	ret

0000000080004468 <_ZN16ProducerKeyboard3runEv>:
    void run() override {
    80004468:	ff010113          	addi	sp,sp,-16
    8000446c:	00113423          	sd	ra,8(sp)
    80004470:	00813023          	sd	s0,0(sp)
    80004474:	01010413          	addi	s0,sp,16
        producerKeyboard(td);
    80004478:	02053583          	ld	a1,32(a0)
    8000447c:	fffff097          	auipc	ra,0xfffff
    80004480:	7f4080e7          	jalr	2036(ra) # 80003c70 <_ZN16ProducerKeyboard16producerKeyboardEPv>
    }
    80004484:	00813083          	ld	ra,8(sp)
    80004488:	00013403          	ld	s0,0(sp)
    8000448c:	01010113          	addi	sp,sp,16
    80004490:	00008067          	ret

0000000080004494 <_ZN12ProducerSync3runEv>:
    void run() override {
    80004494:	ff010113          	addi	sp,sp,-16
    80004498:	00113423          	sd	ra,8(sp)
    8000449c:	00813023          	sd	s0,0(sp)
    800044a0:	01010413          	addi	s0,sp,16
        producer(td);
    800044a4:	02053583          	ld	a1,32(a0)
    800044a8:	00000097          	auipc	ra,0x0
    800044ac:	884080e7          	jalr	-1916(ra) # 80003d2c <_ZN12ProducerSync8producerEPv>
    }
    800044b0:	00813083          	ld	ra,8(sp)
    800044b4:	00013403          	ld	s0,0(sp)
    800044b8:	01010113          	addi	sp,sp,16
    800044bc:	00008067          	ret

00000000800044c0 <_ZN12ConsumerSync3runEv>:
    void run() override {
    800044c0:	ff010113          	addi	sp,sp,-16
    800044c4:	00113423          	sd	ra,8(sp)
    800044c8:	00813023          	sd	s0,0(sp)
    800044cc:	01010413          	addi	s0,sp,16
        consumer(td);
    800044d0:	02053583          	ld	a1,32(a0)
    800044d4:	00000097          	auipc	ra,0x0
    800044d8:	8e8080e7          	jalr	-1816(ra) # 80003dbc <_ZN12ConsumerSync8consumerEPv>
    }
    800044dc:	00813083          	ld	ra,8(sp)
    800044e0:	00013403          	ld	s0,0(sp)
    800044e4:	01010113          	addi	sp,sp,16
    800044e8:	00008067          	ret

00000000800044ec <_ZL16producerKeyboardPv>:
    sem_t wait;
};

static volatile int threadEnd = 0;

static void producerKeyboard(void *arg) {
    800044ec:	fe010113          	addi	sp,sp,-32
    800044f0:	00113c23          	sd	ra,24(sp)
    800044f4:	00813823          	sd	s0,16(sp)
    800044f8:	00913423          	sd	s1,8(sp)
    800044fc:	01213023          	sd	s2,0(sp)
    80004500:	02010413          	addi	s0,sp,32
    80004504:	00050493          	mv	s1,a0
    struct thread_data *data = (struct thread_data *) arg;

    int key;
    int i = 0;
    80004508:	00000913          	li	s2,0
    while ((key = getc()) != 0x1b) {
    8000450c:	ffffe097          	auipc	ra,0xffffe
    80004510:	0d4080e7          	jalr	212(ra) # 800025e0 <_Z4getcv>
    80004514:	0005059b          	sext.w	a1,a0
    80004518:	01b00793          	li	a5,27
    8000451c:	02f58e63          	beq	a1,a5,80004558 <_ZL16producerKeyboardPv+0x6c>
        data->buffer->put(key);
    80004520:	0084b503          	ld	a0,8(s1)
    80004524:	fffff097          	auipc	ra,0xfffff
    80004528:	954080e7          	jalr	-1708(ra) # 80002e78 <_ZN6Buffer3putEi>
        i++;
    8000452c:	0019071b          	addiw	a4,s2,1
    80004530:	0007091b          	sext.w	s2,a4

        if (i % (10 * data->id) == 0) {
    80004534:	0004a683          	lw	a3,0(s1)
    80004538:	0026979b          	slliw	a5,a3,0x2
    8000453c:	00d787bb          	addw	a5,a5,a3
    80004540:	0017979b          	slliw	a5,a5,0x1
    80004544:	02f767bb          	remw	a5,a4,a5
    80004548:	fc0792e3          	bnez	a5,8000450c <_ZL16producerKeyboardPv+0x20>
            thread_dispatch();
    8000454c:	ffffe097          	auipc	ra,0xffffe
    80004550:	e90080e7          	jalr	-368(ra) # 800023dc <_Z15thread_dispatchv>
    80004554:	fb9ff06f          	j	8000450c <_ZL16producerKeyboardPv+0x20>
        }
    }

    threadEnd = 1;
    80004558:	00100793          	li	a5,1
    8000455c:	00007717          	auipc	a4,0x7
    80004560:	32f72223          	sw	a5,804(a4) # 8000b880 <_ZL9threadEnd>
    data->buffer->put('!');
    80004564:	02100593          	li	a1,33
    80004568:	0084b503          	ld	a0,8(s1)
    8000456c:	fffff097          	auipc	ra,0xfffff
    80004570:	90c080e7          	jalr	-1780(ra) # 80002e78 <_ZN6Buffer3putEi>

    sem_signal(data->wait);
    80004574:	0104b503          	ld	a0,16(s1)
    80004578:	ffffe097          	auipc	ra,0xffffe
    8000457c:	f70080e7          	jalr	-144(ra) # 800024e8 <_Z10sem_signalP4_sem>
}
    80004580:	01813083          	ld	ra,24(sp)
    80004584:	01013403          	ld	s0,16(sp)
    80004588:	00813483          	ld	s1,8(sp)
    8000458c:	00013903          	ld	s2,0(sp)
    80004590:	02010113          	addi	sp,sp,32
    80004594:	00008067          	ret

0000000080004598 <_ZL8producerPv>:

static void producer(void *arg) {
    80004598:	fe010113          	addi	sp,sp,-32
    8000459c:	00113c23          	sd	ra,24(sp)
    800045a0:	00813823          	sd	s0,16(sp)
    800045a4:	00913423          	sd	s1,8(sp)
    800045a8:	01213023          	sd	s2,0(sp)
    800045ac:	02010413          	addi	s0,sp,32
    800045b0:	00050493          	mv	s1,a0
    struct thread_data *data = (struct thread_data *) arg;

    int i = 0;
    800045b4:	00000913          	li	s2,0
    while (!threadEnd) {
    800045b8:	00007797          	auipc	a5,0x7
    800045bc:	2c87a783          	lw	a5,712(a5) # 8000b880 <_ZL9threadEnd>
    800045c0:	04079263          	bnez	a5,80004604 <_ZL8producerPv+0x6c>
        data->buffer->put(data->id + '0');
    800045c4:	0004a583          	lw	a1,0(s1)
    800045c8:	0305859b          	addiw	a1,a1,48
    800045cc:	0084b503          	ld	a0,8(s1)
    800045d0:	fffff097          	auipc	ra,0xfffff
    800045d4:	8a8080e7          	jalr	-1880(ra) # 80002e78 <_ZN6Buffer3putEi>
        i++;
    800045d8:	0019071b          	addiw	a4,s2,1
    800045dc:	0007091b          	sext.w	s2,a4

        if (i % (10 * data->id) == 0) {
    800045e0:	0004a683          	lw	a3,0(s1)
    800045e4:	0026979b          	slliw	a5,a3,0x2
    800045e8:	00d787bb          	addw	a5,a5,a3
    800045ec:	0017979b          	slliw	a5,a5,0x1
    800045f0:	02f767bb          	remw	a5,a4,a5
    800045f4:	fc0792e3          	bnez	a5,800045b8 <_ZL8producerPv+0x20>
            thread_dispatch();
    800045f8:	ffffe097          	auipc	ra,0xffffe
    800045fc:	de4080e7          	jalr	-540(ra) # 800023dc <_Z15thread_dispatchv>
    80004600:	fb9ff06f          	j	800045b8 <_ZL8producerPv+0x20>
        }
    }

    sem_signal(data->wait);
    80004604:	0104b503          	ld	a0,16(s1)
    80004608:	ffffe097          	auipc	ra,0xffffe
    8000460c:	ee0080e7          	jalr	-288(ra) # 800024e8 <_Z10sem_signalP4_sem>
}
    80004610:	01813083          	ld	ra,24(sp)
    80004614:	01013403          	ld	s0,16(sp)
    80004618:	00813483          	ld	s1,8(sp)
    8000461c:	00013903          	ld	s2,0(sp)
    80004620:	02010113          	addi	sp,sp,32
    80004624:	00008067          	ret

0000000080004628 <_ZL8consumerPv>:

static void consumer(void *arg) {
    80004628:	fd010113          	addi	sp,sp,-48
    8000462c:	02113423          	sd	ra,40(sp)
    80004630:	02813023          	sd	s0,32(sp)
    80004634:	00913c23          	sd	s1,24(sp)
    80004638:	01213823          	sd	s2,16(sp)
    8000463c:	01313423          	sd	s3,8(sp)
    80004640:	03010413          	addi	s0,sp,48
    80004644:	00050913          	mv	s2,a0
    struct thread_data *data = (struct thread_data *) arg;

    int i = 0;
    80004648:	00000993          	li	s3,0
    while (!threadEnd) {
    8000464c:	00007797          	auipc	a5,0x7
    80004650:	2347a783          	lw	a5,564(a5) # 8000b880 <_ZL9threadEnd>
    80004654:	06079c63          	bnez	a5,800046cc <_ZL8consumerPv+0xa4>
        int key = data->buffer->get();
    80004658:	00893503          	ld	a0,8(s2)
    8000465c:	fffff097          	auipc	ra,0xfffff
    80004660:	8ac080e7          	jalr	-1876(ra) # 80002f08 <_ZN6Buffer3getEv>
        i++;
    80004664:	0019849b          	addiw	s1,s3,1
    80004668:	0004899b          	sext.w	s3,s1

        putc(key);
    8000466c:	0ff57513          	andi	a0,a0,255
    80004670:	ffffe097          	auipc	ra,0xffffe
    80004674:	fc4080e7          	jalr	-60(ra) # 80002634 <_Z4putcc>

        if (i % (5 * data->id) == 0) {
    80004678:	00092703          	lw	a4,0(s2)
    8000467c:	0027179b          	slliw	a5,a4,0x2
    80004680:	00e787bb          	addw	a5,a5,a4
    80004684:	02f4e7bb          	remw	a5,s1,a5
    80004688:	02078063          	beqz	a5,800046a8 <_ZL8consumerPv+0x80>
            thread_dispatch();
        }

        if (i % 80 == 0) {
    8000468c:	05000793          	li	a5,80
    80004690:	02f4e4bb          	remw	s1,s1,a5
    80004694:	fa049ce3          	bnez	s1,8000464c <_ZL8consumerPv+0x24>
            putc('\n');
    80004698:	00a00513          	li	a0,10
    8000469c:	ffffe097          	auipc	ra,0xffffe
    800046a0:	f98080e7          	jalr	-104(ra) # 80002634 <_Z4putcc>
    800046a4:	fa9ff06f          	j	8000464c <_ZL8consumerPv+0x24>
            thread_dispatch();
    800046a8:	ffffe097          	auipc	ra,0xffffe
    800046ac:	d34080e7          	jalr	-716(ra) # 800023dc <_Z15thread_dispatchv>
    800046b0:	fddff06f          	j	8000468c <_ZL8consumerPv+0x64>
        }
    }

    while (data->buffer->getCnt() > 0) {
        int key = data->buffer->get();
    800046b4:	00893503          	ld	a0,8(s2)
    800046b8:	fffff097          	auipc	ra,0xfffff
    800046bc:	850080e7          	jalr	-1968(ra) # 80002f08 <_ZN6Buffer3getEv>
        putc(key);
    800046c0:	0ff57513          	andi	a0,a0,255
    800046c4:	ffffe097          	auipc	ra,0xffffe
    800046c8:	f70080e7          	jalr	-144(ra) # 80002634 <_Z4putcc>
    while (data->buffer->getCnt() > 0) {
    800046cc:	00893503          	ld	a0,8(s2)
    800046d0:	fffff097          	auipc	ra,0xfffff
    800046d4:	8c4080e7          	jalr	-1852(ra) # 80002f94 <_ZN6Buffer6getCntEv>
    800046d8:	fca04ee3          	bgtz	a0,800046b4 <_ZL8consumerPv+0x8c>
    }

    sem_signal(data->wait);
    800046dc:	01093503          	ld	a0,16(s2)
    800046e0:	ffffe097          	auipc	ra,0xffffe
    800046e4:	e08080e7          	jalr	-504(ra) # 800024e8 <_Z10sem_signalP4_sem>
}
    800046e8:	02813083          	ld	ra,40(sp)
    800046ec:	02013403          	ld	s0,32(sp)
    800046f0:	01813483          	ld	s1,24(sp)
    800046f4:	01013903          	ld	s2,16(sp)
    800046f8:	00813983          	ld	s3,8(sp)
    800046fc:	03010113          	addi	sp,sp,48
    80004700:	00008067          	ret

0000000080004704 <_Z22producerConsumer_C_APIv>:

void producerConsumer_C_API() {
    80004704:	f9010113          	addi	sp,sp,-112
    80004708:	06113423          	sd	ra,104(sp)
    8000470c:	06813023          	sd	s0,96(sp)
    80004710:	04913c23          	sd	s1,88(sp)
    80004714:	05213823          	sd	s2,80(sp)
    80004718:	05313423          	sd	s3,72(sp)
    8000471c:	05413023          	sd	s4,64(sp)
    80004720:	03513c23          	sd	s5,56(sp)
    80004724:	03613823          	sd	s6,48(sp)
    80004728:	07010413          	addi	s0,sp,112
        sem_wait(waitForAll);
    }

    sem_close(waitForAll);

    delete buffer;
    8000472c:	00010b13          	mv	s6,sp
    printString("Unesite broj proizvodjaca?\n");
    80004730:	00005517          	auipc	a0,0x5
    80004734:	b0050513          	addi	a0,a0,-1280 # 80009230 <_ZTV14PeriodicThread+0x48>
    80004738:	00000097          	auipc	ra,0x0
    8000473c:	298080e7          	jalr	664(ra) # 800049d0 <_Z11printStringPKc>
    getString(input, 30);
    80004740:	01e00593          	li	a1,30
    80004744:	fa040513          	addi	a0,s0,-96
    80004748:	00000097          	auipc	ra,0x0
    8000474c:	310080e7          	jalr	784(ra) # 80004a58 <_Z9getStringPci>
    threadNum = stringToInt(input);
    80004750:	fa040513          	addi	a0,s0,-96
    80004754:	00000097          	auipc	ra,0x0
    80004758:	3dc080e7          	jalr	988(ra) # 80004b30 <_Z11stringToIntPKc>
    8000475c:	00050913          	mv	s2,a0
    printString("Unesite velicinu bafera?\n");
    80004760:	00005517          	auipc	a0,0x5
    80004764:	af050513          	addi	a0,a0,-1296 # 80009250 <_ZTV14PeriodicThread+0x68>
    80004768:	00000097          	auipc	ra,0x0
    8000476c:	268080e7          	jalr	616(ra) # 800049d0 <_Z11printStringPKc>
    getString(input, 30);
    80004770:	01e00593          	li	a1,30
    80004774:	fa040513          	addi	a0,s0,-96
    80004778:	00000097          	auipc	ra,0x0
    8000477c:	2e0080e7          	jalr	736(ra) # 80004a58 <_Z9getStringPci>
    n = stringToInt(input);
    80004780:	fa040513          	addi	a0,s0,-96
    80004784:	00000097          	auipc	ra,0x0
    80004788:	3ac080e7          	jalr	940(ra) # 80004b30 <_Z11stringToIntPKc>
    8000478c:	00050493          	mv	s1,a0
    printString("Broj proizvodjaca "); printInt(threadNum);
    80004790:	00005517          	auipc	a0,0x5
    80004794:	ae050513          	addi	a0,a0,-1312 # 80009270 <_ZTV14PeriodicThread+0x88>
    80004798:	00000097          	auipc	ra,0x0
    8000479c:	238080e7          	jalr	568(ra) # 800049d0 <_Z11printStringPKc>
    800047a0:	00000613          	li	a2,0
    800047a4:	00a00593          	li	a1,10
    800047a8:	00090513          	mv	a0,s2
    800047ac:	00000097          	auipc	ra,0x0
    800047b0:	3d4080e7          	jalr	980(ra) # 80004b80 <_Z8printIntiii>
    printString(" i velicina bafera "); printInt(n);
    800047b4:	00005517          	auipc	a0,0x5
    800047b8:	ad450513          	addi	a0,a0,-1324 # 80009288 <_ZTV14PeriodicThread+0xa0>
    800047bc:	00000097          	auipc	ra,0x0
    800047c0:	214080e7          	jalr	532(ra) # 800049d0 <_Z11printStringPKc>
    800047c4:	00000613          	li	a2,0
    800047c8:	00a00593          	li	a1,10
    800047cc:	00048513          	mv	a0,s1
    800047d0:	00000097          	auipc	ra,0x0
    800047d4:	3b0080e7          	jalr	944(ra) # 80004b80 <_Z8printIntiii>
    printString(".\n");
    800047d8:	00005517          	auipc	a0,0x5
    800047dc:	ac850513          	addi	a0,a0,-1336 # 800092a0 <_ZTV14PeriodicThread+0xb8>
    800047e0:	00000097          	auipc	ra,0x0
    800047e4:	1f0080e7          	jalr	496(ra) # 800049d0 <_Z11printStringPKc>
    if(threadNum > n) {
    800047e8:	0324c463          	blt	s1,s2,80004810 <_Z22producerConsumer_C_APIv+0x10c>
    } else if (threadNum < 1) {
    800047ec:	03205c63          	blez	s2,80004824 <_Z22producerConsumer_C_APIv+0x120>
    Buffer *buffer = new Buffer(n);
    800047f0:	03800513          	li	a0,56
    800047f4:	ffffe097          	auipc	ra,0xffffe
    800047f8:	f30080e7          	jalr	-208(ra) # 80002724 <_Znwm>
    800047fc:	00050a13          	mv	s4,a0
    80004800:	00048593          	mv	a1,s1
    80004804:	ffffe097          	auipc	ra,0xffffe
    80004808:	5d8080e7          	jalr	1496(ra) # 80002ddc <_ZN6BufferC1Ei>
    8000480c:	0300006f          	j	8000483c <_Z22producerConsumer_C_APIv+0x138>
        printString("Broj proizvodjaca ne sme biti manji od velicine bafera!\n");
    80004810:	00005517          	auipc	a0,0x5
    80004814:	a9850513          	addi	a0,a0,-1384 # 800092a8 <_ZTV14PeriodicThread+0xc0>
    80004818:	00000097          	auipc	ra,0x0
    8000481c:	1b8080e7          	jalr	440(ra) # 800049d0 <_Z11printStringPKc>
        return;
    80004820:	0140006f          	j	80004834 <_Z22producerConsumer_C_APIv+0x130>
        printString("Broj proizvodjaca mora biti veci od nula!\n");
    80004824:	00005517          	auipc	a0,0x5
    80004828:	ac450513          	addi	a0,a0,-1340 # 800092e8 <_ZTV14PeriodicThread+0x100>
    8000482c:	00000097          	auipc	ra,0x0
    80004830:	1a4080e7          	jalr	420(ra) # 800049d0 <_Z11printStringPKc>
        return;
    80004834:	000b0113          	mv	sp,s6
    80004838:	1500006f          	j	80004988 <_Z22producerConsumer_C_APIv+0x284>
    sem_open(&waitForAll, 0);
    8000483c:	00000593          	li	a1,0
    80004840:	00007517          	auipc	a0,0x7
    80004844:	04850513          	addi	a0,a0,72 # 8000b888 <_ZL10waitForAll>
    80004848:	ffffe097          	auipc	ra,0xffffe
    8000484c:	bec080e7          	jalr	-1044(ra) # 80002434 <_Z8sem_openPP4_semj>
    thread_t threads[threadNum];
    80004850:	00391793          	slli	a5,s2,0x3
    80004854:	00f78793          	addi	a5,a5,15
    80004858:	ff07f793          	andi	a5,a5,-16
    8000485c:	40f10133          	sub	sp,sp,a5
    80004860:	00010a93          	mv	s5,sp
    struct thread_data data[threadNum + 1];
    80004864:	0019071b          	addiw	a4,s2,1
    80004868:	00171793          	slli	a5,a4,0x1
    8000486c:	00e787b3          	add	a5,a5,a4
    80004870:	00379793          	slli	a5,a5,0x3
    80004874:	00f78793          	addi	a5,a5,15
    80004878:	ff07f793          	andi	a5,a5,-16
    8000487c:	40f10133          	sub	sp,sp,a5
    80004880:	00010993          	mv	s3,sp
    data[threadNum].id = threadNum;
    80004884:	00191613          	slli	a2,s2,0x1
    80004888:	012607b3          	add	a5,a2,s2
    8000488c:	00379793          	slli	a5,a5,0x3
    80004890:	00f987b3          	add	a5,s3,a5
    80004894:	0127a023          	sw	s2,0(a5)
    data[threadNum].buffer = buffer;
    80004898:	0147b423          	sd	s4,8(a5)
    data[threadNum].wait = waitForAll;
    8000489c:	00007717          	auipc	a4,0x7
    800048a0:	fec73703          	ld	a4,-20(a4) # 8000b888 <_ZL10waitForAll>
    800048a4:	00e7b823          	sd	a4,16(a5)
    thread_create(&consumerThread, consumer, data + threadNum);
    800048a8:	00078613          	mv	a2,a5
    800048ac:	00000597          	auipc	a1,0x0
    800048b0:	d7c58593          	addi	a1,a1,-644 # 80004628 <_ZL8consumerPv>
    800048b4:	f9840513          	addi	a0,s0,-104
    800048b8:	ffffe097          	auipc	ra,0xffffe
    800048bc:	a98080e7          	jalr	-1384(ra) # 80002350 <_Z13thread_createPP7_threadPFvPvES2_>
    for (int i = 0; i < threadNum; i++) {
    800048c0:	00000493          	li	s1,0
    800048c4:	0280006f          	j	800048ec <_Z22producerConsumer_C_APIv+0x1e8>
        thread_create(threads + i,
    800048c8:	00000597          	auipc	a1,0x0
    800048cc:	c2458593          	addi	a1,a1,-988 # 800044ec <_ZL16producerKeyboardPv>
                      data + i);
    800048d0:	00179613          	slli	a2,a5,0x1
    800048d4:	00f60633          	add	a2,a2,a5
    800048d8:	00361613          	slli	a2,a2,0x3
        thread_create(threads + i,
    800048dc:	00c98633          	add	a2,s3,a2
    800048e0:	ffffe097          	auipc	ra,0xffffe
    800048e4:	a70080e7          	jalr	-1424(ra) # 80002350 <_Z13thread_createPP7_threadPFvPvES2_>
    for (int i = 0; i < threadNum; i++) {
    800048e8:	0014849b          	addiw	s1,s1,1
    800048ec:	0524d263          	bge	s1,s2,80004930 <_Z22producerConsumer_C_APIv+0x22c>
        data[i].id = i;
    800048f0:	00149793          	slli	a5,s1,0x1
    800048f4:	009787b3          	add	a5,a5,s1
    800048f8:	00379793          	slli	a5,a5,0x3
    800048fc:	00f987b3          	add	a5,s3,a5
    80004900:	0097a023          	sw	s1,0(a5)
        data[i].buffer = buffer;
    80004904:	0147b423          	sd	s4,8(a5)
        data[i].wait = waitForAll;
    80004908:	00007717          	auipc	a4,0x7
    8000490c:	f8073703          	ld	a4,-128(a4) # 8000b888 <_ZL10waitForAll>
    80004910:	00e7b823          	sd	a4,16(a5)
        thread_create(threads + i,
    80004914:	00048793          	mv	a5,s1
    80004918:	00349513          	slli	a0,s1,0x3
    8000491c:	00aa8533          	add	a0,s5,a0
    80004920:	fa9054e3          	blez	s1,800048c8 <_Z22producerConsumer_C_APIv+0x1c4>
    80004924:	00000597          	auipc	a1,0x0
    80004928:	c7458593          	addi	a1,a1,-908 # 80004598 <_ZL8producerPv>
    8000492c:	fa5ff06f          	j	800048d0 <_Z22producerConsumer_C_APIv+0x1cc>
    thread_dispatch();
    80004930:	ffffe097          	auipc	ra,0xffffe
    80004934:	aac080e7          	jalr	-1364(ra) # 800023dc <_Z15thread_dispatchv>
    for (int i = 0; i <= threadNum; i++) {
    80004938:	00000493          	li	s1,0
    8000493c:	0180006f          	j	80004954 <_Z22producerConsumer_C_APIv+0x250>
        sem_wait(waitForAll);
    80004940:	00007517          	auipc	a0,0x7
    80004944:	f4853503          	ld	a0,-184(a0) # 8000b888 <_ZL10waitForAll>
    80004948:	ffffe097          	auipc	ra,0xffffe
    8000494c:	b68080e7          	jalr	-1176(ra) # 800024b0 <_Z8sem_waitP4_sem>
    for (int i = 0; i <= threadNum; i++) {
    80004950:	0014849b          	addiw	s1,s1,1
    80004954:	fe9956e3          	bge	s2,s1,80004940 <_Z22producerConsumer_C_APIv+0x23c>
    sem_close(waitForAll);
    80004958:	00007517          	auipc	a0,0x7
    8000495c:	f3053503          	ld	a0,-208(a0) # 8000b888 <_ZL10waitForAll>
    80004960:	ffffe097          	auipc	ra,0xffffe
    80004964:	b18080e7          	jalr	-1256(ra) # 80002478 <_Z9sem_closeP4_sem>
    delete buffer;
    80004968:	000a0e63          	beqz	s4,80004984 <_Z22producerConsumer_C_APIv+0x280>
    8000496c:	000a0513          	mv	a0,s4
    80004970:	ffffe097          	auipc	ra,0xffffe
    80004974:	6ac080e7          	jalr	1708(ra) # 8000301c <_ZN6BufferD1Ev>
    80004978:	000a0513          	mv	a0,s4
    8000497c:	ffffe097          	auipc	ra,0xffffe
    80004980:	dd0080e7          	jalr	-560(ra) # 8000274c <_ZdlPv>
    80004984:	000b0113          	mv	sp,s6

}
    80004988:	f9040113          	addi	sp,s0,-112
    8000498c:	06813083          	ld	ra,104(sp)
    80004990:	06013403          	ld	s0,96(sp)
    80004994:	05813483          	ld	s1,88(sp)
    80004998:	05013903          	ld	s2,80(sp)
    8000499c:	04813983          	ld	s3,72(sp)
    800049a0:	04013a03          	ld	s4,64(sp)
    800049a4:	03813a83          	ld	s5,56(sp)
    800049a8:	03013b03          	ld	s6,48(sp)
    800049ac:	07010113          	addi	sp,sp,112
    800049b0:	00008067          	ret
    Buffer *buffer = new Buffer(n);
    800049b4:	00050493          	mv	s1,a0
    800049b8:	000a0513          	mv	a0,s4
    800049bc:	ffffe097          	auipc	ra,0xffffe
    800049c0:	d90080e7          	jalr	-624(ra) # 8000274c <_ZdlPv>
    800049c4:	00048513          	mv	a0,s1
    800049c8:	00008097          	auipc	ra,0x8
    800049cc:	fe0080e7          	jalr	-32(ra) # 8000c9a8 <_Unwind_Resume>

00000000800049d0 <_Z11printStringPKc>:

#define LOCK() while(copy_and_swap(lockPrint, 0, 1)) thread_dispatch()
#define UNLOCK() while(copy_and_swap(lockPrint, 1, 0))

void printString(char const *string)
{
    800049d0:	fe010113          	addi	sp,sp,-32
    800049d4:	00113c23          	sd	ra,24(sp)
    800049d8:	00813823          	sd	s0,16(sp)
    800049dc:	00913423          	sd	s1,8(sp)
    800049e0:	02010413          	addi	s0,sp,32
    800049e4:	00050493          	mv	s1,a0
    800049e8:	00c0006f          	j	800049f4 <_Z11printStringPKc+0x24>
    LOCK();
    800049ec:	ffffe097          	auipc	ra,0xffffe
    800049f0:	9f0080e7          	jalr	-1552(ra) # 800023dc <_Z15thread_dispatchv>
    800049f4:	00100613          	li	a2,1
    800049f8:	00000593          	li	a1,0
    800049fc:	00007517          	auipc	a0,0x7
    80004a00:	e9450513          	addi	a0,a0,-364 # 8000b890 <lockPrint>
    80004a04:	ffffc097          	auipc	ra,0xffffc
    80004a08:	720080e7          	jalr	1824(ra) # 80001124 <copy_and_swap>
    80004a0c:	fe0510e3          	bnez	a0,800049ec <_Z11printStringPKc+0x1c>
    80004a10:	0100006f          	j	80004a20 <_Z11printStringPKc+0x50>
    while (*string != '\0')
    {
        putc(*string);
    80004a14:	ffffe097          	auipc	ra,0xffffe
    80004a18:	c20080e7          	jalr	-992(ra) # 80002634 <_Z4putcc>
        string++;
    80004a1c:	00148493          	addi	s1,s1,1
    while (*string != '\0')
    80004a20:	0004c503          	lbu	a0,0(s1)
    80004a24:	fe0518e3          	bnez	a0,80004a14 <_Z11printStringPKc+0x44>
    }
    UNLOCK();
    80004a28:	00000613          	li	a2,0
    80004a2c:	00100593          	li	a1,1
    80004a30:	00007517          	auipc	a0,0x7
    80004a34:	e6050513          	addi	a0,a0,-416 # 8000b890 <lockPrint>
    80004a38:	ffffc097          	auipc	ra,0xffffc
    80004a3c:	6ec080e7          	jalr	1772(ra) # 80001124 <copy_and_swap>
    80004a40:	fe0514e3          	bnez	a0,80004a28 <_Z11printStringPKc+0x58>
}
    80004a44:	01813083          	ld	ra,24(sp)
    80004a48:	01013403          	ld	s0,16(sp)
    80004a4c:	00813483          	ld	s1,8(sp)
    80004a50:	02010113          	addi	sp,sp,32
    80004a54:	00008067          	ret

0000000080004a58 <_Z9getStringPci>:

char* getString(char *buf, int max) {
    80004a58:	fd010113          	addi	sp,sp,-48
    80004a5c:	02113423          	sd	ra,40(sp)
    80004a60:	02813023          	sd	s0,32(sp)
    80004a64:	00913c23          	sd	s1,24(sp)
    80004a68:	01213823          	sd	s2,16(sp)
    80004a6c:	01313423          	sd	s3,8(sp)
    80004a70:	01413023          	sd	s4,0(sp)
    80004a74:	03010413          	addi	s0,sp,48
    80004a78:	00050993          	mv	s3,a0
    80004a7c:	00058a13          	mv	s4,a1
    LOCK();
    80004a80:	00100613          	li	a2,1
    80004a84:	00000593          	li	a1,0
    80004a88:	00007517          	auipc	a0,0x7
    80004a8c:	e0850513          	addi	a0,a0,-504 # 8000b890 <lockPrint>
    80004a90:	ffffc097          	auipc	ra,0xffffc
    80004a94:	694080e7          	jalr	1684(ra) # 80001124 <copy_and_swap>
    80004a98:	00050863          	beqz	a0,80004aa8 <_Z9getStringPci+0x50>
    80004a9c:	ffffe097          	auipc	ra,0xffffe
    80004aa0:	940080e7          	jalr	-1728(ra) # 800023dc <_Z15thread_dispatchv>
    80004aa4:	fddff06f          	j	80004a80 <_Z9getStringPci+0x28>
    int i, cc;
    char c;

    for(i=0; i+1 < max; ){
    80004aa8:	00000913          	li	s2,0
    80004aac:	00090493          	mv	s1,s2
    80004ab0:	0019091b          	addiw	s2,s2,1
    80004ab4:	03495a63          	bge	s2,s4,80004ae8 <_Z9getStringPci+0x90>
        cc = getc();
    80004ab8:	ffffe097          	auipc	ra,0xffffe
    80004abc:	b28080e7          	jalr	-1240(ra) # 800025e0 <_Z4getcv>
        if(cc < 1)
    80004ac0:	02050463          	beqz	a0,80004ae8 <_Z9getStringPci+0x90>
            break;
        c = cc;
        buf[i++] = c;
    80004ac4:	009984b3          	add	s1,s3,s1
    80004ac8:	00a48023          	sb	a0,0(s1)
        if(c == '\n' || c == '\r')
    80004acc:	00a00793          	li	a5,10
    80004ad0:	00f50a63          	beq	a0,a5,80004ae4 <_Z9getStringPci+0x8c>
    80004ad4:	00d00793          	li	a5,13
    80004ad8:	fcf51ae3          	bne	a0,a5,80004aac <_Z9getStringPci+0x54>
        buf[i++] = c;
    80004adc:	00090493          	mv	s1,s2
    80004ae0:	0080006f          	j	80004ae8 <_Z9getStringPci+0x90>
    80004ae4:	00090493          	mv	s1,s2
            break;
    }
    buf[i] = '\0';
    80004ae8:	009984b3          	add	s1,s3,s1
    80004aec:	00048023          	sb	zero,0(s1)

    UNLOCK();
    80004af0:	00000613          	li	a2,0
    80004af4:	00100593          	li	a1,1
    80004af8:	00007517          	auipc	a0,0x7
    80004afc:	d9850513          	addi	a0,a0,-616 # 8000b890 <lockPrint>
    80004b00:	ffffc097          	auipc	ra,0xffffc
    80004b04:	624080e7          	jalr	1572(ra) # 80001124 <copy_and_swap>
    80004b08:	fe0514e3          	bnez	a0,80004af0 <_Z9getStringPci+0x98>
    return buf;
}
    80004b0c:	00098513          	mv	a0,s3
    80004b10:	02813083          	ld	ra,40(sp)
    80004b14:	02013403          	ld	s0,32(sp)
    80004b18:	01813483          	ld	s1,24(sp)
    80004b1c:	01013903          	ld	s2,16(sp)
    80004b20:	00813983          	ld	s3,8(sp)
    80004b24:	00013a03          	ld	s4,0(sp)
    80004b28:	03010113          	addi	sp,sp,48
    80004b2c:	00008067          	ret

0000000080004b30 <_Z11stringToIntPKc>:

int stringToInt(const char *s) {
    80004b30:	ff010113          	addi	sp,sp,-16
    80004b34:	00813423          	sd	s0,8(sp)
    80004b38:	01010413          	addi	s0,sp,16
    80004b3c:	00050693          	mv	a3,a0
    int n;

    n = 0;
    80004b40:	00000513          	li	a0,0
    80004b44:	01c0006f          	j	80004b60 <_Z11stringToIntPKc+0x30>
    while ('0' <= *s && *s <= '9')
        n = n * 10 + *s++ - '0';
    80004b48:	0025179b          	slliw	a5,a0,0x2
    80004b4c:	00a787bb          	addw	a5,a5,a0
    80004b50:	0017979b          	slliw	a5,a5,0x1
    80004b54:	00168693          	addi	a3,a3,1
    80004b58:	00c787bb          	addw	a5,a5,a2
    80004b5c:	fd07851b          	addiw	a0,a5,-48
    while ('0' <= *s && *s <= '9')
    80004b60:	0006c603          	lbu	a2,0(a3)
    80004b64:	fd06071b          	addiw	a4,a2,-48
    80004b68:	0ff77713          	andi	a4,a4,255
    80004b6c:	00900793          	li	a5,9
    80004b70:	fce7fce3          	bgeu	a5,a4,80004b48 <_Z11stringToIntPKc+0x18>
    return n;
}
    80004b74:	00813403          	ld	s0,8(sp)
    80004b78:	01010113          	addi	sp,sp,16
    80004b7c:	00008067          	ret

0000000080004b80 <_Z8printIntiii>:

char digits[] = "0123456789ABCDEF";

void printInt(int xx, int base, int sgn)
{
    80004b80:	fc010113          	addi	sp,sp,-64
    80004b84:	02113c23          	sd	ra,56(sp)
    80004b88:	02813823          	sd	s0,48(sp)
    80004b8c:	02913423          	sd	s1,40(sp)
    80004b90:	03213023          	sd	s2,32(sp)
    80004b94:	01313c23          	sd	s3,24(sp)
    80004b98:	04010413          	addi	s0,sp,64
    80004b9c:	00050493          	mv	s1,a0
    80004ba0:	00058913          	mv	s2,a1
    80004ba4:	00060993          	mv	s3,a2
    80004ba8:	00c0006f          	j	80004bb4 <_Z8printIntiii+0x34>
    LOCK();
    80004bac:	ffffe097          	auipc	ra,0xffffe
    80004bb0:	830080e7          	jalr	-2000(ra) # 800023dc <_Z15thread_dispatchv>
    80004bb4:	00100613          	li	a2,1
    80004bb8:	00000593          	li	a1,0
    80004bbc:	00007517          	auipc	a0,0x7
    80004bc0:	cd450513          	addi	a0,a0,-812 # 8000b890 <lockPrint>
    80004bc4:	ffffc097          	auipc	ra,0xffffc
    80004bc8:	560080e7          	jalr	1376(ra) # 80001124 <copy_and_swap>
    80004bcc:	fe0510e3          	bnez	a0,80004bac <_Z8printIntiii+0x2c>
    char buf[16];
    int i, neg;
    uint x;

    neg = 0;
    if(sgn && xx < 0){
    80004bd0:	00098463          	beqz	s3,80004bd8 <_Z8printIntiii+0x58>
