GAS LISTING C:\msys64\tmp\ccYYkHKw.s 			page 1


   1              		.file	"Buffer.cpp"
   2              		.option nopic
   3              		.option norelax
   4              		.attribute arch, "rv64i2p0_m2p0_a2p0"
   5              		.attribute unaligned_access, 0
   6              		.attribute stack_align, 16
   7              		.text
   8              	.Ltext0:
   9              		.align	2
  10              		.globl	_ZN7kBufferC2Ev
  12              	_ZN7kBufferC2Ev:
  13              	.LFB1:
  14              		.file 1 "src/Buffer.cpp"
   1:src/Buffer.cpp **** #include "../h/Buffer.h"
   2:src/Buffer.cpp **** 
   3:src/Buffer.cpp **** kBuffer::kBuffer(): count(0), head(0), tail(0){
  15              		.loc 1 3 1
  16              		.cfi_startproc
  17              	.LVL0:
  18 0000 130101FF 		addi	sp,sp,-16
  19              		.cfi_def_cfa_offset 16
  20 0004 23348100 		sd	s0,8(sp)
  21              		.cfi_offset 8, -8
  22 0008 13040101 		addi	s0,sp,16
  23              		.cfi_def_cfa 8, 0
  24              	.LBB2:
  25              		.loc 1 3 46 is_stmt 0
  26 000c 23200500 		sw	zero,0(a0)
  27 0010 23220500 		sw	zero,4(a0)
  28 0014 23240500 		sw	zero,8(a0)
  29              	.LBE2:
   4:src/Buffer.cpp **** 
   5:src/Buffer.cpp **** }
  30              		.loc 1 5 1
  31 0018 03348100 		ld	s0,8(sp)
  32              		.cfi_restore 8
  33              		.cfi_def_cfa 2, 16
  34 001c 13010101 		addi	sp,sp,16
  35              		.cfi_def_cfa_offset 0
  36 0020 67800000 		jr	ra
  37              		.cfi_endproc
  38              	.LFE1:
  40              		.globl	_ZN7kBufferC1Ev
  41              		.set	_ZN7kBufferC1Ev,_ZN7kBufferC2Ev
  42              		.align	2
  43              		.globl	_ZN7kBuffer3putEc
  45              	_ZN7kBuffer3putEc:
  46              	.LFB3:
   6:src/Buffer.cpp **** 
   7:src/Buffer.cpp **** void kBuffer::put(char c) {
  47              		.loc 1 7 27 is_stmt 1
  48              		.cfi_startproc
  49              	.LVL1:
  50 0024 130101FF 		addi	sp,sp,-16
  51              		.cfi_def_cfa_offset 16
  52 0028 23348100 		sd	s0,8(sp)
  53              		.cfi_offset 8, -8
GAS LISTING C:\msys64\tmp\ccYYkHKw.s 			page 2


  54 002c 13040101 		addi	s0,sp,16
  55              		.cfi_def_cfa 8, 0
   8:src/Buffer.cpp ****     buffer[tail] = c;
  56              		.loc 1 8 5
  57              		.loc 1 8 12 is_stmt 0
  58 0030 83278500 		lw	a5,8(a0)
  59              		.loc 1 8 18
  60 0034 3307F500 		add	a4,a0,a5
  61 0038 2306B700 		sb	a1,12(a4)
   9:src/Buffer.cpp ****     tail = (tail + 1 ) % kBuffer::capacity;
  62              		.loc 1 9 5 is_stmt 1
  63              		.loc 1 9 18 is_stmt 0
  64 003c 9B871700 		addiw	a5,a5,1
  65              		.loc 1 9 24
  66 0040 1BD7F741 		sraiw	a4,a5,31
  67 0044 1B578701 		srliw	a4,a4,24
  68 0048 BB87E700 		addw	a5,a5,a4
  69 004c 93F7F70F 		andi	a5,a5,255
  70 0050 BB87E740 		subw	a5,a5,a4
  71              		.loc 1 9 10
  72 0054 2324F500 		sw	a5,8(a0)
  10:src/Buffer.cpp ****     count++;
  73              		.loc 1 10 5 is_stmt 1
  74 0058 83270500 		lw	a5,0(a0)
  75              		.loc 1 10 10 is_stmt 0
  76 005c 9B871700 		addiw	a5,a5,1
  77 0060 2320F500 		sw	a5,0(a0)
  11:src/Buffer.cpp **** }
  78              		.loc 1 11 1
  79 0064 03348100 		ld	s0,8(sp)
  80              		.cfi_restore 8
  81              		.cfi_def_cfa 2, 16
  82 0068 13010101 		addi	sp,sp,16
  83              		.cfi_def_cfa_offset 0
  84 006c 67800000 		jr	ra
  85              		.cfi_endproc
  86              	.LFE3:
  88              		.align	2
  89              		.globl	_ZN7kBuffer3getEv
  91              	_ZN7kBuffer3getEv:
  92              	.LFB4:
  12:src/Buffer.cpp **** 
  13:src/Buffer.cpp **** 
  14:src/Buffer.cpp **** char kBuffer::get() {
  93              		.loc 1 14 21 is_stmt 1
  94              		.cfi_startproc
  95              	.LVL2:
  96 0070 130101FF 		addi	sp,sp,-16
  97              		.cfi_def_cfa_offset 16
  98 0074 23348100 		sd	s0,8(sp)
  99              		.cfi_offset 8, -8
 100 0078 13040101 		addi	s0,sp,16
 101              		.cfi_def_cfa 8, 0
 102 007c 13070500 		mv	a4,a0
  15:src/Buffer.cpp ****     char x = buffer[head];
 103              		.loc 1 15 5
 104              		.loc 1 15 21 is_stmt 0
GAS LISTING C:\msys64\tmp\ccYYkHKw.s 			page 3


 105 0080 83274500 		lw	a5,4(a0)
 106              		.loc 1 15 10
 107 0084 B306F500 		add	a3,a0,a5
 108 0088 03C5C600 		lbu	a0,12(a3)
 109              	.LVL3:
  16:src/Buffer.cpp ****     head = (head + 1 ) % kBuffer::capacity;
 110              		.loc 1 16 5 is_stmt 1
 111              		.loc 1 16 18 is_stmt 0
 112 008c 9B871700 		addiw	a5,a5,1
 113              		.loc 1 16 24
 114 0090 9BD6F741 		sraiw	a3,a5,31
 115 0094 9BD68601 		srliw	a3,a3,24
 116 0098 BB87D700 		addw	a5,a5,a3
 117 009c 93F7F70F 		andi	a5,a5,255
 118 00a0 BB87D740 		subw	a5,a5,a3
 119              		.loc 1 16 10
 120 00a4 2322F700 		sw	a5,4(a4)
  17:src/Buffer.cpp ****     count--;
 121              		.loc 1 17 5 is_stmt 1
 122 00a8 83270700 		lw	a5,0(a4)
 123              		.loc 1 17 10 is_stmt 0
 124 00ac 9B87F7FF 		addiw	a5,a5,-1
 125 00b0 2320F700 		sw	a5,0(a4)
  18:src/Buffer.cpp ****     return x;
 126              		.loc 1 18 5 is_stmt 1
  19:src/Buffer.cpp **** }
 127              		.loc 1 19 1 is_stmt 0
 128 00b4 03348100 		ld	s0,8(sp)
 129              		.cfi_restore 8
 130              		.cfi_def_cfa 2, 16
 131 00b8 13010101 		addi	sp,sp,16
 132              		.cfi_def_cfa_offset 0
 133 00bc 67800000 		jr	ra
 134              		.cfi_endproc
 135              	.LFE4:
 137              		.align	2
 138              		.globl	_ZN7kBuffer6isFullEv
 140              	_ZN7kBuffer6isFullEv:
 141              	.LFB5:
  20:src/Buffer.cpp **** 
  21:src/Buffer.cpp **** bool kBuffer::isFull() {
 142              		.loc 1 21 24 is_stmt 1
 143              		.cfi_startproc
 144              	.LVL4:
 145 00c0 130101FF 		addi	sp,sp,-16
 146              		.cfi_def_cfa_offset 16
 147 00c4 23348100 		sd	s0,8(sp)
 148              		.cfi_offset 8, -8
 149 00c8 13040101 		addi	s0,sp,16
 150              		.cfi_def_cfa 8, 0
  22:src/Buffer.cpp ****     return count == capacity;
 151              		.loc 1 22 5
 152              		.loc 1 22 12 is_stmt 0
 153 00cc 03250500 		lw	a0,0(a0)
 154              	.LVL5:
 155              		.loc 1 22 21
 156 00d0 130505F0 		addi	a0,a0,-256
GAS LISTING C:\msys64\tmp\ccYYkHKw.s 			page 4


  23:src/Buffer.cpp **** }
 157              		.loc 1 23 1
 158 00d4 13351500 		seqz	a0,a0
 159 00d8 03348100 		ld	s0,8(sp)
 160              		.cfi_restore 8
 161              		.cfi_def_cfa 2, 16
 162 00dc 13010101 		addi	sp,sp,16
 163              		.cfi_def_cfa_offset 0
 164 00e0 67800000 		jr	ra
 165              		.cfi_endproc
 166              	.LFE5:
 168              		.align	2
 169              		.globl	_ZN7kBuffer7isEmptyEv
 171              	_ZN7kBuffer7isEmptyEv:
 172              	.LFB6:
  24:src/Buffer.cpp **** 
  25:src/Buffer.cpp **** bool kBuffer::isEmpty() {
 173              		.loc 1 25 25 is_stmt 1
 174              		.cfi_startproc
 175              	.LVL6:
 176 00e4 130101FF 		addi	sp,sp,-16
 177              		.cfi_def_cfa_offset 16
 178 00e8 23348100 		sd	s0,8(sp)
 179              		.cfi_offset 8, -8
 180 00ec 13040101 		addi	s0,sp,16
 181              		.cfi_def_cfa 8, 0
  26:src/Buffer.cpp ****     return count == 0;
 182              		.loc 1 26 5
 183              		.loc 1 26 12 is_stmt 0
 184 00f0 03250500 		lw	a0,0(a0)
 185              	.LVL7:
  27:src/Buffer.cpp **** }
 186              		.loc 1 27 1
 187 00f4 13351500 		seqz	a0,a0
 188 00f8 03348100 		ld	s0,8(sp)
 189              		.cfi_restore 8
 190              		.cfi_def_cfa 2, 16
 191 00fc 13010101 		addi	sp,sp,16
 192              		.cfi_def_cfa_offset 0
 193 0100 67800000 		jr	ra
 194              		.cfi_endproc
 195              	.LFE6:
 197              	.Letext0:
 198              		.file 2 "src/../h/Buffer.h"
GAS LISTING C:\msys64\tmp\ccYYkHKw.s 			page 5

