GAS LISTING C:\msys64\tmp\ccYYkHKw.s 			page 1


   1              		.file	"Buffer.cpp"
   2              		.option nopic
   3              		.option norelax
   4              		.attribute arch, "rv64i2p0_m2p0_a2p0"
   5              		.attribute unaligned_access, 0
   6              		.attribute stack_align, 16
   7              		.text
   8              	.Ltext0:
   9              		.align	2
  10              		.globl	_ZN7kBufferC2Ev
  12              	_ZN7kBufferC2Ev:
  13              	.LFB1:
  14              		.file 1 "src/Buffer.cpp"
   1:src/Buffer.cpp **** #include "../h/Buffer.h"
   2:src/Buffer.cpp **** 
   3:src/Buffer.cpp **** kBuffer::kBuffer(): count(0), head(0), tail(0){
  15              		.loc 1 3 1
  16              		.cfi_startproc
  17              	.LVL0:
  18 0000 130101FF 		addi	sp,sp,-16
  19              		.cfi_def_cfa_offset 16
  20 0004 23348100 		sd	s0,8(sp)
  21              		.cfi_offset 8, -8
  22 0008 13040101 		addi	s0,sp,16
  23              		.cfi_def_cfa 8, 0
  24              	.LBB2:
  25              		.loc 1 3 46 is_stmt 0
  26 000c 23200500 		sw	zero,0(a0)
  27 0010 23220500 		sw	zero,4(a0)
  28 0014 23240500 		sw	zero,8(a0)
  29              	.LBE2:
   4:src/Buffer.cpp **** 
   5:src/Buffer.cpp **** }
  30              		.loc 1 5 1
  31 0018 03348100 		ld	s0,8(sp)
  32              		.cfi_restore 8
  33              		.cfi_def_cfa 2, 16
  34 001c 13010101 		addi	sp,sp,16
  35              		.cfi_def_cfa_offset 0
  36 0020 67800000 		jr	ra
  37              		.cfi_endproc
  38              	.LFE1:
  40              		.globl	_ZN7kBufferC1Ev
  41              		.set	_ZN7kBufferC1Ev,_ZN7kBufferC2Ev
  42              		.align	2
  43              		.globl	_ZN7kBuffer3putEc
  45              	_ZN7kBuffer3putEc:
  46              	.LFB3:
   6:src/Buffer.cpp **** 
   7:src/Buffer.cpp **** void kBuffer::put(char c) {
  47              		.loc 1 7 27 is_stmt 1
  48              		.cfi_startproc
  49              	.LVL1:
  50 0024 130101FF 		addi	sp,sp,-16
  51              		.cfi_def_cfa_offset 16
  52 0028 23348100 		sd	s0,8(sp)
  53              		.cfi_offset 8, -8
GAS LISTING C:\msys64\tmp\ccYYkHKw.s 			page 2


  54 002c 13040101 		addi	s0,sp,16
  55              		.cfi_def_cfa 8, 0
   8:src/Buffer.cpp ****     buffer[tail] = c;
  56              		.loc 1 8 5
  57              		.loc 1 8 12 is_stmt 0
  58 0030 83278500 		lw	a5,8(a0)
  59              		.loc 1 8 18
  60 0034 3307F500 		add	a4,a0,a5
  61 0038 2306B700 		sb	a1,12(a4)
   9:src/Buffer.cpp ****     tail = (tail + 1 ) % kBuffer::capacity;
  62              		.loc 1 9 5 is_stmt 1
  63              		.loc 1 9 18 is_stmt 0
  64 003c 9B871700 		addiw	a5,a5,1
  65              		.loc 1 9 24
  66 0040 1BD7F741 		sraiw	a4,a5,31
  67 0044 1B578701 		srliw	a4,a4,24
  68 0048 BB87E700 		addw	a5,a5,a4
  69 004c 93F7F70F 		andi	a5,a5,255
  70 0050 BB87E740 		subw	a5,a5,a4
  71              		.loc 1 9 10
  72 0054 2324F500 		sw	a5,8(a0)
  10:src/Buffer.cpp ****     count++;
  73              		.loc 1 10 5 is_stmt 1
  74 0058 83270500 		lw	a5,0(a0)
  75              		.loc 1 10 10 is_stmt 0
  76 005c 9B871700 		addiw	a5,a5,1
  77 0060 2320F500 		sw	a5,0(a0)
  11:src/Buffer.cpp **** }
  78              		.loc 1 11 1
  79 0064 03348100 		ld	s0,8(sp)
  80              		.cfi_restore 8
  81              		.cfi_def_cfa 2, 16
  82 0068 13010101 		addi	sp,sp,16
  83              		.cfi_def_cfa_offset 0
  84 006c 67800000 		jr	ra
  85              		.cfi_endproc
  86              	.LFE3:
  88              		.align	2
  89              		.globl	_ZN7kBuffer3getEv
  91              	_ZN7kBuffer3getEv:
  92              	.LFB4:
  12:src/Buffer.cpp **** 
  13:src/Buffer.cpp **** 
  14:src/Buffer.cpp **** char kBuffer::get() {
  93              		.loc 1 14 21 is_stmt 1
  94              		.cfi_startproc
  95              	.LVL2:
  96 0070 130101FF 		addi	sp,sp,-16
  97              		.cfi_def_cfa_offset 16
  98 0074 23348100 		sd	s0,8(sp)
  99              		.cfi_offset 8, -8
 100 0078 13040101 		addi	s0,sp,16
 101              		.cfi_def_cfa 8, 0
 102 007c 13070500 		mv	a4,a0
  15:src/Buffer.cpp ****     char x = buffer[head];
 103              		.loc 1 15 5
 104              		.loc 1 15 21 is_stmt 0
GAS LISTING C:\msys64\tmp\ccYYkHKw.s 			page 3


 105 0080 83274500 		lw	a5,4(a0)
 106              		.loc 1 15 10
 107 0084 B306F500 		add	a3,a0,a5
 108 0088 03C5C600 		lbu	a0,12(a3)
 109              	.LVL3:
  16:src/Buffer.cpp ****     head = (head + 1 ) % kBuffer::capacity;
 110              		.loc 1 16 5 is_stmt 1
 111              		.loc 1 16 18 is_stmt 0
 112 008c 9B871700 		addiw	a5,a5,1
 113              		.loc 1 16 24
 114 0090 9BD6F741 		sraiw	a3,a5,31
 115 0094 9BD68601 		srliw	a3,a3,24
 116 0098 BB87D700 		addw	a5,a5,a3
 117 009c 93F7F70F 		andi	a5,a5,255
 118 00a0 BB87D740 		subw	a5,a5,a3
 119              		.loc 1 16 10
 120 00a4 2322F700 		sw	a5,4(a4)
  17:src/Buffer.cpp ****     count--;
 121              		.loc 1 17 5 is_stmt 1
 122 00a8 83270700 		lw	a5,0(a4)
 123              		.loc 1 17 10 is_stmt 0
 124 00ac 9B87F7FF 		addiw	a5,a5,-1
 125 00b0 2320F700 		sw	a5,0(a4)
  18:src/Buffer.cpp ****     return x;
 126              		.loc 1 18 5 is_stmt 1
  19:src/Buffer.cpp **** }
 127              		.loc 1 19 1 is_stmt 0
 128 00b4 03348100 		ld	s0,8(sp)
 129              		.cfi_restore 8
 130              		.cfi_def_cfa 2, 16
 131 00b8 13010101 		addi	sp,sp,16
 132              		.cfi_def_cfa_offset 0
 133 00bc 67800000 		jr	ra
 134              		.cfi_endproc
 135              	.LFE4:
 137              		.align	2
 138              		.globl	_ZN7kBuffer6isFullEv
 140              	_ZN7kBuffer6isFullEv:
 141              	.LFB5:
  20:src/Buffer.cpp **** 
  21:src/Buffer.cpp **** bool kBuffer::isFull() {
 142              		.loc 1 21 24 is_stmt 1
 143              		.cfi_startproc
 144              	.LVL4:
 145 00c0 130101FF 		addi	sp,sp,-16
 146              		.cfi_def_cfa_offset 16
 147 00c4 23348100 		sd	s0,8(sp)
 148              		.cfi_offset 8, -8
 149 00c8 13040101 		addi	s0,sp,16
 150              		.cfi_def_cfa 8, 0
  22:src/Buffer.cpp ****     return count == capacity;
 151              		.loc 1 22 5
 152              		.loc 1 22 12 is_stmt 0
 153 00cc 03250500 		lw	a0,0(a0)
 154              	.LVL5:
 155              		.loc 1 22 21
 156 00d0 130505F0 		addi	a0,a0,-256
GAS LISTING C:\msys64\tmp\ccYYkHKw.s 			page 4


  23:src/Buffer.cpp **** }
 157              		.loc 1 23 1
 158 00d4 13351500 		seqz	a0,a0
 159 00d8 03348100 		ld	s0,8(sp)
 160              		.cfi_restore 8
 161              		.cfi_def_cfa 2, 16
 162 00dc 13010101 		addi	sp,sp,16
 163              		.cfi_def_cfa_offset 0
 164 00e0 67800000 		jr	ra
 165              		.cfi_endproc
 166              	.LFE5:
 168              		.align	2
 169              		.globl	_ZN7kBuffer7isEmptyEv
 171              	_ZN7kBuffer7isEmptyEv:
 172              	.LFB6:
  24:src/Buffer.cpp **** 
  25:src/Buffer.cpp **** bool kBuffer::isEmpty() {
 173              		.loc 1 25 25 is_stmt 1
 174              		.cfi_startproc
 175              	.LVL6:
 176 00e4 130101FF 		addi	sp,sp,-16
 177              		.cfi_def_cfa_offset 16
 178 00e8 23348100 		sd	s0,8(sp)
 179              		.cfi_offset 8, -8
 180 00ec 13040101 		addi	s0,sp,16
 181              		.cfi_def_cfa 8, 0
  26:src/Buffer.cpp ****     return count == 0;
 182              		.loc 1 26 5
 183              		.loc 1 26 12 is_stmt 0
 184 00f0 03250500 		lw	a0,0(a0)
 185              	.LVL7:
  27:src/Buffer.cpp **** }
 186              		.loc 1 27 1
 187 00f4 13351500 		seqz	a0,a0
 188 00f8 03348100 		ld	s0,8(sp)
 189              		.cfi_restore 8
 190              		.cfi_def_cfa 2, 16
 191 00fc 13010101 		addi	sp,sp,16
 192              		.cfi_def_cfa_offset 0
 193 0100 67800000 		jr	ra
 194              		.cfi_endproc
 195              	.LFE6:
 197              	.Letext0:
 198              		.file 2 "src/../h/Buffer.h"
GAS LISTING C:\msys64\tmp\ccYYkHKw.s 			page 5


DEFINED SYMBOLS
                            *ABS*:0000000000000000 Buffer.cpp
C:\msys64\tmp\ccYYkHKw.s:12     .text:0000000000000000 _ZN7kBufferC2Ev
C:\msys64\tmp\ccYYkHKw.s:16     .text:0000000000000000 .L0 
C:\msys64\tmp\ccYYkHKw.s:18     .text:0000000000000000 .L0 
C:\msys64\tmp\ccYYkHKw.s:19     .text:0000000000000004 .L0 
C:\msys64\tmp\ccYYkHKw.s:21     .text:0000000000000008 .L0 
C:\msys64\tmp\ccYYkHKw.s:23     .text:000000000000000c .L0 
C:\msys64\tmp\ccYYkHKw.s:26     .text:000000000000000c .L0 
C:\msys64\tmp\ccYYkHKw.s:31     .text:0000000000000018 .L0 
C:\msys64\tmp\ccYYkHKw.s:32     .text:000000000000001c .L0 
C:\msys64\tmp\ccYYkHKw.s:33     .text:000000000000001c .L0 
C:\msys64\tmp\ccYYkHKw.s:35     .text:0000000000000020 .L0 
C:\msys64\tmp\ccYYkHKw.s:37     .text:0000000000000024 .L0 
C:\msys64\tmp\ccYYkHKw.s:12     .text:0000000000000000 _ZN7kBufferC1Ev
C:\msys64\tmp\ccYYkHKw.s:45     .text:0000000000000024 _ZN7kBuffer3putEc
C:\msys64\tmp\ccYYkHKw.s:48     .text:0000000000000024 .L0 
C:\msys64\tmp\ccYYkHKw.s:50     .text:0000000000000024 .L0 
C:\msys64\tmp\ccYYkHKw.s:51     .text:0000000000000028 .L0 
C:\msys64\tmp\ccYYkHKw.s:53     .text:000000000000002c .L0 
C:\msys64\tmp\ccYYkHKw.s:55     .text:0000000000000030 .L0 
C:\msys64\tmp\ccYYkHKw.s:57     .text:0000000000000030 .L0 
C:\msys64\tmp\ccYYkHKw.s:58     .text:0000000000000030 .L0 
C:\msys64\tmp\ccYYkHKw.s:60     .text:0000000000000034 .L0 
C:\msys64\tmp\ccYYkHKw.s:63     .text:000000000000003c .L0 
C:\msys64\tmp\ccYYkHKw.s:64     .text:000000000000003c .L0 
C:\msys64\tmp\ccYYkHKw.s:66     .text:0000000000000040 .L0 
C:\msys64\tmp\ccYYkHKw.s:72     .text:0000000000000054 .L0 
C:\msys64\tmp\ccYYkHKw.s:74     .text:0000000000000058 .L0 
C:\msys64\tmp\ccYYkHKw.s:76     .text:000000000000005c .L0 
C:\msys64\tmp\ccYYkHKw.s:79     .text:0000000000000064 .L0 
C:\msys64\tmp\ccYYkHKw.s:80     .text:0000000000000068 .L0 
C:\msys64\tmp\ccYYkHKw.s:81     .text:0000000000000068 .L0 
C:\msys64\tmp\ccYYkHKw.s:83     .text:000000000000006c .L0 
C:\msys64\tmp\ccYYkHKw.s:85     .text:0000000000000070 .L0 
C:\msys64\tmp\ccYYkHKw.s:91     .text:0000000000000070 _ZN7kBuffer3getEv
C:\msys64\tmp\ccYYkHKw.s:94     .text:0000000000000070 .L0 
C:\msys64\tmp\ccYYkHKw.s:96     .text:0000000000000070 .L0 
C:\msys64\tmp\ccYYkHKw.s:97     .text:0000000000000074 .L0 
C:\msys64\tmp\ccYYkHKw.s:99     .text:0000000000000078 .L0 
C:\msys64\tmp\ccYYkHKw.s:101    .text:000000000000007c .L0 
C:\msys64\tmp\ccYYkHKw.s:104    .text:0000000000000080 .L0 
C:\msys64\tmp\ccYYkHKw.s:105    .text:0000000000000080 .L0 
C:\msys64\tmp\ccYYkHKw.s:107    .text:0000000000000084 .L0 
C:\msys64\tmp\ccYYkHKw.s:111    .text:000000000000008c .L0 
C:\msys64\tmp\ccYYkHKw.s:112    .text:000000000000008c .L0 
C:\msys64\tmp\ccYYkHKw.s:114    .text:0000000000000090 .L0 
C:\msys64\tmp\ccYYkHKw.s:120    .text:00000000000000a4 .L0 
C:\msys64\tmp\ccYYkHKw.s:122    .text:00000000000000a8 .L0 
C:\msys64\tmp\ccYYkHKw.s:124    .text:00000000000000ac .L0 
C:\msys64\tmp\ccYYkHKw.s:127    .text:00000000000000b4 .L0 
C:\msys64\tmp\ccYYkHKw.s:128    .text:00000000000000b4 .L0 
C:\msys64\tmp\ccYYkHKw.s:129    .text:00000000000000b8 .L0 
C:\msys64\tmp\ccYYkHKw.s:130    .text:00000000000000b8 .L0 
C:\msys64\tmp\ccYYkHKw.s:132    .text:00000000000000bc .L0 
C:\msys64\tmp\ccYYkHKw.s:134    .text:00000000000000c0 .L0 
C:\msys64\tmp\ccYYkHKw.s:140    .text:00000000000000c0 _ZN7kBuffer6isFullEv
GAS LISTING C:\msys64\tmp\ccYYkHKw.s 			page 6


C:\msys64\tmp\ccYYkHKw.s:143    .text:00000000000000c0 .L0 
C:\msys64\tmp\ccYYkHKw.s:145    .text:00000000000000c0 .L0 
C:\msys64\tmp\ccYYkHKw.s:146    .text:00000000000000c4 .L0 
C:\msys64\tmp\ccYYkHKw.s:148    .text:00000000000000c8 .L0 
C:\msys64\tmp\ccYYkHKw.s:150    .text:00000000000000cc .L0 
C:\msys64\tmp\ccYYkHKw.s:152    .text:00000000000000cc .L0 
C:\msys64\tmp\ccYYkHKw.s:153    .text:00000000000000cc .L0 
C:\msys64\tmp\ccYYkHKw.s:156    .text:00000000000000d0 .L0 
C:\msys64\tmp\ccYYkHKw.s:158    .text:00000000000000d4 .L0 
C:\msys64\tmp\ccYYkHKw.s:160    .text:00000000000000dc .L0 
C:\msys64\tmp\ccYYkHKw.s:161    .text:00000000000000dc .L0 
C:\msys64\tmp\ccYYkHKw.s:163    .text:00000000000000e0 .L0 
C:\msys64\tmp\ccYYkHKw.s:165    .text:00000000000000e4 .L0 
C:\msys64\tmp\ccYYkHKw.s:171    .text:00000000000000e4 _ZN7kBuffer7isEmptyEv
C:\msys64\tmp\ccYYkHKw.s:174    .text:00000000000000e4 .L0 
C:\msys64\tmp\ccYYkHKw.s:176    .text:00000000000000e4 .L0 
C:\msys64\tmp\ccYYkHKw.s:177    .text:00000000000000e8 .L0 
C:\msys64\tmp\ccYYkHKw.s:179    .text:00000000000000ec .L0 
C:\msys64\tmp\ccYYkHKw.s:181    .text:00000000000000f0 .L0 
C:\msys64\tmp\ccYYkHKw.s:183    .text:00000000000000f0 .L0 
C:\msys64\tmp\ccYYkHKw.s:184    .text:00000000000000f0 .L0 
C:\msys64\tmp\ccYYkHKw.s:187    .text:00000000000000f4 .L0 
C:\msys64\tmp\ccYYkHKw.s:189    .text:00000000000000fc .L0 
C:\msys64\tmp\ccYYkHKw.s:190    .text:00000000000000fc .L0 
C:\msys64\tmp\ccYYkHKw.s:192    .text:0000000000000100 .L0 
C:\msys64\tmp\ccYYkHKw.s:194    .text:0000000000000104 .L0 
C:\msys64\tmp\ccYYkHKw.s:199    .text:0000000000000104 .L0 
C:\msys64\tmp\ccYYkHKw.s:458    .debug_abbrev:0000000000000000 .Ldebug_abbrev0
C:\msys64\tmp\ccYYkHKw.s:946    .debug_str:0000000000000055 .LASF13
C:\msys64\tmp\ccYYkHKw.s:964    .debug_str:000000000000019b .LASF14
C:\msys64\tmp\ccYYkHKw.s:956    .debug_str:000000000000013d .LASF15
C:\msys64\tmp\ccYYkHKw.s:8      .text:0000000000000000 .Ltext0
C:\msys64\tmp\ccYYkHKw.s:197    .text:0000000000000104 .Letext0
C:\msys64\tmp\ccYYkHKw.s:930    .debug_line:0000000000000000 .Ldebug_line0
C:\msys64\tmp\ccYYkHKw.s:958    .debug_str:000000000000016c .LASF0
C:\msys64\tmp\ccYYkHKw.s:938    .debug_str:0000000000000029 .LASF16
C:\msys64\tmp\ccYYkHKw.s:936    .debug_str:0000000000000017 .LASF17
C:\msys64\tmp\ccYYkHKw.s:960    .debug_str:0000000000000174 .LASF18
C:\msys64\tmp\ccYYkHKw.s:934    .debug_str:0000000000000010 .LASF1
C:\msys64\tmp\ccYYkHKw.s:962    .debug_str:0000000000000186 .LASF3
C:\msys64\tmp\ccYYkHKw.s:970    .debug_str:00000000000001ba .LASF2
C:\msys64\tmp\ccYYkHKw.s:972    .debug_str:00000000000001c2 .LASF4
C:\msys64\tmp\ccYYkHKw.s:950    .debug_str:000000000000012d .LASF5
C:\msys64\tmp\ccYYkHKw.s:940    .debug_str:0000000000000039 .LASF6
C:\msys64\tmp\ccYYkHKw.s:944    .debug_str:0000000000000050 .LASF7
C:\msys64\tmp\ccYYkHKw.s:966    .debug_str:00000000000001aa .LASF19
C:\msys64\tmp\ccYYkHKw.s:968    .debug_str:00000000000001b3 .LASF8
C:\msys64\tmp\ccYYkHKw.s:948    .debug_str:0000000000000128 .LASF9
C:\msys64\tmp\ccYYkHKw.s:952    .debug_str:0000000000000133 .LASF10
C:\msys64\tmp\ccYYkHKw.s:942    .debug_str:000000000000003e .LASF11
C:\msys64\tmp\ccYYkHKw.s:172    .text:00000000000000e4 .LFB6
C:\msys64\tmp\ccYYkHKw.s:195    .text:0000000000000104 .LFE6
C:\msys64\tmp\ccYYkHKw.s:954    .debug_str:0000000000000138 .LASF12
C:\msys64\tmp\ccYYkHKw.s:878    .debug_loc:0000000000000000 .LLST2
C:\msys64\tmp\ccYYkHKw.s:141    .text:00000000000000c0 .LFB5
C:\msys64\tmp\ccYYkHKw.s:166    .text:00000000000000e4 .LFE5
C:\msys64\tmp\ccYYkHKw.s:892    .debug_loc:0000000000000039 .LLST1
GAS LISTING C:\msys64\tmp\ccYYkHKw.s 			page 7


C:\msys64\tmp\ccYYkHKw.s:92     .text:0000000000000070 .LFB4
C:\msys64\tmp\ccYYkHKw.s:135    .text:00000000000000c0 .LFE4
C:\msys64\tmp\ccYYkHKw.s:906    .debug_loc:0000000000000072 .LLST0
C:\msys64\tmp\ccYYkHKw.s:46     .text:0000000000000024 .LFB3
C:\msys64\tmp\ccYYkHKw.s:86     .text:0000000000000070 .LFE3
C:\msys64\tmp\ccYYkHKw.s:932    .debug_str:0000000000000000 .LASF20
C:\msys64\tmp\ccYYkHKw.s:13     .text:0000000000000000 .LFB1
C:\msys64\tmp\ccYYkHKw.s:38     .text:0000000000000024 .LFE1
C:\msys64\tmp\ccYYkHKw.s:175    .text:00000000000000e4 .LVL6
C:\msys64\tmp\ccYYkHKw.s:185    .text:00000000000000f4 .LVL7
C:\msys64\tmp\ccYYkHKw.s:144    .text:00000000000000c0 .LVL4
C:\msys64\tmp\ccYYkHKw.s:154    .text:00000000000000d0 .LVL5
C:\msys64\tmp\ccYYkHKw.s:95     .text:0000000000000070 .LVL2
C:\msys64\tmp\ccYYkHKw.s:109    .text:000000000000008c .LVL3
C:\msys64\tmp\ccYYkHKw.s:200    .debug_info:0000000000000000 .Ldebug_info0

NO UNDEFINED SYMBOLS
