GAS LISTING C:\msys64\tmp\ccgT8kty.s 			page 1


   1              		.file	"Console.cpp"
   2              		.option nopic
   3              		.option norelax
   4              		.attribute arch, "rv64i2p0_m2p0_a2p0"
   5              		.attribute unaligned_access, 0
   6              		.attribute stack_align, 16
   7              		.text
   8              	.Ltext0:
   9              		.align	2
  10              		.globl	_ZN8_console10ensureInitEv
  12              	_ZN8_console10ensureInitEv:
  13              	.LFB5:
  14              		.file 1 "src/Console.cpp"
   1:src/Console.cpp **** #include "../h/Console.h"
   2:src/Console.cpp **** #include "../lib/hw.h"
   3:src/Console.cpp **** 
   4:src/Console.cpp **** Buffer* _console::inbuff = nullptr;
   5:src/Console.cpp **** Buffer* _console::outbuff = nullptr;
   6:src/Console.cpp **** _sem* _console::inSem = nullptr;
   7:src/Console.cpp **** _sem* _console::outSem = nullptr;
   8:src/Console.cpp **** 
   9:src/Console.cpp **** bool _console::initialized = false;
  10:src/Console.cpp **** 
  11:src/Console.cpp **** void _console::ensureInit() {
  15              		.loc 1 11 29
  16              		.cfi_startproc
  17              		.cfi_personality 0x9b,DW.ref.__gxx_personality_v0
  18              		.cfi_lsda 0x1b,.LLSDA5
  12:src/Console.cpp ****     if (initialized) return;
  19              		.loc 1 12 5
  20 0000 97070000 		lbu	a5,_ZN8_console11initializedE
  20      83C70700 
  21 0008 63840700 		beq	a5,zero,.L15
  22 000c 67800000 		ret
  23              	.L15:
  11:src/Console.cpp ****     if (initialized) return;
  24              		.loc 1 11 29 is_stmt 0
  25 0010 130101FE 		addi	sp,sp,-32
  26              		.cfi_def_cfa_offset 32
  27 0014 233C1100 		sd	ra,24(sp)
  28 0018 23388100 		sd	s0,16(sp)
  29 001c 23349100 		sd	s1,8(sp)
  30 0020 23302101 		sd	s2,0(sp)
  31              		.cfi_offset 1, -8
  32              		.cfi_offset 8, -16
  33              		.cfi_offset 9, -24
  34              		.cfi_offset 18, -32
  35 0024 13040102 		addi	s0,sp,32
  36              		.cfi_def_cfa 8, 0
  13:src/Console.cpp ****     inbuff  = new Buffer();
  37              		.loc 1 13 5 is_stmt 1
  38              		.loc 1 13 26 is_stmt 0
  39 0028 1305C010 		li	a0,268
  40              	.LEHB0:
  41 002c 97000000 		call	_Znwm
  41      E7800000 
  42              	.LVL0:
GAS LISTING C:\msys64\tmp\ccgT8kty.s 			page 2


  43              	.LEHE0:
  44 0034 93040500 		mv	s1,a0
  45              	.LEHB1:
  46 0038 97000000 		call	_ZN6BufferC1Ev
  46      E7800000 
  47              	.LVL1:
  48              	.LEHE1:
  49              		.loc 1 13 13 discriminator 2
  50 0040 97070000 		sd	s1,_ZN8_console6inbuffE,a5
  50      23B09700 
  14:src/Console.cpp ****     outbuff = new Buffer();
  51              		.loc 1 14 5 is_stmt 1 discriminator 2
  52              		.loc 1 14 26 is_stmt 0 discriminator 2
  53 0048 1305C010 		li	a0,268
  54              	.LEHB2:
  55 004c 97000000 		call	_Znwm
  55      E7800000 
  56              	.LVL2:
  57              	.LEHE2:
  58 0054 93040500 		mv	s1,a0
  59              	.LEHB3:
  60 0058 97000000 		call	_ZN6BufferC1Ev
  60      E7800000 
  61              	.LVL3:
  62              	.LEHE3:
  63              		.loc 1 14 13
  64 0060 97070000 		sd	s1,_ZN8_console7outbuffE,a5
  64      23B09700 
  15:src/Console.cpp ****     inSem   = new _sem(0);
  65              		.loc 1 15 5 is_stmt 1
  66              	.LVL4:
  67              	.LBB20:
  68              	.LBB21:
  69              		.file 2 "src/../h/../h/Semaphore.h"
   1:src/../h/../h/Semaphore.h **** //
   2:src/../h/../h/Semaphore.h **** // Created by os on 4/6/26.
   3:src/../h/../h/Semaphore.h **** //
   4:src/../h/../h/Semaphore.h **** 
   5:src/../h/../h/Semaphore.h **** #ifndef PROJECT_BASE_V1_1_SEMAPHORE_H
   6:src/../h/../h/Semaphore.h **** #define PROJECT_BASE_V1_1_SEMAPHORE_H
   7:src/../h/../h/Semaphore.h **** #include "../lib/hw.h"
   8:src/../h/../h/Semaphore.h **** #include "../h/MemoryAllocator.h"
   9:src/../h/../h/Semaphore.h **** class _thread;
  10:src/../h/../h/Semaphore.h **** 
  11:src/../h/../h/Semaphore.h **** class _sem {
  12:src/../h/../h/Semaphore.h **** public:
  13:src/../h/../h/Semaphore.h **** 
  14:src/../h/../h/Semaphore.h ****     void* operator new(size_t size){
  15:src/../h/../h/Semaphore.h ****         void* ptr = MemoryAllocator::kmalloc(size);
  70              		.loc 2 15 9
  71              		.loc 2 15 45 is_stmt 0
  72 0068 13050002 		li	a0,32
  73              	.LEHB4:
  74 006c 97000000 		call	_ZN15MemoryAllocator7kmallocEm
  74      E7800000 
  75              	.LVL5:
  76              	.LEHE4:
GAS LISTING C:\msys64\tmp\ccgT8kty.s 			page 3


  77 0074 93040500 		mv	s1,a0
  78              	.LVL6:
  16:src/../h/../h/Semaphore.h ****         return ptr;
  79              		.loc 2 16 9 is_stmt 1
  80              	.LBE21:
  81              	.LBE20:
  82              		.loc 1 15 25 is_stmt 0
  83 0078 93050000 		li	a1,0
  84              	.LEHB5:
  85 007c 97000000 		call	_ZN4_semC1Ei
  85      E7800000 
  86              	.LVL7:
  87              	.LEHE5:
  88              		.loc 1 15 13 discriminator 2
  89 0084 97070000 		sd	s1,_ZN8_console5inSemE,a5
  89      23B09700 
  16:src/Console.cpp ****     outSem  = new _sem(256);
  90              		.loc 1 16 5 is_stmt 1 discriminator 2
  91              	.LVL8:
  92              	.LBB22:
  93              	.LBB23:
  15:src/../h/../h/Semaphore.h ****         return ptr;
  94              		.loc 2 15 9 discriminator 2
  15:src/../h/../h/Semaphore.h ****         return ptr;
  95              		.loc 2 15 45 is_stmt 0 discriminator 2
  96 008c 13050002 		li	a0,32
  97              	.LEHB6:
  98 0090 97000000 		call	_ZN15MemoryAllocator7kmallocEm
  98      E7800000 
  99              	.LVL9:
 100              	.LEHE6:
 101 0098 93040500 		mv	s1,a0
 102              	.LVL10:
 103              		.loc 2 16 9 is_stmt 1 discriminator 2
 104              	.LBE23:
 105              	.LBE22:
 106              		.loc 1 16 27 is_stmt 0 discriminator 2
 107 009c 93050010 		li	a1,256
 108              	.LEHB7:
 109 00a0 97000000 		call	_ZN4_semC1Ei
 109      E7800000 
 110              	.LVL11:
 111              	.LEHE7:
 112              		.loc 1 16 13 discriminator 2
 113 00a8 97070000 		sd	s1,_ZN8_console6outSemE,a5
 113      23B09700 
  17:src/Console.cpp ****     initialized = true;
 114              		.loc 1 17 5 is_stmt 1 discriminator 2
 115              		.loc 1 17 17 is_stmt 0 discriminator 2
 116 00b0 93071000 		li	a5,1
 117 00b4 17070000 		sb	a5,_ZN8_console11initializedE,a4
 117      2300F700 
  18:src/Console.cpp **** }
 118              		.loc 1 18 1 discriminator 2
 119 00bc 83308101 		ld	ra,24(sp)
 120              		.cfi_remember_state
 121              		.cfi_restore 1
GAS LISTING C:\msys64\tmp\ccgT8kty.s 			page 4


 122 00c0 03340101 		ld	s0,16(sp)
 123              		.cfi_restore 8
 124              		.cfi_def_cfa 2, 32
 125 00c4 83348100 		ld	s1,8(sp)
 126              		.cfi_restore 9
 127              	.LVL12:
 128 00c8 03390100 		ld	s2,0(sp)
 129              		.cfi_restore 18
 130 00cc 13010102 		addi	sp,sp,32
 131              		.cfi_def_cfa_offset 0
 132 00d0 67800000 		jr	ra
 133              	.LVL13:
 134              	.L7:
 135              		.cfi_restore_state
  13:src/Console.cpp ****     outbuff = new Buffer();
 136              		.loc 1 13 26
 137 00d4 13090500 		mv	s2,a0
 138 00d8 13850400 		mv	a0,s1
 139 00dc 97000000 		call	_ZdlPv
 139      E7800000 
 140              	.LVL14:
 141 00e4 13050900 		mv	a0,s2
 142              	.LEHB8:
 143 00e8 97000000 		call	_Unwind_Resume
 143      E7800000 
 144              	.LVL15:
 145              	.L8:
  14:src/Console.cpp ****     inSem   = new _sem(0);
 146              		.loc 1 14 26
 147 00f0 13090500 		mv	s2,a0
 148 00f4 13850400 		mv	a0,s1
 149 00f8 97000000 		call	_ZdlPv
 149      E7800000 
 150              	.LVL16:
 151 0100 13050900 		mv	a0,s2
 152 0104 97000000 		call	_Unwind_Resume
 152      E7800000 
 153              	.LVL17:
 154              	.L9:
  15:src/Console.cpp ****     outSem  = new _sem(256);
 155              		.loc 1 15 25
 156 010c 13090500 		mv	s2,a0
 157 0110 13850400 		mv	a0,s1
 158 0114 97000000 		call	_ZdlPv
 158      E7800000 
 159              	.LVL18:
 160 011c 13050900 		mv	a0,s2
 161 0120 97000000 		call	_Unwind_Resume
 161      E7800000 
 162              	.LVL19:
 163              	.L10:
  16:src/Console.cpp ****     initialized = true;
 164              		.loc 1 16 27
 165 0128 13090500 		mv	s2,a0
 166 012c 13850400 		mv	a0,s1
 167 0130 97000000 		call	_ZdlPv
 167      E7800000 
GAS LISTING C:\msys64\tmp\ccgT8kty.s 			page 5


 168              	.LVL20:
 169 0138 13050900 		mv	a0,s2
 170 013c 97000000 		call	_Unwind_Resume
 170      E7800000 
 171              	.LVL21:
 172              	.LEHE8:
 173              		.cfi_endproc
 174              	.LFE5:
 175              		.globl	__gxx_personality_v0
 176              		.section	.gcc_except_table,"aw",@progbits
 177              	.LLSDA5:
 178 0000 FF       		.byte	0xff
 179 0001 FF       		.byte	0xff
 180 0002 03       		.byte	0x3
 181 0003 75       		.byte	0x75
 182 0004 00000000 		.4byte	.LEHB0-.LFB5
 183 0008 00000000 		.4byte	.LEHE0-.LEHB0
 184 000c 00000000 		.4byte	0
 185 0010 00       		.byte	0
 186 0011 00000000 		.4byte	.LEHB1-.LFB5
 187 0015 00000000 		.4byte	.LEHE1-.LEHB1
 188 0019 00000000 		.4byte	.L7-.LFB5
 189 001d 00       		.byte	0
 190 001e 00000000 		.4byte	.LEHB2-.LFB5
 191 0022 00000000 		.4byte	.LEHE2-.LEHB2
 192 0026 00000000 		.4byte	0
 193 002a 00       		.byte	0
 194 002b 00000000 		.4byte	.LEHB3-.LFB5
 195 002f 00000000 		.4byte	.LEHE3-.LEHB3
 196 0033 00000000 		.4byte	.L8-.LFB5
 197 0037 00       		.byte	0
 198 0038 00000000 		.4byte	.LEHB4-.LFB5
 199 003c 00000000 		.4byte	.LEHE4-.LEHB4
 200 0040 00000000 		.4byte	0
 201 0044 00       		.byte	0
 202 0045 00000000 		.4byte	.LEHB5-.LFB5
 203 0049 00000000 		.4byte	.LEHE5-.LEHB5
 204 004d 00000000 		.4byte	.L9-.LFB5
 205 0051 00       		.byte	0
 206 0052 00000000 		.4byte	.LEHB6-.LFB5
 207 0056 00000000 		.4byte	.LEHE6-.LEHB6
 208 005a 00000000 		.4byte	0
 209 005e 00       		.byte	0
 210 005f 00000000 		.4byte	.LEHB7-.LFB5
 211 0063 00000000 		.4byte	.LEHE7-.LEHB7
 212 0067 00000000 		.4byte	.L10-.LFB5
 213 006b 00       		.byte	0
 214 006c 00000000 		.4byte	.LEHB8-.LFB5
 215 0070 00000000 		.4byte	.LEHE8-.LEHB8
 216 0074 00000000 		.4byte	0
 217 0078 00       		.byte	0
 218              		.text
 220              		.align	2
 221              		.globl	_ZN8_console4getcEv
 223              	_ZN8_console4getcEv:
 224              	.LFB6:
  19:src/Console.cpp **** 
GAS LISTING C:\msys64\tmp\ccgT8kty.s 			page 6


  20:src/Console.cpp **** 
  21:src/Console.cpp **** 
  22:src/Console.cpp **** char _console::getc() {
 225              		.loc 1 22 23 is_stmt 1
 226              		.cfi_startproc
 227 0144 130101FF 		addi	sp,sp,-16
 228              		.cfi_def_cfa_offset 16
 229 0148 23341100 		sd	ra,8(sp)
 230 014c 23308100 		sd	s0,0(sp)
 231              		.cfi_offset 1, -8
 232              		.cfi_offset 8, -16
 233 0150 13040101 		addi	s0,sp,16
 234              		.cfi_def_cfa 8, 0
  23:src/Console.cpp ****     ensureInit();
 235              		.loc 1 23 5
 236              		.loc 1 23 15 is_stmt 0
 237 0154 97000000 		call	_ZN8_console10ensureInitEv
 237      E7800000 
 238              	.LVL22:
  24:src/Console.cpp **** 
  25:src/Console.cpp ****     return inbuff->get();
 239              		.loc 1 25 5 is_stmt 1
 240              		.loc 1 25 23 is_stmt 0
 241 015c 17050000 		ld	a0,_ZN8_console6inbuffE
 241      03350500 
 242 0164 97000000 		call	_ZN6Buffer3getEv
 242      E7800000 
 243              	.LVL23:
  26:src/Console.cpp **** }
 244              		.loc 1 26 1
 245 016c 83308100 		ld	ra,8(sp)
 246              		.cfi_restore 1
 247 0170 03340100 		ld	s0,0(sp)
 248              		.cfi_restore 8
 249              		.cfi_def_cfa 2, 16
 250 0174 13010101 		addi	sp,sp,16
 251              		.cfi_def_cfa_offset 0
 252 0178 67800000 		jr	ra
 253              		.cfi_endproc
 254              	.LFE6:
 256              		.align	2
 257              		.globl	_ZN8_console4putcEc
 259              	_ZN8_console4putcEc:
 260              	.LFB7:
  27:src/Console.cpp **** 
  28:src/Console.cpp **** void _console::putc(char c) {
 261              		.loc 1 28 29 is_stmt 1
 262              		.cfi_startproc
 263              	.LVL24:
 264 017c 130101FE 		addi	sp,sp,-32
 265              		.cfi_def_cfa_offset 32
 266 0180 233C1100 		sd	ra,24(sp)
 267 0184 23388100 		sd	s0,16(sp)
 268 0188 23349100 		sd	s1,8(sp)
 269              		.cfi_offset 1, -8
 270              		.cfi_offset 8, -16
 271              		.cfi_offset 9, -24
GAS LISTING C:\msys64\tmp\ccgT8kty.s 			page 7


 272 018c 13040102 		addi	s0,sp,32
 273              		.cfi_def_cfa 8, 0
 274 0190 93040500 		mv	s1,a0
  29:src/Console.cpp ****     ensureInit();
 275              		.loc 1 29 5
 276              		.loc 1 29 15 is_stmt 0
 277 0194 97000000 		call	_ZN8_console10ensureInitEv
 277      E7800000 
 278              	.LVL25:
  30:src/Console.cpp ****     outbuff->put(c);
 279              		.loc 1 30 5 is_stmt 1
 280              		.loc 1 30 17 is_stmt 0
 281 019c 93850400 		mv	a1,s1
 282 01a0 17050000 		ld	a0,_ZN8_console7outbuffE
 282      03350500 
 283 01a8 97000000 		call	_ZN6Buffer3putEc
 283      E7800000 
 284              	.LVL26:
 285              	.L20:
  31:src/Console.cpp **** 
  32:src/Console.cpp ****     	while ((*((volatile uint8*)CONSOLE_STATUS) & 0x01) && !_console::getInBuff()->isFull()) {
 286              		.loc 1 32 6 is_stmt 1
 287              		.loc 1 32 57
 288              		.loc 1 32 14 is_stmt 0
 289 01b0 97040000 		ld	s1,CONSOLE_STATUS
 289      83B40400 
 290 01b8 83C70400 		lbu	a5,0(s1)
 291              		.loc 1 32 57
 292 01bc 93F71700 		andi	a5,a5,1
 293 01c0 63840706 		beq	a5,zero,.L23
 294              	.LBB24:
 295              	.LBB25:
 296              		.file 3 "src/../h/Console.h"
   1:src/../h/Console.h **** #ifndef PROJEKAT_CONSOLE_H
   2:src/../h/Console.h **** #define PROJEKAT_CONSOLE_H
   3:src/../h/Console.h **** 
   4:src/../h/Console.h **** #include "../h/Semaphore.h"
   5:src/../h/Console.h **** #include "../h/Buffer.h"
   6:src/../h/Console.h **** 
   7:src/../h/Console.h **** class _console {
   8:src/../h/Console.h **** public:
   9:src/../h/Console.h ****     // Zabrana pravljenja objekata klase Console
  10:src/../h/Console.h ****     _console() = delete;
  11:src/../h/Console.h ****     _console(const _console&) = delete;
  12:src/../h/Console.h ****     _console& operator=(const _console&) = delete;
  13:src/../h/Console.h **** 
  14:src/../h/Console.h **** 
  15:src/../h/Console.h ****     // Sistemski pozivi (0x41 i 0x42)
  16:src/../h/Console.h ****     static char getc();
  17:src/../h/Console.h ****     static void putc(char c);
  18:src/../h/Console.h **** 
  19:src/../h/Console.h ****     // Geteri za prekidnu rutinu (console_handler)
  20:src/../h/Console.h ****     static Buffer* getInBuff() { ensureInit(); return inbuff; }
 297              		.loc 3 20 34 is_stmt 1
 298              		.loc 3 20 44 is_stmt 0
 299 01c4 97000000 		call	_ZN8_console10ensureInitEv
 299      E7800000 
GAS LISTING C:\msys64\tmp\ccgT8kty.s 			page 8


 300              	.LVL27:
 301              		.loc 3 20 48 is_stmt 1
 302              	.LBE25:
 303              	.LBE24:
 304              		.loc 1 32 90 is_stmt 0
 305 01cc 17050000 		ld	a0,_ZN8_console6inbuffE
 305      03350500 
 306 01d4 97000000 		call	_ZN6Buffer6isFullEv
 306      E7800000 
 307              	.LVL28:
 308              		.loc 1 32 57
 309 01dc 63160504 		bne	a0,zero,.L23
 310              	.LBB26:
  33:src/Console.cpp ****     		char c = *((volatile uint8*)CONSOLE_RX_DATA);
 311              		.loc 1 33 7 is_stmt 1
 312              		.loc 1 33 16 is_stmt 0
 313 01e0 97070000 		ld	a5,CONSOLE_RX_DATA
 313      83B70700 
 314              		.loc 1 33 50
 315 01e8 83C40700 		lbu	s1,0(a5)
 316 01ec 93F4F40F 		andi	s1,s1,0xff
 317              	.LVL29:
  34:src/Console.cpp ****     		_console::getInBuff()->put(c);
 318              		.loc 1 34 7 is_stmt 1
 319              	.LBB27:
 320              	.LBB28:
 321              		.loc 3 20 34
 322              		.loc 3 20 44 is_stmt 0
 323 01f0 97000000 		call	_ZN8_console10ensureInitEv
 323      E7800000 
 324              	.LVL30:
 325              		.loc 3 20 48 is_stmt 1
 326              	.LBE28:
 327              	.LBE27:
 328              		.loc 1 34 33 is_stmt 0
 329 01f8 93850400 		mv	a1,s1
 330 01fc 17050000 		ld	a0,_ZN8_console6inbuffE
 330      03350500 
 331 0204 97000000 		call	_ZN6Buffer3putEc
 331      E7800000 
 332              	.LVL31:
  35:src/Console.cpp ****     		_console::getInSem()->signal();
 333              		.loc 1 35 7 is_stmt 1
 334              	.LBB29:
 335              	.LBB30:
  21:src/../h/Console.h ****     static Buffer* getOutBuff() { ensureInit(); return outbuff; }
  22:src/../h/Console.h ****     static _sem* getInSem() { ensureInit(); return inSem; }
 336              		.loc 3 22 31
 337              		.loc 3 22 41 is_stmt 0
 338 020c 97000000 		call	_ZN8_console10ensureInitEv
 338      E7800000 
 339              	.LVL32:
 340              		.loc 3 22 45 is_stmt 1
 341              	.LBE30:
 342              	.LBE29:
 343              		.loc 1 35 35 is_stmt 0
 344 0214 17050000 		ld	a0,_ZN8_console5inSemE
GAS LISTING C:\msys64\tmp\ccgT8kty.s 			page 9


 344      03350500 
 345 021c 97000000 		call	_ZN4_sem6signalEv
 345      E7800000 
 346              	.LVL33:
 347              	.LBE26:
  32:src/Console.cpp ****     		char c = *((volatile uint8*)CONSOLE_RX_DATA);
 348              		.loc 1 32 6
 349 0224 6FF0DFF8 		j	.L20
 350              	.LVL34:
 351              	.L23:
  36:src/Console.cpp ****     	}
  37:src/Console.cpp **** 
  38:src/Console.cpp ****     	// TX deo: Šaljemo sve dok je hardver spreman I dok imamo šta da pošaljemo
  39:src/Console.cpp ****     	while ((*((volatile uint8*)CONSOLE_STATUS) & 0x20) && !_console::getOutBuff()->isEmpty()) {
 352              		.loc 1 39 6 is_stmt 1
 353              		.loc 1 39 57
 354              		.loc 1 39 14 is_stmt 0
 355 0228 83C70400 		lbu	a5,0(s1)
 356              		.loc 1 39 57
 357 022c 93F70702 		andi	a5,a5,32
 358 0230 63800706 		beq	a5,zero,.L18
 359              	.LBB31:
 360              	.LBB32:
  21:src/../h/Console.h ****     static _sem* getInSem() { ensureInit(); return inSem; }
 361              		.loc 3 21 35 is_stmt 1
  21:src/../h/Console.h ****     static _sem* getInSem() { ensureInit(); return inSem; }
 362              		.loc 3 21 45 is_stmt 0
 363 0234 97000000 		call	_ZN8_console10ensureInitEv
 363      E7800000 
 364              	.LVL35:
  21:src/../h/Console.h ****     static _sem* getInSem() { ensureInit(); return inSem; }
 365              		.loc 3 21 49 is_stmt 1
 366              	.LBE32:
 367              	.LBE31:
 368              		.loc 1 39 92 is_stmt 0
 369 023c 17050000 		ld	a0,_ZN8_console7outbuffE
 369      03350500 
 370 0244 97000000 		call	_ZN6Buffer7isEmptyEv
 370      E7800000 
 371              	.LVL36:
 372              		.loc 1 39 57
 373 024c 63120504 		bne	a0,zero,.L18
 374              	.LBB33:
  40:src/Console.cpp ****     		char c = _console::getOutBuff()->get();
 375              		.loc 1 40 7 is_stmt 1
 376              	.LBB34:
 377              	.LBB35:
  21:src/../h/Console.h ****     static _sem* getInSem() { ensureInit(); return inSem; }
 378              		.loc 3 21 35
  21:src/../h/Console.h ****     static _sem* getInSem() { ensureInit(); return inSem; }
 379              		.loc 3 21 45 is_stmt 0
 380 0250 97000000 		call	_ZN8_console10ensureInitEv
 380      E7800000 
 381              	.LVL37:
  21:src/../h/Console.h ****     static _sem* getInSem() { ensureInit(); return inSem; }
 382              		.loc 3 21 49 is_stmt 1
 383              	.LBE35:
GAS LISTING C:\msys64\tmp\ccgT8kty.s 			page 10


 384              	.LBE34:
 385              		.loc 1 40 43 is_stmt 0
 386 0258 17050000 		ld	a0,_ZN8_console7outbuffE
 386      03350500 
 387 0260 97000000 		call	_ZN6Buffer3getEv
 387      E7800000 
 388              	.LVL38:
  41:src/Console.cpp ****     		*((volatile uint8*)CONSOLE_TX_DATA) = (uint8)c;
 389              		.loc 1 41 7 is_stmt 1
 390 0268 97070000 		ld	a5,CONSOLE_TX_DATA
 390      83B70700 
 391              		.loc 1 41 43 is_stmt 0
 392 0270 2380A700 		sb	a0,0(a5)
  42:src/Console.cpp ****     		_console::getOutSem()->signal();
 393              		.loc 1 42 7 is_stmt 1
 394              	.LBB36:
 395              	.LBB37:
  23:src/../h/Console.h ****     static _sem* getOutSem() { ensureInit(); return outSem; }
 396              		.loc 3 23 32
 397              		.loc 3 23 42 is_stmt 0
 398 0274 97000000 		call	_ZN8_console10ensureInitEv
 398      E7800000 
 399              	.LVL39:
 400              		.loc 3 23 46 is_stmt 1
 401              	.LBE37:
 402              	.LBE36:
 403              		.loc 1 42 36 is_stmt 0
 404 027c 17050000 		ld	a0,_ZN8_console6outSemE
 404      03350500 
 405 0284 97000000 		call	_ZN4_sem6signalEv
 405      E7800000 
 406              	.LVL40:
 407              	.LBE33:
  39:src/Console.cpp ****     		char c = _console::getOutBuff()->get();
 408              		.loc 1 39 6
 409 028c 6FF0DFF9 		j	.L23
 410              	.L18:
  43:src/Console.cpp ****     	}
  44:src/Console.cpp ****     	
  45:src/Console.cpp **** }...
 411              		.loc 1 45 1
 412 0290 83308101 		ld	ra,24(sp)
 413              		.cfi_restore 1
 414 0294 03340101 		ld	s0,16(sp)
 415              		.cfi_restore 8
 416              		.cfi_def_cfa 2, 32
 417 0298 83348100 		ld	s1,8(sp)
 418              		.cfi_restore 9
 419 029c 13010102 		addi	sp,sp,32
 420              		.cfi_def_cfa_offset 0
 421 02a0 67800000 		jr	ra
 422              		.cfi_endproc
 423              	.LFE7:
 425              		.globl	_ZN8_console11initializedE
 426              		.globl	_ZN8_console6outSemE
 427              		.globl	_ZN8_console5inSemE
 428              		.globl	_ZN8_console7outbuffE
GAS LISTING C:\msys64\tmp\ccgT8kty.s 			page 11


 429              		.globl	_ZN8_console6inbuffE
 430              		.section	.sbss,"aw",@nobits
 431              		.align	3
 434              	_ZN8_console11initializedE:
 435 0000 00       		.zero	1
 436 0001 00000000 		.zero	7
 436      000000
 439              	_ZN8_console6outSemE:
 440 0008 00000000 		.zero	8
 440      00000000 
 443              	_ZN8_console5inSemE:
 444 0010 00000000 		.zero	8
 444      00000000 
 447              	_ZN8_console7outbuffE:
 448 0018 00000000 		.zero	8
 448      00000000 
 451              	_ZN8_console6inbuffE:
 452 0020 00000000 		.zero	8
 452      00000000 
 453              		.text
 454              	.Letext0:
 455              		.file 4 "src/../h/../h/../lib/hw.h"
 456              		.file 5 "src/../h/../h/../h/MemoryAllocator.h"
 457              		.file 6 "src/../h/../h/Buffer.h"
 2750              		.align	3
 2753              	DW.ref.__gxx_personality_v0:
 2754 0000 00000000 		.dword	__gxx_personality_v0
 2754      00000000 
 2755              		.ident	"GCC: (GNU) 10.1.0"
GAS LISTING C:\msys64\tmp\ccgT8kty.s 			page 12

