GAS LISTING C:\msys64\tmp\ccdxXNzk.s 			page 1


   1              		.file	"Console.cpp"
   2              		.option nopic
   3              		.option norelax
   4              		.attribute arch, "rv64i2p0_m2p0_a2p0"
   5              		.attribute unaligned_access, 0
   6              		.attribute stack_align, 16
   7              		.text
   8              	.Ltext0:
   9              		.align	2
  10              		.globl	_ZN7Console4initEv
  12              	_ZN7Console4initEv:
  13              	.LFB5:
  14              		.file 1 "src/Console.cpp"
   1:src/Console.cpp **** #include "../h/Console.h"
   2:src/Console.cpp **** #include "../lib/hw.h"
   3:src/Console.cpp **** 
   4:src/Console.cpp **** Buffer* Console::inbuff = nullptr;
   5:src/Console.cpp **** Buffer* Console::outbuff = nullptr;
   6:src/Console.cpp **** Semaphore* Console::inSem = nullptr;
   7:src/Console.cpp **** Semaphore* Console::outSem = nullptr;
   8:src/Console.cpp **** 
   9:src/Console.cpp **** void Console::init() {
  15              		.loc 1 9 22
  16              		.cfi_startproc
  17              		.cfi_personality 0x9b,DW.ref.__gxx_personality_v0
  18              		.cfi_lsda 0x1b,.LLSDA5
  19 0000 130101FE 		addi	sp,sp,-32
  20              		.cfi_def_cfa_offset 32
  21 0004 233C1100 		sd	ra,24(sp)
  22 0008 23388100 		sd	s0,16(sp)
  23 000c 23349100 		sd	s1,8(sp)
  24 0010 23302101 		sd	s2,0(sp)
  25              		.cfi_offset 1, -8
  26              		.cfi_offset 8, -16
  27              		.cfi_offset 9, -24
  28              		.cfi_offset 18, -32
  29 0014 13040102 		addi	s0,sp,32
  30              		.cfi_def_cfa 8, 0
  10:src/Console.cpp ****     inbuff = new Buffer();
  31              		.loc 1 10 5
  32              		.loc 1 10 25 is_stmt 0
  33 0018 1305C010 		li	a0,268
  34              	.LEHB0:
  35 001c 97000000 		call	_Znwm
  35      E7800000 
  36              	.LVL0:
  37              	.LEHE0:
  38 0024 93040500 		mv	s1,a0
  39              	.LEHB1:
  40 0028 97000000 		call	_ZN6BufferC1Ev
  40      E7800000 
  41              	.LVL1:
  42              	.LEHE1:
  43              		.loc 1 10 12 discriminator 2
  44 0030 97070000 		sd	s1,_ZN7Console6inbuffE,a5
  44      23B09700 
  11:src/Console.cpp ****     outbuff = new Buffer();
GAS LISTING C:\msys64\tmp\ccdxXNzk.s 			page 2


  45              		.loc 1 11 5 is_stmt 1 discriminator 2
  46              		.loc 1 11 26 is_stmt 0 discriminator 2
  47 0038 1305C010 		li	a0,268
  48              	.LEHB2:
  49 003c 97000000 		call	_Znwm
  49      E7800000 
  50              	.LVL2:
  51              	.LEHE2:
  52 0044 93040500 		mv	s1,a0
  53              	.LEHB3:
  54 0048 97000000 		call	_ZN6BufferC1Ev
  54      E7800000 
  55              	.LVL3:
  56              	.LEHE3:
  57              		.loc 1 11 13
  58 0050 97070000 		sd	s1,_ZN7Console7outbuffE,a5
  58      23B09700 
  12:src/Console.cpp ****     inSem = new Semaphore(0);
  59              		.loc 1 12 5 is_stmt 1
  60              	.LVL4:
  61              	.LBB6:
  62              	.LBB7:
  63              		.file 2 "src/../h/../h/Semaphore.h"
   1:src/../h/../h/Semaphore.h **** //
   2:src/../h/../h/Semaphore.h **** // Created by os on 4/6/26.
   3:src/../h/../h/Semaphore.h **** //
   4:src/../h/../h/Semaphore.h **** 
   5:src/../h/../h/Semaphore.h **** #ifndef PROJECT_BASE_V1_1_SEMAPHORE_H
   6:src/../h/../h/Semaphore.h **** #define PROJECT_BASE_V1_1_SEMAPHORE_H
   7:src/../h/../h/Semaphore.h **** #include "../lib/hw.h"
   8:src/../h/../h/Semaphore.h **** #include "../h/MemoryAllocator.h"
   9:src/../h/../h/Semaphore.h **** class Thread;
  10:src/../h/../h/Semaphore.h **** 
  11:src/../h/../h/Semaphore.h **** class Semaphore {
  12:src/../h/../h/Semaphore.h **** public:
  13:src/../h/../h/Semaphore.h **** 
  14:src/../h/../h/Semaphore.h ****     void* operator new(size_t size){
  15:src/../h/../h/Semaphore.h ****         void* ptr = MemoryAllocator::kmalloc(size);
  64              		.loc 2 15 9
  65              		.loc 2 15 45 is_stmt 0
  66 0058 13050002 		li	a0,32
  67              	.LEHB4:
  68 005c 97000000 		call	_ZN15MemoryAllocator7kmallocEm
  68      E7800000 
  69              	.LVL5:
  70              	.LEHE4:
  71 0064 93040500 		mv	s1,a0
  72              	.LVL6:
  16:src/../h/../h/Semaphore.h ****         return ptr;
  73              		.loc 2 16 9 is_stmt 1
  74              	.LBE7:
  75              	.LBE6:
  76              		.loc 1 12 28 is_stmt 0
  77 0068 93050000 		li	a1,0
  78              	.LEHB5:
  79 006c 97000000 		call	_ZN9SemaphoreC1Ei
  79      E7800000 
GAS LISTING C:\msys64\tmp\ccdxXNzk.s 			page 3


  80              	.LVL7:
  81              	.LEHE5:
  82              		.loc 1 12 11 discriminator 2
  83 0074 97070000 		sd	s1,_ZN7Console5inSemE,a5
  83      23B09700 
  13:src/Console.cpp ****     outSem = new Semaphore(256);
  84              		.loc 1 13 5 is_stmt 1 discriminator 2
  85              	.LVL8:
  86              	.LBB8:
  87              	.LBB9:
  15:src/../h/../h/Semaphore.h ****         return ptr;
  88              		.loc 2 15 9 discriminator 2
  15:src/../h/../h/Semaphore.h ****         return ptr;
  89              		.loc 2 15 45 is_stmt 0 discriminator 2
  90 007c 13050002 		li	a0,32
  91              	.LEHB6:
  92 0080 97000000 		call	_ZN15MemoryAllocator7kmallocEm
  92      E7800000 
  93              	.LVL9:
  94              	.LEHE6:
  95 0088 93040500 		mv	s1,a0
  96              	.LVL10:
  97              		.loc 2 16 9 is_stmt 1 discriminator 2
  98              	.LBE9:
  99              	.LBE8:
 100              		.loc 1 13 31 is_stmt 0 discriminator 2
 101 008c 93050010 		li	a1,256
 102              	.LEHB7:
 103 0090 97000000 		call	_ZN9SemaphoreC1Ei
 103      E7800000 
 104              	.LVL11:
 105              	.LEHE7:
 106              		.loc 1 13 12 discriminator 2
 107 0098 97070000 		sd	s1,_ZN7Console6outSemE,a5
 107      23B09700 
  14:src/Console.cpp **** }
 108              		.loc 1 14 1 discriminator 2
 109 00a0 83308101 		ld	ra,24(sp)
 110              		.cfi_remember_state
 111              		.cfi_restore 1
 112 00a4 03340101 		ld	s0,16(sp)
 113              		.cfi_restore 8
 114              		.cfi_def_cfa 2, 32
 115 00a8 83348100 		ld	s1,8(sp)
 116              		.cfi_restore 9
 117              	.LVL12:
 118 00ac 03390100 		ld	s2,0(sp)
 119              		.cfi_restore 18
 120 00b0 13010102 		addi	sp,sp,32
 121              		.cfi_def_cfa_offset 0
 122 00b4 67800000 		jr	ra
 123              	.LVL13:
 124              	.L6:
 125              		.cfi_restore_state
  10:src/Console.cpp ****     outbuff = new Buffer();
 126              		.loc 1 10 25
 127 00b8 13090500 		mv	s2,a0
GAS LISTING C:\msys64\tmp\ccdxXNzk.s 			page 4


 128 00bc 13850400 		mv	a0,s1
 129 00c0 97000000 		call	_ZdlPv
 129      E7800000 
 130              	.LVL14:
 131 00c8 13050900 		mv	a0,s2
 132              	.LEHB8:
 133 00cc 97000000 		call	_Unwind_Resume
 133      E7800000 
 134              	.LVL15:
 135              	.L7:
  11:src/Console.cpp ****     inSem = new Semaphore(0);
 136              		.loc 1 11 26
 137 00d4 13090500 		mv	s2,a0
 138 00d8 13850400 		mv	a0,s1
 139 00dc 97000000 		call	_ZdlPv
 139      E7800000 
 140              	.LVL16:
 141 00e4 13050900 		mv	a0,s2
 142 00e8 97000000 		call	_Unwind_Resume
 142      E7800000 
 143              	.LVL17:
 144              	.L8:
  12:src/Console.cpp ****     outSem = new Semaphore(256);
 145              		.loc 1 12 28
 146 00f0 13090500 		mv	s2,a0
 147 00f4 13850400 		mv	a0,s1
 148 00f8 97000000 		call	_ZdlPv
 148      E7800000 
 149              	.LVL18:
 150 0100 13050900 		mv	a0,s2
 151 0104 97000000 		call	_Unwind_Resume
 151      E7800000 
 152              	.LVL19:
 153              	.L9:
  13:src/Console.cpp **** }
 154              		.loc 1 13 31
 155 010c 13090500 		mv	s2,a0
 156 0110 13850400 		mv	a0,s1
 157 0114 97000000 		call	_ZdlPv
 157      E7800000 
 158              	.LVL20:
 159 011c 13050900 		mv	a0,s2
 160 0120 97000000 		call	_Unwind_Resume
 160      E7800000 
 161              	.LVL21:
 162              	.LEHE8:
 163              		.cfi_endproc
 164              	.LFE5:
 165              		.globl	__gxx_personality_v0
 166              		.section	.gcc_except_table,"aw",@progbits
 167              	.LLSDA5:
 168 0000 FF       		.byte	0xff
 169 0001 FF       		.byte	0xff
 170 0002 03       		.byte	0x3
 171 0003 75       		.byte	0x75
 172 0004 00000000 		.4byte	.LEHB0-.LFB5
 173 0008 00000000 		.4byte	.LEHE0-.LEHB0
GAS LISTING C:\msys64\tmp\ccdxXNzk.s 			page 5


 174 000c 00000000 		.4byte	0
 175 0010 00       		.byte	0
 176 0011 00000000 		.4byte	.LEHB1-.LFB5
 177 0015 00000000 		.4byte	.LEHE1-.LEHB1
 178 0019 00000000 		.4byte	.L6-.LFB5
 179 001d 00       		.byte	0
 180 001e 00000000 		.4byte	.LEHB2-.LFB5
 181 0022 00000000 		.4byte	.LEHE2-.LEHB2
 182 0026 00000000 		.4byte	0
 183 002a 00       		.byte	0
 184 002b 00000000 		.4byte	.LEHB3-.LFB5
 185 002f 00000000 		.4byte	.LEHE3-.LEHB3
 186 0033 00000000 		.4byte	.L7-.LFB5
 187 0037 00       		.byte	0
 188 0038 00000000 		.4byte	.LEHB4-.LFB5
 189 003c 00000000 		.4byte	.LEHE4-.LEHB4
 190 0040 00000000 		.4byte	0
 191 0044 00       		.byte	0
 192 0045 00000000 		.4byte	.LEHB5-.LFB5
 193 0049 00000000 		.4byte	.LEHE5-.LEHB5
 194 004d 00000000 		.4byte	.L8-.LFB5
 195 0051 00       		.byte	0
 196 0052 00000000 		.4byte	.LEHB6-.LFB5
 197 0056 00000000 		.4byte	.LEHE6-.LEHB6
 198 005a 00000000 		.4byte	0
 199 005e 00       		.byte	0
 200 005f 00000000 		.4byte	.LEHB7-.LFB5
 201 0063 00000000 		.4byte	.LEHE7-.LEHB7
 202 0067 00000000 		.4byte	.L9-.LFB5
 203 006b 00       		.byte	0
 204 006c 00000000 		.4byte	.LEHB8-.LFB5
 205 0070 00000000 		.4byte	.LEHE8-.LEHB8
 206 0074 00000000 		.4byte	0
 207 0078 00       		.byte	0
 208              		.text
 210              		.align	2
 211              		.globl	_ZN7Console4getcEv
 213              	_ZN7Console4getcEv:
 214              	.LFB6:
  15:src/Console.cpp **** 
  16:src/Console.cpp **** 
  17:src/Console.cpp **** char Console::getc() {
 215              		.loc 1 17 22 is_stmt 1
 216              		.cfi_startproc
 217 0128 130101FF 		addi	sp,sp,-16
 218              		.cfi_def_cfa_offset 16
 219 012c 23341100 		sd	ra,8(sp)
 220 0130 23308100 		sd	s0,0(sp)
 221              		.cfi_offset 1, -8
 222              		.cfi_offset 8, -16
 223 0134 13040101 		addi	s0,sp,16
 224              		.cfi_def_cfa 8, 0
  18:src/Console.cpp **** 
  19:src/Console.cpp ****     int status = inSem->wait();
 225              		.loc 1 19 5
 226              		.loc 1 19 29 is_stmt 0
 227 0138 17050000 		ld	a0,_ZN7Console5inSemE
GAS LISTING C:\msys64\tmp\ccdxXNzk.s 			page 6


 227      03350500 
 228 0140 97000000 		call	_ZN9Semaphore4waitEv
 228      E7800000 
 229              	.LVL22:
  20:src/Console.cpp **** 
  21:src/Console.cpp ****     if (status < 0) {
 230              		.loc 1 21 5 is_stmt 1
 231 0148 63420502 		blt	a0,zero,.L14
  22:src/Console.cpp ****         return -1;
  23:src/Console.cpp ****     }
  24:src/Console.cpp **** 
  25:src/Console.cpp ****     return inbuff->get();
 232              		.loc 1 25 5
 233              		.loc 1 25 23 is_stmt 0
 234 014c 17050000 		ld	a0,_ZN7Console6inbuffE
 234      03350500 
 235              	.LVL23:
 236 0154 97000000 		call	_ZN6Buffer3getEv
 236      E7800000 
 237              	.LVL24:
 238              	.L13:
  26:src/Console.cpp **** }
 239              		.loc 1 26 1
 240 015c 83308100 		ld	ra,8(sp)
 241              		.cfi_remember_state
 242              		.cfi_restore 1
 243 0160 03340100 		ld	s0,0(sp)
 244              		.cfi_restore 8
 245              		.cfi_def_cfa 2, 16
 246 0164 13010101 		addi	sp,sp,16
 247              		.cfi_def_cfa_offset 0
 248 0168 67800000 		jr	ra
 249              	.LVL25:
 250              	.L14:
 251              		.cfi_restore_state
  22:src/Console.cpp ****         return -1;
 252              		.loc 1 22 17
 253 016c 1305F00F 		li	a0,255
 254              	.LVL26:
 255 0170 6FF0DFFE 		j	.L13
 256              		.cfi_endproc
 257              	.LFE6:
 259              		.align	2
 260              		.globl	_ZN7Console4putcEc
 262              	_ZN7Console4putcEc:
 263              	.LFB7:
  27:src/Console.cpp **** 
  28:src/Console.cpp **** void Console::putc(char c) {
 264              		.loc 1 28 28 is_stmt 1
 265              		.cfi_startproc
 266              	.LVL27:
 267 0174 130101FE 		addi	sp,sp,-32
 268              		.cfi_def_cfa_offset 32
 269 0178 233C1100 		sd	ra,24(sp)
 270 017c 23388100 		sd	s0,16(sp)
 271 0180 23349100 		sd	s1,8(sp)
 272              		.cfi_offset 1, -8
GAS LISTING C:\msys64\tmp\ccdxXNzk.s 			page 7


 273              		.cfi_offset 8, -16
 274              		.cfi_offset 9, -24
 275 0184 13040102 		addi	s0,sp,32
 276              		.cfi_def_cfa 8, 0
 277 0188 93040500 		mv	s1,a0
  29:src/Console.cpp ****     outSem->wait();
 278              		.loc 1 29 5
 279              		.loc 1 29 17 is_stmt 0
 280 018c 17050000 		ld	a0,_ZN7Console6outSemE
 280      03350500 
 281              	.LVL28:
 282 0194 97000000 		call	_ZN9Semaphore4waitEv
 282      E7800000 
 283              	.LVL29:
  30:src/Console.cpp ****     outbuff->put(c);
 284              		.loc 1 30 5 is_stmt 1
 285              		.loc 1 30 17 is_stmt 0
 286 019c 93850400 		mv	a1,s1
 287 01a0 17050000 		ld	a0,_ZN7Console7outbuffE
 287      03350500 
 288 01a8 97000000 		call	_ZN6Buffer3putEc
 288      E7800000 
 289              	.LVL30:
  31:src/Console.cpp **** 
  32:src/Console.cpp ****     if (*((volatile uint8*)CONSOLE_STATUS) & 0x20) {
 290              		.loc 1 32 5 is_stmt 1
 291              	.LBB10:
 292              		.loc 1 32 9 is_stmt 0
 293 01b0 97070000 		ld	a5,CONSOLE_STATUS
 293      83B70700 
 294 01b8 83C70700 		lbu	a5,0(a5)
 295              		.loc 1 32 5
 296 01bc 93F70702 		andi	a5,a5,32
 297 01c0 639C0700 		bne	a5,zero,.L19
 298              	.L16:
 299              	.LBE10:
  33:src/Console.cpp ****         char toSend = outbuff->get();
  34:src/Console.cpp ****         *((volatile uint8*)CONSOLE_TX_DATA) = (uint8)toSend;
  35:src/Console.cpp ****         outSem->signal();
  36:src/Console.cpp ****     }
  37:src/Console.cpp **** }...
 300              		.loc 1 37 1
 301 01c4 83308101 		ld	ra,24(sp)
 302              		.cfi_remember_state
 303              		.cfi_restore 1
 304 01c8 03340101 		ld	s0,16(sp)
 305              		.cfi_restore 8
 306              		.cfi_def_cfa 2, 32
 307 01cc 83348100 		ld	s1,8(sp)
 308              		.cfi_restore 9
 309 01d0 13010102 		addi	sp,sp,32
 310              		.cfi_def_cfa_offset 0
 311 01d4 67800000 		jr	ra
 312              	.L19:
 313              		.cfi_restore_state
 314              	.LBB12:
 315              	.LBB11:
GAS LISTING C:\msys64\tmp\ccdxXNzk.s 			page 8


  33:src/Console.cpp ****         char toSend = outbuff->get();
 316              		.loc 1 33 9 is_stmt 1
  33:src/Console.cpp ****         char toSend = outbuff->get();
 317              		.loc 1 33 35 is_stmt 0
 318 01d8 17050000 		ld	a0,_ZN7Console7outbuffE
 318      03350500 
 319 01e0 97000000 		call	_ZN6Buffer3getEv
 319      E7800000 
 320              	.LVL31:
  34:src/Console.cpp ****         *((volatile uint8*)CONSOLE_TX_DATA) = (uint8)toSend;
 321              		.loc 1 34 9 is_stmt 1
 322 01e8 97070000 		ld	a5,CONSOLE_TX_DATA
 322      83B70700 
  34:src/Console.cpp ****         *((volatile uint8*)CONSOLE_TX_DATA) = (uint8)toSend;
 323              		.loc 1 34 45 is_stmt 0
 324 01f0 2380A700 		sb	a0,0(a5)
  35:src/Console.cpp ****         outSem->signal();
 325              		.loc 1 35 9 is_stmt 1
  35:src/Console.cpp ****         outSem->signal();
 326              		.loc 1 35 23 is_stmt 0
 327 01f4 17050000 		ld	a0,_ZN7Console6outSemE
 327      03350500 
 328              	.LVL32:
 329 01fc 97000000 		call	_ZN9Semaphore6signalEv
 329      E7800000 
 330              	.LVL33:
 331              	.LBE11:
 332              	.LBE12:
 333              		.loc 1 37 1
 334 0204 6FF01FFC 		j	.L16
 335              		.cfi_endproc
 336              	.LFE7:
 338              		.globl	_ZN7Console6outSemE
 339              		.globl	_ZN7Console5inSemE
 340              		.globl	_ZN7Console7outbuffE
 341              		.globl	_ZN7Console6inbuffE
 342              		.section	.sbss,"aw",@nobits
 343              		.align	3
 346              	_ZN7Console6outSemE:
 347 0000 00000000 		.zero	8
 347      00000000 
 350              	_ZN7Console5inSemE:
 351 0008 00000000 		.zero	8
 351      00000000 
 354              	_ZN7Console7outbuffE:
 355 0010 00000000 		.zero	8
 355      00000000 
 358              	_ZN7Console6inbuffE:
 359 0018 00000000 		.zero	8
 359      00000000 
 360              		.text
 361              	.Letext0:
 362              		.file 3 "src/../h/../h/../lib/hw.h"
 363              		.file 4 "src/../h/../h/../h/MemoryAllocator.h"
 364              		.file 5 "src/../h/../h/Buffer.h"
 365              		.file 6 "src/../h/Console.h"
 2545              		.align	3
GAS LISTING C:\msys64\tmp\ccdxXNzk.s 			page 9


 2548              	DW.ref.__gxx_personality_v0:
 2549 0000 00000000 		.dword	__gxx_personality_v0
 2549      00000000 
 2550              		.ident	"GCC: (GNU) 10.1.0"
GAS LISTING C:\msys64\tmp\ccdxXNzk.s 			page 10


DEFINED SYMBOLS
                            *ABS*:0000000000000000 Console.cpp
C:\msys64\tmp\ccdxXNzk.s:12     .text:0000000000000000 _ZN7Console4initEv
C:\msys64\tmp\ccdxXNzk.s:16     .text:0000000000000000 .L0 
C:\msys64\tmp\ccdxXNzk.s:2548   .sdata.DW.ref.__gxx_personality_v0:0000000000000000 DW.ref.__gxx_personality_v0
C:\msys64\tmp\ccdxXNzk.s:19     .text:0000000000000000 .L0 
C:\msys64\tmp\ccdxXNzk.s:20     .text:0000000000000004 .L0 
C:\msys64\tmp\ccdxXNzk.s:25     .text:0000000000000014 .L0 
C:\msys64\tmp\ccdxXNzk.s:26     .text:0000000000000014 .L0 
C:\msys64\tmp\ccdxXNzk.s:27     .text:0000000000000014 .L0 
C:\msys64\tmp\ccdxXNzk.s:28     .text:0000000000000014 .L0 
C:\msys64\tmp\ccdxXNzk.s:30     .text:0000000000000018 .L0 
C:\msys64\tmp\ccdxXNzk.s:32     .text:0000000000000018 .L0 
C:\msys64\tmp\ccdxXNzk.s:33     .text:0000000000000018 .L0 
C:\msys64\tmp\ccdxXNzk.s:358    .sbss:0000000000000018 _ZN7Console6inbuffE
C:\msys64\tmp\ccdxXNzk.s:44     .text:0000000000000030 .L0 
C:\msys64\tmp\ccdxXNzk.s:46     .text:0000000000000038 .L0 
C:\msys64\tmp\ccdxXNzk.s:47     .text:0000000000000038 .L0 
C:\msys64\tmp\ccdxXNzk.s:354    .sbss:0000000000000010 _ZN7Console7outbuffE
C:\msys64\tmp\ccdxXNzk.s:58     .text:0000000000000050 .L0 
C:\msys64\tmp\ccdxXNzk.s:64     .text:0000000000000058 .L0 
C:\msys64\tmp\ccdxXNzk.s:65     .text:0000000000000058 .L0 
C:\msys64\tmp\ccdxXNzk.s:66     .text:0000000000000058 .L0 
C:\msys64\tmp\ccdxXNzk.s:76     .text:0000000000000068 .L0 
C:\msys64\tmp\ccdxXNzk.s:77     .text:0000000000000068 .L0 
C:\msys64\tmp\ccdxXNzk.s:350    .sbss:0000000000000008 _ZN7Console5inSemE
C:\msys64\tmp\ccdxXNzk.s:83     .text:0000000000000074 .L0 
C:\msys64\tmp\ccdxXNzk.s:88     .text:000000000000007c .L0 
C:\msys64\tmp\ccdxXNzk.s:89     .text:000000000000007c .L0 
C:\msys64\tmp\ccdxXNzk.s:90     .text:000000000000007c .L0 
C:\msys64\tmp\ccdxXNzk.s:100    .text:000000000000008c .L0 
C:\msys64\tmp\ccdxXNzk.s:101    .text:000000000000008c .L0 
C:\msys64\tmp\ccdxXNzk.s:346    .sbss:0000000000000000 _ZN7Console6outSemE
C:\msys64\tmp\ccdxXNzk.s:107    .text:0000000000000098 .L0 
C:\msys64\tmp\ccdxXNzk.s:109    .text:00000000000000a0 .L0 
C:\msys64\tmp\ccdxXNzk.s:110    .text:00000000000000a4 .L0 
C:\msys64\tmp\ccdxXNzk.s:111    .text:00000000000000a4 .L0 
C:\msys64\tmp\ccdxXNzk.s:113    .text:00000000000000a8 .L0 
C:\msys64\tmp\ccdxXNzk.s:114    .text:00000000000000a8 .L0 
C:\msys64\tmp\ccdxXNzk.s:116    .text:00000000000000ac .L0 
C:\msys64\tmp\ccdxXNzk.s:119    .text:00000000000000b0 .L0 
C:\msys64\tmp\ccdxXNzk.s:121    .text:00000000000000b4 .L0 
C:\msys64\tmp\ccdxXNzk.s:125    .text:00000000000000b8 .L0 
C:\msys64\tmp\ccdxXNzk.s:127    .text:00000000000000b8 .L0 
C:\msys64\tmp\ccdxXNzk.s:137    .text:00000000000000d4 .L0 
C:\msys64\tmp\ccdxXNzk.s:146    .text:00000000000000f0 .L0 
C:\msys64\tmp\ccdxXNzk.s:155    .text:000000000000010c .L0 
C:\msys64\tmp\ccdxXNzk.s:163    .text:0000000000000128 .L0 
C:\msys64\tmp\ccdxXNzk.s:213    .text:0000000000000128 _ZN7Console4getcEv
C:\msys64\tmp\ccdxXNzk.s:216    .text:0000000000000128 .L0 
C:\msys64\tmp\ccdxXNzk.s:217    .text:0000000000000128 .L0 
C:\msys64\tmp\ccdxXNzk.s:218    .text:000000000000012c .L0 
C:\msys64\tmp\ccdxXNzk.s:221    .text:0000000000000134 .L0 
C:\msys64\tmp\ccdxXNzk.s:222    .text:0000000000000134 .L0 
C:\msys64\tmp\ccdxXNzk.s:224    .text:0000000000000138 .L0 
C:\msys64\tmp\ccdxXNzk.s:226    .text:0000000000000138 .L0 
C:\msys64\tmp\ccdxXNzk.s:227    .text:0000000000000138 .L0 
GAS LISTING C:\msys64\tmp\ccdxXNzk.s 			page 11


C:\msys64\tmp\ccdxXNzk.s:231    .text:0000000000000148 .L0 
C:\msys64\tmp\ccdxXNzk.s:233    .text:000000000000014c .L0 
C:\msys64\tmp\ccdxXNzk.s:234    .text:000000000000014c .L0 
C:\msys64\tmp\ccdxXNzk.s:240    .text:000000000000015c .L0 
C:\msys64\tmp\ccdxXNzk.s:241    .text:0000000000000160 .L0 
C:\msys64\tmp\ccdxXNzk.s:242    .text:0000000000000160 .L0 
C:\msys64\tmp\ccdxXNzk.s:244    .text:0000000000000164 .L0 
C:\msys64\tmp\ccdxXNzk.s:245    .text:0000000000000164 .L0 
C:\msys64\tmp\ccdxXNzk.s:247    .text:0000000000000168 .L0 
C:\msys64\tmp\ccdxXNzk.s:251    .text:000000000000016c .L0 
C:\msys64\tmp\ccdxXNzk.s:253    .text:000000000000016c .L0 
C:\msys64\tmp\ccdxXNzk.s:256    .text:0000000000000174 .L0 
C:\msys64\tmp\ccdxXNzk.s:262    .text:0000000000000174 _ZN7Console4putcEc
C:\msys64\tmp\ccdxXNzk.s:265    .text:0000000000000174 .L0 
C:\msys64\tmp\ccdxXNzk.s:267    .text:0000000000000174 .L0 
C:\msys64\tmp\ccdxXNzk.s:268    .text:0000000000000178 .L0 
C:\msys64\tmp\ccdxXNzk.s:272    .text:0000000000000184 .L0 
C:\msys64\tmp\ccdxXNzk.s:273    .text:0000000000000184 .L0 
C:\msys64\tmp\ccdxXNzk.s:274    .text:0000000000000184 .L0 
C:\msys64\tmp\ccdxXNzk.s:276    .text:0000000000000188 .L0 
C:\msys64\tmp\ccdxXNzk.s:279    .text:000000000000018c .L0 
C:\msys64\tmp\ccdxXNzk.s:280    .text:000000000000018c .L0 
C:\msys64\tmp\ccdxXNzk.s:285    .text:000000000000019c .L0 
C:\msys64\tmp\ccdxXNzk.s:286    .text:000000000000019c .L0 
C:\msys64\tmp\ccdxXNzk.s:292    .text:00000000000001b0 .L0 
C:\msys64\tmp\ccdxXNzk.s:293    .text:00000000000001b0 .L0 
C:\msys64\tmp\ccdxXNzk.s:296    .text:00000000000001bc .L0 
C:\msys64\tmp\ccdxXNzk.s:301    .text:00000000000001c4 .L0 
C:\msys64\tmp\ccdxXNzk.s:302    .text:00000000000001c8 .L0 
C:\msys64\tmp\ccdxXNzk.s:303    .text:00000000000001c8 .L0 
C:\msys64\tmp\ccdxXNzk.s:305    .text:00000000000001cc .L0 
C:\msys64\tmp\ccdxXNzk.s:306    .text:00000000000001cc .L0 
C:\msys64\tmp\ccdxXNzk.s:308    .text:00000000000001d0 .L0 
C:\msys64\tmp\ccdxXNzk.s:310    .text:00000000000001d4 .L0 
C:\msys64\tmp\ccdxXNzk.s:313    .text:00000000000001d8 .L0 
C:\msys64\tmp\ccdxXNzk.s:317    .text:00000000000001d8 .L0 
C:\msys64\tmp\ccdxXNzk.s:318    .text:00000000000001d8 .L0 
C:\msys64\tmp\ccdxXNzk.s:322    .text:00000000000001e8 .L0 
C:\msys64\tmp\ccdxXNzk.s:324    .text:00000000000001f0 .L0 
C:\msys64\tmp\ccdxXNzk.s:326    .text:00000000000001f4 .L0 
C:\msys64\tmp\ccdxXNzk.s:327    .text:00000000000001f4 .L0 
C:\msys64\tmp\ccdxXNzk.s:334    .text:0000000000000204 .L0 
C:\msys64\tmp\ccdxXNzk.s:335    .text:0000000000000208 .L0 
C:\msys64\tmp\ccdxXNzk.s:366    .text:0000000000000208 .L0 
C:\msys64\tmp\ccdxXNzk.s:44     .text:0000000000000030 .L0 
C:\msys64\tmp\ccdxXNzk.s:58     .text:0000000000000050 .L0 
C:\msys64\tmp\ccdxXNzk.s:83     .text:0000000000000074 .L0 
C:\msys64\tmp\ccdxXNzk.s:107    .text:0000000000000098 .L0 
C:\msys64\tmp\ccdxXNzk.s:227    .text:0000000000000138 .L0 
C:\msys64\tmp\ccdxXNzk.s:234    .text:000000000000014c .L0 
C:\msys64\tmp\ccdxXNzk.s:280    .text:000000000000018c .L0 
C:\msys64\tmp\ccdxXNzk.s:287    .text:00000000000001a0 .L0 
C:\msys64\tmp\ccdxXNzk.s:293    .text:00000000000001b0 .L0 
C:\msys64\tmp\ccdxXNzk.s:318    .text:00000000000001d8 .L0 
C:\msys64\tmp\ccdxXNzk.s:322    .text:00000000000001e8 .L0 
C:\msys64\tmp\ccdxXNzk.s:327    .text:00000000000001f4 .L0 
C:\msys64\tmp\ccdxXNzk.s:250    .text:000000000000016c .L14
GAS LISTING C:\msys64\tmp\ccdxXNzk.s 			page 12


C:\msys64\tmp\ccdxXNzk.s:238    .text:000000000000015c .L13
C:\msys64\tmp\ccdxXNzk.s:312    .text:00000000000001d8 .L19
C:\msys64\tmp\ccdxXNzk.s:298    .text:00000000000001c4 .L16
C:\msys64\tmp\ccdxXNzk.s:34     .text:000000000000001c .LEHB0
C:\msys64\tmp\ccdxXNzk.s:13     .text:0000000000000000 .LFB5
C:\msys64\tmp\ccdxXNzk.s:37     .text:0000000000000024 .LEHE0
C:\msys64\tmp\ccdxXNzk.s:39     .text:0000000000000028 .LEHB1
C:\msys64\tmp\ccdxXNzk.s:42     .text:0000000000000030 .LEHE1
C:\msys64\tmp\ccdxXNzk.s:124    .text:00000000000000b8 .L6
C:\msys64\tmp\ccdxXNzk.s:48     .text:000000000000003c .LEHB2
C:\msys64\tmp\ccdxXNzk.s:51     .text:0000000000000044 .LEHE2
C:\msys64\tmp\ccdxXNzk.s:53     .text:0000000000000048 .LEHB3
C:\msys64\tmp\ccdxXNzk.s:56     .text:0000000000000050 .LEHE3
C:\msys64\tmp\ccdxXNzk.s:135    .text:00000000000000d4 .L7
C:\msys64\tmp\ccdxXNzk.s:67     .text:000000000000005c .LEHB4
C:\msys64\tmp\ccdxXNzk.s:70     .text:0000000000000064 .LEHE4
C:\msys64\tmp\ccdxXNzk.s:78     .text:000000000000006c .LEHB5
C:\msys64\tmp\ccdxXNzk.s:81     .text:0000000000000074 .LEHE5
C:\msys64\tmp\ccdxXNzk.s:144    .text:00000000000000f0 .L8
C:\msys64\tmp\ccdxXNzk.s:91     .text:0000000000000080 .LEHB6
C:\msys64\tmp\ccdxXNzk.s:94     .text:0000000000000088 .LEHE6
C:\msys64\tmp\ccdxXNzk.s:102    .text:0000000000000090 .LEHB7
C:\msys64\tmp\ccdxXNzk.s:105    .text:0000000000000098 .LEHE7
C:\msys64\tmp\ccdxXNzk.s:153    .text:000000000000010c .L9
C:\msys64\tmp\ccdxXNzk.s:132    .text:00000000000000cc .LEHB8
C:\msys64\tmp\ccdxXNzk.s:162    .text:0000000000000128 .LEHE8
C:\msys64\tmp\ccdxXNzk.s:1377   .debug_abbrev:0000000000000000 .Ldebug_abbrev0
C:\msys64\tmp\ccdxXNzk.s:2372   .debug_str:00000000000000a5 .LASF82
C:\msys64\tmp\ccdxXNzk.s:2402   .debug_str:000000000000024d .LASF83
C:\msys64\tmp\ccdxXNzk.s:2474   .debug_str:000000000000043e .LASF84
C:\msys64\tmp\ccdxXNzk.s:8      .text:0000000000000000 .Ltext0
C:\msys64\tmp\ccdxXNzk.s:361    .text:0000000000000208 .Letext0
C:\msys64\tmp\ccdxXNzk.s:2348   .debug_line:0000000000000000 .Ldebug_line0
C:\msys64\tmp\ccdxXNzk.s:2450   .debug_str:0000000000000392 .LASF0
C:\msys64\tmp\ccdxXNzk.s:2456   .debug_str:00000000000003c2 .LASF1
C:\msys64\tmp\ccdxXNzk.s:2430   .debug_str:000000000000030e .LASF2
C:\msys64\tmp\ccdxXNzk.s:2390   .debug_str:00000000000001ed .LASF3
C:\msys64\tmp\ccdxXNzk.s:2410   .debug_str:0000000000000283 .LASF4
C:\msys64\tmp\ccdxXNzk.s:2492   .debug_str:0000000000000500 .LASF5
C:\msys64\tmp\ccdxXNzk.s:2362   .debug_str:0000000000000069 .LASF6
C:\msys64\tmp\ccdxXNzk.s:2462   .debug_str:00000000000003ef .LASF7
C:\msys64\tmp\ccdxXNzk.s:2448   .debug_str:000000000000037f .LASF8
C:\msys64\tmp\ccdxXNzk.s:2472   .debug_str:000000000000042f .LASF9
C:\msys64\tmp\ccdxXNzk.s:2506   .debug_str:0000000000000569 .LASF10
C:\msys64\tmp\ccdxXNzk.s:2364   .debug_str:0000000000000070 .LASF11
C:\msys64\tmp\ccdxXNzk.s:2370   .debug_str:0000000000000099 .LASF12
C:\msys64\tmp\ccdxXNzk.s:2484   .debug_str:00000000000004bf .LASF13
C:\msys64\tmp\ccdxXNzk.s:2382   .debug_str:00000000000001a7 .LASF14
C:\msys64\tmp\ccdxXNzk.s:2424   .debug_str:00000000000002f0 .LASF17
C:\msys64\tmp\ccdxXNzk.s:2516   .debug_str:00000000000005b5 .LASF85
C:\msys64\tmp\ccdxXNzk.s:2540   .debug_str:000000000000064d .LASF15
C:\msys64\tmp\ccdxXNzk.s:2498   .debug_str:0000000000000538 .LASF16
C:\msys64\tmp\ccdxXNzk.s:2386   .debug_str:00000000000001c2 .LASF18
C:\msys64\tmp\ccdxXNzk.s:2514   .debug_str:0000000000000599 .LASF19
C:\msys64\tmp\ccdxXNzk.s:2440   .debug_str:0000000000000351 .LASF53
C:\msys64\tmp\ccdxXNzk.s:2416   .debug_str:00000000000002a8 .LASF54
C:\msys64\tmp\ccdxXNzk.s:2510   .debug_str:000000000000058a .LASF20
GAS LISTING C:\msys64\tmp\ccdxXNzk.s 			page 13


C:\msys64\tmp\ccdxXNzk.s:2482   .debug_str:00000000000004a0 .LASF22
C:\msys64\tmp\ccdxXNzk.s:2374   .debug_str:0000000000000178 .LASF21
C:\msys64\tmp\ccdxXNzk.s:2354   .debug_str:000000000000001f .LASF23
C:\msys64\tmp\ccdxXNzk.s:2468   .debug_str:0000000000000422 .LASF86
C:\msys64\tmp\ccdxXNzk.s:2504   .debug_str:000000000000054d .LASF87
C:\msys64\tmp\ccdxXNzk.s:2384   .debug_str:00000000000001bd .LASF24
C:\msys64\tmp\ccdxXNzk.s:2414   .debug_str:00000000000002a1 .LASF25
C:\msys64\tmp\ccdxXNzk.s:2530   .debug_str:00000000000005f2 .LASF88
C:\msys64\tmp\ccdxXNzk.s:2396   .debug_str:00000000000001fd .LASF89
C:\msys64\tmp\ccdxXNzk.s:2394   .debug_str:00000000000001f8 .LASF26
C:\msys64\tmp\ccdxXNzk.s:2350   .debug_str:0000000000000000 .LASF27
C:\msys64\tmp\ccdxXNzk.s:2524   .debug_str:00000000000005d7 .LASF28
C:\msys64\tmp\ccdxXNzk.s:2388   .debug_str:00000000000001db .LASF29
C:\msys64\tmp\ccdxXNzk.s:2508   .debug_str:0000000000000578 .LASF30
C:\msys64\tmp\ccdxXNzk.s:2392   .debug_str:00000000000001f3 .LASF31
C:\msys64\tmp\ccdxXNzk.s:2478   .debug_str:0000000000000474 .LASF32
C:\msys64\tmp\ccdxXNzk.s:2378   .debug_str:0000000000000186 .LASF33
C:\msys64\tmp\ccdxXNzk.s:2480   .debug_str:0000000000000489 .LASF34
C:\msys64\tmp\ccdxXNzk.s:2522   .debug_str:00000000000005d1 .LASF35
C:\msys64\tmp\ccdxXNzk.s:2494   .debug_str:0000000000000512 .LASF36
C:\msys64\tmp\ccdxXNzk.s:2464   .debug_str:0000000000000402 .LASF90
C:\msys64\tmp\ccdxXNzk.s:2446   .debug_str:000000000000036b .LASF41
C:\msys64\tmp\ccdxXNzk.s:2434   .debug_str:0000000000000334 .LASF37
C:\msys64\tmp\ccdxXNzk.s:2428   .debug_str:0000000000000307 .LASF38
C:\msys64\tmp\ccdxXNzk.s:2512   .debug_str:0000000000000592 .LASF91
C:\msys64\tmp\ccdxXNzk.s:2528   .debug_str:00000000000005eb .LASF39
C:\msys64\tmp\ccdxXNzk.s:2404   .debug_str:000000000000025d .LASF40
C:\msys64\tmp\ccdxXNzk.s:2534   .debug_str:000000000000060f .LASF42
C:\msys64\tmp\ccdxXNzk.s:2488   .debug_str:00000000000004e5 .LASF92
C:\msys64\tmp\ccdxXNzk.s:2520   .debug_str:00000000000005ca .LASF43
C:\msys64\tmp\ccdxXNzk.s:2532   .debug_str:00000000000005fb .LASF44
C:\msys64\tmp\ccdxXNzk.s:2376   .debug_str:000000000000017e .LASF45
C:\msys64\tmp\ccdxXNzk.s:2536   .debug_str:0000000000000620 .LASF46
C:\msys64\tmp\ccdxXNzk.s:2502   .debug_str:0000000000000547 .LASF47
C:\msys64\tmp\ccdxXNzk.s:2442   .debug_str:000000000000035b .LASF93
C:\msys64\tmp\ccdxXNzk.s:2476   .debug_str:000000000000046d .LASF48
C:\msys64\tmp\ccdxXNzk.s:2466   .debug_str:000000000000041d .LASF49
C:\msys64\tmp\ccdxXNzk.s:2408   .debug_str:000000000000027b .LASF50
C:\msys64\tmp\ccdxXNzk.s:2486   .debug_str:00000000000004d5 .LASF51
C:\msys64\tmp\ccdxXNzk.s:2436   .debug_str:0000000000000339 .LASF52
C:\msys64\tmp\ccdxXNzk.s:2360   .debug_str:0000000000000056 .LASF55
C:\msys64\tmp\ccdxXNzk.s:2422   .debug_str:00000000000002dd .LASF94
C:\msys64\tmp\ccdxXNzk.s:2356   .debug_str:000000000000003d .LASF57
C:\msys64\tmp\ccdxXNzk.s:2366   .debug_str:0000000000000080 .LASF59
C:\msys64\tmp\ccdxXNzk.s:2438   .debug_str:000000000000034c .LASF56
C:\msys64\tmp\ccdxXNzk.s:2458   .debug_str:00000000000003d5 .LASF95
C:\msys64\tmp\ccdxXNzk.s:2490   .debug_str:00000000000004f6 .LASF58
C:\msys64\tmp\ccdxXNzk.s:2538   .debug_str:0000000000000635 .LASF60
C:\msys64\tmp\ccdxXNzk.s:2454   .debug_str:00000000000003b7 .LASF61
C:\msys64\tmp\ccdxXNzk.s:2380   .debug_str:000000000000018d .LASF62
C:\msys64\tmp\ccdxXNzk.s:2400   .debug_str:0000000000000244 .LASF63
C:\msys64\tmp\ccdxXNzk.s:2412   .debug_str:000000000000028a .LASF64
C:\msys64\tmp\ccdxXNzk.s:2500   .debug_str:000000000000053d .LASF65
C:\msys64\tmp\ccdxXNzk.s:2432   .debug_str:000000000000031c .LASF66
C:\msys64\tmp\ccdxXNzk.s:2518   .debug_str:00000000000005c3 .LASF67
C:\msys64\tmp\ccdxXNzk.s:2470   .debug_str:0000000000000427 .LASF68
C:\msys64\tmp\ccdxXNzk.s:2368   .debug_str:0000000000000093 .LASF69
GAS LISTING C:\msys64\tmp\ccdxXNzk.s 			page 14


C:\msys64\tmp\ccdxXNzk.s:2526   .debug_str:00000000000005e4 .LASF70
C:\msys64\tmp\ccdxXNzk.s:2398   .debug_str:0000000000000230 .LASF71
C:\msys64\tmp\ccdxXNzk.s:2352   .debug_str:000000000000000a .LASF72
C:\msys64\tmp\ccdxXNzk.s:2418   .debug_str:00000000000002c4 .LASF73
C:\msys64\tmp\ccdxXNzk.s:2358   .debug_str:0000000000000042 .LASF74
C:\msys64\tmp\ccdxXNzk.s:263    .text:0000000000000174 .LFB7
C:\msys64\tmp\ccdxXNzk.s:336    .text:0000000000000208 .LFE7
C:\msys64\tmp\ccdxXNzk.s:2253   .debug_loc:0000000000000000 .LLST5
C:\msys64\tmp\ccdxXNzk.s:315    .text:00000000000001d8 .LBB11
C:\msys64\tmp\ccdxXNzk.s:331    .text:0000000000000204 .LBE11
C:\msys64\tmp\ccdxXNzk.s:2444   .debug_str:0000000000000364 .LASF75
C:\msys64\tmp\ccdxXNzk.s:2267   .debug_loc:0000000000000039 .LLST6
C:\msys64\tmp\ccdxXNzk.s:320    .text:00000000000001e8 .LVL31
C:\msys64\tmp\ccdxXNzk.s:330    .text:0000000000000204 .LVL33
C:\msys64\tmp\ccdxXNzk.s:283    .text:000000000000019c .LVL29
C:\msys64\tmp\ccdxXNzk.s:289    .text:00000000000001b0 .LVL30
C:\msys64\tmp\ccdxXNzk.s:214    .text:0000000000000128 .LFB6
C:\msys64\tmp\ccdxXNzk.s:257    .text:0000000000000174 .LFE6
C:\msys64\tmp\ccdxXNzk.s:2460   .debug_str:00000000000003e8 .LASF76
C:\msys64\tmp\ccdxXNzk.s:2279   .debug_loc:0000000000000070 .LLST4
C:\msys64\tmp\ccdxXNzk.s:229    .text:0000000000000148 .LVL22
C:\msys64\tmp\ccdxXNzk.s:237    .text:000000000000015c .LVL24
C:\msys64\tmp\ccdxXNzk.s:164    .text:0000000000000128 .LFE5
C:\msys64\tmp\ccdxXNzk.s:61     .text:0000000000000058 .LBB6
C:\msys64\tmp\ccdxXNzk.s:75     .text:0000000000000068 .LBE6
C:\msys64\tmp\ccdxXNzk.s:2290   .debug_loc:00000000000000a6 .LLST0
C:\msys64\tmp\ccdxXNzk.s:2299   .debug_loc:00000000000000cb .LLST1
C:\msys64\tmp\ccdxXNzk.s:69     .text:0000000000000064 .LVL5
C:\msys64\tmp\ccdxXNzk.s:86     .text:000000000000007c .LBB8
C:\msys64\tmp\ccdxXNzk.s:99     .text:000000000000008c .LBE8
C:\msys64\tmp\ccdxXNzk.s:2310   .debug_loc:0000000000000101 .LLST2
C:\msys64\tmp\ccdxXNzk.s:2319   .debug_loc:0000000000000126 .LLST3
C:\msys64\tmp\ccdxXNzk.s:93     .text:0000000000000088 .LVL9
C:\msys64\tmp\ccdxXNzk.s:36     .text:0000000000000024 .LVL0
C:\msys64\tmp\ccdxXNzk.s:41     .text:0000000000000030 .LVL1
C:\msys64\tmp\ccdxXNzk.s:50     .text:0000000000000044 .LVL2
C:\msys64\tmp\ccdxXNzk.s:55     .text:0000000000000050 .LVL3
C:\msys64\tmp\ccdxXNzk.s:80     .text:0000000000000074 .LVL7
C:\msys64\tmp\ccdxXNzk.s:104    .text:0000000000000098 .LVL11
C:\msys64\tmp\ccdxXNzk.s:130    .text:00000000000000c8 .LVL14
C:\msys64\tmp\ccdxXNzk.s:134    .text:00000000000000d4 .LVL15
C:\msys64\tmp\ccdxXNzk.s:140    .text:00000000000000e4 .LVL16
C:\msys64\tmp\ccdxXNzk.s:143    .text:00000000000000f0 .LVL17
C:\msys64\tmp\ccdxXNzk.s:149    .text:0000000000000100 .LVL18
C:\msys64\tmp\ccdxXNzk.s:152    .text:000000000000010c .LVL19
C:\msys64\tmp\ccdxXNzk.s:158    .text:000000000000011c .LVL20
C:\msys64\tmp\ccdxXNzk.s:161    .text:0000000000000128 .LVL21
C:\msys64\tmp\ccdxXNzk.s:2420   .debug_str:00000000000002d7 .LASF77
C:\msys64\tmp\ccdxXNzk.s:2426   .debug_str:0000000000000300 .LASF78
C:\msys64\tmp\ccdxXNzk.s:2496   .debug_str:0000000000000528 .LASF79
C:\msys64\tmp\ccdxXNzk.s:2406   .debug_str:000000000000026c .LASF80
C:\msys64\tmp\ccdxXNzk.s:2452   .debug_str:000000000000039f .LASF81
C:\msys64\tmp\ccdxXNzk.s:266    .text:0000000000000174 .LVL27
C:\msys64\tmp\ccdxXNzk.s:281    .text:0000000000000194 .LVL28
C:\msys64\tmp\ccdxXNzk.s:328    .text:00000000000001fc .LVL32
C:\msys64\tmp\ccdxXNzk.s:235    .text:0000000000000154 .LVL23
C:\msys64\tmp\ccdxXNzk.s:249    .text:000000000000016c .LVL25
GAS LISTING C:\msys64\tmp\ccdxXNzk.s 			page 15


C:\msys64\tmp\ccdxXNzk.s:254    .text:0000000000000170 .LVL26
C:\msys64\tmp\ccdxXNzk.s:60     .text:0000000000000058 .LVL4
C:\msys64\tmp\ccdxXNzk.s:72     .text:0000000000000068 .LVL6
C:\msys64\tmp\ccdxXNzk.s:96     .text:000000000000008c .LVL10
C:\msys64\tmp\ccdxXNzk.s:85     .text:000000000000007c .LVL8
C:\msys64\tmp\ccdxXNzk.s:117    .text:00000000000000ac .LVL12
C:\msys64\tmp\ccdxXNzk.s:123    .text:00000000000000b8 .LVL13
C:\msys64\tmp\ccdxXNzk.s:367    .debug_info:0000000000000000 .Ldebug_info0
C:\msys64\tmp\ccdxXNzk.s:167    .gcc_except_table:0000000000000000 .LLSDA5

UNDEFINED SYMBOLS
_Znwm
_ZN6BufferC1Ev
_ZN15MemoryAllocator7kmallocEm
_ZN9SemaphoreC1Ei
_ZdlPv
_Unwind_Resume
__gxx_personality_v0
_ZN9Semaphore4waitEv
_ZN6Buffer3getEv
_ZN6Buffer3putEc
CONSOLE_STATUS
CONSOLE_TX_DATA
_ZN9Semaphore6signalEv
