GAS LISTING C:\msys64\tmp\ccgT8kty.s 			page 1


   1              		.file	"Console.cpp"
   2              		.option nopic
   3              		.option norelax
   4              		.attribute arch, "rv64i2p0_m2p0_a2p0"
   5              		.attribute unaligned_access, 0
   6              		.attribute stack_align, 16
   7              		.text
   8              	.Ltext0:
   9              		.align	2
  10              		.globl	_ZN8_console10ensureInitEv
  12              	_ZN8_console10ensureInitEv:
  13              	.LFB5:
  14              		.file 1 "src/Console.cpp"
   1:src/Console.cpp **** #include "../h/Console.h"
   2:src/Console.cpp **** #include "../lib/hw.h"
   3:src/Console.cpp **** 
   4:src/Console.cpp **** Buffer* _console::inbuff = nullptr;
   5:src/Console.cpp **** Buffer* _console::outbuff = nullptr;
   6:src/Console.cpp **** _sem* _console::inSem = nullptr;
   7:src/Console.cpp **** _sem* _console::outSem = nullptr;
   8:src/Console.cpp **** 
   9:src/Console.cpp **** bool _console::initialized = false;
  10:src/Console.cpp **** 
  11:src/Console.cpp **** void _console::ensureInit() {
  15              		.loc 1 11 29
  16              		.cfi_startproc
  17              		.cfi_personality 0x9b,DW.ref.__gxx_personality_v0
  18              		.cfi_lsda 0x1b,.LLSDA5
  12:src/Console.cpp ****     if (initialized) return;
  19              		.loc 1 12 5
  20 0000 97070000 		lbu	a5,_ZN8_console11initializedE
  20      83C70700 
  21 0008 63840700 		beq	a5,zero,.L15
  22 000c 67800000 		ret
  23              	.L15:
  11:src/Console.cpp ****     if (initialized) return;
  24              		.loc 1 11 29 is_stmt 0
  25 0010 130101FE 		addi	sp,sp,-32
  26              		.cfi_def_cfa_offset 32
  27 0014 233C1100 		sd	ra,24(sp)
  28 0018 23388100 		sd	s0,16(sp)
  29 001c 23349100 		sd	s1,8(sp)
  30 0020 23302101 		sd	s2,0(sp)
  31              		.cfi_offset 1, -8
  32              		.cfi_offset 8, -16
  33              		.cfi_offset 9, -24
  34              		.cfi_offset 18, -32
  35 0024 13040102 		addi	s0,sp,32
  36              		.cfi_def_cfa 8, 0
  13:src/Console.cpp ****     inbuff  = new Buffer();
  37              		.loc 1 13 5 is_stmt 1
  38              		.loc 1 13 26 is_stmt 0
  39 0028 1305C010 		li	a0,268
  40              	.LEHB0:
  41 002c 97000000 		call	_Znwm
  41      E7800000 
  42              	.LVL0:
GAS LISTING C:\msys64\tmp\ccgT8kty.s 			page 2


  43              	.LEHE0:
  44 0034 93040500 		mv	s1,a0
  45              	.LEHB1:
  46 0038 97000000 		call	_ZN6BufferC1Ev
  46      E7800000 
  47              	.LVL1:
  48              	.LEHE1:
  49              		.loc 1 13 13 discriminator 2
  50 0040 97070000 		sd	s1,_ZN8_console6inbuffE,a5
  50      23B09700 
  14:src/Console.cpp ****     outbuff = new Buffer();
  51              		.loc 1 14 5 is_stmt 1 discriminator 2
  52              		.loc 1 14 26 is_stmt 0 discriminator 2
  53 0048 1305C010 		li	a0,268
  54              	.LEHB2:
  55 004c 97000000 		call	_Znwm
  55      E7800000 
  56              	.LVL2:
  57              	.LEHE2:
  58 0054 93040500 		mv	s1,a0
  59              	.LEHB3:
  60 0058 97000000 		call	_ZN6BufferC1Ev
  60      E7800000 
  61              	.LVL3:
  62              	.LEHE3:
  63              		.loc 1 14 13
  64 0060 97070000 		sd	s1,_ZN8_console7outbuffE,a5
  64      23B09700 
  15:src/Console.cpp ****     inSem   = new _sem(0);
  65              		.loc 1 15 5 is_stmt 1
  66              	.LVL4:
  67              	.LBB20:
  68              	.LBB21:
  69              		.file 2 "src/../h/../h/Semaphore.h"
   1:src/../h/../h/Semaphore.h **** //
   2:src/../h/../h/Semaphore.h **** // Created by os on 4/6/26.
   3:src/../h/../h/Semaphore.h **** //
   4:src/../h/../h/Semaphore.h **** 
   5:src/../h/../h/Semaphore.h **** #ifndef PROJECT_BASE_V1_1_SEMAPHORE_H
   6:src/../h/../h/Semaphore.h **** #define PROJECT_BASE_V1_1_SEMAPHORE_H
   7:src/../h/../h/Semaphore.h **** #include "../lib/hw.h"
   8:src/../h/../h/Semaphore.h **** #include "../h/MemoryAllocator.h"
   9:src/../h/../h/Semaphore.h **** class _thread;
  10:src/../h/../h/Semaphore.h **** 
  11:src/../h/../h/Semaphore.h **** class _sem {
  12:src/../h/../h/Semaphore.h **** public:
  13:src/../h/../h/Semaphore.h **** 
  14:src/../h/../h/Semaphore.h ****     void* operator new(size_t size){
  15:src/../h/../h/Semaphore.h ****         void* ptr = MemoryAllocator::kmalloc(size);
  70              		.loc 2 15 9
  71              		.loc 2 15 45 is_stmt 0
  72 0068 13050002 		li	a0,32
  73              	.LEHB4:
  74 006c 97000000 		call	_ZN15MemoryAllocator7kmallocEm
  74      E7800000 
  75              	.LVL5:
  76              	.LEHE4:
GAS LISTING C:\msys64\tmp\ccgT8kty.s 			page 3


  77 0074 93040500 		mv	s1,a0
  78              	.LVL6:
  16:src/../h/../h/Semaphore.h ****         return ptr;
  79              		.loc 2 16 9 is_stmt 1
  80              	.LBE21:
  81              	.LBE20:
  82              		.loc 1 15 25 is_stmt 0
  83 0078 93050000 		li	a1,0
  84              	.LEHB5:
  85 007c 97000000 		call	_ZN4_semC1Ei
  85      E7800000 
  86              	.LVL7:
  87              	.LEHE5:
  88              		.loc 1 15 13 discriminator 2
  89 0084 97070000 		sd	s1,_ZN8_console5inSemE,a5
  89      23B09700 
  16:src/Console.cpp ****     outSem  = new _sem(256);
  90              		.loc 1 16 5 is_stmt 1 discriminator 2
  91              	.LVL8:
  92              	.LBB22:
  93              	.LBB23:
  15:src/../h/../h/Semaphore.h ****         return ptr;
  94              		.loc 2 15 9 discriminator 2
  15:src/../h/../h/Semaphore.h ****         return ptr;
  95              		.loc 2 15 45 is_stmt 0 discriminator 2
  96 008c 13050002 		li	a0,32
  97              	.LEHB6:
  98 0090 97000000 		call	_ZN15MemoryAllocator7kmallocEm
  98      E7800000 
  99              	.LVL9:
 100              	.LEHE6:
 101 0098 93040500 		mv	s1,a0
 102              	.LVL10:
 103              		.loc 2 16 9 is_stmt 1 discriminator 2
 104              	.LBE23:
 105              	.LBE22:
 106              		.loc 1 16 27 is_stmt 0 discriminator 2
 107 009c 93050010 		li	a1,256
 108              	.LEHB7:
 109 00a0 97000000 		call	_ZN4_semC1Ei
 109      E7800000 
 110              	.LVL11:
 111              	.LEHE7:
 112              		.loc 1 16 13 discriminator 2
 113 00a8 97070000 		sd	s1,_ZN8_console6outSemE,a5
 113      23B09700 
  17:src/Console.cpp ****     initialized = true;
 114              		.loc 1 17 5 is_stmt 1 discriminator 2
 115              		.loc 1 17 17 is_stmt 0 discriminator 2
 116 00b0 93071000 		li	a5,1
 117 00b4 17070000 		sb	a5,_ZN8_console11initializedE,a4
 117      2300F700 
  18:src/Console.cpp **** }
 118              		.loc 1 18 1 discriminator 2
 119 00bc 83308101 		ld	ra,24(sp)
 120              		.cfi_remember_state
 121              		.cfi_restore 1
GAS LISTING C:\msys64\tmp\ccgT8kty.s 			page 4


 122 00c0 03340101 		ld	s0,16(sp)
 123              		.cfi_restore 8
 124              		.cfi_def_cfa 2, 32
 125 00c4 83348100 		ld	s1,8(sp)
 126              		.cfi_restore 9
 127              	.LVL12:
 128 00c8 03390100 		ld	s2,0(sp)
 129              		.cfi_restore 18
 130 00cc 13010102 		addi	sp,sp,32
 131              		.cfi_def_cfa_offset 0
 132 00d0 67800000 		jr	ra
 133              	.LVL13:
 134              	.L7:
 135              		.cfi_restore_state
  13:src/Console.cpp ****     outbuff = new Buffer();
 136              		.loc 1 13 26
 137 00d4 13090500 		mv	s2,a0
 138 00d8 13850400 		mv	a0,s1
 139 00dc 97000000 		call	_ZdlPv
 139      E7800000 
 140              	.LVL14:
 141 00e4 13050900 		mv	a0,s2
 142              	.LEHB8:
 143 00e8 97000000 		call	_Unwind_Resume
 143      E7800000 
 144              	.LVL15:
 145              	.L8:
  14:src/Console.cpp ****     inSem   = new _sem(0);
 146              		.loc 1 14 26
 147 00f0 13090500 		mv	s2,a0
 148 00f4 13850400 		mv	a0,s1
 149 00f8 97000000 		call	_ZdlPv
 149      E7800000 
 150              	.LVL16:
 151 0100 13050900 		mv	a0,s2
 152 0104 97000000 		call	_Unwind_Resume
 152      E7800000 
 153              	.LVL17:
 154              	.L9:
  15:src/Console.cpp ****     outSem  = new _sem(256);
 155              		.loc 1 15 25
 156 010c 13090500 		mv	s2,a0
 157 0110 13850400 		mv	a0,s1
 158 0114 97000000 		call	_ZdlPv
 158      E7800000 
 159              	.LVL18:
 160 011c 13050900 		mv	a0,s2
 161 0120 97000000 		call	_Unwind_Resume
 161      E7800000 
 162              	.LVL19:
 163              	.L10:
  16:src/Console.cpp ****     initialized = true;
 164              		.loc 1 16 27
 165 0128 13090500 		mv	s2,a0
 166 012c 13850400 		mv	a0,s1
 167 0130 97000000 		call	_ZdlPv
 167      E7800000 
GAS LISTING C:\msys64\tmp\ccgT8kty.s 			page 5


 168              	.LVL20:
 169 0138 13050900 		mv	a0,s2
 170 013c 97000000 		call	_Unwind_Resume
 170      E7800000 
 171              	.LVL21:
 172              	.LEHE8:
 173              		.cfi_endproc
 174              	.LFE5:
 175              		.globl	__gxx_personality_v0
 176              		.section	.gcc_except_table,"aw",@progbits
 177              	.LLSDA5:
 178 0000 FF       		.byte	0xff
 179 0001 FF       		.byte	0xff
 180 0002 03       		.byte	0x3
 181 0003 75       		.byte	0x75
 182 0004 00000000 		.4byte	.LEHB0-.LFB5
 183 0008 00000000 		.4byte	.LEHE0-.LEHB0
 184 000c 00000000 		.4byte	0
 185 0010 00       		.byte	0
 186 0011 00000000 		.4byte	.LEHB1-.LFB5
 187 0015 00000000 		.4byte	.LEHE1-.LEHB1
 188 0019 00000000 		.4byte	.L7-.LFB5
 189 001d 00       		.byte	0
 190 001e 00000000 		.4byte	.LEHB2-.LFB5
 191 0022 00000000 		.4byte	.LEHE2-.LEHB2
 192 0026 00000000 		.4byte	0
 193 002a 00       		.byte	0
 194 002b 00000000 		.4byte	.LEHB3-.LFB5
 195 002f 00000000 		.4byte	.LEHE3-.LEHB3
 196 0033 00000000 		.4byte	.L8-.LFB5
 197 0037 00       		.byte	0
 198 0038 00000000 		.4byte	.LEHB4-.LFB5
 199 003c 00000000 		.4byte	.LEHE4-.LEHB4
 200 0040 00000000 		.4byte	0
 201 0044 00       		.byte	0
 202 0045 00000000 		.4byte	.LEHB5-.LFB5
 203 0049 00000000 		.4byte	.LEHE5-.LEHB5
 204 004d 00000000 		.4byte	.L9-.LFB5
 205 0051 00       		.byte	0
 206 0052 00000000 		.4byte	.LEHB6-.LFB5
 207 0056 00000000 		.4byte	.LEHE6-.LEHB6
 208 005a 00000000 		.4byte	0
 209 005e 00       		.byte	0
 210 005f 00000000 		.4byte	.LEHB7-.LFB5
 211 0063 00000000 		.4byte	.LEHE7-.LEHB7
 212 0067 00000000 		.4byte	.L10-.LFB5
 213 006b 00       		.byte	0
 214 006c 00000000 		.4byte	.LEHB8-.LFB5
 215 0070 00000000 		.4byte	.LEHE8-.LEHB8
 216 0074 00000000 		.4byte	0
 217 0078 00       		.byte	0
 218              		.text
 220              		.align	2
 221              		.globl	_ZN8_console4getcEv
 223              	_ZN8_console4getcEv:
 224              	.LFB6:
  19:src/Console.cpp **** 
GAS LISTING C:\msys64\tmp\ccgT8kty.s 			page 6


  20:src/Console.cpp **** 
  21:src/Console.cpp **** 
  22:src/Console.cpp **** char _console::getc() {
 225              		.loc 1 22 23 is_stmt 1
 226              		.cfi_startproc
 227 0144 130101FF 		addi	sp,sp,-16
 228              		.cfi_def_cfa_offset 16
 229 0148 23341100 		sd	ra,8(sp)
 230 014c 23308100 		sd	s0,0(sp)
 231              		.cfi_offset 1, -8
 232              		.cfi_offset 8, -16
 233 0150 13040101 		addi	s0,sp,16
 234              		.cfi_def_cfa 8, 0
  23:src/Console.cpp ****     ensureInit();
 235              		.loc 1 23 5
 236              		.loc 1 23 15 is_stmt 0
 237 0154 97000000 		call	_ZN8_console10ensureInitEv
 237      E7800000 
 238              	.LVL22:
  24:src/Console.cpp **** 
  25:src/Console.cpp ****     return inbuff->get();
 239              		.loc 1 25 5 is_stmt 1
 240              		.loc 1 25 23 is_stmt 0
 241 015c 17050000 		ld	a0,_ZN8_console6inbuffE
 241      03350500 
 242 0164 97000000 		call	_ZN6Buffer3getEv
 242      E7800000 
 243              	.LVL23:
  26:src/Console.cpp **** }
 244              		.loc 1 26 1
 245 016c 83308100 		ld	ra,8(sp)
 246              		.cfi_restore 1
 247 0170 03340100 		ld	s0,0(sp)
 248              		.cfi_restore 8
 249              		.cfi_def_cfa 2, 16
 250 0174 13010101 		addi	sp,sp,16
 251              		.cfi_def_cfa_offset 0
 252 0178 67800000 		jr	ra
 253              		.cfi_endproc
 254              	.LFE6:
 256              		.align	2
 257              		.globl	_ZN8_console4putcEc
 259              	_ZN8_console4putcEc:
 260              	.LFB7:
  27:src/Console.cpp **** 
  28:src/Console.cpp **** void _console::putc(char c) {
 261              		.loc 1 28 29 is_stmt 1
 262              		.cfi_startproc
 263              	.LVL24:
 264 017c 130101FE 		addi	sp,sp,-32
 265              		.cfi_def_cfa_offset 32
 266 0180 233C1100 		sd	ra,24(sp)
 267 0184 23388100 		sd	s0,16(sp)
 268 0188 23349100 		sd	s1,8(sp)
 269              		.cfi_offset 1, -8
 270              		.cfi_offset 8, -16
 271              		.cfi_offset 9, -24
GAS LISTING C:\msys64\tmp\ccgT8kty.s 			page 7


 272 018c 13040102 		addi	s0,sp,32
 273              		.cfi_def_cfa 8, 0
 274 0190 93040500 		mv	s1,a0
  29:src/Console.cpp ****     ensureInit();
 275              		.loc 1 29 5
 276              		.loc 1 29 15 is_stmt 0
 277 0194 97000000 		call	_ZN8_console10ensureInitEv
 277      E7800000 
 278              	.LVL25:
  30:src/Console.cpp ****     outbuff->put(c);
 279              		.loc 1 30 5 is_stmt 1
 280              		.loc 1 30 17 is_stmt 0
 281 019c 93850400 		mv	a1,s1
 282 01a0 17050000 		ld	a0,_ZN8_console7outbuffE
 282      03350500 
 283 01a8 97000000 		call	_ZN6Buffer3putEc
 283      E7800000 
 284              	.LVL26:
 285              	.L20:
  31:src/Console.cpp **** 
  32:src/Console.cpp ****     	while ((*((volatile uint8*)CONSOLE_STATUS) & 0x01) && !_console::getInBuff()->isFull()) {
 286              		.loc 1 32 6 is_stmt 1
 287              		.loc 1 32 57
 288              		.loc 1 32 14 is_stmt 0
 289 01b0 97040000 		ld	s1,CONSOLE_STATUS
 289      83B40400 
 290 01b8 83C70400 		lbu	a5,0(s1)
 291              		.loc 1 32 57
 292 01bc 93F71700 		andi	a5,a5,1
 293 01c0 63840706 		beq	a5,zero,.L23
 294              	.LBB24:
 295              	.LBB25:
 296              		.file 3 "src/../h/Console.h"
   1:src/../h/Console.h **** #ifndef PROJEKAT_CONSOLE_H
   2:src/../h/Console.h **** #define PROJEKAT_CONSOLE_H
   3:src/../h/Console.h **** 
   4:src/../h/Console.h **** #include "../h/Semaphore.h"
   5:src/../h/Console.h **** #include "../h/Buffer.h"
   6:src/../h/Console.h **** 
   7:src/../h/Console.h **** class _console {
   8:src/../h/Console.h **** public:
   9:src/../h/Console.h ****     // Zabrana pravljenja objekata klase Console
  10:src/../h/Console.h ****     _console() = delete;
  11:src/../h/Console.h ****     _console(const _console&) = delete;
  12:src/../h/Console.h ****     _console& operator=(const _console&) = delete;
  13:src/../h/Console.h **** 
  14:src/../h/Console.h **** 
  15:src/../h/Console.h ****     // Sistemski pozivi (0x41 i 0x42)
  16:src/../h/Console.h ****     static char getc();
  17:src/../h/Console.h ****     static void putc(char c);
  18:src/../h/Console.h **** 
  19:src/../h/Console.h ****     // Geteri za prekidnu rutinu (console_handler)
  20:src/../h/Console.h ****     static Buffer* getInBuff() { ensureInit(); return inbuff; }
 297              		.loc 3 20 34 is_stmt 1
 298              		.loc 3 20 44 is_stmt 0
 299 01c4 97000000 		call	_ZN8_console10ensureInitEv
 299      E7800000 
GAS LISTING C:\msys64\tmp\ccgT8kty.s 			page 8


 300              	.LVL27:
 301              		.loc 3 20 48 is_stmt 1
 302              	.LBE25:
 303              	.LBE24:
 304              		.loc 1 32 90 is_stmt 0
 305 01cc 17050000 		ld	a0,_ZN8_console6inbuffE
 305      03350500 
 306 01d4 97000000 		call	_ZN6Buffer6isFullEv
 306      E7800000 
 307              	.LVL28:
 308              		.loc 1 32 57
 309 01dc 63160504 		bne	a0,zero,.L23
 310              	.LBB26:
  33:src/Console.cpp ****     		char c = *((volatile uint8*)CONSOLE_RX_DATA);
 311              		.loc 1 33 7 is_stmt 1
 312              		.loc 1 33 16 is_stmt 0
 313 01e0 97070000 		ld	a5,CONSOLE_RX_DATA
 313      83B70700 
 314              		.loc 1 33 50
 315 01e8 83C40700 		lbu	s1,0(a5)
 316 01ec 93F4F40F 		andi	s1,s1,0xff
 317              	.LVL29:
  34:src/Console.cpp ****     		_console::getInBuff()->put(c);
 318              		.loc 1 34 7 is_stmt 1
 319              	.LBB27:
 320              	.LBB28:
 321              		.loc 3 20 34
 322              		.loc 3 20 44 is_stmt 0
 323 01f0 97000000 		call	_ZN8_console10ensureInitEv
 323      E7800000 
 324              	.LVL30:
 325              		.loc 3 20 48 is_stmt 1
 326              	.LBE28:
 327              	.LBE27:
 328              		.loc 1 34 33 is_stmt 0
 329 01f8 93850400 		mv	a1,s1
 330 01fc 17050000 		ld	a0,_ZN8_console6inbuffE
 330      03350500 
 331 0204 97000000 		call	_ZN6Buffer3putEc
 331      E7800000 
 332              	.LVL31:
  35:src/Console.cpp ****     		_console::getInSem()->signal();
 333              		.loc 1 35 7 is_stmt 1
 334              	.LBB29:
 335              	.LBB30:
  21:src/../h/Console.h ****     static Buffer* getOutBuff() { ensureInit(); return outbuff; }
  22:src/../h/Console.h ****     static _sem* getInSem() { ensureInit(); return inSem; }
 336              		.loc 3 22 31
 337              		.loc 3 22 41 is_stmt 0
 338 020c 97000000 		call	_ZN8_console10ensureInitEv
 338      E7800000 
 339              	.LVL32:
 340              		.loc 3 22 45 is_stmt 1
 341              	.LBE30:
 342              	.LBE29:
 343              		.loc 1 35 35 is_stmt 0
 344 0214 17050000 		ld	a0,_ZN8_console5inSemE
GAS LISTING C:\msys64\tmp\ccgT8kty.s 			page 9


 344      03350500 
 345 021c 97000000 		call	_ZN4_sem6signalEv
 345      E7800000 
 346              	.LVL33:
 347              	.LBE26:
  32:src/Console.cpp ****     		char c = *((volatile uint8*)CONSOLE_RX_DATA);
 348              		.loc 1 32 6
 349 0224 6FF0DFF8 		j	.L20
 350              	.LVL34:
 351              	.L23:
  36:src/Console.cpp ****     	}
  37:src/Console.cpp **** 
  38:src/Console.cpp ****     	// TX deo: Šaljemo sve dok je hardver spreman I dok imamo šta da pošaljemo
  39:src/Console.cpp ****     	while ((*((volatile uint8*)CONSOLE_STATUS) & 0x20) && !_console::getOutBuff()->isEmpty()) {
 352              		.loc 1 39 6 is_stmt 1
 353              		.loc 1 39 57
 354              		.loc 1 39 14 is_stmt 0
 355 0228 83C70400 		lbu	a5,0(s1)
 356              		.loc 1 39 57
 357 022c 93F70702 		andi	a5,a5,32
 358 0230 63800706 		beq	a5,zero,.L18
 359              	.LBB31:
 360              	.LBB32:
  21:src/../h/Console.h ****     static _sem* getInSem() { ensureInit(); return inSem; }
 361              		.loc 3 21 35 is_stmt 1
  21:src/../h/Console.h ****     static _sem* getInSem() { ensureInit(); return inSem; }
 362              		.loc 3 21 45 is_stmt 0
 363 0234 97000000 		call	_ZN8_console10ensureInitEv
 363      E7800000 
 364              	.LVL35:
  21:src/../h/Console.h ****     static _sem* getInSem() { ensureInit(); return inSem; }
 365              		.loc 3 21 49 is_stmt 1
 366              	.LBE32:
 367              	.LBE31:
 368              		.loc 1 39 92 is_stmt 0
 369 023c 17050000 		ld	a0,_ZN8_console7outbuffE
 369      03350500 
 370 0244 97000000 		call	_ZN6Buffer7isEmptyEv
 370      E7800000 
 371              	.LVL36:
 372              		.loc 1 39 57
 373 024c 63120504 		bne	a0,zero,.L18
 374              	.LBB33:
  40:src/Console.cpp ****     		char c = _console::getOutBuff()->get();
 375              		.loc 1 40 7 is_stmt 1
 376              	.LBB34:
 377              	.LBB35:
  21:src/../h/Console.h ****     static _sem* getInSem() { ensureInit(); return inSem; }
 378              		.loc 3 21 35
  21:src/../h/Console.h ****     static _sem* getInSem() { ensureInit(); return inSem; }
 379              		.loc 3 21 45 is_stmt 0
 380 0250 97000000 		call	_ZN8_console10ensureInitEv
 380      E7800000 
 381              	.LVL37:
  21:src/../h/Console.h ****     static _sem* getInSem() { ensureInit(); return inSem; }
 382              		.loc 3 21 49 is_stmt 1
 383              	.LBE35:
GAS LISTING C:\msys64\tmp\ccgT8kty.s 			page 10


 384              	.LBE34:
 385              		.loc 1 40 43 is_stmt 0
 386 0258 17050000 		ld	a0,_ZN8_console7outbuffE
 386      03350500 
 387 0260 97000000 		call	_ZN6Buffer3getEv
 387      E7800000 
 388              	.LVL38:
  41:src/Console.cpp ****     		*((volatile uint8*)CONSOLE_TX_DATA) = (uint8)c;
 389              		.loc 1 41 7 is_stmt 1
 390 0268 97070000 		ld	a5,CONSOLE_TX_DATA
 390      83B70700 
 391              		.loc 1 41 43 is_stmt 0
 392 0270 2380A700 		sb	a0,0(a5)
  42:src/Console.cpp ****     		_console::getOutSem()->signal();
 393              		.loc 1 42 7 is_stmt 1
 394              	.LBB36:
 395              	.LBB37:
  23:src/../h/Console.h ****     static _sem* getOutSem() { ensureInit(); return outSem; }
 396              		.loc 3 23 32
 397              		.loc 3 23 42 is_stmt 0
 398 0274 97000000 		call	_ZN8_console10ensureInitEv
 398      E7800000 
 399              	.LVL39:
 400              		.loc 3 23 46 is_stmt 1
 401              	.LBE37:
 402              	.LBE36:
 403              		.loc 1 42 36 is_stmt 0
 404 027c 17050000 		ld	a0,_ZN8_console6outSemE
 404      03350500 
 405 0284 97000000 		call	_ZN4_sem6signalEv
 405      E7800000 
 406              	.LVL40:
 407              	.LBE33:
  39:src/Console.cpp ****     		char c = _console::getOutBuff()->get();
 408              		.loc 1 39 6
 409 028c 6FF0DFF9 		j	.L23
 410              	.L18:
  43:src/Console.cpp ****     	}
  44:src/Console.cpp ****     	
  45:src/Console.cpp **** }...
 411              		.loc 1 45 1
 412 0290 83308101 		ld	ra,24(sp)
 413              		.cfi_restore 1
 414 0294 03340101 		ld	s0,16(sp)
 415              		.cfi_restore 8
 416              		.cfi_def_cfa 2, 32
 417 0298 83348100 		ld	s1,8(sp)
 418              		.cfi_restore 9
 419 029c 13010102 		addi	sp,sp,32
 420              		.cfi_def_cfa_offset 0
 421 02a0 67800000 		jr	ra
 422              		.cfi_endproc
 423              	.LFE7:
 425              		.globl	_ZN8_console11initializedE
 426              		.globl	_ZN8_console6outSemE
 427              		.globl	_ZN8_console5inSemE
 428              		.globl	_ZN8_console7outbuffE
GAS LISTING C:\msys64\tmp\ccgT8kty.s 			page 11


 429              		.globl	_ZN8_console6inbuffE
 430              		.section	.sbss,"aw",@nobits
 431              		.align	3
 434              	_ZN8_console11initializedE:
 435 0000 00       		.zero	1
 436 0001 00000000 		.zero	7
 436      000000
 439              	_ZN8_console6outSemE:
 440 0008 00000000 		.zero	8
 440      00000000 
 443              	_ZN8_console5inSemE:
 444 0010 00000000 		.zero	8
 444      00000000 
 447              	_ZN8_console7outbuffE:
 448 0018 00000000 		.zero	8
 448      00000000 
 451              	_ZN8_console6inbuffE:
 452 0020 00000000 		.zero	8
 452      00000000 
 453              		.text
 454              	.Letext0:
 455              		.file 4 "src/../h/../h/../lib/hw.h"
 456              		.file 5 "src/../h/../h/../h/MemoryAllocator.h"
 457              		.file 6 "src/../h/../h/Buffer.h"
 2750              		.align	3
 2753              	DW.ref.__gxx_personality_v0:
 2754 0000 00000000 		.dword	__gxx_personality_v0
 2754      00000000 
 2755              		.ident	"GCC: (GNU) 10.1.0"
GAS LISTING C:\msys64\tmp\ccgT8kty.s 			page 12


DEFINED SYMBOLS
                            *ABS*:0000000000000000 Console.cpp
C:\msys64\tmp\ccgT8kty.s:12     .text:0000000000000000 _ZN8_console10ensureInitEv
C:\msys64\tmp\ccgT8kty.s:16     .text:0000000000000000 .L0 
C:\msys64\tmp\ccgT8kty.s:2753   .sdata.DW.ref.__gxx_personality_v0:0000000000000000 DW.ref.__gxx_personality_v0
C:\msys64\tmp\ccgT8kty.s:19     .text:0000000000000000 .L0 
C:\msys64\tmp\ccgT8kty.s:434    .sbss:0000000000000000 _ZN8_console11initializedE
C:\msys64\tmp\ccgT8kty.s:20     .text:0000000000000000 .L0 
C:\msys64\tmp\ccgT8kty.s:25     .text:0000000000000010 .L0 
C:\msys64\tmp\ccgT8kty.s:26     .text:0000000000000014 .L0 
C:\msys64\tmp\ccgT8kty.s:31     .text:0000000000000024 .L0 
C:\msys64\tmp\ccgT8kty.s:32     .text:0000000000000024 .L0 
C:\msys64\tmp\ccgT8kty.s:33     .text:0000000000000024 .L0 
C:\msys64\tmp\ccgT8kty.s:34     .text:0000000000000024 .L0 
C:\msys64\tmp\ccgT8kty.s:36     .text:0000000000000028 .L0 
C:\msys64\tmp\ccgT8kty.s:38     .text:0000000000000028 .L0 
C:\msys64\tmp\ccgT8kty.s:39     .text:0000000000000028 .L0 
C:\msys64\tmp\ccgT8kty.s:451    .sbss:0000000000000020 _ZN8_console6inbuffE
C:\msys64\tmp\ccgT8kty.s:50     .text:0000000000000040 .L0 
C:\msys64\tmp\ccgT8kty.s:52     .text:0000000000000048 .L0 
C:\msys64\tmp\ccgT8kty.s:53     .text:0000000000000048 .L0 
C:\msys64\tmp\ccgT8kty.s:447    .sbss:0000000000000018 _ZN8_console7outbuffE
C:\msys64\tmp\ccgT8kty.s:64     .text:0000000000000060 .L0 
C:\msys64\tmp\ccgT8kty.s:70     .text:0000000000000068 .L0 
C:\msys64\tmp\ccgT8kty.s:71     .text:0000000000000068 .L0 
C:\msys64\tmp\ccgT8kty.s:72     .text:0000000000000068 .L0 
C:\msys64\tmp\ccgT8kty.s:82     .text:0000000000000078 .L0 
C:\msys64\tmp\ccgT8kty.s:83     .text:0000000000000078 .L0 
C:\msys64\tmp\ccgT8kty.s:443    .sbss:0000000000000010 _ZN8_console5inSemE
C:\msys64\tmp\ccgT8kty.s:89     .text:0000000000000084 .L0 
C:\msys64\tmp\ccgT8kty.s:94     .text:000000000000008c .L0 
C:\msys64\tmp\ccgT8kty.s:95     .text:000000000000008c .L0 
C:\msys64\tmp\ccgT8kty.s:96     .text:000000000000008c .L0 
C:\msys64\tmp\ccgT8kty.s:106    .text:000000000000009c .L0 
C:\msys64\tmp\ccgT8kty.s:107    .text:000000000000009c .L0 
C:\msys64\tmp\ccgT8kty.s:439    .sbss:0000000000000008 _ZN8_console6outSemE
C:\msys64\tmp\ccgT8kty.s:113    .text:00000000000000a8 .L0 
C:\msys64\tmp\ccgT8kty.s:115    .text:00000000000000b0 .L0 
C:\msys64\tmp\ccgT8kty.s:116    .text:00000000000000b0 .L0 
C:\msys64\tmp\ccgT8kty.s:119    .text:00000000000000bc .L0 
C:\msys64\tmp\ccgT8kty.s:120    .text:00000000000000c0 .L0 
C:\msys64\tmp\ccgT8kty.s:121    .text:00000000000000c0 .L0 
C:\msys64\tmp\ccgT8kty.s:123    .text:00000000000000c4 .L0 
C:\msys64\tmp\ccgT8kty.s:124    .text:00000000000000c4 .L0 
C:\msys64\tmp\ccgT8kty.s:126    .text:00000000000000c8 .L0 
C:\msys64\tmp\ccgT8kty.s:129    .text:00000000000000cc .L0 
C:\msys64\tmp\ccgT8kty.s:131    .text:00000000000000d0 .L0 
C:\msys64\tmp\ccgT8kty.s:135    .text:00000000000000d4 .L0 
C:\msys64\tmp\ccgT8kty.s:137    .text:00000000000000d4 .L0 
C:\msys64\tmp\ccgT8kty.s:147    .text:00000000000000f0 .L0 
C:\msys64\tmp\ccgT8kty.s:156    .text:000000000000010c .L0 
C:\msys64\tmp\ccgT8kty.s:165    .text:0000000000000128 .L0 
C:\msys64\tmp\ccgT8kty.s:173    .text:0000000000000144 .L0 
C:\msys64\tmp\ccgT8kty.s:223    .text:0000000000000144 _ZN8_console4getcEv
C:\msys64\tmp\ccgT8kty.s:226    .text:0000000000000144 .L0 
C:\msys64\tmp\ccgT8kty.s:227    .text:0000000000000144 .L0 
C:\msys64\tmp\ccgT8kty.s:228    .text:0000000000000148 .L0 
GAS LISTING C:\msys64\tmp\ccgT8kty.s 			page 13


C:\msys64\tmp\ccgT8kty.s:231    .text:0000000000000150 .L0 
C:\msys64\tmp\ccgT8kty.s:232    .text:0000000000000150 .L0 
C:\msys64\tmp\ccgT8kty.s:234    .text:0000000000000154 .L0 
C:\msys64\tmp\ccgT8kty.s:236    .text:0000000000000154 .L0 
C:\msys64\tmp\ccgT8kty.s:237    .text:0000000000000154 .L0 
C:\msys64\tmp\ccgT8kty.s:240    .text:000000000000015c .L0 
C:\msys64\tmp\ccgT8kty.s:241    .text:000000000000015c .L0 
C:\msys64\tmp\ccgT8kty.s:245    .text:000000000000016c .L0 
C:\msys64\tmp\ccgT8kty.s:246    .text:0000000000000170 .L0 
C:\msys64\tmp\ccgT8kty.s:248    .text:0000000000000174 .L0 
C:\msys64\tmp\ccgT8kty.s:249    .text:0000000000000174 .L0 
C:\msys64\tmp\ccgT8kty.s:251    .text:0000000000000178 .L0 
C:\msys64\tmp\ccgT8kty.s:253    .text:000000000000017c .L0 
C:\msys64\tmp\ccgT8kty.s:259    .text:000000000000017c _ZN8_console4putcEc
C:\msys64\tmp\ccgT8kty.s:262    .text:000000000000017c .L0 
C:\msys64\tmp\ccgT8kty.s:264    .text:000000000000017c .L0 
C:\msys64\tmp\ccgT8kty.s:265    .text:0000000000000180 .L0 
C:\msys64\tmp\ccgT8kty.s:269    .text:000000000000018c .L0 
C:\msys64\tmp\ccgT8kty.s:270    .text:000000000000018c .L0 
C:\msys64\tmp\ccgT8kty.s:271    .text:000000000000018c .L0 
C:\msys64\tmp\ccgT8kty.s:273    .text:0000000000000190 .L0 
C:\msys64\tmp\ccgT8kty.s:276    .text:0000000000000194 .L0 
C:\msys64\tmp\ccgT8kty.s:277    .text:0000000000000194 .L0 
C:\msys64\tmp\ccgT8kty.s:280    .text:000000000000019c .L0 
C:\msys64\tmp\ccgT8kty.s:281    .text:000000000000019c .L0 
C:\msys64\tmp\ccgT8kty.s:287    .text:00000000000001b0 .L0 
C:\msys64\tmp\ccgT8kty.s:288    .text:00000000000001b0 .L0 
C:\msys64\tmp\ccgT8kty.s:289    .text:00000000000001b0 .L0 
C:\msys64\tmp\ccgT8kty.s:292    .text:00000000000001bc .L0 
C:\msys64\tmp\ccgT8kty.s:298    .text:00000000000001c4 .L0 
C:\msys64\tmp\ccgT8kty.s:299    .text:00000000000001c4 .L0 
C:\msys64\tmp\ccgT8kty.s:304    .text:00000000000001cc .L0 
C:\msys64\tmp\ccgT8kty.s:305    .text:00000000000001cc .L0 
C:\msys64\tmp\ccgT8kty.s:309    .text:00000000000001dc .L0 
C:\msys64\tmp\ccgT8kty.s:312    .text:00000000000001e0 .L0 
C:\msys64\tmp\ccgT8kty.s:313    .text:00000000000001e0 .L0 
C:\msys64\tmp\ccgT8kty.s:315    .text:00000000000001e8 .L0 
C:\msys64\tmp\ccgT8kty.s:321    .text:00000000000001f0 .L0 
C:\msys64\tmp\ccgT8kty.s:322    .text:00000000000001f0 .L0 
C:\msys64\tmp\ccgT8kty.s:323    .text:00000000000001f0 .L0 
C:\msys64\tmp\ccgT8kty.s:328    .text:00000000000001f8 .L0 
C:\msys64\tmp\ccgT8kty.s:329    .text:00000000000001f8 .L0 
C:\msys64\tmp\ccgT8kty.s:336    .text:000000000000020c .L0 
C:\msys64\tmp\ccgT8kty.s:337    .text:000000000000020c .L0 
C:\msys64\tmp\ccgT8kty.s:338    .text:000000000000020c .L0 
C:\msys64\tmp\ccgT8kty.s:343    .text:0000000000000214 .L0 
C:\msys64\tmp\ccgT8kty.s:344    .text:0000000000000214 .L0 
C:\msys64\tmp\ccgT8kty.s:349    .text:0000000000000224 .L0 
C:\msys64\tmp\ccgT8kty.s:353    .text:0000000000000228 .L0 
C:\msys64\tmp\ccgT8kty.s:354    .text:0000000000000228 .L0 
C:\msys64\tmp\ccgT8kty.s:355    .text:0000000000000228 .L0 
C:\msys64\tmp\ccgT8kty.s:357    .text:000000000000022c .L0 
C:\msys64\tmp\ccgT8kty.s:362    .text:0000000000000234 .L0 
C:\msys64\tmp\ccgT8kty.s:363    .text:0000000000000234 .L0 
C:\msys64\tmp\ccgT8kty.s:368    .text:000000000000023c .L0 
C:\msys64\tmp\ccgT8kty.s:369    .text:000000000000023c .L0 
C:\msys64\tmp\ccgT8kty.s:373    .text:000000000000024c .L0 
GAS LISTING C:\msys64\tmp\ccgT8kty.s 			page 14


C:\msys64\tmp\ccgT8kty.s:378    .text:0000000000000250 .L0 
C:\msys64\tmp\ccgT8kty.s:379    .text:0000000000000250 .L0 
C:\msys64\tmp\ccgT8kty.s:380    .text:0000000000000250 .L0 
C:\msys64\tmp\ccgT8kty.s:385    .text:0000000000000258 .L0 
C:\msys64\tmp\ccgT8kty.s:386    .text:0000000000000258 .L0 
C:\msys64\tmp\ccgT8kty.s:390    .text:0000000000000268 .L0 
C:\msys64\tmp\ccgT8kty.s:392    .text:0000000000000270 .L0 
C:\msys64\tmp\ccgT8kty.s:396    .text:0000000000000274 .L0 
C:\msys64\tmp\ccgT8kty.s:397    .text:0000000000000274 .L0 
C:\msys64\tmp\ccgT8kty.s:398    .text:0000000000000274 .L0 
C:\msys64\tmp\ccgT8kty.s:403    .text:000000000000027c .L0 
C:\msys64\tmp\ccgT8kty.s:404    .text:000000000000027c .L0 
C:\msys64\tmp\ccgT8kty.s:409    .text:000000000000028c .L0 
C:\msys64\tmp\ccgT8kty.s:412    .text:0000000000000290 .L0 
C:\msys64\tmp\ccgT8kty.s:413    .text:0000000000000294 .L0 
C:\msys64\tmp\ccgT8kty.s:415    .text:0000000000000298 .L0 
C:\msys64\tmp\ccgT8kty.s:416    .text:0000000000000298 .L0 
C:\msys64\tmp\ccgT8kty.s:418    .text:000000000000029c .L0 
C:\msys64\tmp\ccgT8kty.s:420    .text:00000000000002a0 .L0 
C:\msys64\tmp\ccgT8kty.s:422    .text:00000000000002a4 .L0 
C:\msys64\tmp\ccgT8kty.s:458    .text:00000000000002a4 .L0 
C:\msys64\tmp\ccgT8kty.s:20     .text:0000000000000000 .L0 
C:\msys64\tmp\ccgT8kty.s:50     .text:0000000000000040 .L0 
C:\msys64\tmp\ccgT8kty.s:64     .text:0000000000000060 .L0 
C:\msys64\tmp\ccgT8kty.s:89     .text:0000000000000084 .L0 
C:\msys64\tmp\ccgT8kty.s:113    .text:00000000000000a8 .L0 
C:\msys64\tmp\ccgT8kty.s:117    .text:00000000000000b4 .L0 
C:\msys64\tmp\ccgT8kty.s:241    .text:000000000000015c .L0 
C:\msys64\tmp\ccgT8kty.s:282    .text:00000000000001a0 .L0 
C:\msys64\tmp\ccgT8kty.s:289    .text:00000000000001b0 .L0 
C:\msys64\tmp\ccgT8kty.s:305    .text:00000000000001cc .L0 
C:\msys64\tmp\ccgT8kty.s:313    .text:00000000000001e0 .L0 
C:\msys64\tmp\ccgT8kty.s:330    .text:00000000000001fc .L0 
C:\msys64\tmp\ccgT8kty.s:344    .text:0000000000000214 .L0 
C:\msys64\tmp\ccgT8kty.s:369    .text:000000000000023c .L0 
C:\msys64\tmp\ccgT8kty.s:386    .text:0000000000000258 .L0 
C:\msys64\tmp\ccgT8kty.s:390    .text:0000000000000268 .L0 
C:\msys64\tmp\ccgT8kty.s:404    .text:000000000000027c .L0 
C:\msys64\tmp\ccgT8kty.s:23     .text:0000000000000010 .L15
C:\msys64\tmp\ccgT8kty.s:351    .text:0000000000000228 .L23
C:\msys64\tmp\ccgT8kty.s:285    .text:00000000000001b0 .L20
C:\msys64\tmp\ccgT8kty.s:410    .text:0000000000000290 .L18
C:\msys64\tmp\ccgT8kty.s:40     .text:000000000000002c .LEHB0
C:\msys64\tmp\ccgT8kty.s:13     .text:0000000000000000 .LFB5
C:\msys64\tmp\ccgT8kty.s:43     .text:0000000000000034 .LEHE0
C:\msys64\tmp\ccgT8kty.s:45     .text:0000000000000038 .LEHB1
C:\msys64\tmp\ccgT8kty.s:48     .text:0000000000000040 .LEHE1
C:\msys64\tmp\ccgT8kty.s:134    .text:00000000000000d4 .L7
C:\msys64\tmp\ccgT8kty.s:54     .text:000000000000004c .LEHB2
C:\msys64\tmp\ccgT8kty.s:57     .text:0000000000000054 .LEHE2
C:\msys64\tmp\ccgT8kty.s:59     .text:0000000000000058 .LEHB3
C:\msys64\tmp\ccgT8kty.s:62     .text:0000000000000060 .LEHE3
C:\msys64\tmp\ccgT8kty.s:145    .text:00000000000000f0 .L8
C:\msys64\tmp\ccgT8kty.s:73     .text:000000000000006c .LEHB4
C:\msys64\tmp\ccgT8kty.s:76     .text:0000000000000074 .LEHE4
C:\msys64\tmp\ccgT8kty.s:84     .text:000000000000007c .LEHB5
C:\msys64\tmp\ccgT8kty.s:87     .text:0000000000000084 .LEHE5
GAS LISTING C:\msys64\tmp\ccgT8kty.s 			page 15


C:\msys64\tmp\ccgT8kty.s:154    .text:000000000000010c .L9
C:\msys64\tmp\ccgT8kty.s:97     .text:0000000000000090 .LEHB6
C:\msys64\tmp\ccgT8kty.s:100    .text:0000000000000098 .LEHE6
C:\msys64\tmp\ccgT8kty.s:108    .text:00000000000000a0 .LEHB7
C:\msys64\tmp\ccgT8kty.s:111    .text:00000000000000a8 .LEHE7
C:\msys64\tmp\ccgT8kty.s:163    .text:0000000000000128 .L10
C:\msys64\tmp\ccgT8kty.s:142    .text:00000000000000e8 .LEHB8
C:\msys64\tmp\ccgT8kty.s:172    .text:0000000000000144 .LEHE8
C:\msys64\tmp\ccgT8kty.s:1599   .debug_abbrev:0000000000000000 .Ldebug_abbrev0
C:\msys64\tmp\ccgT8kty.s:2579   .debug_str:00000000000000dc .LASF87
C:\msys64\tmp\ccgT8kty.s:2613   .debug_str:00000000000002ad .LASF88
C:\msys64\tmp\ccgT8kty.s:2683   .debug_str:000000000000047f .LASF89
C:\msys64\tmp\ccgT8kty.s:8      .text:0000000000000000 .Ltext0
C:\msys64\tmp\ccgT8kty.s:454    .text:00000000000002a4 .Letext0
C:\msys64\tmp\ccgT8kty.s:2549   .debug_line:0000000000000000 .Ldebug_line0
C:\msys64\tmp\ccgT8kty.s:2659   .debug_str:00000000000003df .LASF0
C:\msys64\tmp\ccgT8kty.s:2667   .debug_str:0000000000000421 .LASF1
C:\msys64\tmp\ccgT8kty.s:2643   .debug_str:0000000000000381 .LASF2
C:\msys64\tmp\ccgT8kty.s:2597   .debug_str:0000000000000216 .LASF3
C:\msys64\tmp\ccgT8kty.s:2623   .debug_str:00000000000002f1 .LASF4
C:\msys64\tmp\ccgT8kty.s:2697   .debug_str:0000000000000515 .LASF5
C:\msys64\tmp\ccgT8kty.s:2567   .debug_str:0000000000000084 .LASF6
C:\msys64\tmp\ccgT8kty.s:2669   .debug_str:0000000000000434 .LASF7
C:\msys64\tmp\ccgT8kty.s:2657   .debug_str:00000000000003cc .LASF8
C:\msys64\tmp\ccgT8kty.s:2681   .debug_str:0000000000000470 .LASF9
C:\msys64\tmp\ccgT8kty.s:2713   .debug_str:0000000000000595 .LASF10
C:\msys64\tmp\ccgT8kty.s:2569   .debug_str:000000000000008b .LASF11
C:\msys64\tmp\ccgT8kty.s:2557   .debug_str:0000000000000039 .LASF12
C:\msys64\tmp\ccgT8kty.s:2577   .debug_str:00000000000000d0 .LASF13
C:\msys64\tmp\ccgT8kty.s:2691   .debug_str:00000000000004e4 .LASF14
C:\msys64\tmp\ccgT8kty.s:2587   .debug_str:00000000000001c4 .LASF15
C:\msys64\tmp\ccgT8kty.s:2637   .debug_str:0000000000000363 .LASF18
C:\msys64\tmp\ccgT8kty.s:2723   .debug_str:00000000000005e9 .LASF90
C:\msys64\tmp\ccgT8kty.s:2745   .debug_str:0000000000000671 .LASF16
C:\msys64\tmp\ccgT8kty.s:2703   .debug_str:0000000000000550 .LASF17
C:\msys64\tmp\ccgT8kty.s:2595   .debug_str:00000000000001fd .LASF19
C:\msys64\tmp\ccgT8kty.s:2719   .debug_str:00000000000005b9 .LASF20
C:\msys64\tmp\ccgT8kty.s:2651   .debug_str:00000000000003b0 .LASF54
C:\msys64\tmp\ccgT8kty.s:2633   .debug_str:0000000000000341 .LASF55
C:\msys64\tmp\ccgT8kty.s:2715   .debug_str:00000000000005a4 .LASF21
C:\msys64\tmp\ccgT8kty.s:2689   .debug_str:00000000000004c5 .LASF23
C:\msys64\tmp\ccgT8kty.s:2581   .debug_str:00000000000001af .LASF22
C:\msys64\tmp\ccgT8kty.s:2555   .debug_str:000000000000001b .LASF24
C:\msys64\tmp\ccgT8kty.s:2673   .debug_str:000000000000044c .LASF73
C:\msys64\tmp\ccgT8kty.s:2709   .debug_str:0000000000000565 .LASF75
C:\msys64\tmp\ccgT8kty.s:2591   .debug_str:00000000000001e7 .LASF25
C:\msys64\tmp\ccgT8kty.s:2627   .debug_str:0000000000000311 .LASF26
C:\msys64\tmp\ccgT8kty.s:2737   .debug_str:0000000000000634 .LASF91
C:\msys64\tmp\ccgT8kty.s:2605   .debug_str:000000000000023b .LASF92
C:\msys64\tmp\ccgT8kty.s:2603   .debug_str:0000000000000236 .LASF27
C:\msys64\tmp\ccgT8kty.s:2621   .debug_str:00000000000002ec .LASF28
C:\msys64\tmp\ccgT8kty.s:2729   .debug_str:0000000000000605 .LASF29
C:\msys64\tmp\ccgT8kty.s:2589   .debug_str:00000000000001da .LASF30
C:\msys64\tmp\ccgT8kty.s:2717   .debug_str:00000000000005ac .LASF31
C:\msys64\tmp\ccgT8kty.s:2601   .debug_str:0000000000000231 .LASF32
C:\msys64\tmp\ccgT8kty.s:2687   .debug_str:00000000000004b5 .LASF33
C:\msys64\tmp\ccgT8kty.s:2585   .debug_str:00000000000001bd .LASF34
GAS LISTING C:\msys64\tmp\ccgT8kty.s 			page 16


C:\msys64\tmp\ccgT8kty.s:2665   .debug_str:000000000000040f .LASF35
C:\msys64\tmp\ccgT8kty.s:2551   .debug_str:0000000000000000 .LASF36
C:\msys64\tmp\ccgT8kty.s:2593   .debug_str:00000000000001ec .LASF37
C:\msys64\tmp\ccgT8kty.s:2647   .debug_str:0000000000000394 .LASF93
C:\msys64\tmp\ccgT8kty.s:2743   .debug_str:0000000000000662 .LASF42
C:\msys64\tmp\ccgT8kty.s:2645   .debug_str:000000000000038f .LASF38
C:\msys64\tmp\ccgT8kty.s:2641   .debug_str:000000000000037a .LASF39
C:\msys64\tmp\ccgT8kty.s:2619   .debug_str:00000000000002e4 .LASF94
C:\msys64\tmp\ccgT8kty.s:2735   .debug_str:000000000000062d .LASF40
C:\msys64\tmp\ccgT8kty.s:2615   .debug_str:00000000000002bd .LASF41
C:\msys64\tmp\ccgT8kty.s:2741   .debug_str:0000000000000651 .LASF43
C:\msys64\tmp\ccgT8kty.s:2693   .debug_str:00000000000004fa .LASF95
C:\msys64\tmp\ccgT8kty.s:2727   .debug_str:00000000000005fe .LASF44
C:\msys64\tmp\ccgT8kty.s:2739   .debug_str:000000000000063d .LASF45
C:\msys64\tmp\ccgT8kty.s:2583   .debug_str:00000000000001b5 .LASF46
C:\msys64\tmp\ccgT8kty.s:2599   .debug_str:000000000000021c .LASF47
C:\msys64\tmp\ccgT8kty.s:2707   .debug_str:000000000000055f .LASF48
C:\msys64\tmp\ccgT8kty.s:2653   .debug_str:00000000000003ba .LASF96
C:\msys64\tmp\ccgT8kty.s:2685   .debug_str:00000000000004ae .LASF49
C:\msys64\tmp\ccgT8kty.s:2671   .debug_str:0000000000000447 .LASF50
C:\msys64\tmp\ccgT8kty.s:2655   .debug_str:00000000000003c3 .LASF51
C:\msys64\tmp\ccgT8kty.s:2565   .debug_str:0000000000000073 .LASF52
C:\msys64\tmp\ccgT8kty.s:2573   .debug_str:00000000000000b6 .LASF53
C:\msys64\tmp\ccgT8kty.s:2721   .debug_str:00000000000005d5 .LASF56
C:\msys64\tmp\ccgT8kty.s:2559   .debug_str:0000000000000049 .LASF58
C:\msys64\tmp\ccgT8kty.s:2731   .debug_str:0000000000000612 .LASF60
C:\msys64\tmp\ccgT8kty.s:2649   .debug_str:00000000000003ab .LASF57
C:\msys64\tmp\ccgT8kty.s:2629   .debug_str:0000000000000318 .LASF97
C:\msys64\tmp\ccgT8kty.s:2695   .debug_str:000000000000050b .LASF59
C:\msys64\tmp\ccgT8kty.s:2625   .debug_str:00000000000002f8 .LASF61
C:\msys64\tmp\ccgT8kty.s:2675   .debug_str:0000000000000451 .LASF62
C:\msys64\tmp\ccgT8kty.s:2607   .debug_str:000000000000026e .LASF63
C:\msys64\tmp\ccgT8kty.s:2611   .debug_str:00000000000002a4 .LASF64
C:\msys64\tmp\ccgT8kty.s:2617   .debug_str:00000000000002cc .LASF65
C:\msys64\tmp\ccgT8kty.s:2705   .debug_str:0000000000000555 .LASF66
C:\msys64\tmp\ccgT8kty.s:2701   .debug_str:0000000000000537 .LASF67
C:\msys64\tmp\ccgT8kty.s:2725   .debug_str:00000000000005f7 .LASF68
C:\msys64\tmp\ccgT8kty.s:2677   .debug_str:000000000000045c .LASF69
C:\msys64\tmp\ccgT8kty.s:2575   .debug_str:00000000000000ca .LASF70
C:\msys64\tmp\ccgT8kty.s:2733   .debug_str:0000000000000626 .LASF71
C:\msys64\tmp\ccgT8kty.s:2679   .debug_str:0000000000000464 .LASF72
C:\msys64\tmp\ccgT8kty.s:2663   .debug_str:0000000000000404 .LASF74
C:\msys64\tmp\ccgT8kty.s:2609   .debug_str:0000000000000289 .LASF76
C:\msys64\tmp\ccgT8kty.s:2553   .debug_str:0000000000000006 .LASF77
C:\msys64\tmp\ccgT8kty.s:2563   .debug_str:000000000000005d .LASF78
C:\msys64\tmp\ccgT8kty.s:2711   .debug_str:0000000000000581 .LASF79
C:\msys64\tmp\ccgT8kty.s:2631   .debug_str:000000000000032c .LASF80
C:\msys64\tmp\ccgT8kty.s:2571   .debug_str:000000000000009b .LASF81
C:\msys64\tmp\ccgT8kty.s:260    .text:000000000000017c .LFB7
C:\msys64\tmp\ccgT8kty.s:423    .text:00000000000002a4 .LFE7
C:\msys64\tmp\ccgT8kty.s:2463   .debug_loc:0000000000000000 .LLST4
C:\msys64\tmp\ccgT8kty.s:310    .text:00000000000001e0 .LBB26
C:\msys64\tmp\ccgT8kty.s:347    .text:0000000000000224 .LBE26
C:\msys64\tmp\ccgT8kty.s:2477   .debug_loc:0000000000000039 .LLST5
C:\msys64\tmp\ccgT8kty.s:319    .text:00000000000001f0 .LBB27
C:\msys64\tmp\ccgT8kty.s:327    .text:00000000000001f8 .LBE27
C:\msys64\tmp\ccgT8kty.s:324    .text:00000000000001f8 .LVL30
GAS LISTING C:\msys64\tmp\ccgT8kty.s 			page 17


C:\msys64\tmp\ccgT8kty.s:334    .text:000000000000020c .LBB29
C:\msys64\tmp\ccgT8kty.s:342    .text:0000000000000214 .LBE29
C:\msys64\tmp\ccgT8kty.s:339    .text:0000000000000214 .LVL32
C:\msys64\tmp\ccgT8kty.s:332    .text:000000000000020c .LVL31
C:\msys64\tmp\ccgT8kty.s:346    .text:0000000000000224 .LVL33
C:\msys64\tmp\ccgT8kty.s:374    .text:0000000000000250 .LBB33
C:\msys64\tmp\ccgT8kty.s:407    .text:000000000000028c .LBE33
C:\msys64\tmp\ccgT8kty.s:2484   .debug_loc:000000000000005c .LLST6
C:\msys64\tmp\ccgT8kty.s:376    .text:0000000000000250 .LBB34
C:\msys64\tmp\ccgT8kty.s:384    .text:0000000000000258 .LBE34
C:\msys64\tmp\ccgT8kty.s:381    .text:0000000000000258 .LVL37
C:\msys64\tmp\ccgT8kty.s:394    .text:0000000000000274 .LBB36
C:\msys64\tmp\ccgT8kty.s:402    .text:000000000000027c .LBE36
C:\msys64\tmp\ccgT8kty.s:399    .text:000000000000027c .LVL39
C:\msys64\tmp\ccgT8kty.s:388    .text:0000000000000268 .LVL38
C:\msys64\tmp\ccgT8kty.s:406    .text:000000000000028c .LVL40
C:\msys64\tmp\ccgT8kty.s:294    .text:00000000000001c4 .LBB24
C:\msys64\tmp\ccgT8kty.s:303    .text:00000000000001cc .LBE24
C:\msys64\tmp\ccgT8kty.s:300    .text:00000000000001cc .LVL27
C:\msys64\tmp\ccgT8kty.s:359    .text:0000000000000234 .LBB31
C:\msys64\tmp\ccgT8kty.s:367    .text:000000000000023c .LBE31
C:\msys64\tmp\ccgT8kty.s:364    .text:000000000000023c .LVL35
C:\msys64\tmp\ccgT8kty.s:278    .text:000000000000019c .LVL25
C:\msys64\tmp\ccgT8kty.s:284    .text:00000000000001b0 .LVL26
C:\msys64\tmp\ccgT8kty.s:307    .text:00000000000001dc .LVL28
C:\msys64\tmp\ccgT8kty.s:371    .text:000000000000024c .LVL36
C:\msys64\tmp\ccgT8kty.s:224    .text:0000000000000144 .LFB6
C:\msys64\tmp\ccgT8kty.s:254    .text:000000000000017c .LFE6
C:\msys64\tmp\ccgT8kty.s:238    .text:000000000000015c .LVL22
C:\msys64\tmp\ccgT8kty.s:243    .text:000000000000016c .LVL23
C:\msys64\tmp\ccgT8kty.s:174    .text:0000000000000144 .LFE5
C:\msys64\tmp\ccgT8kty.s:67     .text:0000000000000068 .LBB20
C:\msys64\tmp\ccgT8kty.s:81     .text:0000000000000078 .LBE20
C:\msys64\tmp\ccgT8kty.s:2491   .debug_loc:000000000000007f .LLST0
C:\msys64\tmp\ccgT8kty.s:2500   .debug_loc:00000000000000a4 .LLST1
C:\msys64\tmp\ccgT8kty.s:75     .text:0000000000000074 .LVL5
C:\msys64\tmp\ccgT8kty.s:92     .text:000000000000008c .LBB22
C:\msys64\tmp\ccgT8kty.s:105    .text:000000000000009c .LBE22
C:\msys64\tmp\ccgT8kty.s:2511   .debug_loc:00000000000000da .LLST2
C:\msys64\tmp\ccgT8kty.s:2520   .debug_loc:00000000000000ff .LLST3
C:\msys64\tmp\ccgT8kty.s:99     .text:0000000000000098 .LVL9
C:\msys64\tmp\ccgT8kty.s:42     .text:0000000000000034 .LVL0
C:\msys64\tmp\ccgT8kty.s:47     .text:0000000000000040 .LVL1
C:\msys64\tmp\ccgT8kty.s:56     .text:0000000000000054 .LVL2
C:\msys64\tmp\ccgT8kty.s:61     .text:0000000000000060 .LVL3
C:\msys64\tmp\ccgT8kty.s:86     .text:0000000000000084 .LVL7
C:\msys64\tmp\ccgT8kty.s:110    .text:00000000000000a8 .LVL11
C:\msys64\tmp\ccgT8kty.s:140    .text:00000000000000e4 .LVL14
C:\msys64\tmp\ccgT8kty.s:144    .text:00000000000000f0 .LVL15
C:\msys64\tmp\ccgT8kty.s:150    .text:0000000000000100 .LVL16
C:\msys64\tmp\ccgT8kty.s:153    .text:000000000000010c .LVL17
C:\msys64\tmp\ccgT8kty.s:159    .text:000000000000011c .LVL18
C:\msys64\tmp\ccgT8kty.s:162    .text:0000000000000128 .LVL19
C:\msys64\tmp\ccgT8kty.s:168    .text:0000000000000138 .LVL20
C:\msys64\tmp\ccgT8kty.s:171    .text:0000000000000144 .LVL21
C:\msys64\tmp\ccgT8kty.s:2635   .debug_str:000000000000035d .LASF82
C:\msys64\tmp\ccgT8kty.s:2639   .debug_str:0000000000000373 .LASF83
GAS LISTING C:\msys64\tmp\ccgT8kty.s 			page 18


C:\msys64\tmp\ccgT8kty.s:2699   .debug_str:0000000000000527 .LASF84
C:\msys64\tmp\ccgT8kty.s:2561   .debug_str:000000000000004e .LASF85
C:\msys64\tmp\ccgT8kty.s:2661   .debug_str:00000000000003ec .LASF86
C:\msys64\tmp\ccgT8kty.s:263    .text:000000000000017c .LVL24
C:\msys64\tmp\ccgT8kty.s:317    .text:00000000000001f0 .LVL29
C:\msys64\tmp\ccgT8kty.s:350    .text:0000000000000228 .LVL34
C:\msys64\tmp\ccgT8kty.s:66     .text:0000000000000068 .LVL4
C:\msys64\tmp\ccgT8kty.s:78     .text:0000000000000078 .LVL6
C:\msys64\tmp\ccgT8kty.s:102    .text:000000000000009c .LVL10
C:\msys64\tmp\ccgT8kty.s:91     .text:000000000000008c .LVL8
C:\msys64\tmp\ccgT8kty.s:127    .text:00000000000000c8 .LVL12
C:\msys64\tmp\ccgT8kty.s:133    .text:00000000000000d4 .LVL13
C:\msys64\tmp\ccgT8kty.s:459    .debug_info:0000000000000000 .Ldebug_info0
C:\msys64\tmp\ccgT8kty.s:177    .gcc_except_table:0000000000000000 .LLSDA5

UNDEFINED SYMBOLS
_Znwm
_ZN6BufferC1Ev
_ZN15MemoryAllocator7kmallocEm
_ZN4_semC1Ei
_ZdlPv
_Unwind_Resume
__gxx_personality_v0
_ZN6Buffer3getEv
_ZN6Buffer3putEc
CONSOLE_STATUS
_ZN6Buffer6isFullEv
CONSOLE_RX_DATA
_ZN4_sem6signalEv
_ZN6Buffer7isEmptyEv
CONSOLE_TX_DATA
