GAS LISTING C:\msys64\tmp\ccFKwCEe.s 			page 1


   1              		.file	"main.cpp"
   2              		.option nopic
   3              		.option norelax
   4              		.attribute arch, "rv64i2p0_m2p0_a2p0"
   5              		.attribute unaligned_access, 0
   6              		.attribute stack_align, 16
   7              		.text
   8              	.Ltext0:
   9              		.align	2
  10              		.globl	_Z11testwrapperPv
  12              	_Z11testwrapperPv:
  13              	.LFB31:
  14              		.file 1 "src/main.cpp"
   1:src/main.cpp  **** #include "../h/syscall_cpp.hpp"
   2:src/main.cpp  **** #include "../h/riscv.h"
   3:src/main.cpp  **** #include "../h/Thread.h"
   4:src/main.cpp  **** 
   5:src/main.cpp  **** sem_t mainsem;
   6:src/main.cpp  **** extern void userMain();
   7:src/main.cpp  **** void testwrapper(void *)
   8:src/main.cpp  **** {
  15              		.loc 1 8 1
  16              		.cfi_startproc
  17 0000 130101FF 		addi	sp,sp,-16
  18              		.cfi_def_cfa_offset 16
  19 0004 23341100 		sd	ra,8(sp)
  20 0008 23308100 		sd	s0,0(sp)
  21              		.cfi_offset 1, -8
  22              		.cfi_offset 8, -16
  23 000c 13040101 		addi	s0,sp,16
  24              		.cfi_def_cfa 8, 0
   9:src/main.cpp  ****     userMain();
  25              		.loc 1 9 5
  26              		.loc 1 9 13 is_stmt 0
  27 0010 97000000 		call	_Z8userMainv
  27      E7800000 
  28              	.LVL0:
  10:src/main.cpp  ****     sem_signal(mainsem);
  29              		.loc 1 10 5 is_stmt 1
  30              		.loc 1 10 15 is_stmt 0
  31 0018 17050000 		ld	a0,mainsem
  31      03350500 
  32 0020 97000000 		call	_Z10sem_signalP4_sem
  32      E7800000 
  33              	.LVL1:
  11:src/main.cpp  **** }
  34              		.loc 1 11 1
  35 0028 83308100 		ld	ra,8(sp)
  36              		.cfi_restore 1
  37 002c 03340100 		ld	s0,0(sp)
  38              		.cfi_restore 8
  39              		.cfi_def_cfa 2, 16
  40 0030 13010101 		addi	sp,sp,16
  41              		.cfi_def_cfa_offset 0
  42 0034 67800000 		jr	ra
  43              		.cfi_endproc
  44              	.LFE31:
GAS LISTING C:\msys64\tmp\ccFKwCEe.s 			page 2


  46              		.align	2
  47              		.globl	_Z5idlefPv
  49              	_Z5idlefPv:
  50              	.LFB32:
  12:src/main.cpp  **** void idlef(void *)
  13:src/main.cpp  **** {
  51              		.loc 1 13 1 is_stmt 1
  52              		.cfi_startproc
  53 0038 130101FF 		addi	sp,sp,-16
  54              		.cfi_def_cfa_offset 16
  55 003c 23341100 		sd	ra,8(sp)
  56 0040 23308100 		sd	s0,0(sp)
  57              		.cfi_offset 1, -8
  58              		.cfi_offset 8, -16
  59 0044 13040101 		addi	s0,sp,16
  60              		.cfi_def_cfa 8, 0
  61              	.L4:
  14:src/main.cpp  ****     while (1)
  62              		.loc 1 14 5 discriminator 1
  15:src/main.cpp  ****         thread_dispatch();
  63              		.loc 1 15 9 discriminator 1
  64              		.loc 1 15 24 is_stmt 0 discriminator 1
  65 0048 97000000 		call	_Z15thread_dispatchv
  65      E7800000 
  66              	.LVL2:
  14:src/main.cpp  ****     while (1)
  67              		.loc 1 14 5 is_stmt 1 discriminator 1
  68 0050 6FF09FFF 		j	.L4
  69              		.cfi_endproc
  70              	.LFE32:
  72              		.align	2
  73              		.globl	main
  75              	main:
  76              	.LFB33:
  16:src/main.cpp  **** }
  17:src/main.cpp  **** 
  18:src/main.cpp  **** int main()
  19:src/main.cpp  **** {
  77              		.loc 1 19 1
  78              		.cfi_startproc
  79 0054 130101FD 		addi	sp,sp,-48
  80              		.cfi_def_cfa_offset 48
  81 0058 23341102 		sd	ra,40(sp)
  82 005c 23308102 		sd	s0,32(sp)
  83              		.cfi_offset 1, -8
  84              		.cfi_offset 8, -16
  85 0060 13040103 		addi	s0,sp,48
  86              		.cfi_def_cfa 8, 0
  20:src/main.cpp  **** 
  21:src/main.cpp  ****     Riscv::w_stvec((uint64)&Riscv::supervisorTrap);
  87              		.loc 1 21 5
  88              		.loc 1 21 19 is_stmt 0
  89 0064 97070000 		lla	a5,_ZN5Riscv14supervisorTrapEv
  89      93870700 
  90              	.LVL3:
  91              	.LBB4:
  92              	.LBB5:
GAS LISTING C:\msys64\tmp\ccFKwCEe.s 			page 3


  93              		.file 2 "src/../h/riscv.h"
   1:src/../h/riscv.h **** //
   2:src/../h/riscv.h **** // Created by os on 3/31/26.
   3:src/../h/riscv.h **** //
   4:src/../h/riscv.h **** 
   5:src/../h/riscv.h **** #ifndef PROJECT_BASE_RISCB_H
   6:src/../h/riscv.h **** #define PROJECT_BASE_RISCB_H
   7:src/../h/riscv.h **** #include "../lib/hw.h"
   8:src/../h/riscv.h **** 
   9:src/../h/riscv.h **** class Riscv
  10:src/../h/riscv.h **** {
  11:src/../h/riscv.h **** public:
  12:src/../h/riscv.h ****     static void popSppSpie();
  13:src/../h/riscv.h **** 
  14:src/../h/riscv.h ****     static uint64 r_scause();
  15:src/../h/riscv.h **** 
  16:src/../h/riscv.h ****     static void w_scause(uint64 scause);
  17:src/../h/riscv.h **** 
  18:src/../h/riscv.h ****     static uint64 r_sepc();
  19:src/../h/riscv.h **** 
  20:src/../h/riscv.h ****     static void w_sepc(uint64 sepc);
  21:src/../h/riscv.h **** 
  22:src/../h/riscv.h ****     static uint64 r_stvec();
  23:src/../h/riscv.h **** 
  24:src/../h/riscv.h ****     static void w_stvec(uint64 stvec);
  25:src/../h/riscv.h **** 
  26:src/../h/riscv.h ****     static uint64 r_stval();
  27:src/../h/riscv.h **** 
  28:src/../h/riscv.h ****     static void w_stval(uint64 stval);
  29:src/../h/riscv.h **** 
  30:src/../h/riscv.h ****     enum BitMaskSip
  31:src/../h/riscv.h ****     {
  32:src/../h/riscv.h ****         SIP_SSIP = (1 << 1),
  33:src/../h/riscv.h ****         SIP_STIP = (1 << 5),
  34:src/../h/riscv.h ****         SIP_SEIP = (1 << 9),
  35:src/../h/riscv.h ****     };
  36:src/../h/riscv.h **** 
  37:src/../h/riscv.h ****     static void ms_sip(uint64 mask);
  38:src/../h/riscv.h **** 
  39:src/../h/riscv.h ****     static void mc_sip(uint64 mask);
  40:src/../h/riscv.h **** 
  41:src/../h/riscv.h ****     static uint64 r_sip();
  42:src/../h/riscv.h **** 
  43:src/../h/riscv.h ****     static void w_sip(uint64 sip);
  44:src/../h/riscv.h **** 
  45:src/../h/riscv.h ****     enum BitMaskSstatus
  46:src/../h/riscv.h ****     {
  47:src/../h/riscv.h ****         SSTATUS_SIE = (1 << 1),
  48:src/../h/riscv.h ****         SSTATUS_SPIE = (1 << 5),
  49:src/../h/riscv.h ****         SSTATUS_SPP = (1 << 8),
  50:src/../h/riscv.h ****     };
  51:src/../h/riscv.h **** 
  52:src/../h/riscv.h ****     static void ms_sstatus(uint64 mask);
  53:src/../h/riscv.h **** 
  54:src/../h/riscv.h ****     static void mc_sstatus(uint64 mask);
  55:src/../h/riscv.h **** 
  56:src/../h/riscv.h ****     static uint64 r_sstatus();
GAS LISTING C:\msys64\tmp\ccFKwCEe.s 			page 4


  57:src/../h/riscv.h **** 
  58:src/../h/riscv.h ****     static void w_sstatus(uint64 sstatus);
  59:src/../h/riscv.h **** 
  60:src/../h/riscv.h ****     static uint64 readARegister(int reg_number);
  61:src/../h/riscv.h **** 
  62:src/../h/riscv.h ****     static void writeARegister(int reg_number, uint64 value);
  63:src/../h/riscv.h **** 
  64:src/../h/riscv.h ****     static void supervisorTrap();
  65:src/../h/riscv.h **** 
  66:src/../h/riscv.h **** private:
  67:src/../h/riscv.h ****     static void handleSupervisorTrap(uint64 a0, uint64 a1, uint64 a2, uint64 a3, uint64 a4, uint64 
  68:src/../h/riscv.h **** };
  69:src/../h/riscv.h **** 
  70:src/../h/riscv.h **** inline uint64 Riscv::r_scause()
  71:src/../h/riscv.h **** {
  72:src/../h/riscv.h ****     uint64 volatile scause;
  73:src/../h/riscv.h ****     __asm__ volatile("csrr %[scause], scause" : [scause] "=r"(scause));
  74:src/../h/riscv.h ****     return scause;
  75:src/../h/riscv.h **** }
  76:src/../h/riscv.h **** 
  77:src/../h/riscv.h **** inline void Riscv::w_scause(uint64 scause)
  78:src/../h/riscv.h **** {
  79:src/../h/riscv.h ****     __asm__ volatile("csrw scause, %[scause]" : : [scause] "r"(scause));
  80:src/../h/riscv.h **** }
  81:src/../h/riscv.h **** 
  82:src/../h/riscv.h **** inline uint64 Riscv::r_sepc()
  83:src/../h/riscv.h **** {
  84:src/../h/riscv.h ****     uint64 volatile sepc;
  85:src/../h/riscv.h ****     __asm__ volatile("csrr %[sepc], sepc" : [sepc] "=r"(sepc));
  86:src/../h/riscv.h ****     return sepc;
  87:src/../h/riscv.h **** }
  88:src/../h/riscv.h **** 
  89:src/../h/riscv.h **** inline void Riscv::w_sepc(uint64 sepc)
  90:src/../h/riscv.h **** {
  91:src/../h/riscv.h ****     __asm__ volatile("csrw sepc, %[sepc]" : : [sepc] "r"(sepc));
  92:src/../h/riscv.h **** }
  93:src/../h/riscv.h **** 
  94:src/../h/riscv.h **** inline uint64 Riscv::r_stvec()
  95:src/../h/riscv.h **** {
  96:src/../h/riscv.h ****     uint64 volatile stvec;
  97:src/../h/riscv.h ****     __asm__ volatile("csrr %[stvec], stvec" : [stvec] "=r"(stvec));
  98:src/../h/riscv.h ****     return stvec;
  99:src/../h/riscv.h **** }
 100:src/../h/riscv.h **** 
 101:src/../h/riscv.h **** inline void Riscv::w_stvec(uint64 stvec)
 102:src/../h/riscv.h **** {
 103:src/../h/riscv.h ****     __asm__ volatile("csrw stvec, %[stvec]" : : [stvec] "r"(stvec));
  94              		.loc 2 103 5 is_stmt 1
  95              	 #APP
  96              	# 103 "src/../h/riscv.h" 1
 104              	}
  97              		csrw stvec, a5
  98              	# 0 "" 2
  99              	.LVL4:
 100              	 #NO_APP
 101              	.LBE5:
 102              	.LBE4:
GAS LISTING C:\msys64\tmp\ccFKwCEe.s 			page 5


  22:src/main.cpp  **** 
  23:src/main.cpp  ****     // Registruj main nit
  24:src/main.cpp  ****     thread_t mainHandle;
 103              		.loc 1 24 5
  25:src/main.cpp  ****     thread_create(&mainHandle, nullptr, nullptr);
 104              		.loc 1 25 5
 105              		.loc 1 25 18 is_stmt 0
 106 0070 13060000 		li	a2,0
 107 0074 93050000 		li	a1,0
 108 0078 130584FE 		addi	a0,s0,-24
 109 007c 97000000 		call	_Z13thread_createPP7_threadPFvPvES2_
 109      E7800000 
 110              	.LVL5:
  26:src/main.cpp  ****     _thread::running = (_thread *)mainHandle;
 111              		.loc 1 26 5 is_stmt 1
 112              		.loc 1 26 22 is_stmt 0
 113 0084 833784FE 		ld	a5,-24(s0)
 114 0088 17070000 		sd	a5,_ZN7_thread7runningE,a4
 114      2330F700 
  27:src/main.cpp  **** 
  28:src/main.cpp  ****     // Kreiraj idle nit
  29:src/main.cpp  ****     thread_t idleHandle;
 115              		.loc 1 29 5 is_stmt 1
  30:src/main.cpp  ****     thread_create(&idleHandle, idlef, nullptr);
 116              		.loc 1 30 5
 117              		.loc 1 30 18 is_stmt 0
 118 0090 13060000 		li	a2,0
 119 0094 97050000 		lla	a1,_Z5idlefPv
 119      93850500 
 120 009c 130504FE 		addi	a0,s0,-32
 121 00a0 97000000 		call	_Z13thread_createPP7_threadPFvPvES2_
 121      E7800000 
 122              	.LVL6:
  31:src/main.cpp  **** 
  32:src/main.cpp  ****     sem_open(&mainsem, 0);
 123              		.loc 1 32 5 is_stmt 1
 124              		.loc 1 32 13 is_stmt 0
 125 00a8 93050000 		li	a1,0
 126 00ac 17050000 		lla	a0,mainsem
 126      13050500 
 127 00b4 97000000 		call	_Z8sem_openPP4_semj
 127      E7800000 
 128              	.LVL7:
  33:src/main.cpp  **** 
  34:src/main.cpp  ****     thread_t testthread;
 129              		.loc 1 34 5 is_stmt 1
  35:src/main.cpp  ****     thread_create(&testthread, testwrapper, nullptr);
 130              		.loc 1 35 5
 131              		.loc 1 35 18 is_stmt 0
 132 00bc 13060000 		li	a2,0
 133 00c0 97050000 		lla	a1,_Z11testwrapperPv
 133      93850500 
 134 00c8 130584FD 		addi	a0,s0,-40
 135 00cc 97000000 		call	_Z13thread_createPP7_threadPFvPvES2_
 135      E7800000 
 136              	.LVL8:
  36:src/main.cpp  **** 
GAS LISTING C:\msys64\tmp\ccFKwCEe.s 			page 6


  37:src/main.cpp  ****     sem_wait(mainsem);
 137              		.loc 1 37 5 is_stmt 1
 138              		.loc 1 37 13 is_stmt 0
 139 00d4 17050000 		ld	a0,mainsem
 139      03350500 
 140 00dc 97000000 		call	_Z8sem_waitP4_sem
 140      E7800000 
 141              	.LVL9:
  38:src/main.cpp  **** 
  39:src/main.cpp  ****     return 0;
 142              		.loc 1 39 5 is_stmt 1
  40:src/main.cpp  **** }...
 143              		.loc 1 40 1 is_stmt 0
 144 00e4 13050000 		li	a0,0
 145 00e8 83308102 		ld	ra,40(sp)
 146              		.cfi_restore 1
 147 00ec 03340102 		ld	s0,32(sp)
 148              		.cfi_restore 8
 149              		.cfi_def_cfa 2, 48
 150 00f0 13010103 		addi	sp,sp,48
 151              		.cfi_def_cfa_offset 0
 152 00f4 67800000 		jr	ra
 153              		.cfi_endproc
 154              	.LFE33:
 156              		.globl	mainsem
 157              		.section	.sbss,"aw",@nobits
 158              		.align	3
 161              	mainsem:
 162 0000 00000000 		.zero	8
 162      00000000 
 163              		.text
 164              	.Letext0:
 165              		.file 3 "src/../h/../lib/hw.h"
 166              		.file 4 "src/../h/syscall_c.h"
 167              		.file 5 "src/../h/Thread.h"
GAS LISTING C:\msys64\tmp\ccFKwCEe.s 			page 7


DEFINED SYMBOLS
                            *ABS*:0000000000000000 main.cpp
C:\msys64\tmp\ccFKwCEe.s:12     .text:0000000000000000 _Z11testwrapperPv
C:\msys64\tmp\ccFKwCEe.s:16     .text:0000000000000000 .L0 
C:\msys64\tmp\ccFKwCEe.s:17     .text:0000000000000000 .L0 
C:\msys64\tmp\ccFKwCEe.s:18     .text:0000000000000004 .L0 
C:\msys64\tmp\ccFKwCEe.s:21     .text:000000000000000c .L0 
C:\msys64\tmp\ccFKwCEe.s:22     .text:000000000000000c .L0 
C:\msys64\tmp\ccFKwCEe.s:24     .text:0000000000000010 .L0 
C:\msys64\tmp\ccFKwCEe.s:26     .text:0000000000000010 .L0 
C:\msys64\tmp\ccFKwCEe.s:27     .text:0000000000000010 .L0 
C:\msys64\tmp\ccFKwCEe.s:30     .text:0000000000000018 .L0 
C:\msys64\tmp\ccFKwCEe.s:161    .sbss:0000000000000000 mainsem
C:\msys64\tmp\ccFKwCEe.s:31     .text:0000000000000018 .L0 
C:\msys64\tmp\ccFKwCEe.s:35     .text:0000000000000028 .L0 
C:\msys64\tmp\ccFKwCEe.s:36     .text:000000000000002c .L0 
C:\msys64\tmp\ccFKwCEe.s:38     .text:0000000000000030 .L0 
C:\msys64\tmp\ccFKwCEe.s:39     .text:0000000000000030 .L0 
C:\msys64\tmp\ccFKwCEe.s:41     .text:0000000000000034 .L0 
C:\msys64\tmp\ccFKwCEe.s:43     .text:0000000000000038 .L0 
C:\msys64\tmp\ccFKwCEe.s:49     .text:0000000000000038 _Z5idlefPv
C:\msys64\tmp\ccFKwCEe.s:52     .text:0000000000000038 .L0 
C:\msys64\tmp\ccFKwCEe.s:53     .text:0000000000000038 .L0 
C:\msys64\tmp\ccFKwCEe.s:54     .text:000000000000003c .L0 
C:\msys64\tmp\ccFKwCEe.s:57     .text:0000000000000044 .L0 
C:\msys64\tmp\ccFKwCEe.s:58     .text:0000000000000044 .L0 
C:\msys64\tmp\ccFKwCEe.s:60     .text:0000000000000048 .L0 
C:\msys64\tmp\ccFKwCEe.s:63     .text:0000000000000048 .L0 
C:\msys64\tmp\ccFKwCEe.s:64     .text:0000000000000048 .L0 
C:\msys64\tmp\ccFKwCEe.s:65     .text:0000000000000048 .L0 
C:\msys64\tmp\ccFKwCEe.s:68     .text:0000000000000050 .L0 
C:\msys64\tmp\ccFKwCEe.s:69     .text:0000000000000054 .L0 
C:\msys64\tmp\ccFKwCEe.s:75     .text:0000000000000054 main
C:\msys64\tmp\ccFKwCEe.s:78     .text:0000000000000054 .L0 
C:\msys64\tmp\ccFKwCEe.s:79     .text:0000000000000054 .L0 
C:\msys64\tmp\ccFKwCEe.s:80     .text:0000000000000058 .L0 
C:\msys64\tmp\ccFKwCEe.s:83     .text:0000000000000060 .L0 
C:\msys64\tmp\ccFKwCEe.s:84     .text:0000000000000060 .L0 
C:\msys64\tmp\ccFKwCEe.s:86     .text:0000000000000064 .L0 
C:\msys64\tmp\ccFKwCEe.s:88     .text:0000000000000064 .L0 
C:\msys64\tmp\ccFKwCEe.s:89     .text:0000000000000064 .L0 
    src/../h/riscv.h:103    .text:000000000000006c .L0 
C:\msys64\tmp\ccFKwCEe.s:104    .text:0000000000000070 .L0 
C:\msys64\tmp\ccFKwCEe.s:105    .text:0000000000000070 .L0 
C:\msys64\tmp\ccFKwCEe.s:106    .text:0000000000000070 .L0 
C:\msys64\tmp\ccFKwCEe.s:112    .text:0000000000000084 .L0 
C:\msys64\tmp\ccFKwCEe.s:113    .text:0000000000000084 .L0 
C:\msys64\tmp\ccFKwCEe.s:116    .text:0000000000000090 .L0 
C:\msys64\tmp\ccFKwCEe.s:117    .text:0000000000000090 .L0 
C:\msys64\tmp\ccFKwCEe.s:118    .text:0000000000000090 .L0 
C:\msys64\tmp\ccFKwCEe.s:124    .text:00000000000000a8 .L0 
C:\msys64\tmp\ccFKwCEe.s:125    .text:00000000000000a8 .L0 
C:\msys64\tmp\ccFKwCEe.s:130    .text:00000000000000bc .L0 
C:\msys64\tmp\ccFKwCEe.s:131    .text:00000000000000bc .L0 
C:\msys64\tmp\ccFKwCEe.s:132    .text:00000000000000bc .L0 
C:\msys64\tmp\ccFKwCEe.s:138    .text:00000000000000d4 .L0 
C:\msys64\tmp\ccFKwCEe.s:139    .text:00000000000000d4 .L0 
GAS LISTING C:\msys64\tmp\ccFKwCEe.s 			page 8


C:\msys64\tmp\ccFKwCEe.s:143    .text:00000000000000e4 .L0 
C:\msys64\tmp\ccFKwCEe.s:144    .text:00000000000000e4 .L0 
C:\msys64\tmp\ccFKwCEe.s:146    .text:00000000000000ec .L0 
C:\msys64\tmp\ccFKwCEe.s:148    .text:00000000000000f0 .L0 
C:\msys64\tmp\ccFKwCEe.s:149    .text:00000000000000f0 .L0 
C:\msys64\tmp\ccFKwCEe.s:151    .text:00000000000000f4 .L0 
C:\msys64\tmp\ccFKwCEe.s:153    .text:00000000000000f8 .L0 
C:\msys64\tmp\ccFKwCEe.s:168    .text:00000000000000f8 .L0 
C:\msys64\tmp\ccFKwCEe.s:31     .text:0000000000000018 .L0 
C:\msys64\tmp\ccFKwCEe.s:89     .text:0000000000000064 .L0 
C:\msys64\tmp\ccFKwCEe.s:114    .text:0000000000000088 .L0 
C:\msys64\tmp\ccFKwCEe.s:119    .text:0000000000000094 .L0 
C:\msys64\tmp\ccFKwCEe.s:126    .text:00000000000000ac .L0 
C:\msys64\tmp\ccFKwCEe.s:133    .text:00000000000000c0 .L0 
C:\msys64\tmp\ccFKwCEe.s:139    .text:00000000000000d4 .L0 
C:\msys64\tmp\ccFKwCEe.s:61     .text:0000000000000048 .L4
C:\msys64\tmp\ccFKwCEe.s:1067   .debug_abbrev:0000000000000000 .Ldebug_abbrev0
C:\msys64\tmp\ccFKwCEe.s:1840   .debug_str:0000000000000122 .LASF110
C:\msys64\tmp\ccFKwCEe.s:1910   .debug_str:00000000000003bc .LASF111
C:\msys64\tmp\ccFKwCEe.s:1972   .debug_str:000000000000055c .LASF112
C:\msys64\tmp\ccFKwCEe.s:8      .text:0000000000000000 .Ltext0
C:\msys64\tmp\ccFKwCEe.s:164    .text:00000000000000f8 .Letext0
C:\msys64\tmp\ccFKwCEe.s:1798   .debug_line:0000000000000000 .Ldebug_line0
C:\msys64\tmp\ccFKwCEe.s:1936   .debug_str:0000000000000494 .LASF0
C:\msys64\tmp\ccFKwCEe.s:1954   .debug_str:00000000000004e6 .LASF1
C:\msys64\tmp\ccFKwCEe.s:1924   .debug_str:0000000000000430 .LASF2
C:\msys64\tmp\ccFKwCEe.s:1896   .debug_str:000000000000037a .LASF4
C:\msys64\tmp\ccFKwCEe.s:1996   .debug_str:000000000000067e .LASF3
C:\msys64\tmp\ccFKwCEe.s:1824   .debug_str:00000000000000b0 .LASF5
C:\msys64\tmp\ccFKwCEe.s:1850   .debug_str:0000000000000236 .LASF6
C:\msys64\tmp\ccFKwCEe.s:1956   .debug_str:00000000000004f9 .LASF7
C:\msys64\tmp\ccFKwCEe.s:1934   .debug_str:0000000000000481 .LASF8
C:\msys64\tmp\ccFKwCEe.s:1970   .debug_str:000000000000054d .LASF9
C:\msys64\tmp\ccFKwCEe.s:1838   .debug_str:0000000000000116 .LASF10
C:\msys64\tmp\ccFKwCEe.s:1988   .debug_str:0000000000000635 .LASF11
C:\msys64\tmp\ccFKwCEe.s:1844   .debug_str:00000000000001fe .LASF12
C:\msys64\tmp\ccFKwCEe.s:1800   .debug_str:0000000000000000 .LASF13
C:\msys64\tmp\ccFKwCEe.s:1892   .debug_str:000000000000036d .LASF44
C:\msys64\tmp\ccFKwCEe.s:1812   .debug_str:000000000000004c .LASF113
C:\msys64\tmp\ccFKwCEe.s:2038   .debug_str:00000000000007b3 .LASF14
C:\msys64\tmp\ccFKwCEe.s:1992   .debug_str:0000000000000656 .LASF16
C:\msys64\tmp\ccFKwCEe.s:2022   .debug_str:0000000000000750 .LASF15
C:\msys64\tmp\ccFKwCEe.s:1962   .debug_str:0000000000000529 .LASF17
C:\msys64\tmp\ccFKwCEe.s:1908   .debug_str:00000000000003af .LASF18
C:\msys64\tmp\ccFKwCEe.s:1870   .debug_str:00000000000002aa .LASF19
C:\msys64\tmp\ccFKwCEe.s:1826   .debug_str:00000000000000b7 .LASF114
C:\msys64\tmp\ccFKwCEe.s:1860   .debug_str:000000000000026c .LASF115
C:\msys64\tmp\ccFKwCEe.s:1940   .debug_str:00000000000004a8 .LASF46
C:\msys64\tmp\ccFKwCEe.s:2012   .debug_str:0000000000000707 .LASF48
C:\msys64\tmp\ccFKwCEe.s:1958   .debug_str:000000000000050c .LASF20
C:\msys64\tmp\ccFKwCEe.s:1802   .debug_str:0000000000000009 .LASF22
C:\msys64\tmp\ccFKwCEe.s:1916   .debug_str:00000000000003f4 .LASF21
C:\msys64\tmp\ccFKwCEe.s:1974   .debug_str:000000000000058b .LASF23
C:\msys64\tmp\ccFKwCEe.s:1926   .debug_str:000000000000043e .LASF24
C:\msys64\tmp\ccFKwCEe.s:1918   .debug_str:0000000000000401 .LASF25
C:\msys64\tmp\ccFKwCEe.s:1990   .debug_str:000000000000064b .LASF26
C:\msys64\tmp\ccFKwCEe.s:1978   .debug_str:00000000000005b3 .LASF27
GAS LISTING C:\msys64\tmp\ccFKwCEe.s 			page 9


C:\msys64\tmp\ccFKwCEe.s:1814   .debug_str:0000000000000054 .LASF51
C:\msys64\tmp\ccFKwCEe.s:1912   .debug_str:00000000000003c9 .LASF116
C:\msys64\tmp\ccFKwCEe.s:1882   .debug_str:0000000000000319 .LASF117
C:\msys64\tmp\ccFKwCEe.s:1816   .debug_str:0000000000000070 .LASF118
C:\msys64\tmp\ccFKwCEe.s:1982   .debug_str:00000000000005d5 .LASF119
C:\msys64\tmp\ccFKwCEe.s:2046   .debug_str:00000000000007f6 .LASF28
C:\msys64\tmp\ccFKwCEe.s:1922   .debug_str:0000000000000427 .LASF29
C:\msys64\tmp\ccFKwCEe.s:1900   .debug_str:000000000000038a .LASF30
C:\msys64\tmp\ccFKwCEe.s:1944   .debug_str:00000000000004b7 .LASF31
C:\msys64\tmp\ccFKwCEe.s:1942   .debug_str:00000000000004b1 .LASF32
C:\msys64\tmp\ccFKwCEe.s:1904   .debug_str:000000000000039a .LASF33
C:\msys64\tmp\ccFKwCEe.s:1948   .debug_str:00000000000004c9 .LASF34
C:\msys64\tmp\ccFKwCEe.s:2030   .debug_str:000000000000077c .LASF35
C:\msys64\tmp\ccFKwCEe.s:1898   .debug_str:0000000000000381 .LASF36
C:\msys64\tmp\ccFKwCEe.s:1806   .debug_str:000000000000002b .LASF37
C:\msys64\tmp\ccFKwCEe.s:1920   .debug_str:000000000000041c .LASF38
C:\msys64\tmp\ccFKwCEe.s:1950   .debug_str:00000000000004d3 .LASF39
C:\msys64\tmp\ccFKwCEe.s:1998   .debug_str:0000000000000690 .LASF40
C:\msys64\tmp\ccFKwCEe.s:1946   .debug_str:00000000000004bc .LASF41
C:\msys64\tmp\ccFKwCEe.s:1858   .debug_str:0000000000000266 .LASF42
C:\msys64\tmp\ccFKwCEe.s:1894   .debug_str:0000000000000375 .LASF120
C:\msys64\tmp\ccFKwCEe.s:1886   .debug_str:000000000000034a .LASF43
C:\msys64\tmp\ccFKwCEe.s:1952   .debug_str:00000000000004e0 .LASF45
C:\msys64\tmp\ccFKwCEe.s:1986   .debug_str:000000000000062a .LASF47
C:\msys64\tmp\ccFKwCEe.s:2042   .debug_str:00000000000007d3 .LASF49
C:\msys64\tmp\ccFKwCEe.s:1810   .debug_str:0000000000000043 .LASF53
C:\msys64\tmp\ccFKwCEe.s:2006   .debug_str:00000000000006c7 .LASF55
C:\msys64\tmp\ccFKwCEe.s:1856   .debug_str:000000000000025d .LASF50
C:\msys64\tmp\ccFKwCEe.s:1854   .debug_str:0000000000000248 .LASF52
C:\msys64\tmp\ccFKwCEe.s:2000   .debug_str:00000000000006a1 .LASF54
C:\msys64\tmp\ccFKwCEe.s:2002   .debug_str:00000000000006a8 .LASF56
C:\msys64\tmp\ccFKwCEe.s:2016   .debug_str:0000000000000730 .LASF57
C:\msys64\tmp\ccFKwCEe.s:2010   .debug_str:00000000000006f4 .LASF58
C:\msys64\tmp\ccFKwCEe.s:1872   .debug_str:00000000000002d1 .LASF59
C:\msys64\tmp\ccFKwCEe.s:1846   .debug_str:0000000000000214 .LASF60
C:\msys64\tmp\ccFKwCEe.s:1804   .debug_str:0000000000000023 .LASF61
C:\msys64\tmp\ccFKwCEe.s:1884   .debug_str:0000000000000336 .LASF62
C:\msys64\tmp\ccFKwCEe.s:1862   .debug_str:0000000000000274 .LASF63
C:\msys64\tmp\ccFKwCEe.s:1830   .debug_str:00000000000000c7 .LASF64
C:\msys64\tmp\ccFKwCEe.s:1888   .debug_str:000000000000034f .LASF65
C:\msys64\tmp\ccFKwCEe.s:1864   .debug_str:000000000000027c .LASF66
C:\msys64\tmp\ccFKwCEe.s:1938   .debug_str:00000000000004a1 .LASF67
C:\msys64\tmp\ccFKwCEe.s:2040   .debug_str:00000000000007c0 .LASF68
C:\msys64\tmp\ccFKwCEe.s:1820   .debug_str:0000000000000084 .LASF69
C:\msys64\tmp\ccFKwCEe.s:2020   .debug_str:000000000000073d .LASF70
C:\msys64\tmp\ccFKwCEe.s:1876   .debug_str:00000000000002e9 .LASF71
C:\msys64\tmp\ccFKwCEe.s:2014   .debug_str:000000000000071e .LASF72
C:\msys64\tmp\ccFKwCEe.s:1818   .debug_str:000000000000007e .LASF73
C:\msys64\tmp\ccFKwCEe.s:2048   .debug_str:00000000000007fb .LASF74
C:\msys64\tmp\ccFKwCEe.s:2044   .debug_str:00000000000007eb .LASF75
C:\msys64\tmp\ccFKwCEe.s:1994   .debug_str:0000000000000666 .LASF76
C:\msys64\tmp\ccFKwCEe.s:1902   .debug_str:000000000000038f .LASF77
C:\msys64\tmp\ccFKwCEe.s:2008   .debug_str:00000000000006dc .LASF78
C:\msys64\tmp\ccFKwCEe.s:1836   .debug_str:000000000000010c .LASF79
C:\msys64\tmp\ccFKwCEe.s:1890   .debug_str:0000000000000357 .LASF80
C:\msys64\tmp\ccFKwCEe.s:1928   .debug_str:000000000000044a .LASF81
C:\msys64\tmp\ccFKwCEe.s:1880   .debug_str:0000000000000303 .LASF82
GAS LISTING C:\msys64\tmp\ccFKwCEe.s 			page 10


C:\msys64\tmp\ccFKwCEe.s:1808   .debug_str:0000000000000035 .LASF83
C:\msys64\tmp\ccFKwCEe.s:1930   .debug_str:0000000000000454 .LASF84
C:\msys64\tmp\ccFKwCEe.s:2024   .debug_str:0000000000000759 .LASF85
C:\msys64\tmp\ccFKwCEe.s:1914   .debug_str:00000000000003d7 .LASF86
C:\msys64\tmp\ccFKwCEe.s:2034   .debug_str:0000000000000799 .LASF87
C:\msys64\tmp\ccFKwCEe.s:1832   .debug_str:00000000000000db .LASF88
C:\msys64\tmp\ccFKwCEe.s:2032   .debug_str:0000000000000784 .LASF121
C:\msys64\tmp\ccFKwCEe.s:1984   .debug_str:0000000000000601 .LASF122
C:\msys64\tmp\ccFKwCEe.s:1866   .debug_str:0000000000000290 .LASF89
C:\msys64\tmp\ccFKwCEe.s:1980   .debug_str:00000000000005cd .LASF123
C:\msys64\tmp\ccFKwCEe.s:1966   .debug_str:000000000000053f .LASF90
C:\msys64\tmp\ccFKwCEe.s:76     .text:0000000000000054 .LFB33
C:\msys64\tmp\ccFKwCEe.s:154    .text:00000000000000f8 .LFE33
C:\msys64\tmp\ccFKwCEe.s:2036   .debug_str:00000000000007a8 .LASF91
C:\msys64\tmp\ccFKwCEe.s:1828   .debug_str:00000000000000bc .LASF92
C:\msys64\tmp\ccFKwCEe.s:1852   .debug_str:000000000000023d .LASF93
C:\msys64\tmp\ccFKwCEe.s:91     .text:000000000000006c .LBB4
C:\msys64\tmp\ccFKwCEe.s:102    .text:0000000000000070 .LBE4
C:\msys64\tmp\ccFKwCEe.s:110    .text:0000000000000084 .LVL5
C:\msys64\tmp\ccFKwCEe.s:122    .text:00000000000000a8 .LVL6
C:\msys64\tmp\ccFKwCEe.s:128    .text:00000000000000bc .LVL7
C:\msys64\tmp\ccFKwCEe.s:136    .text:00000000000000d4 .LVL8
C:\msys64\tmp\ccFKwCEe.s:141    .text:00000000000000e4 .LVL9
C:\msys64\tmp\ccFKwCEe.s:2018   .debug_str:0000000000000737 .LASF94
C:\msys64\tmp\ccFKwCEe.s:1976   .debug_str:00000000000005a8 .LASF95
C:\msys64\tmp\ccFKwCEe.s:50     .text:0000000000000038 .LFB32
C:\msys64\tmp\ccFKwCEe.s:70     .text:0000000000000054 .LFE32
C:\msys64\tmp\ccFKwCEe.s:66     .text:0000000000000050 .LVL2
C:\msys64\tmp\ccFKwCEe.s:2004   .debug_str:00000000000006bb .LASF96
C:\msys64\tmp\ccFKwCEe.s:1932   .debug_str:000000000000046f .LASF97
C:\msys64\tmp\ccFKwCEe.s:13     .text:0000000000000000 .LFB31
C:\msys64\tmp\ccFKwCEe.s:44     .text:0000000000000038 .LFE31
C:\msys64\tmp\ccFKwCEe.s:28     .text:0000000000000018 .LVL0
C:\msys64\tmp\ccFKwCEe.s:33     .text:0000000000000028 .LVL1
C:\msys64\tmp\ccFKwCEe.s:1964   .debug_str:0000000000000539 .LASF124
C:\msys64\tmp\ccFKwCEe.s:1822   .debug_str:000000000000008b .LASF98
C:\msys64\tmp\ccFKwCEe.s:1848   .debug_str:0000000000000228 .LASF100
C:\msys64\tmp\ccFKwCEe.s:1878   .debug_str:00000000000002ef .LASF99
C:\msys64\tmp\ccFKwCEe.s:2028   .debug_str:0000000000000773 .LASF101
C:\msys64\tmp\ccFKwCEe.s:1960   .debug_str:0000000000000517 .LASF102
C:\msys64\tmp\ccFKwCEe.s:1842   .debug_str:00000000000001f5 .LASF103
C:\msys64\tmp\ccFKwCEe.s:1868   .debug_str:0000000000000295 .LASF104
C:\msys64\tmp\ccFKwCEe.s:1874   .debug_str:00000000000002d9 .LASF105
C:\msys64\tmp\ccFKwCEe.s:1906   .debug_str:00000000000003a2 .LASF106
C:\msys64\tmp\ccFKwCEe.s:1968   .debug_str:0000000000000544 .LASF107
C:\msys64\tmp\ccFKwCEe.s:1834   .debug_str:00000000000000f7 .LASF108
C:\msys64\tmp\ccFKwCEe.s:2026   .debug_str:0000000000000768 .LASF109
C:\msys64\tmp\ccFKwCEe.s:169    .debug_info:0000000000000000 .Ldebug_info0

UNDEFINED SYMBOLS
_Z8userMainv
_Z10sem_signalP4_sem
_Z15thread_dispatchv
_ZN5Riscv14supervisorTrapEv
_Z13thread_createPP7_threadPFvPvES2_
_ZN7_thread7runningE
_Z8sem_openPP4_semj
GAS LISTING C:\msys64\tmp\ccFKwCEe.s 			page 11


_Z8sem_waitP4_sem
