GAS LISTING /tmp/ccaqC64y.s 			page 1


   1              		.file	"main.cpp"
   2              		.option pic
   3              		.option norelax
   4              		.text
   5              	.Ltext0:
   6              		.section	.rodata.str1.8,"aMS",@progbits,1
   7              		.align	3
   8              	.LC0:
   9 0000 436F7274 		.string	"Cort a created"
   9      20612063 
   9      72656174 
   9      656400
  10 000f 00       		.align	3
  11              	.LC1:
  12 0010 436F7274 		.string	"Cort b created"
  12      20622063 
  12      72656174 
  12      656400
  13 001f 00       		.align	3
  14              	.LC2:
  15 0020 46696E69 		.string	"Finished"
  15      73686564 
  15      00
  16              		.text
  17              		.align	2
  18              		.globl	main
  20              	main:
  21              	.LFB30:
  22              		.file 1 "src/main.cpp"
   1:src/main.cpp  **** #include "../lib/hw.h"
   2:src/main.cpp  **** #include "../lib/console.h"
   3:src/main.cpp  **** #include "../h/syscall_c.h"
   4:src/main.cpp  **** #include  "../h/riscv.h"
   5:src/main.cpp  **** #include "../h/Thread.h"
   6:src/main.cpp  **** #include  "../h/workers.h"
   7:src/main.cpp  **** #include "../h/printer.h"
   8:src/main.cpp  **** int main() {
  23              		.loc 1 8 12
  24              		.cfi_startproc
  25 0000 130101FC 		addi	sp,sp,-64
  26              		.cfi_def_cfa_offset 64
  27 0004 233C1102 		sd	ra,56(sp)
  28 0008 23388102 		sd	s0,48(sp)
  29 000c 23349102 		sd	s1,40(sp)
  30 0010 23302103 		sd	s2,32(sp)
  31              		.cfi_offset 1, -8
  32              		.cfi_offset 8, -16
  33              		.cfi_offset 9, -24
  34              		.cfi_offset 18, -32
  35 0014 13040104 		addi	s0,sp,64
  36              		.cfi_def_cfa 8, 0
   9:src/main.cpp  ****     Thread* corut[3];
  37              		.loc 1 9 5
  10:src/main.cpp  **** 
  11:src/main.cpp  ****     corut[0] = Thread::createThread(nullptr);
  38              		.loc 1 11 5
  39              		.loc 1 11 36 is_stmt 0
GAS LISTING /tmp/ccaqC64y.s 			page 2


  40 0018 13050000 		li	a0,0
  41 001c 97000000 		call	_ZN6Thread12createThreadEPFvvE@plt
  41      E7800000 
  42              	.LVL0:
  43              		.loc 1 11 14
  44 0024 2334A4FC 		sd	a0,-56(s0)
  12:src/main.cpp  **** 
  13:src/main.cpp  ****     Thread::running = corut[0];
  45              		.loc 1 13 5 is_stmt 1
  46              		.loc 1 13 21 is_stmt 0
  47 0028 97070000 		la	a5,_ZN6Thread7runningE
  47      83B70700 
  48 0030 23B0A700 		sd	a0,0(a5)
  14:src/main.cpp  **** 
  15:src/main.cpp  ****     corut[1] = Thread::createThread(workerBodyA);
  49              		.loc 1 15 5 is_stmt 1
  50              		.loc 1 15 36 is_stmt 0
  51 0034 17050000 		la	a0,_Z11workerBodyAv
  51      03350500 
  52 003c 97000000 		call	_ZN6Thread12createThreadEPFvvE@plt
  52      E7800000 
  53              	.LVL1:
  54              		.loc 1 15 14
  55 0044 2338A4FC 		sd	a0,-48(s0)
  16:src/main.cpp  ****     printString("Cort a created");
  56              		.loc 1 16 5 is_stmt 1
  57              		.loc 1 16 16 is_stmt 0
  58 0048 17050000 		lla	a0,.LC0
  58      13050500 
  59 0050 97000000 		call	_Z11printStringPKc@plt
  59      E7800000 
  60              	.LVL2:
  17:src/main.cpp  ****     corut[2] = Thread::createThread(workerBodyB);
  61              		.loc 1 17 5 is_stmt 1
  62              		.loc 1 17 36 is_stmt 0
  63 0058 17050000 		la	a0,_Z11workerBodyBv
  63      03350500 
  64 0060 97000000 		call	_ZN6Thread12createThreadEPFvvE@plt
  64      E7800000 
  65              	.LVL3:
  66              		.loc 1 17 14
  67 0068 233CA4FC 		sd	a0,-40(s0)
  18:src/main.cpp  ****     printString("Cort b created");
  68              		.loc 1 18 5 is_stmt 1
  69              		.loc 1 18 16 is_stmt 0
  70 006c 17050000 		lla	a0,.LC1
  70      13050500 
  71 0074 97000000 		call	_Z11printStringPKc@plt
  71      E7800000 
  72              	.LVL4:
  73 007c 6F00C000 		j	.L4
  74              	.L2:
  19:src/main.cpp  ****     while (!(corut[1]->isFinished() && corut[2] -> isFinished()))Thread::yield();
  75              		.loc 1 19 66 is_stmt 1 discriminator 3
  76              		.loc 1 19 79 is_stmt 0 discriminator 3
  77 0080 97000000 		call	_ZN6Thread5yieldEv@plt
  77      E7800000 
GAS LISTING /tmp/ccaqC64y.s 			page 3


  78              	.LVL5:
  79              	.L4:
  80              		.loc 1 19 5 is_stmt 1
  81              		.loc 1 19 12
  82              		.loc 1 19 21 is_stmt 0
  83 0088 833704FD 		ld	a5,-48(s0)
  84              	.LVL6:
  85              	.LBB10:
  86              	.LBB11:
  87              		.file 2 "src/../h/Thread.h"
   1:src/../h/Thread.h **** #ifndef PROJEKAT_THREAD_H
   2:src/../h/Thread.h **** #define PROJEKAT_THREAD_H
   3:src/../h/Thread.h **** 
   4:src/../h/Thread.h **** #include "../lib/hw.h"
   5:src/../h/Thread.h **** #include "MemoryAllocator.h"
   6:src/../h/Thread.h **** #include "Scheduler.h"
   7:src/../h/Thread.h **** 
   8:src/../h/Thread.h **** class Thread {
   9:src/../h/Thread.h **** public:
  10:src/../h/Thread.h ****     ~Thread() {delete[] stack;};
  11:src/../h/Thread.h ****     using Body = void (*)();
  12:src/../h/Thread.h **** 
  13:src/../h/Thread.h ****     static Thread* createThread(Body body);
  14:src/../h/Thread.h ****     
  15:src/../h/Thread.h ****     static Thread* running;
  16:src/../h/Thread.h **** 
  17:src/../h/Thread.h ****     static void yield();
  18:src/../h/Thread.h **** 
  19:src/../h/Thread.h **** 
  20:src/../h/Thread.h ****     static void dispatch();
  21:src/../h/Thread.h **** 
  22:src/../h/Thread.h ****     bool isFinished(){return finished;};
  88              		.loc 2 22 23 is_stmt 1
  89              		.loc 2 22 30 is_stmt 0
  90 008c 83C78702 		lbu	a5,40(a5)
  91              	.LVL7:
  92              	.LBE11:
  93              	.LBE10:
  94              		.loc 1 19 12
  95 0090 E38807FE 		beqz	a5,.L2
  96              		.loc 1 19 47 discriminator 2
  97 0094 833784FD 		ld	a5,-40(s0)
  98              	.LVL8:
  99              	.LBB12:
 100              	.LBB13:
 101              		.loc 2 22 23 is_stmt 1 discriminator 2
 102              		.loc 2 22 30 is_stmt 0 discriminator 2
 103 0098 83C78702 		lbu	a5,40(a5)
 104              	.LVL9:
 105              	.LBE13:
 106              	.LBE12:
 107              		.loc 1 19 12 discriminator 2
 108 009c E38207FE 		beqz	a5,.L2
 109 00a0 930484FC 		addi	s1,s0,-56
 110 00a4 6F004001 		j	.L3
 111              	.LVL10:
 112              	.L7:
GAS LISTING /tmp/ccaqC64y.s 			page 4


 113              	.LBB14:
  20:src/main.cpp  **** 
  21:src/main.cpp  ****     for (auto& cort : corut) {delete cort;}
 114              		.loc 1 21 38
 115 00a8 13050900 		mv	a0,s2
 116 00ac 97000000 		call	_ZdlPv@plt
 116      E7800000 
 117              	.LVL11:
 118              	.L6:
 119              		.loc 1 21 5 is_stmt 1 discriminator 5
 120 00b4 93848400 		addi	s1,s1,8
 121              	.LVL12:
 122              	.L3:
 123              		.loc 1 21 23 discriminator 6
 124 00b8 930704FE 		addi	a5,s0,-32
 125 00bc 6380F402 		beq	s1,a5,.L5
 126              	.LVL13:
 127              		.loc 1 21 31 discriminator 2
 128              		.loc 1 21 38 is_stmt 0 discriminator 2
 129 00c0 03B90400 		ld	s2,0(s1)
 130              		.loc 1 21 42 discriminator 2
 131 00c4 E30809FE 		beqz	s2,.L6
 132              	.LVL14:
 133              	.LBB15:
 134              	.LBB16:
  10:src/../h/Thread.h ****     using Body = void (*)();
 135              		.loc 2 10 16 is_stmt 1
  10:src/../h/Thread.h ****     using Body = void (*)();
 136              		.loc 2 10 25 is_stmt 0
 137 00c8 03350901 		ld	a0,16(s2)
  10:src/../h/Thread.h ****     using Body = void (*)();
 138              		.loc 2 10 30
 139 00cc E30E05FC 		beqz	a0,.L7
  10:src/../h/Thread.h ****     using Body = void (*)();
 140              		.loc 2 10 25
 141 00d0 97000000 		call	_ZdaPv@plt
 141      E7800000 
 142              	.LVL15:
 143 00d8 6FF01FFD 		j	.L7
 144              	.LVL16:
 145              	.L5:
 146              	.LBE16:
 147              	.LBE15:
 148              	.LBE14:
  22:src/main.cpp  **** 
  23:src/main.cpp  ****     printString("Finished");
 149              		.loc 1 23 5 is_stmt 1
 150              		.loc 1 23 16 is_stmt 0
 151 00dc 17050000 		lla	a0,.LC2
 151      13050500 
 152 00e4 97000000 		call	_Z11printStringPKc@plt
 152      E7800000 
 153              	.LVL17:
  24:src/main.cpp  **** 
  25:src/main.cpp  ****     return 0;
 154              		.loc 1 25 5 is_stmt 1
  26:src/main.cpp  **** 
GAS LISTING /tmp/ccaqC64y.s 			page 5


  27:src/main.cpp  **** 
  28:src/main.cpp  **** }
 155              		.loc 1 28 1 is_stmt 0
 156 00ec 13050000 		li	a0,0
 157 00f0 83308103 		ld	ra,56(sp)
 158              		.cfi_restore 1
 159 00f4 03340103 		ld	s0,48(sp)
 160              		.cfi_restore 8
 161              		.cfi_def_cfa 2, 64
 162 00f8 83348102 		ld	s1,40(sp)
 163              		.cfi_restore 9
 164              	.LVL18:
 165 00fc 03390102 		ld	s2,32(sp)
 166              		.cfi_restore 18
 167 0100 13010104 		addi	sp,sp,64
 168              		.cfi_def_cfa_offset 0
 169 0104 67800000 		jr	ra
 170              		.cfi_endproc
 171              	.LFE30:
 173              	.Letext0:
 174              		.file 3 "src/../lib/hw.h"
 175              		.file 4 "src/../h/syscall_c.h"
 176              		.file 5 "src/../h/printer.h"
GAS LISTING /tmp/ccaqC64y.s 			page 6

