GAS LISTING C:\msys64\tmp\ccmxAAZC.s 			page 1


   1              		.file	"main.cpp"
   2              		.option nopic
   3              		.option norelax
   4              		.attribute arch, "rv64i2p0_m2p0_a2p0"
   5              		.attribute unaligned_access, 0
   6              		.attribute stack_align, 16
   7              		.text
   8              	.Ltext0:
   9              		.align	2
  10              		.globl	_Z5idlefPv
  12              	_Z5idlefPv:
  13              	.LFB34:
  14              		.file 1 "src/main.cpp"
   1:src/main.cpp  **** #include "../lib/hw.h"
   2:src/main.cpp  **** #include "../h/syscall_c.h"
   3:src/main.cpp  **** #include "../h/riscv.h"
   4:src/main.cpp  **** #include "../h/Thread.h"
   5:src/main.cpp  **** #include "../h/Console.h" // Obavezno uključi zaglavlje
   6:src/main.cpp  **** #include "../h/workers.h"
   7:src/main.cpp  **** #include "../h/printer.h"
   8:src/main.cpp  **** void idlef(void*) {
  15              		.loc 1 8 19
  16              		.cfi_startproc
  17 0000 130101FF 		addi	sp,sp,-16
  18              		.cfi_def_cfa_offset 16
  19 0004 23341100 		sd	ra,8(sp)
  20 0008 23308100 		sd	s0,0(sp)
  21              		.cfi_offset 1, -8
  22              		.cfi_offset 8, -16
  23 000c 13040101 		addi	s0,sp,16
  24              		.cfi_def_cfa 8, 0
  25              	.L2:
   9:src/main.cpp  ****     while (1) thread_dispatch();
  26              		.loc 1 9 5 discriminator 1
  27              		.loc 1 9 15 discriminator 1
  28              		.loc 1 9 30 is_stmt 0 discriminator 1
  29 0010 97000000 		call	_Z15thread_dispatchv
  29      E7800000 
  30              	.LVL0:
  31              		.loc 1 9 5 is_stmt 1 discriminator 1
  32 0018 6FF09FFF 		j	.L2
  33              		.cfi_endproc
  34              	.LFE34:
  36              		.section	.rodata.str1.8,"aMS",@progbits,1
  37              		.align	3
  38              	.LC0:
  39 0000 53797374 		.string	"System initialized. Main thread started.\n"
  39      656D2069 
  39      6E697469 
  39      616C697A 
  39      65642E20 
  40 002a 00000000 		.align	3
  40      0000
  41              	.LC1:
  42 0030 54657374 		.string	"Test zavrsen.\n"
  42      207A6176 
  42      7273656E 
GAS LISTING C:\msys64\tmp\ccmxAAZC.s 			page 2


  42      2E0A00
  43              		.text
  44              		.align	2
  45              		.globl	main
  47              	main:
  48              	.LFB35:
  10:src/main.cpp  **** }
  11:src/main.cpp  **** int main() {
  49              		.loc 1 11 12
  50              		.cfi_startproc
  51 001c 130101FC 		addi	sp,sp,-64
  52              		.cfi_def_cfa_offset 64
  53 0020 233C1102 		sd	ra,56(sp)
  54 0024 23388102 		sd	s0,48(sp)
  55              		.cfi_offset 1, -8
  56              		.cfi_offset 8, -16
  57 0028 13040104 		addi	s0,sp,64
  58              		.cfi_def_cfa 8, 0
  12:src/main.cpp  ****     Riscv::w_stvec((uint64) &Riscv::supervisorTrap);
  59              		.loc 1 12 5
  60              		.loc 1 12 19 is_stmt 0
  61 002c 97070000 		lla	a5,_ZN5Riscv14supervisorTrapEv
  61      93870700 
  62              	.LVL1:
  63              	.LBB10:
  64              	.LBB11:
  65              		.file 2 "src/../h/riscv.h"
   1:src/../h/riscv.h ****     //
   2:src/../h/riscv.h ****     // Created by os on 3/31/26.
   3:src/../h/riscv.h ****     //
   4:src/../h/riscv.h **** 
   5:src/../h/riscv.h ****     #ifndef PROJECT_BASE_RISCB_H
   6:src/../h/riscv.h ****     #define PROJECT_BASE_RISCB_H
   7:src/../h/riscv.h ****     #include "../lib/hw.h"
   8:src/../h/riscv.h **** 
   9:src/../h/riscv.h ****     class Riscv {
  10:src/../h/riscv.h ****     public:
  11:src/../h/riscv.h **** 	
  12:src/../h/riscv.h **** 	static void popSppSpie();
  13:src/../h/riscv.h **** 	
  14:src/../h/riscv.h **** 	
  15:src/../h/riscv.h ****         static uint64 r_scause();
  16:src/../h/riscv.h **** 
  17:src/../h/riscv.h ****         static void w_scause(uint64 scause);
  18:src/../h/riscv.h **** 
  19:src/../h/riscv.h ****         static uint64 r_sepc();
  20:src/../h/riscv.h **** 
  21:src/../h/riscv.h ****         static void w_sepc(uint64 sepc);
  22:src/../h/riscv.h **** 
  23:src/../h/riscv.h ****         static uint64 r_stvec();
  24:src/../h/riscv.h **** 
  25:src/../h/riscv.h ****         static void w_stvec(uint64 stvec);
  26:src/../h/riscv.h **** 
  27:src/../h/riscv.h ****         static uint64 r_stval();
  28:src/../h/riscv.h **** 
  29:src/../h/riscv.h ****         static void w_stval(uint64 stval);
  30:src/../h/riscv.h **** 
GAS LISTING C:\msys64\tmp\ccmxAAZC.s 			page 3


  31:src/../h/riscv.h ****         enum BitMaskSip {
  32:src/../h/riscv.h ****             SIP_SSIP = (1 << 1),
  33:src/../h/riscv.h ****             SIP_STIP = (1 << 5),
  34:src/../h/riscv.h ****             SIP_SEIP = (1 << 9),
  35:src/../h/riscv.h ****         };
  36:src/../h/riscv.h **** 
  37:src/../h/riscv.h ****         static void ms_sip(uint64 mask);
  38:src/../h/riscv.h **** 
  39:src/../h/riscv.h ****         static void mc_sip(uint64 mask);
  40:src/../h/riscv.h **** 
  41:src/../h/riscv.h ****         static uint64 r_sip();
  42:src/../h/riscv.h **** 
  43:src/../h/riscv.h ****         static void w_sip(uint64 sip);
  44:src/../h/riscv.h **** 
  45:src/../h/riscv.h ****         enum BitMaskSstatus {
  46:src/../h/riscv.h ****             SSTATUS_SIE = (1 << 1),
  47:src/../h/riscv.h ****             SSTATUS_SPIE = (1 << 5),
  48:src/../h/riscv.h ****             SSTATUS_SPP = (1 <<8),
  49:src/../h/riscv.h ****         };
  50:src/../h/riscv.h **** 
  51:src/../h/riscv.h ****         static void ms_sstatus(uint64 mask);
  52:src/../h/riscv.h **** 
  53:src/../h/riscv.h ****         static void mc_sstatus(uint64 mask);
  54:src/../h/riscv.h **** 
  55:src/../h/riscv.h ****         static uint64 r_sstatus();
  56:src/../h/riscv.h **** 
  57:src/../h/riscv.h ****         static void w_sstatus(uint64 sstatus);
  58:src/../h/riscv.h **** 
  59:src/../h/riscv.h ****         static uint64 readARegister(int reg_number);
  60:src/../h/riscv.h **** 
  61:src/../h/riscv.h ****         static void writeARegister(int reg_number, uint64 value);
  62:src/../h/riscv.h **** 
  63:src/../h/riscv.h **** 
  64:src/../h/riscv.h ****         static void supervisorTrap();
  65:src/../h/riscv.h ****     private:
  66:src/../h/riscv.h ****         static void handleSupervisorTrap(uint64 a0, uint64 a1, uint64 a2, uint64 a3, uint64 a4, uin
  67:src/../h/riscv.h **** 
  68:src/../h/riscv.h ****     };
  69:src/../h/riscv.h **** 
  70:src/../h/riscv.h ****     inline uint64 Riscv::r_scause()
  71:src/../h/riscv.h ****     {
  72:src/../h/riscv.h ****         uint64 volatile scause;
  73:src/../h/riscv.h ****         __asm__ volatile ("csrr %[scause], scause" : [scause] "=r"(scause));
  74:src/../h/riscv.h ****         return scause;
  75:src/../h/riscv.h ****     }
  76:src/../h/riscv.h **** 
  77:src/../h/riscv.h ****     inline void Riscv::w_scause(uint64 scause)
  78:src/../h/riscv.h ****     {
  79:src/../h/riscv.h ****         __asm__ volatile ("csrw scause, %[scause]" : : [scause] "r"(scause));
  80:src/../h/riscv.h ****     }
  81:src/../h/riscv.h **** 
  82:src/../h/riscv.h ****     inline uint64 Riscv::r_sepc()
  83:src/../h/riscv.h ****     {
  84:src/../h/riscv.h ****         uint64 volatile sepc;
  85:src/../h/riscv.h ****         __asm__ volatile ("csrr %[sepc], sepc" : [sepc] "=r"(sepc));
  86:src/../h/riscv.h ****         return sepc;
  87:src/../h/riscv.h ****     }
GAS LISTING C:\msys64\tmp\ccmxAAZC.s 			page 4


  88:src/../h/riscv.h **** 
  89:src/../h/riscv.h ****     inline void Riscv::w_sepc(uint64 sepc)
  90:src/../h/riscv.h ****     {
  91:src/../h/riscv.h ****         __asm__ volatile ("csrw sepc, %[sepc]" : : [sepc] "r"(sepc));
  92:src/../h/riscv.h ****     }
  93:src/../h/riscv.h **** 
  94:src/../h/riscv.h ****     inline uint64 Riscv::r_stvec()
  95:src/../h/riscv.h ****     {
  96:src/../h/riscv.h ****         uint64 volatile stvec;
  97:src/../h/riscv.h ****         __asm__ volatile ("csrr %[stvec], stvec" : [stvec] "=r"(stvec));
  98:src/../h/riscv.h ****         return stvec;
  99:src/../h/riscv.h ****     }
 100:src/../h/riscv.h **** 
 101:src/../h/riscv.h ****     inline void Riscv::w_stvec(uint64 stvec)
 102:src/../h/riscv.h ****     {
 103:src/../h/riscv.h ****         __asm__ volatile ("csrw stvec, %[stvec]" : : [stvec] "r"(stvec));
  66              		.loc 2 103 9 is_stmt 1
  67              	 #APP
  68              	# 103 "src/../h/riscv.h" 1
 104              	    }
  69              		csrw stvec, a5
  70              	# 0 "" 2
  71              	.LVL2:
  72              	 #NO_APP
  73              	.LBE11:
  74              	.LBE10:
  13:src/main.cpp  **** 
  14:src/main.cpp  ****     // 2. INICIJALIZACIJA KONZOLE (Pre svega ostalog!)
  15:src/main.cpp  ****     // Ovo alocira bafere i semafore unutar Console klase
  16:src/main.cpp  ****     Console::init();
  75              		.loc 1 16 5
  76              		.loc 1 16 18 is_stmt 0
  77 0038 97000000 		call	_ZN7Console4initEv
  77      E7800000 
  78              	.LVL3:
  17:src/main.cpp  **** 
  18:src/main.cpp  ****     // 3. Postavi main nit
  19:src/main.cpp  ****     thread_t mainThr;
  79              		.loc 1 19 5 is_stmt 1
  20:src/main.cpp  ****     thread_create(&mainThr, nullptr, nullptr);
  80              		.loc 1 20 5
  81              		.loc 1 20 18 is_stmt 0
  82 0040 13060000 		li	a2,0
  83 0044 93050000 		li	a1,0
  84 0048 130584FE 		addi	a0,s0,-24
  85 004c 97000000 		call	_Z13thread_createPP7_threadPFvPvES2_
  85      E7800000 
  86              	.LVL4:
  21:src/main.cpp  ****     Thread::running = (Thread*)mainThr;
  87              		.loc 1 21 5 is_stmt 1
  88              		.loc 1 21 21 is_stmt 0
  89 0054 833784FE 		ld	a5,-24(s0)
  90 0058 17070000 		sd	a5,_ZN6Thread7runningE,a4
  90      2330F700 
  22:src/main.cpp  **** 
  23:src/main.cpp  ****     printString("System initialized. Main thread started.\n");
  91              		.loc 1 23 5 is_stmt 1
GAS LISTING C:\msys64\tmp\ccmxAAZC.s 			page 5


  92              		.loc 1 23 16 is_stmt 0
  93 0060 17050000 		lla	a0,.LC0
  93      13050500 
  94 0068 97000000 		call	_Z11printStringPKc
  94      E7800000 
  95              	.LVL5:
  24:src/main.cpp  **** 
  25:src/main.cpp  ****     // 4. Kreiranje semafora za sinhronizaciju ispisa
  26:src/main.cpp  ****     sem_t ispisSem;
  96              		.loc 1 26 5 is_stmt 1
  27:src/main.cpp  ****     sem_open(&ispisSem, 1);
  97              		.loc 1 27 5
  98              		.loc 1 27 13 is_stmt 0
  99 0070 93051000 		li	a1,1
 100 0074 130504FE 		addi	a0,s0,-32
 101 0078 97000000 		call	_Z8sem_openPP4_semj
 101      E7800000 
 102              	.LVL6:
  28:src/main.cpp  **** 
  29:src/main.cpp  ****     // 5. Kreiranje radnih niti i idle niti
  30:src/main.cpp  ****     thread_t threads[2];
 103              		.loc 1 30 5 is_stmt 1
  31:src/main.cpp  ****     thread_t idle;
 104              		.loc 1 31 5
  32:src/main.cpp  ****     thread_create(&threads[0], workerBodyA, ispisSem);
 105              		.loc 1 32 5
 106              		.loc 1 32 18 is_stmt 0
 107 0080 033604FE 		ld	a2,-32(s0)
 108 0084 97050000 		lla	a1,_Z11workerBodyAPv
 108      93850500 
 109 008c 130504FD 		addi	a0,s0,-48
 110 0090 97000000 		call	_Z13thread_createPP7_threadPFvPvES2_
 110      E7800000 
 111              	.LVL7:
  33:src/main.cpp  ****     thread_create(&threads[1], workerBodyB, ispisSem);
 112              		.loc 1 33 5 is_stmt 1
 113              		.loc 1 33 18 is_stmt 0
 114 0098 033604FE 		ld	a2,-32(s0)
 115 009c 97050000 		lla	a1,_Z11workerBodyBPv
 115      93850500 
 116 00a4 130584FD 		addi	a0,s0,-40
 117 00a8 97000000 		call	_Z13thread_createPP7_threadPFvPvES2_
 117      E7800000 
 118              	.LVL8:
  34:src/main.cpp  ****     thread_create(&idle, idlef, nullptr);
 119              		.loc 1 34 5 is_stmt 1
 120              		.loc 1 34 18 is_stmt 0
 121 00b0 13060000 		li	a2,0
 122 00b4 97050000 		lla	a1,_Z5idlefPv
 122      93850500 
 123 00bc 130584FC 		addi	a0,s0,-56
 124 00c0 97000000 		call	_Z13thread_createPP7_threadPFvPvES2_
 124      E7800000 
 125              	.LVL9:
  35:src/main.cpp  ****     Riscv::ms_sstatus(Riscv::SSTATUS_SIE);
 126              		.loc 1 35 5 is_stmt 1
 127              	.LBB12:
GAS LISTING C:\msys64\tmp\ccmxAAZC.s 			page 6


 128              	.LBB13:
 105:src/../h/riscv.h **** 
 106:src/../h/riscv.h ****     inline uint64 Riscv::r_stval()
 107:src/../h/riscv.h ****     {
 108:src/../h/riscv.h ****         uint64 volatile stval;
 109:src/../h/riscv.h ****         __asm__ volatile ("csrr %[stval], stval" : [stval] "=r"(stval));
 110:src/../h/riscv.h ****         return stval;
 111:src/../h/riscv.h ****     }
 112:src/../h/riscv.h **** 
 113:src/../h/riscv.h ****     inline void Riscv::w_stval(uint64 stval)
 114:src/../h/riscv.h ****     {
 115:src/../h/riscv.h ****         __asm__ volatile ("csrw stval, %[stval]" : : [stval] "r"(stval));
 116:src/../h/riscv.h ****     }
 117:src/../h/riscv.h **** 
 118:src/../h/riscv.h ****     inline void Riscv::ms_sip(uint64 mask)
 119:src/../h/riscv.h ****     {
 120:src/../h/riscv.h ****         __asm__ volatile ("csrs sip, %[mask]" : : [mask] "r"(mask));
 121:src/../h/riscv.h ****     }
 122:src/../h/riscv.h **** 
 123:src/../h/riscv.h ****     inline void Riscv::mc_sip(uint64 mask)
 124:src/../h/riscv.h ****     {
 125:src/../h/riscv.h ****         __asm__ volatile ("csrc sip, %[mask]" : : [mask] "r"(mask));
 126:src/../h/riscv.h ****     }
 127:src/../h/riscv.h **** 
 128:src/../h/riscv.h ****     inline uint64 Riscv::r_sip()
 129:src/../h/riscv.h ****     {
 130:src/../h/riscv.h ****         uint64 volatile sip;
 131:src/../h/riscv.h ****         __asm__ volatile ("csrr %[sip], sip" : [sip] "=r"(sip));
 132:src/../h/riscv.h ****         return sip;
 133:src/../h/riscv.h ****     }
 134:src/../h/riscv.h **** 
 135:src/../h/riscv.h ****     inline void Riscv::w_sip(uint64 sip)
 136:src/../h/riscv.h ****     {
 137:src/../h/riscv.h ****         __asm__ volatile ("csrw sip, %[sip]" : : [sip] "r"(sip));
 138:src/../h/riscv.h ****     }
 139:src/../h/riscv.h **** 
 140:src/../h/riscv.h ****     inline void Riscv::ms_sstatus(uint64 mask)
 141:src/../h/riscv.h ****     {
 142:src/../h/riscv.h ****         __asm__ volatile ("csrs sstatus, %[mask]" : : [mask] "r"(mask));
 129              		.loc 2 142 9
 130 00c8 93072000 		li	a5,2
 131              	 #APP
 132              	# 142 "src/../h/riscv.h" 1
 143              	    }
 133              		csrs sstatus, a5
 134              	# 0 "" 2
 135              		.loc 2 143 5 is_stmt 0
 136              	 #NO_APP
 137 00d0 6F000001 		j	.L7
 138              	.LVL10:
 139              	.L5:
 140              	.LBE13:
 141              	.LBE12:
  36:src/main.cpp  **** 
  37:src/main.cpp  ****     while (!(((Thread*)threads[0])->isFinished() && ((Thread*)threads[1])->isFinished())) {
  38:src/main.cpp  ****         time_sleep(10); // Spavaj malo da ne trošiš CPU dok čekaš
 142              		.loc 1 38 9 is_stmt 1 discriminator 3
GAS LISTING C:\msys64\tmp\ccmxAAZC.s 			page 7


 143              		.loc 1 38 19 is_stmt 0 discriminator 3
 144 00d4 1305A000 		li	a0,10
 145 00d8 97000000 		call	_Z10time_sleepm
 145      E7800000 
 146              	.LVL11:
 147              	.L7:
  37:src/main.cpp  ****         time_sleep(10); // Spavaj malo da ne trošiš CPU dok čekaš
 148              		.loc 1 37 5 is_stmt 1
  37:src/main.cpp  ****         time_sleep(10); // Spavaj malo da ne trošiš CPU dok čekaš
 149              		.loc 1 37 12
  37:src/main.cpp  ****         time_sleep(10); // Spavaj malo da ne trošiš CPU dok čekaš
 150              		.loc 1 37 33 is_stmt 0
 151 00e0 833704FD 		ld	a5,-48(s0)
 152              	.LVL12:
 153              	.LBB14:
 154              	.LBB15:
 155              		.file 3 "src/../h/Thread.h"
   1:src/../h/Thread.h ****  #ifndef PROJEKAT_THREAD_H
   2:src/../h/Thread.h **** #define PROJEKAT_THREAD_H
   3:src/../h/Thread.h **** 
   4:src/../h/Thread.h **** #include "../lib/hw.h"
   5:src/../h/Thread.h **** #include "MemoryAllocator.h"
   6:src/../h/Thread.h **** #include "Scheduler.h"
   7:src/../h/Thread.h **** 
   8:src/../h/Thread.h **** typedef unsigned long time_t;
   9:src/../h/Thread.h **** class Thread {
  10:src/../h/Thread.h **** public:
  11:src/../h/Thread.h **** 
  12:src/../h/Thread.h **** 	void* operator new(size_t size){
  13:src/../h/Thread.h **** 		void* ptr = MemoryAllocator::kmalloc(size);
  14:src/../h/Thread.h **** 		return ptr;
  15:src/../h/Thread.h **** 	}
  16:src/../h/Thread.h ****     ~Thread() {delete stack;};
  17:src/../h/Thread.h ****     using Body = void (*)(void*);
  18:src/../h/Thread.h **** 
  19:src/../h/Thread.h ****     static Thread* createThread(Body body, void* args, void* stack);
  20:src/../h/Thread.h ****     
  21:src/../h/Thread.h ****     static Thread* running;
  22:src/../h/Thread.h **** 
  23:src/../h/Thread.h **** 
  24:src/../h/Thread.h **** 
  25:src/../h/Thread.h ****     static void dispatch();
  26:src/../h/Thread.h **** 
  27:src/../h/Thread.h ****     bool isFinished(){return finished;};
 156              		.loc 3 27 23 is_stmt 1
 157              		.loc 3 27 30 is_stmt 0
 158 00e4 83C71704 		lbu	a5,65(a5)
 159              	.LVL13:
 160              	.LBE15:
 161              	.LBE14:
  37:src/main.cpp  ****         time_sleep(10); // Spavaj malo da ne trošiš CPU dok čekaš
 162              		.loc 1 37 12
 163 00e8 E38607FE 		beq	a5,zero,.L5
  37:src/main.cpp  ****         time_sleep(10); // Spavaj malo da ne trošiš CPU dok čekaš
 164              		.loc 1 37 72 discriminator 2
 165 00ec 833784FD 		ld	a5,-40(s0)
 166              	.LVL14:
GAS LISTING C:\msys64\tmp\ccmxAAZC.s 			page 8


 167              	.LBB16:
 168              	.LBB17:
 169              		.loc 3 27 23 is_stmt 1 discriminator 2
 170              		.loc 3 27 30 is_stmt 0 discriminator 2
 171 00f0 83C71704 		lbu	a5,65(a5)
 172              	.LVL15:
 173              	.LBE17:
 174              	.LBE16:
  37:src/main.cpp  ****         time_sleep(10); // Spavaj malo da ne trošiš CPU dok čekaš
 175              		.loc 1 37 12 discriminator 2
 176 00f4 E38007FE 		beq	a5,zero,.L5
  39:src/main.cpp  ****     }
  40:src/main.cpp  **** 
  41:src/main.cpp  ****     sem_close(ispisSem);
 177              		.loc 1 41 5 is_stmt 1
 178              		.loc 1 41 14 is_stmt 0
 179 00f8 033504FE 		ld	a0,-32(s0)
 180 00fc 97000000 		call	_Z9sem_closeP4_sem
 180      E7800000 
 181              	.LVL16:
  42:src/main.cpp  ****     printString("Test zavrsen.\n");
 182              		.loc 1 42 5 is_stmt 1
 183              		.loc 1 42 16 is_stmt 0
 184 0104 17050000 		lla	a0,.LC1
 184      13050500 
 185 010c 97000000 		call	_Z11printStringPKc
 185      E7800000 
 186              	.LVL17:
  43:src/main.cpp  ****     return 0;
 187              		.loc 1 43 5 is_stmt 1
  44:src/main.cpp  **** }
 188              		.loc 1 44 1 is_stmt 0
 189 0114 13050000 		li	a0,0
 190 0118 83308103 		ld	ra,56(sp)
 191              		.cfi_restore 1
 192 011c 03340103 		ld	s0,48(sp)
 193              		.cfi_restore 8
 194              		.cfi_def_cfa 2, 64
 195 0120 13010104 		addi	sp,sp,64
 196              		.cfi_def_cfa_offset 0
 197 0124 67800000 		jr	ra
 198              		.cfi_endproc
 199              	.LFE35:
 201              	.Letext0:
 202              		.file 4 "src/../lib/hw.h"
 203              		.file 5 "src/../h/syscall_c.h"
 204              		.file 6 "src/../h/../h/Semaphore.h"
 205              		.file 7 "src/../h/../h/Buffer.h"
 206              		.file 8 "src/../h/Console.h"
 207              		.file 9 "src/../h/printer.h"
GAS LISTING C:\msys64\tmp\ccmxAAZC.s 			page 9


DEFINED SYMBOLS
                            *ABS*:0000000000000000 main.cpp
C:\msys64\tmp\ccmxAAZC.s:12     .text:0000000000000000 _Z5idlefPv
C:\msys64\tmp\ccmxAAZC.s:16     .text:0000000000000000 .L0 
C:\msys64\tmp\ccmxAAZC.s:17     .text:0000000000000000 .L0 
C:\msys64\tmp\ccmxAAZC.s:18     .text:0000000000000004 .L0 
C:\msys64\tmp\ccmxAAZC.s:21     .text:000000000000000c .L0 
C:\msys64\tmp\ccmxAAZC.s:22     .text:000000000000000c .L0 
C:\msys64\tmp\ccmxAAZC.s:24     .text:0000000000000010 .L0 
C:\msys64\tmp\ccmxAAZC.s:27     .text:0000000000000010 .L0 
C:\msys64\tmp\ccmxAAZC.s:28     .text:0000000000000010 .L0 
C:\msys64\tmp\ccmxAAZC.s:29     .text:0000000000000010 .L0 
C:\msys64\tmp\ccmxAAZC.s:32     .text:0000000000000018 .L0 
C:\msys64\tmp\ccmxAAZC.s:33     .text:000000000000001c .L0 
C:\msys64\tmp\ccmxAAZC.s:47     .text:000000000000001c main
C:\msys64\tmp\ccmxAAZC.s:50     .text:000000000000001c .L0 
C:\msys64\tmp\ccmxAAZC.s:51     .text:000000000000001c .L0 
C:\msys64\tmp\ccmxAAZC.s:52     .text:0000000000000020 .L0 
C:\msys64\tmp\ccmxAAZC.s:55     .text:0000000000000028 .L0 
C:\msys64\tmp\ccmxAAZC.s:56     .text:0000000000000028 .L0 
C:\msys64\tmp\ccmxAAZC.s:58     .text:000000000000002c .L0 
C:\msys64\tmp\ccmxAAZC.s:60     .text:000000000000002c .L0 
C:\msys64\tmp\ccmxAAZC.s:61     .text:000000000000002c .L0 
    src/../h/riscv.h:103    .text:0000000000000034 .L0 
C:\msys64\tmp\ccmxAAZC.s:76     .text:0000000000000038 .L0 
C:\msys64\tmp\ccmxAAZC.s:77     .text:0000000000000038 .L0 
C:\msys64\tmp\ccmxAAZC.s:80     .text:0000000000000040 .L0 
C:\msys64\tmp\ccmxAAZC.s:81     .text:0000000000000040 .L0 
C:\msys64\tmp\ccmxAAZC.s:82     .text:0000000000000040 .L0 
C:\msys64\tmp\ccmxAAZC.s:88     .text:0000000000000054 .L0 
C:\msys64\tmp\ccmxAAZC.s:89     .text:0000000000000054 .L0 
C:\msys64\tmp\ccmxAAZC.s:92     .text:0000000000000060 .L0 
C:\msys64\tmp\ccmxAAZC.s:93     .text:0000000000000060 .L0 
C:\msys64\tmp\ccmxAAZC.s:97     .text:0000000000000070 .L0 
C:\msys64\tmp\ccmxAAZC.s:98     .text:0000000000000070 .L0 
C:\msys64\tmp\ccmxAAZC.s:99     .text:0000000000000070 .L0 
C:\msys64\tmp\ccmxAAZC.s:104    .text:0000000000000080 .L0 
C:\msys64\tmp\ccmxAAZC.s:105    .text:0000000000000080 .L0 
C:\msys64\tmp\ccmxAAZC.s:106    .text:0000000000000080 .L0 
C:\msys64\tmp\ccmxAAZC.s:107    .text:0000000000000080 .L0 
C:\msys64\tmp\ccmxAAZC.s:113    .text:0000000000000098 .L0 
C:\msys64\tmp\ccmxAAZC.s:114    .text:0000000000000098 .L0 
C:\msys64\tmp\ccmxAAZC.s:120    .text:00000000000000b0 .L0 
C:\msys64\tmp\ccmxAAZC.s:121    .text:00000000000000b0 .L0 
C:\msys64\tmp\ccmxAAZC.s:129    .text:00000000000000c8 .L0 
C:\msys64\tmp\ccmxAAZC.s:130    .text:00000000000000c8 .L0 
C:\msys64\tmp\ccmxAAZC.s:137    .text:00000000000000d0 .L0 
C:\msys64\tmp\ccmxAAZC.s:143    .text:00000000000000d4 .L0 
C:\msys64\tmp\ccmxAAZC.s:144    .text:00000000000000d4 .L0 
C:\msys64\tmp\ccmxAAZC.s:149    .text:00000000000000e0 .L0 
C:\msys64\tmp\ccmxAAZC.s:150    .text:00000000000000e0 .L0 
C:\msys64\tmp\ccmxAAZC.s:151    .text:00000000000000e0 .L0 
C:\msys64\tmp\ccmxAAZC.s:157    .text:00000000000000e4 .L0 
C:\msys64\tmp\ccmxAAZC.s:158    .text:00000000000000e4 .L0 
C:\msys64\tmp\ccmxAAZC.s:163    .text:00000000000000e8 .L0 
C:\msys64\tmp\ccmxAAZC.s:165    .text:00000000000000ec .L0 
C:\msys64\tmp\ccmxAAZC.s:170    .text:00000000000000f0 .L0 
GAS LISTING C:\msys64\tmp\ccmxAAZC.s 			page 10


C:\msys64\tmp\ccmxAAZC.s:171    .text:00000000000000f0 .L0 
C:\msys64\tmp\ccmxAAZC.s:176    .text:00000000000000f4 .L0 
C:\msys64\tmp\ccmxAAZC.s:178    .text:00000000000000f8 .L0 
C:\msys64\tmp\ccmxAAZC.s:179    .text:00000000000000f8 .L0 
C:\msys64\tmp\ccmxAAZC.s:183    .text:0000000000000104 .L0 
C:\msys64\tmp\ccmxAAZC.s:184    .text:0000000000000104 .L0 
C:\msys64\tmp\ccmxAAZC.s:188    .text:0000000000000114 .L0 
C:\msys64\tmp\ccmxAAZC.s:189    .text:0000000000000114 .L0 
C:\msys64\tmp\ccmxAAZC.s:191    .text:000000000000011c .L0 
C:\msys64\tmp\ccmxAAZC.s:193    .text:0000000000000120 .L0 
C:\msys64\tmp\ccmxAAZC.s:194    .text:0000000000000120 .L0 
C:\msys64\tmp\ccmxAAZC.s:196    .text:0000000000000124 .L0 
C:\msys64\tmp\ccmxAAZC.s:198    .text:0000000000000128 .L0 
C:\msys64\tmp\ccmxAAZC.s:208    .text:0000000000000128 .L0 
C:\msys64\tmp\ccmxAAZC.s:61     .text:000000000000002c .L0 
C:\msys64\tmp\ccmxAAZC.s:90     .text:0000000000000058 .L0 
C:\msys64\tmp\ccmxAAZC.s:38     .rodata.str1.8:0000000000000000 .LC0
C:\msys64\tmp\ccmxAAZC.s:93     .text:0000000000000060 .L0 
C:\msys64\tmp\ccmxAAZC.s:108    .text:0000000000000084 .L0 
C:\msys64\tmp\ccmxAAZC.s:115    .text:000000000000009c .L0 
C:\msys64\tmp\ccmxAAZC.s:122    .text:00000000000000b4 .L0 
C:\msys64\tmp\ccmxAAZC.s:41     .rodata.str1.8:0000000000000030 .LC1
C:\msys64\tmp\ccmxAAZC.s:184    .text:0000000000000104 .L0 
C:\msys64\tmp\ccmxAAZC.s:25     .text:0000000000000010 .L2
C:\msys64\tmp\ccmxAAZC.s:147    .text:00000000000000e0 .L7
C:\msys64\tmp\ccmxAAZC.s:139    .text:00000000000000d4 .L5
C:\msys64\tmp\ccmxAAZC.s:1593   .debug_abbrev:0000000000000000 .Ldebug_abbrev0
C:\msys64\tmp\ccmxAAZC.s:2951   .debug_str:0000000000000893 .LASF159
C:\msys64\tmp\ccmxAAZC.s:2711   .debug_str:0000000000000247 .LASF160
C:\msys64\tmp\ccmxAAZC.s:2967   .debug_str:00000000000009d0 .LASF161
C:\msys64\tmp\ccmxAAZC.s:8      .text:0000000000000000 .Ltext0
C:\msys64\tmp\ccmxAAZC.s:201    .text:0000000000000128 .Letext0
C:\msys64\tmp\ccmxAAZC.s:2633   .debug_line:0000000000000000 .Ldebug_line0
C:\msys64\tmp\ccmxAAZC.s:2741   .debug_str:0000000000000313 .LASF0
C:\msys64\tmp\ccmxAAZC.s:2767   .debug_str:00000000000003f2 .LASF1
C:\msys64\tmp\ccmxAAZC.s:2849   .debug_str:000000000000060f .LASF2
C:\msys64\tmp\ccmxAAZC.s:2857   .debug_str:0000000000000653 .LASF4
C:\msys64\tmp\ccmxAAZC.s:2753   .debug_str:0000000000000372 .LASF3
C:\msys64\tmp\ccmxAAZC.s:2645   .debug_str:000000000000004d .LASF5
C:\msys64\tmp\ccmxAAZC.s:2819   .debug_str:0000000000000548 .LASF6
C:\msys64\tmp\ccmxAAZC.s:2811   .debug_str:00000000000004fd .LASF7
C:\msys64\tmp\ccmxAAZC.s:2759   .debug_str:00000000000003ac .LASF8
C:\msys64\tmp\ccmxAAZC.s:2669   .debug_str:00000000000000e9 .LASF9
C:\msys64\tmp\ccmxAAZC.s:2889   .debug_str:0000000000000704 .LASF10
C:\msys64\tmp\ccmxAAZC.s:2699   .debug_str:00000000000001d3 .LASF11
C:\msys64\tmp\ccmxAAZC.s:2877   .debug_str:00000000000006b5 .LASF12
C:\msys64\tmp\ccmxAAZC.s:2905   .debug_str:0000000000000756 .LASF13
C:\msys64\tmp\ccmxAAZC.s:2655   .debug_str:0000000000000093 .LASF15
C:\msys64\tmp\ccmxAAZC.s:2963   .debug_str:00000000000009be .LASF14
C:\msys64\tmp\ccmxAAZC.s:2885   .debug_str:00000000000006f2 .LASF16
C:\msys64\tmp\ccmxAAZC.s:2945   .debug_str:000000000000086e .LASF59
C:\msys64\tmp\ccmxAAZC.s:2937   .debug_str:0000000000000847 .LASF162
C:\msys64\tmp\ccmxAAZC.s:2707   .debug_str:000000000000022c .LASF17
C:\msys64\tmp\ccmxAAZC.s:2903   .debug_str:0000000000000749 .LASF18
C:\msys64\tmp\ccmxAAZC.s:2685   .debug_str:0000000000000165 .LASF19
C:\msys64\tmp\ccmxAAZC.s:2731   .debug_str:00000000000002bb .LASF54
C:\msys64\tmp\ccmxAAZC.s:2739   .debug_str:00000000000002fb .LASF56
GAS LISTING C:\msys64\tmp\ccmxAAZC.s 			page 11


C:\msys64\tmp\ccmxAAZC.s:2927   .debug_str:000000000000080a .LASF20
C:\msys64\tmp\ccmxAAZC.s:2923   .debug_str:00000000000007ef .LASF22
C:\msys64\tmp\ccmxAAZC.s:2845   .debug_str:00000000000005fb .LASF24
C:\msys64\tmp\ccmxAAZC.s:2801   .debug_str:00000000000004b4 .LASF26
C:\msys64\tmp\ccmxAAZC.s:2823   .debug_str:000000000000056a .LASF21
C:\msys64\tmp\ccmxAAZC.s:2825   .debug_str:0000000000000571 .LASF23
C:\msys64\tmp\ccmxAAZC.s:2797   .debug_str:0000000000000499 .LASF25
C:\msys64\tmp\ccmxAAZC.s:2763   .debug_str:00000000000003d6 .LASF27
C:\msys64\tmp\ccmxAAZC.s:2957   .debug_str:000000000000099a .LASF28
C:\msys64\tmp\ccmxAAZC.s:2907   .debug_str:000000000000075f .LASF29
C:\msys64\tmp\ccmxAAZC.s:2793   .debug_str:000000000000048c .LASF30
C:\msys64\tmp\ccmxAAZC.s:2799   .debug_str:00000000000004a0 .LASF31
C:\msys64\tmp\ccmxAAZC.s:2771   .debug_str:0000000000000412 .LASF32
C:\msys64\tmp\ccmxAAZC.s:2829   .debug_str:000000000000058e .LASF33
C:\msys64\tmp\ccmxAAZC.s:2981   .debug_str:0000000000000a56 .LASF34
C:\msys64\tmp\ccmxAAZC.s:2747   .debug_str:000000000000032b .LASF35
C:\msys64\tmp\ccmxAAZC.s:2833   .debug_str:00000000000005b8 .LASF36
C:\msys64\tmp\ccmxAAZC.s:2861   .debug_str:0000000000000664 .LASF37
C:\msys64\tmp\ccmxAAZC.s:2863   .debug_str:0000000000000677 .LASF38
C:\msys64\tmp\ccmxAAZC.s:2675   .debug_str:0000000000000110 .LASF39
C:\msys64\tmp\ccmxAAZC.s:2693   .debug_str:0000000000000191 .LASF40
C:\msys64\tmp\ccmxAAZC.s:2737   .debug_str:00000000000002e9 .LASF41
C:\msys64\tmp\ccmxAAZC.s:2745   .debug_str:0000000000000325 .LASF42
C:\msys64\tmp\ccmxAAZC.s:2687   .debug_str:0000000000000171 .LASF43
C:\msys64\tmp\ccmxAAZC.s:2647   .debug_str:0000000000000054 .LASF44
C:\msys64\tmp\ccmxAAZC.s:2853   .debug_str:0000000000000627 .LASF45
C:\msys64\tmp\ccmxAAZC.s:2847   .debug_str:0000000000000604 .LASF46
C:\msys64\tmp\ccmxAAZC.s:2975   .debug_str:0000000000000a20 .LASF47
C:\msys64\tmp\ccmxAAZC.s:2947   .debug_str:0000000000000874 .LASF48
C:\msys64\tmp\ccmxAAZC.s:2679   .debug_str:0000000000000129 .LASF49
C:\msys64\tmp\ccmxAAZC.s:2941   .debug_str:000000000000085d .LASF50
C:\msys64\tmp\ccmxAAZC.s:2787   .debug_str:0000000000000460 .LASF51
C:\msys64\tmp\ccmxAAZC.s:2757   .debug_str:000000000000039e .LASF61
C:\msys64\tmp\ccmxAAZC.s:2727   .debug_str:0000000000000299 .LASF63
C:\msys64\tmp\ccmxAAZC.s:2843   .debug_str:00000000000005ec .LASF52
C:\msys64\tmp\ccmxAAZC.s:2643   .debug_str:0000000000000030 .LASF53
C:\msys64\tmp\ccmxAAZC.s:2955   .debug_str:000000000000098b .LASF55
C:\msys64\tmp\ccmxAAZC.s:2721   .debug_str:000000000000026a .LASF57
C:\msys64\tmp\ccmxAAZC.s:2815   .debug_str:0000000000000523 .LASF163
C:\msys64\tmp\ccmxAAZC.s:2697   .debug_str:00000000000001aa .LASF164
C:\msys64\tmp\ccmxAAZC.s:2777   .debug_str:0000000000000430 .LASF58
C:\msys64\tmp\ccmxAAZC.s:2729   .debug_str:00000000000002b4 .LASF60
C:\msys64\tmp\ccmxAAZC.s:2893   .debug_str:0000000000000717 .LASF165
C:\msys64\tmp\ccmxAAZC.s:2977   .debug_str:0000000000000a38 .LASF62
C:\msys64\tmp\ccmxAAZC.s:2791   .debug_str:000000000000047d .LASF64
C:\msys64\tmp\ccmxAAZC.s:2873   .debug_str:00000000000006a4 .LASF65
C:\msys64\tmp\ccmxAAZC.s:2709   .debug_str:0000000000000238 .LASF66
C:\msys64\tmp\ccmxAAZC.s:2887   .debug_str:00000000000006f7 .LASF67
C:\msys64\tmp\ccmxAAZC.s:2703   .debug_str:00000000000001fc .LASF68
C:\msys64\tmp\ccmxAAZC.s:2805   .debug_str:00000000000004da .LASF166
C:\msys64\tmp\ccmxAAZC.s:2901   .debug_str:0000000000000741 .LASF114
C:\msys64\tmp\ccmxAAZC.s:2689   .debug_str:0000000000000183 .LASF69
C:\msys64\tmp\ccmxAAZC.s:2809   .debug_str:00000000000004e7 .LASF70
C:\msys64\tmp\ccmxAAZC.s:2895   .debug_str:000000000000071f .LASF71
C:\msys64\tmp\ccmxAAZC.s:2917   .debug_str:00000000000007c1 .LASF73
C:\msys64\tmp\ccmxAAZC.s:2769   .debug_str:0000000000000405 .LASF72
C:\msys64\tmp\ccmxAAZC.s:2659   .debug_str:00000000000000a0 .LASF74
GAS LISTING C:\msys64\tmp\ccmxAAZC.s 			page 12


C:\msys64\tmp\ccmxAAZC.s:2661   .debug_str:00000000000000bc .LASF75
C:\msys64\tmp\ccmxAAZC.s:2755   .debug_str:0000000000000384 .LASF76
C:\msys64\tmp\ccmxAAZC.s:2841   .debug_str:00000000000005e1 .LASF77
C:\msys64\tmp\ccmxAAZC.s:2649   .debug_str:000000000000005f .LASF78
C:\msys64\tmp\ccmxAAZC.s:2881   .debug_str:00000000000006d2 .LASF79
C:\msys64\tmp\ccmxAAZC.s:2663   .debug_str:00000000000000c8 .LASF167
C:\msys64\tmp\ccmxAAZC.s:2641   .debug_str:0000000000000014 .LASF168
C:\msys64\tmp\ccmxAAZC.s:2725   .debug_str:000000000000028b .LASF169
C:\msys64\tmp\ccmxAAZC.s:2751   .debug_str:0000000000000347 .LASF170
C:\msys64\tmp\ccmxAAZC.s:2671   .debug_str:00000000000000f8 .LASF80
C:\msys64\tmp\ccmxAAZC.s:2765   .debug_str:00000000000003e9 .LASF81
C:\msys64\tmp\ccmxAAZC.s:2639   .debug_str:000000000000000f .LASF82
C:\msys64\tmp\ccmxAAZC.s:2973   .debug_str:0000000000000a1b .LASF83
C:\msys64\tmp\ccmxAAZC.s:2871   .debug_str:000000000000069e .LASF84
C:\msys64\tmp\ccmxAAZC.s:2921   .debug_str:00000000000007e7 .LASF85
C:\msys64\tmp\ccmxAAZC.s:2909   .debug_str:0000000000000773 .LASF86
C:\msys64\tmp\ccmxAAZC.s:2929   .debug_str:0000000000000813 .LASF87
C:\msys64\tmp\ccmxAAZC.s:2875   .debug_str:00000000000006ac .LASF88
C:\msys64\tmp\ccmxAAZC.s:2705   .debug_str:0000000000000222 .LASF89
C:\msys64\tmp\ccmxAAZC.s:2919   .debug_str:00000000000007da .LASF90
C:\msys64\tmp\ccmxAAZC.s:2867   .debug_str:0000000000000686 .LASF91
C:\msys64\tmp\ccmxAAZC.s:2971   .debug_str:0000000000000a0e .LASF92
C:\msys64\tmp\ccmxAAZC.s:2931   .debug_str:000000000000081b .LASF93
C:\msys64\tmp\ccmxAAZC.s:2961   .debug_str:00000000000009ac .LASF94
C:\msys64\tmp\ccmxAAZC.s:2899   .debug_str:000000000000072f .LASF95
C:\msys64\tmp\ccmxAAZC.s:2691   .debug_str:000000000000018c .LASF96
C:\msys64\tmp\ccmxAAZC.s:2913   .debug_str:0000000000000795 .LASF97
C:\msys64\tmp\ccmxAAZC.s:2891   .debug_str:0000000000000710 .LASF98
C:\msys64\tmp\ccmxAAZC.s:2915   .debug_str:00000000000007aa .LASF99
C:\msys64\tmp\ccmxAAZC.s:2653   .debug_str:000000000000008d .LASF100
C:\msys64\tmp\ccmxAAZC.s:2831   .debug_str:00000000000005a2 .LASF101
C:\msys64\tmp\ccmxAAZC.s:2821   .debug_str:000000000000054f .LASF171
C:\msys64\tmp\ccmxAAZC.s:2985   .debug_str:0000000000000a76 .LASF107
C:\msys64\tmp\ccmxAAZC.s:2883   .debug_str:00000000000006ed .LASF102
C:\msys64\tmp\ccmxAAZC.s:2795   .debug_str:0000000000000494 .LASF103
C:\msys64\tmp\ccmxAAZC.s:2943   .debug_str:0000000000000867 .LASF104
C:\msys64\tmp\ccmxAAZC.s:2939   .debug_str:0000000000000856 .LASF105
C:\msys64\tmp\ccmxAAZC.s:2969   .debug_str:00000000000009ff .LASF106
C:\msys64\tmp\ccmxAAZC.s:2803   .debug_str:00000000000004c9 .LASF108
C:\msys64\tmp\ccmxAAZC.s:2979   .debug_str:0000000000000a45 .LASF172
C:\msys64\tmp\ccmxAAZC.s:2879   .debug_str:00000000000006cb .LASF109
C:\msys64\tmp\ccmxAAZC.s:2935   .debug_str:0000000000000833 .LASF110
C:\msys64\tmp\ccmxAAZC.s:2749   .debug_str:000000000000033f .LASF111
C:\msys64\tmp\ccmxAAZC.s:2949   .debug_str:000000000000087e .LASF112
C:\msys64\tmp\ccmxAAZC.s:2635   .debug_str:0000000000000000 .LASF113
C:\msys64\tmp\ccmxAAZC.s:2637   .debug_str:0000000000000006 .LASF115
C:\msys64\tmp\ccmxAAZC.s:2713   .debug_str:0000000000000254 .LASF116
C:\msys64\tmp\ccmxAAZC.s:2897   .debug_str:000000000000072a .LASF117
C:\msys64\tmp\ccmxAAZC.s:2779   .debug_str:0000000000000435 .LASF118
C:\msys64\tmp\ccmxAAZC.s:2775   .debug_str:0000000000000420 .LASF119
C:\msys64\tmp\ccmxAAZC.s:2681   .debug_str:000000000000013f .LASF120
C:\msys64\tmp\ccmxAAZC.s:2851   .debug_str:000000000000061d .LASF173
C:\msys64\tmp\ccmxAAZC.s:2781   .debug_str:000000000000043d .LASF174
C:\msys64\tmp\ccmxAAZC.s:2657   .debug_str:000000000000009b .LASF121
C:\msys64\tmp\ccmxAAZC.s:2701   .debug_str:00000000000001e9 .LASF122
C:\msys64\tmp\ccmxAAZC.s:2743   .debug_str:0000000000000320 .LASF123
C:\msys64\tmp\ccmxAAZC.s:2683   .debug_str:0000000000000152 .LASF124
GAS LISTING C:\msys64\tmp\ccmxAAZC.s 			page 13


C:\msys64\tmp\ccmxAAZC.s:2785   .debug_str:000000000000045b .LASF125
C:\msys64\tmp\ccmxAAZC.s:2695   .debug_str:0000000000000197 .LASF126
C:\msys64\tmp\ccmxAAZC.s:2859   .debug_str:000000000000065a .LASF127
C:\msys64\tmp\ccmxAAZC.s:2911   .debug_str:000000000000077d .LASF128
C:\msys64\tmp\ccmxAAZC.s:2667   .debug_str:00000000000000de .LASF129
C:\msys64\tmp\ccmxAAZC.s:2733   .debug_str:00000000000002c6 .LASF130
C:\msys64\tmp\ccmxAAZC.s:2839   .debug_str:00000000000005d8 .LASF131
C:\msys64\tmp\ccmxAAZC.s:2761   .debug_str:00000000000003bf .LASF132
C:\msys64\tmp\ccmxAAZC.s:2959   .debug_str:00000000000009a2 .LASF133
C:\msys64\tmp\ccmxAAZC.s:2983   .debug_str:0000000000000a5e .LASF134
C:\msys64\tmp\ccmxAAZC.s:2869   .debug_str:0000000000000697 .LASF135
C:\msys64\tmp\ccmxAAZC.s:2665   .debug_str:00000000000000d6 .LASF136
C:\msys64\tmp\ccmxAAZC.s:2925   .debug_str:0000000000000804 .LASF137
C:\msys64\tmp\ccmxAAZC.s:2789   .debug_str:0000000000000476 .LASF138
C:\msys64\tmp\ccmxAAZC.s:2717   .debug_str:0000000000000260 .LASF139
C:\msys64\tmp\ccmxAAZC.s:48     .text:000000000000001c .LFB35
C:\msys64\tmp\ccmxAAZC.s:199    .text:0000000000000128 .LFE35
C:\msys64\tmp\ccmxAAZC.s:2807   .debug_str:00000000000004df .LASF140
C:\msys64\tmp\ccmxAAZC.s:2735   .debug_str:00000000000002e0 .LASF141
C:\msys64\tmp\ccmxAAZC.s:2865   .debug_str:000000000000067e .LASF142
C:\msys64\tmp\ccmxAAZC.s:2719   .debug_str:0000000000000265 .LASF143
C:\msys64\tmp\ccmxAAZC.s:63     .text:0000000000000034 .LBB10
C:\msys64\tmp\ccmxAAZC.s:74     .text:0000000000000038 .LBE10
C:\msys64\tmp\ccmxAAZC.s:127    .text:00000000000000c8 .LBB12
C:\msys64\tmp\ccmxAAZC.s:141    .text:00000000000000d4 .LBE12
C:\msys64\tmp\ccmxAAZC.s:2598   .debug_loc:0000000000000000 .LLST0
C:\msys64\tmp\ccmxAAZC.s:153    .text:00000000000000e4 .LBB14
C:\msys64\tmp\ccmxAAZC.s:161    .text:00000000000000e8 .LBE14
C:\msys64\tmp\ccmxAAZC.s:2606   .debug_loc:0000000000000024 .LLST1
C:\msys64\tmp\ccmxAAZC.s:167    .text:00000000000000f0 .LBB16
C:\msys64\tmp\ccmxAAZC.s:174    .text:00000000000000f4 .LBE16
C:\msys64\tmp\ccmxAAZC.s:2613   .debug_loc:0000000000000047 .LLST2
C:\msys64\tmp\ccmxAAZC.s:78     .text:0000000000000040 .LVL3
C:\msys64\tmp\ccmxAAZC.s:86     .text:0000000000000054 .LVL4
C:\msys64\tmp\ccmxAAZC.s:95     .text:0000000000000070 .LVL5
C:\msys64\tmp\ccmxAAZC.s:102    .text:0000000000000080 .LVL6
C:\msys64\tmp\ccmxAAZC.s:111    .text:0000000000000098 .LVL7
C:\msys64\tmp\ccmxAAZC.s:118    .text:00000000000000b0 .LVL8
C:\msys64\tmp\ccmxAAZC.s:125    .text:00000000000000c8 .LVL9
C:\msys64\tmp\ccmxAAZC.s:146    .text:00000000000000e0 .LVL11
C:\msys64\tmp\ccmxAAZC.s:181    .text:0000000000000104 .LVL16
C:\msys64\tmp\ccmxAAZC.s:186    .text:0000000000000114 .LVL17
C:\msys64\tmp\ccmxAAZC.s:2677   .debug_str:0000000000000123 .LASF144
C:\msys64\tmp\ccmxAAZC.s:2783   .debug_str:0000000000000450 .LASF145
C:\msys64\tmp\ccmxAAZC.s:13     .text:0000000000000000 .LFB34
C:\msys64\tmp\ccmxAAZC.s:34     .text:000000000000001c .LFE34
C:\msys64\tmp\ccmxAAZC.s:30     .text:0000000000000018 .LVL0
C:\msys64\tmp\ccmxAAZC.s:2715   .debug_str:000000000000025b .LASF175
C:\msys64\tmp\ccmxAAZC.s:2723   .debug_str:0000000000000286 .LASF146
C:\msys64\tmp\ccmxAAZC.s:2773   .debug_str:000000000000041a .LASF147
C:\msys64\tmp\ccmxAAZC.s:2953   .debug_str:0000000000000966 .LASF148
C:\msys64\tmp\ccmxAAZC.s:2933   .debug_str:0000000000000825 .LASF150
C:\msys64\tmp\ccmxAAZC.s:2813   .debug_str:0000000000000510 .LASF149
C:\msys64\tmp\ccmxAAZC.s:2965   .debug_str:00000000000009c4 .LASF151
C:\msys64\tmp\ccmxAAZC.s:2855   .debug_str:000000000000063f .LASF152
C:\msys64\tmp\ccmxAAZC.s:2837   .debug_str:00000000000005cf .LASF153
C:\msys64\tmp\ccmxAAZC.s:2817   .debug_str:0000000000000538 .LASF154
GAS LISTING C:\msys64\tmp\ccmxAAZC.s 			page 14


C:\msys64\tmp\ccmxAAZC.s:2673   .debug_str:00000000000000fd .LASF155
C:\msys64\tmp\ccmxAAZC.s:2827   .debug_str:0000000000000584 .LASF156
C:\msys64\tmp\ccmxAAZC.s:2651   .debug_str:0000000000000078 .LASF157
C:\msys64\tmp\ccmxAAZC.s:2835   .debug_str:00000000000005bf .LASF158
C:\msys64\tmp\ccmxAAZC.s:138    .text:00000000000000d4 .LVL10
C:\msys64\tmp\ccmxAAZC.s:152    .text:00000000000000e4 .LVL12
C:\msys64\tmp\ccmxAAZC.s:159    .text:00000000000000e8 .LVL13
C:\msys64\tmp\ccmxAAZC.s:166    .text:00000000000000f0 .LVL14
C:\msys64\tmp\ccmxAAZC.s:172    .text:00000000000000f4 .LVL15
C:\msys64\tmp\ccmxAAZC.s:209    .debug_info:0000000000000000 .Ldebug_info0

UNDEFINED SYMBOLS
_Z15thread_dispatchv
_ZN5Riscv14supervisorTrapEv
_ZN7Console4initEv
_Z13thread_createPP7_threadPFvPvES2_
_ZN6Thread7runningE
_Z11printStringPKc
_Z8sem_openPP4_semj
_Z11workerBodyAPv
_Z11workerBodyBPv
_Z10time_sleepm
_Z9sem_closeP4_sem
