GAS LISTING C:\msys64\tmp\ccOR6AX2.s 			page 1


   1              		.file	"main.cpp"
   2              		.option nopic
   3              		.option norelax
   4              		.attribute arch, "rv64i2p0_m2p0_a2p0"
   5              		.attribute unaligned_access, 0
   6              		.attribute stack_align, 16
   7              		.text
   8              	.Ltext0:
   9              		.align	2
  10              		.globl	_Z5idlefPv
  12              	_Z5idlefPv:
  13              	.LFB35:
  14              		.file 1 "src/main.cpp"
   1:src/main.cpp  **** #include "../h/syscall_cpp.hpp"
   2:src/main.cpp  **** #include "../h/printer.h"
   3:src/main.cpp  **** #include "../h/riscv.h"
   4:src/main.cpp  **** #include "../h/Thread.h"
   5:src/main.cpp  **** 
   6:src/main.cpp  **** // 1. Testiranje nasleđivanja: Nit koja čeka na semaforu
   7:src/main.cpp  **** class WorkerThread : public Thread {
   8:src/main.cpp  **** private:
   9:src/main.cpp  ****     Semaphore* sem;
  10:src/main.cpp  ****     const char* name;
  11:src/main.cpp  **** public:
  12:src/main.cpp  ****     WorkerThread(const char* n, Semaphore* s) : Thread(), sem(s), name(n) {}
  13:src/main.cpp  **** 
  14:src/main.cpp  ****     void run() override {
  15:src/main.cpp  ****         printString(name);
  16:src/main.cpp  ****         printString(": Cekam na semaforu...\n");
  17:src/main.cpp  ****         
  18:src/main.cpp  ****         sem->wait(); // Ovde nit mora da stane!
  19:src/main.cpp  ****         
  20:src/main.cpp  ****         printString(name);
  21:src/main.cpp  ****         printString(": Docekao signal i nastavljam rad!\n");
  22:src/main.cpp  ****         
  23:src/main.cpp  ****         for(int i = 0; i < 3; i++) {
  24:src/main.cpp  ****             printString(name);
  25:src/main.cpp  ****             printString(": Radi...\n");
  26:src/main.cpp  ****             Thread::sleep(5);
  27:src/main.cpp  ****         }
  28:src/main.cpp  ****     }
  29:src/main.cpp  **** };
  30:src/main.cpp  **** 
  31:src/main.cpp  **** void idlef(void*) {
  15              		.loc 1 31 19
  16              		.cfi_startproc
  17 0000 130101FF 		addi	sp,sp,-16
  18              		.cfi_def_cfa_offset 16
  19 0004 23341100 		sd	ra,8(sp)
  20 0008 23308100 		sd	s0,0(sp)
  21              		.cfi_offset 1, -8
  22              		.cfi_offset 8, -16
  23 000c 13040101 		addi	s0,sp,16
  24              		.cfi_def_cfa 8, 0
  25              	.L2:
  32:src/main.cpp  ****     while (1) Thread::dispatch();
  26              		.loc 1 32 5 discriminator 1
GAS LISTING C:\msys64\tmp\ccOR6AX2.s 			page 2


  27              		.loc 1 32 15 discriminator 1
  28              		.loc 1 32 31 is_stmt 0 discriminator 1
  29 0010 97000000 		call	_ZN6Thread8dispatchEv
  29      E7800000 
  30              	.LVL0:
  31              		.loc 1 32 5 is_stmt 1 discriminator 1
  32 0018 6FF09FFF 		j	.L2
  33              		.cfi_endproc
  34              	.LFE35:
  36              		.section	.rodata._ZN12WorkerThread3runEv.str1.8,"aMS",@progbits,1
  37              		.align	3
  38              	.LC0:
  39 0000 3A204365 		.string	": Cekam na semaforu...\n"
  39      6B616D20 
  39      6E612073 
  39      656D6166 
  39      6F72752E 
  40              		.align	3
  41              	.LC1:
  42 0018 3A20446F 		.string	": Docekao signal i nastavljam rad!\n"
  42      63656B61 
  42      6F207369 
  42      676E616C 
  42      2069206E 
  43 003c 00000000 		.align	3
  44              	.LC2:
  45 0040 3A205261 		.string	": Radi...\n"
  45      64692E2E 
  45      2E0A00
  46              		.section	.text._ZN12WorkerThread3runEv,"axG",@progbits,_ZN12WorkerThread3runEv,comdat
  47              		.align	2
  48              		.weak	_ZN12WorkerThread3runEv
  50              	_ZN12WorkerThread3runEv:
  51              	.LFB34:
  14:src/main.cpp  ****         printString(name);
  52              		.loc 1 14 10
  53              		.cfi_startproc
  54              	.LVL1:
  55 0000 130101FE 		addi	sp,sp,-32
  56              		.cfi_def_cfa_offset 32
  57 0004 233C1100 		sd	ra,24(sp)
  58 0008 23388100 		sd	s0,16(sp)
  59 000c 23349100 		sd	s1,8(sp)
  60 0010 23302101 		sd	s2,0(sp)
  61              		.cfi_offset 1, -8
  62              		.cfi_offset 8, -16
  63              		.cfi_offset 9, -24
  64              		.cfi_offset 18, -32
  65 0014 13040102 		addi	s0,sp,32
  66              		.cfi_def_cfa 8, 0
  67 0018 13090500 		mv	s2,a0
  15:src/main.cpp  ****         printString(": Cekam na semaforu...\n");
  68              		.loc 1 15 9
  15:src/main.cpp  ****         printString(": Cekam na semaforu...\n");
  69              		.loc 1 15 20 is_stmt 0
  70 001c 03358502 		ld	a0,40(a0)
  71              	.LVL2:
GAS LISTING C:\msys64\tmp\ccOR6AX2.s 			page 3


  72 0020 97000000 		call	_Z11printStringPKc
  72      E7800000 
  73              	.LVL3:
  16:src/main.cpp  ****         
  74              		.loc 1 16 9 is_stmt 1
  16:src/main.cpp  ****         
  75              		.loc 1 16 20 is_stmt 0
  76 0028 17050000 		lla	a0,.LC0
  76      13050500 
  77 0030 97000000 		call	_Z11printStringPKc
  77      E7800000 
  78              	.LVL4:
  18:src/main.cpp  ****         
  79              		.loc 1 18 9 is_stmt 1
  18:src/main.cpp  ****         
  80              		.loc 1 18 18 is_stmt 0
  81 0038 03350902 		ld	a0,32(s2)
  82 003c 97000000 		call	_ZN9Semaphore4waitEv
  82      E7800000 
  83              	.LVL5:
  20:src/main.cpp  ****         printString(": Docekao signal i nastavljam rad!\n");
  84              		.loc 1 20 9 is_stmt 1
  20:src/main.cpp  ****         printString(": Docekao signal i nastavljam rad!\n");
  85              		.loc 1 20 20 is_stmt 0
  86 0044 03358902 		ld	a0,40(s2)
  87 0048 97000000 		call	_Z11printStringPKc
  87      E7800000 
  88              	.LVL6:
  21:src/main.cpp  ****         
  89              		.loc 1 21 9 is_stmt 1
  21:src/main.cpp  ****         
  90              		.loc 1 21 20 is_stmt 0
  91 0050 17050000 		lla	a0,.LC1
  91      13050500 
  92 0058 97000000 		call	_Z11printStringPKc
  92      E7800000 
  93              	.LVL7:
  23:src/main.cpp  ****             printString(name);
  94              		.loc 1 23 9 is_stmt 1
  95              	.LBB17:
  23:src/main.cpp  ****             printString(name);
  96              		.loc 1 23 17 is_stmt 0
  97 0060 93040000 		li	s1,0
  98 0064 6F000003 		j	.L6
  99              	.LVL8:
 100              	.L8:
  24:src/main.cpp  ****             printString(": Radi...\n");
 101              		.loc 1 24 13 is_stmt 1 discriminator 2
  24:src/main.cpp  ****             printString(": Radi...\n");
 102              		.loc 1 24 24 is_stmt 0 discriminator 2
 103 0068 03358902 		ld	a0,40(s2)
 104 006c 97000000 		call	_Z11printStringPKc
 104      E7800000 
 105              	.LVL9:
  25:src/main.cpp  ****             Thread::sleep(5);
 106              		.loc 1 25 13 is_stmt 1 discriminator 2
  25:src/main.cpp  ****             Thread::sleep(5);
GAS LISTING C:\msys64\tmp\ccOR6AX2.s 			page 4


 107              		.loc 1 25 24 is_stmt 0 discriminator 2
 108 0074 17050000 		lla	a0,.LC2
 108      13050500 
 109 007c 97000000 		call	_Z11printStringPKc
 109      E7800000 
 110              	.LVL10:
  26:src/main.cpp  ****         }
 111              		.loc 1 26 13 is_stmt 1 discriminator 2
  26:src/main.cpp  ****         }
 112              		.loc 1 26 26 is_stmt 0 discriminator 2
 113 0084 13055000 		li	a0,5
 114 0088 97000000 		call	_ZN6Thread5sleepEm
 114      E7800000 
 115              	.LVL11:
  23:src/main.cpp  ****             printString(name);
 116              		.loc 1 23 9 is_stmt 1 discriminator 2
 117 0090 9B841400 		addiw	s1,s1,1
 118              	.LVL12:
 119              	.L6:
  23:src/main.cpp  ****             printString(name);
 120              		.loc 1 23 26 discriminator 3
 121 0094 93072000 		li	a5,2
 122 0098 E3D897FC 		ble	s1,a5,.L8
 123              	.LBE17:
  28:src/main.cpp  **** };
 124              		.loc 1 28 5 is_stmt 0
 125 009c 83308101 		ld	ra,24(sp)
 126              		.cfi_restore 1
 127 00a0 03340101 		ld	s0,16(sp)
 128              		.cfi_restore 8
 129              		.cfi_def_cfa 2, 32
 130 00a4 83348100 		ld	s1,8(sp)
 131              		.cfi_restore 9
 132              	.LVL13:
 133 00a8 03390100 		ld	s2,0(sp)
 134              		.cfi_restore 18
 135              	.LVL14:
 136 00ac 13010102 		addi	sp,sp,32
 137              		.cfi_def_cfa_offset 0
 138 00b0 67800000 		jr	ra
 139              		.cfi_endproc
 140              	.LFE34:
 142              		.section	.text._ZN12WorkerThreadD2Ev,"axG",@progbits,_ZN12WorkerThreadD5Ev,comdat
 143              		.align	2
 144              		.weak	_ZN12WorkerThreadD2Ev
 146              	_ZN12WorkerThreadD2Ev:
 147              	.LFB38:
   7:src/main.cpp  **** private:
 148              		.loc 1 7 7 is_stmt 1
 149              		.cfi_startproc
 150              	.LVL15:
 151 0000 130101FF 		addi	sp,sp,-16
 152              		.cfi_def_cfa_offset 16
 153 0004 23341100 		sd	ra,8(sp)
 154 0008 23308100 		sd	s0,0(sp)
 155              		.cfi_offset 1, -8
 156              		.cfi_offset 8, -16
GAS LISTING C:\msys64\tmp\ccOR6AX2.s 			page 5


 157 000c 13040101 		addi	s0,sp,16
 158              		.cfi_def_cfa 8, 0
 159              	.LBB18:
   7:src/main.cpp  **** private:
 160              		.loc 1 7 7 is_stmt 0
 161 0010 97070000 		lla	a5,_ZTV12WorkerThread+16
 161      93870700 
 162 0018 2330F500 		sd	a5,0(a0)
 163 001c 97000000 		call	_ZN6ThreadD2Ev
 163      E7800000 
 164              	.LVL16:
 165              	.LBE18:
 166 0024 83308100 		ld	ra,8(sp)
 167              		.cfi_restore 1
 168 0028 03340100 		ld	s0,0(sp)
 169              		.cfi_restore 8
 170              		.cfi_def_cfa 2, 16
 171 002c 13010101 		addi	sp,sp,16
 172              		.cfi_def_cfa_offset 0
 173 0030 67800000 		jr	ra
 174              		.cfi_endproc
 175              	.LFE38:
 177              		.weak	_ZN12WorkerThreadD1Ev
 178              		.set	_ZN12WorkerThreadD1Ev,_ZN12WorkerThreadD2Ev
 179              		.section	.text._ZN12WorkerThreadD0Ev,"axG",@progbits,_ZN12WorkerThreadD5Ev,comdat
 180              		.align	2
 181              		.weak	_ZN12WorkerThreadD0Ev
 183              	_ZN12WorkerThreadD0Ev:
 184              	.LFB40:
   7:src/main.cpp  **** private:
 185              		.loc 1 7 7 is_stmt 1
 186              		.cfi_startproc
 187              	.LVL17:
 188 0000 130101FE 		addi	sp,sp,-32
 189              		.cfi_def_cfa_offset 32
 190 0004 233C1100 		sd	ra,24(sp)
 191 0008 23388100 		sd	s0,16(sp)
 192 000c 23349100 		sd	s1,8(sp)
 193              		.cfi_offset 1, -8
 194              		.cfi_offset 8, -16
 195              		.cfi_offset 9, -24
 196 0010 13040102 		addi	s0,sp,32
 197              		.cfi_def_cfa 8, 0
 198 0014 93040500 		mv	s1,a0
 199              	.LVL18:
 200              	.LBB19:
 201              	.LBB20:
   7:src/main.cpp  **** private:
 202              		.loc 1 7 7 is_stmt 0
 203 0018 97070000 		lla	a5,_ZTV12WorkerThread+16
 203      93870700 
 204 0020 2330F500 		sd	a5,0(a0)
 205 0024 97000000 		call	_ZN6ThreadD2Ev
 205      E7800000 
 206              	.LVL19:
 207              	.LBE20:
 208              	.LBE19:
GAS LISTING C:\msys64\tmp\ccOR6AX2.s 			page 6


 209 002c 13850400 		mv	a0,s1
 210 0030 97000000 		call	_ZdlPv
 210      E7800000 
 211              	.LVL20:
 212 0038 83308101 		ld	ra,24(sp)
 213              		.cfi_restore 1
 214 003c 03340101 		ld	s0,16(sp)
 215              		.cfi_restore 8
 216              		.cfi_def_cfa 2, 32
 217 0040 83348100 		ld	s1,8(sp)
 218              		.cfi_restore 9
 219              	.LVL21:
 220 0044 13010102 		addi	sp,sp,32
 221              		.cfi_def_cfa_offset 0
 222 0048 67800000 		jr	ra
 223              		.cfi_endproc
 224              	.LFE40:
 226              		.section	.rodata.str1.8,"aMS",@progbits,1
 227              		.align	3
 228              	.LC3:
 229 0000 2D2D2D20 		.string	"--- Testiranje C++ API (Semaphore & Inheritance) ---\n"
 229      54657374 
 229      6972616E 
 229      6A652043 
 229      2B2B2041 
 230 0036 0000     		.align	3
 231              	.LC4:
 232 0038 4E49545F 		.string	"NIT_1"
 232      3100
 233 003e 0000     		.align	3
 234              	.LC5:
 235 0040 4E49545F 		.string	"NIT_2"
 235      3200
 236 0046 0000     		.align	3
 237              	.LC6:
 238 0048 4D61696E 		.string	"Main: Niti bi trebalo da su blokirane, ja spavam...\n"
 238      3A204E69 
 238      74692062 
 238      69207472 
 238      6562616C 
 239 007d 000000   		.align	3
 240              	.LC7:
 241 0080 4D61696E 		.string	"Main: Signaliziram prvi put...\n"
 241      3A205369 
 241      676E616C 
 241      697A6972 
 241      616D2070 
 242              		.align	3
 243              	.LC8:
 244 00a0 4D61696E 		.string	"Main: Signaliziram drugi put...\n"
 244      3A205369 
 244      676E616C 
 244      697A6972 
 244      616D2064 
 245 00c1 00000000 		.align	3
 245      000000
 246              	.LC9:
GAS LISTING C:\msys64\tmp\ccOR6AX2.s 			page 7


 247 00c8 54657374 		.string	"Test zavrsen.\n"
 247      207A6176 
 247      7273656E 
 247      2E0A00
 248              		.text
 249              		.align	2
 250              		.globl	main
 252              	main:
 253              	.LFB36:
  33:src/main.cpp  **** }
  34:src/main.cpp  **** 
  35:src/main.cpp  **** int main() {
 254              		.loc 1 35 12 is_stmt 1
 255              		.cfi_startproc
 256              		.cfi_personality 0x9b,DW.ref.__gxx_personality_v0
 257              		.cfi_lsda 0x1b,.LLSDA36
 258 001c 130101FC 		addi	sp,sp,-64
 259              		.cfi_def_cfa_offset 64
 260 0020 233C1102 		sd	ra,56(sp)
 261 0024 23388102 		sd	s0,48(sp)
 262 0028 23349102 		sd	s1,40(sp)
 263 002c 23302103 		sd	s2,32(sp)
 264 0030 233C3101 		sd	s3,24(sp)
 265 0034 23384101 		sd	s4,16(sp)
 266              		.cfi_offset 1, -8
 267              		.cfi_offset 8, -16
 268              		.cfi_offset 9, -24
 269              		.cfi_offset 18, -32
 270              		.cfi_offset 19, -40
 271              		.cfi_offset 20, -48
 272 0038 13040104 		addi	s0,sp,64
 273              		.cfi_def_cfa 8, 0
  36:src/main.cpp  ****     // --- INICIJALIZACIJA PRE UPALJENIH PREKIDA ---
  37:src/main.cpp  ****     
  38:src/main.cpp  ****     // Postavi trap handler
  39:src/main.cpp  ****     Riscv::w_stvec((uint64) &Riscv::supervisorTrap);
 274              		.loc 1 39 5
 275              		.loc 1 39 19 is_stmt 0
 276 003c 97070000 		lla	a5,_ZN5Riscv14supervisorTrapEv
 276      93870700 
 277              	.LVL22:
 278              	.LBB21:
 279              	.LBB22:
 280              		.file 2 "src/../h/riscv.h"
   1:src/../h/riscv.h ****     //
   2:src/../h/riscv.h ****     // Created by os on 3/31/26.
   3:src/../h/riscv.h ****     //
   4:src/../h/riscv.h **** 
   5:src/../h/riscv.h ****     #ifndef PROJECT_BASE_RISCB_H
   6:src/../h/riscv.h ****     #define PROJECT_BASE_RISCB_H
   7:src/../h/riscv.h ****     #include "../lib/hw.h"
   8:src/../h/riscv.h **** 
   9:src/../h/riscv.h ****     class Riscv {
  10:src/../h/riscv.h ****     public:
  11:src/../h/riscv.h **** 	
  12:src/../h/riscv.h **** 	static void popSppSpie();
  13:src/../h/riscv.h **** 	
GAS LISTING C:\msys64\tmp\ccOR6AX2.s 			page 8


  14:src/../h/riscv.h **** 	
  15:src/../h/riscv.h ****         static uint64 r_scause();
  16:src/../h/riscv.h **** 
  17:src/../h/riscv.h ****         static void w_scause(uint64 scause);
  18:src/../h/riscv.h **** 
  19:src/../h/riscv.h ****         static uint64 r_sepc();
  20:src/../h/riscv.h **** 
  21:src/../h/riscv.h ****         static void w_sepc(uint64 sepc);
  22:src/../h/riscv.h **** 
  23:src/../h/riscv.h ****         static uint64 r_stvec();
  24:src/../h/riscv.h **** 
  25:src/../h/riscv.h ****         static void w_stvec(uint64 stvec);
  26:src/../h/riscv.h **** 
  27:src/../h/riscv.h ****         static uint64 r_stval();
  28:src/../h/riscv.h **** 
  29:src/../h/riscv.h ****         static void w_stval(uint64 stval);
  30:src/../h/riscv.h **** 
  31:src/../h/riscv.h ****         enum BitMaskSip {
  32:src/../h/riscv.h ****             SIP_SSIP = (1 << 1),
  33:src/../h/riscv.h ****             SIP_STIP = (1 << 5),
  34:src/../h/riscv.h ****             SIP_SEIP = (1 << 9),
  35:src/../h/riscv.h ****         };
  36:src/../h/riscv.h **** 
  37:src/../h/riscv.h ****         static void ms_sip(uint64 mask);
  38:src/../h/riscv.h **** 
  39:src/../h/riscv.h ****         static void mc_sip(uint64 mask);
  40:src/../h/riscv.h **** 
  41:src/../h/riscv.h ****         static uint64 r_sip();
  42:src/../h/riscv.h **** 
  43:src/../h/riscv.h ****         static void w_sip(uint64 sip);
  44:src/../h/riscv.h **** 
  45:src/../h/riscv.h ****         enum BitMaskSstatus {
  46:src/../h/riscv.h ****             SSTATUS_SIE = (1 << 1),
  47:src/../h/riscv.h ****             SSTATUS_SPIE = (1 << 5),
  48:src/../h/riscv.h ****             SSTATUS_SPP = (1 <<8),
  49:src/../h/riscv.h ****         };
  50:src/../h/riscv.h **** 
  51:src/../h/riscv.h ****         static void ms_sstatus(uint64 mask);
  52:src/../h/riscv.h **** 
  53:src/../h/riscv.h ****         static void mc_sstatus(uint64 mask);
  54:src/../h/riscv.h **** 
  55:src/../h/riscv.h ****         static uint64 r_sstatus();
  56:src/../h/riscv.h **** 
  57:src/../h/riscv.h ****         static void w_sstatus(uint64 sstatus);
  58:src/../h/riscv.h **** 
  59:src/../h/riscv.h ****         static uint64 readARegister(int reg_number);
  60:src/../h/riscv.h **** 
  61:src/../h/riscv.h ****         static void writeARegister(int reg_number, uint64 value);
  62:src/../h/riscv.h **** 
  63:src/../h/riscv.h **** 
  64:src/../h/riscv.h ****         static void supervisorTrap();
  65:src/../h/riscv.h ****     private:
  66:src/../h/riscv.h ****         static void handleSupervisorTrap(uint64 a0, uint64 a1, uint64 a2, uint64 a3, uint64 a4, uin
  67:src/../h/riscv.h **** 
  68:src/../h/riscv.h ****     };
  69:src/../h/riscv.h **** 
  70:src/../h/riscv.h ****     inline uint64 Riscv::r_scause()
GAS LISTING C:\msys64\tmp\ccOR6AX2.s 			page 9


  71:src/../h/riscv.h ****     {
  72:src/../h/riscv.h ****         uint64 volatile scause;
  73:src/../h/riscv.h ****         __asm__ volatile ("csrr %[scause], scause" : [scause] "=r"(scause));
  74:src/../h/riscv.h ****         return scause;
  75:src/../h/riscv.h ****     }
  76:src/../h/riscv.h **** 
  77:src/../h/riscv.h ****     inline void Riscv::w_scause(uint64 scause)
  78:src/../h/riscv.h ****     {
  79:src/../h/riscv.h ****         __asm__ volatile ("csrw scause, %[scause]" : : [scause] "r"(scause));
  80:src/../h/riscv.h ****     }
  81:src/../h/riscv.h **** 
  82:src/../h/riscv.h ****     inline uint64 Riscv::r_sepc()
  83:src/../h/riscv.h ****     {
  84:src/../h/riscv.h ****         uint64 volatile sepc;
  85:src/../h/riscv.h ****         __asm__ volatile ("csrr %[sepc], sepc" : [sepc] "=r"(sepc));
  86:src/../h/riscv.h ****         return sepc;
  87:src/../h/riscv.h ****     }
  88:src/../h/riscv.h **** 
  89:src/../h/riscv.h ****     inline void Riscv::w_sepc(uint64 sepc)
  90:src/../h/riscv.h ****     {
  91:src/../h/riscv.h ****         __asm__ volatile ("csrw sepc, %[sepc]" : : [sepc] "r"(sepc));
  92:src/../h/riscv.h ****     }
  93:src/../h/riscv.h **** 
  94:src/../h/riscv.h ****     inline uint64 Riscv::r_stvec()
  95:src/../h/riscv.h ****     {
  96:src/../h/riscv.h ****         uint64 volatile stvec;
  97:src/../h/riscv.h ****         __asm__ volatile ("csrr %[stvec], stvec" : [stvec] "=r"(stvec));
  98:src/../h/riscv.h ****         return stvec;
  99:src/../h/riscv.h ****     }
 100:src/../h/riscv.h **** 
 101:src/../h/riscv.h ****     inline void Riscv::w_stvec(uint64 stvec)
 102:src/../h/riscv.h ****     {
 103:src/../h/riscv.h ****         __asm__ volatile ("csrw stvec, %[stvec]" : : [stvec] "r"(stvec));
 281              		.loc 2 103 9 is_stmt 1
 282              	 #APP
 283              	# 103 "src/../h/riscv.h" 1
 104              	    }
 284              		csrw stvec, a5
 285              	# 0 "" 2
 286              	.LVL23:
 287              	 #NO_APP
 288              	.LBE22:
 289              	.LBE21:
  40:src/main.cpp  **** 
  41:src/main.cpp  ****     // Registruj main nit
  42:src/main.cpp  ****     thread_t mainHandle;
 290              		.loc 1 42 5
  43:src/main.cpp  ****     thread_create(&mainHandle, nullptr, nullptr);
 291              		.loc 1 43 5
 292              		.loc 1 43 18 is_stmt 0
 293 0048 13060000 		li	a2,0
 294 004c 93050000 		li	a1,0
 295 0050 130584FC 		addi	a0,s0,-56
 296              	.LEHB0:
 297 0054 97000000 		call	_Z13thread_createPP7_threadPFvPvES2_
 297      E7800000 
 298              	.LVL24:
GAS LISTING C:\msys64\tmp\ccOR6AX2.s 			page 10


  44:src/main.cpp  ****     _thread::running = (_thread*)mainHandle;
 299              		.loc 1 44 5 is_stmt 1
 300              		.loc 1 44 22 is_stmt 0
 301 005c 833784FC 		ld	a5,-56(s0)
 302 0060 17070000 		sd	a5,_ZN7_thread7runningE,a4
 302      2330F700 
  45:src/main.cpp  **** 
  46:src/main.cpp  ****     // Kreiraj idle nit
  47:src/main.cpp  ****     thread_t idleHandle;
 303              		.loc 1 47 5 is_stmt 1
  48:src/main.cpp  ****     thread_create(&idleHandle, idlef, nullptr);
 304              		.loc 1 48 5
 305              		.loc 1 48 18 is_stmt 0
 306 0068 13060000 		li	a2,0
 307 006c 97050000 		lla	a1,_Z5idlefPv
 307      93850500 
 308 0074 130504FC 		addi	a0,s0,-64
 309 0078 97000000 		call	_Z13thread_createPP7_threadPFvPvES2_
 309      E7800000 
 310              	.LVL25:
  49:src/main.cpp  **** 
  50:src/main.cpp  ****     printString("--- Testiranje C++ API (Semaphore & Inheritance) ---\n");
 311              		.loc 1 50 5 is_stmt 1
 312              		.loc 1 50 16 is_stmt 0
 313 0080 17050000 		lla	a0,.LC3
 313      13050500 
 314 0088 97000000 		call	_Z11printStringPKc
 314      E7800000 
 315              	.LVL26:
  51:src/main.cpp  **** 
  52:src/main.cpp  ****     // Kreiraj semafor (vrednost 0 znači da će prvi wait() odmah blokirati)
  53:src/main.cpp  ****     Semaphore* testSem = new Semaphore(0);
 316              		.loc 1 53 5 is_stmt 1
 317              		.loc 1 53 41 is_stmt 0
 318 0090 13050001 		li	a0,16
 319 0094 97000000 		call	_Znwm
 319      E7800000 
 320              	.LVL27:
 321              	.LEHE0:
 322 009c 130A0500 		mv	s4,a0
 323 00a0 93050000 		li	a1,0
 324              	.LEHB1:
 325 00a4 97000000 		call	_ZN9SemaphoreC1Ej
 325      E7800000 
 326              	.LVL28:
 327              	.LEHE1:
  54:src/main.cpp  **** 
  55:src/main.cpp  ****     // Kreiraj niti preko nasleđivanja (ovo testira tvoj 'wrapper')
  56:src/main.cpp  ****     WorkerThread* thr1 = new WorkerThread("NIT_1", testSem);
 328              		.loc 1 56 5 is_stmt 1 discriminator 3
 329              		.loc 1 56 59 is_stmt 0 discriminator 3
 330 00ac 13050003 		li	a0,48
 331              	.LEHB2:
 332 00b0 97000000 		call	_Znwm
 332      E7800000 
 333              	.LVL29:
 334              	.LEHE2:
GAS LISTING C:\msys64\tmp\ccOR6AX2.s 			page 11


 335 00b8 93090500 		mv	s3,a0
 336              	.LVL30:
 337              	.LEHB3:
 338              	.LBB23:
 339              	.LBB24:
  12:src/main.cpp  **** 
 340              		.loc 1 12 73 discriminator 3
 341 00bc 97000000 		call	_ZN6ThreadC2Ev
 341      E7800000 
 342              	.LVL31:
 343              	.LEHE3:
  12:src/main.cpp  **** 
 344              		.loc 1 12 73
 345 00c4 97070000 		lla	a5,_ZTV12WorkerThread+16
 345      93870700 
 346 00cc 23B0F900 		sd	a5,0(s3)
 347 00d0 23B04903 		sd	s4,32(s3)
 348 00d4 97070000 		lla	a5,.LC4
 348      93870700 
 349 00dc 23B4F902 		sd	a5,40(s3)
 350              	.LVL32:
 351              	.LBE24:
 352              	.LBE23:
  57:src/main.cpp  ****     WorkerThread* thr2 = new WorkerThread("NIT_2", testSem);
 353              		.loc 1 57 5 is_stmt 1
 354              		.loc 1 57 59 is_stmt 0
 355 00e0 13050003 		li	a0,48
 356              	.LEHB4:
 357 00e4 97000000 		call	_Znwm
 357      E7800000 
 358              	.LVL33:
 359              	.LEHE4:
 360 00ec 13090500 		mv	s2,a0
 361              	.LVL34:
 362              	.LEHB5:
 363              	.LBB25:
 364              	.LBB26:
  12:src/main.cpp  **** 
 365              		.loc 1 12 73
 366 00f0 97000000 		call	_ZN6ThreadC2Ev
 366      E7800000 
 367              	.LVL35:
 368              	.LEHE5:
 369 00f8 97070000 		lla	a5,_ZTV12WorkerThread+16
 369      93870700 
 370 0100 2330F900 		sd	a5,0(s2)
 371 0104 23304903 		sd	s4,32(s2)
 372 0108 97070000 		lla	a5,.LC5
 372      93870700 
 373 0110 2334F902 		sd	a5,40(s2)
 374              	.LVL36:
 375              	.LBE26:
 376              	.LBE25:
  58:src/main.cpp  **** 
  59:src/main.cpp  ****     // Startuj niti (one će se odmah blokirati na semaforu)
  60:src/main.cpp  ****     thr1->start();
 377              		.loc 1 60 5 is_stmt 1
GAS LISTING C:\msys64\tmp\ccOR6AX2.s 			page 12


 378              		.loc 1 60 16 is_stmt 0
 379 0114 13850900 		mv	a0,s3
 380              	.LEHB6:
 381 0118 97000000 		call	_ZN6Thread5startEv
 381      E7800000 
 382              	.LVL37:
  61:src/main.cpp  ****     thr2->start();
 383              		.loc 1 61 5 is_stmt 1
 384              		.loc 1 61 16 is_stmt 0
 385 0120 13050900 		mv	a0,s2
 386 0124 97000000 		call	_ZN6Thread5startEv
 386      E7800000 
 387              	.LVL38:
  62:src/main.cpp  **** 
  63:src/main.cpp  ****     // --- PALJENJE PREKIDA ---
  64:src/main.cpp  ****     Riscv::ms_sstatus(Riscv::SSTATUS_SIE);
 388              		.loc 1 64 5 is_stmt 1
 389              	.LBB27:
 390              	.LBB28:
 105:src/../h/riscv.h **** 
 106:src/../h/riscv.h ****     inline uint64 Riscv::r_stval()
 107:src/../h/riscv.h ****     {
 108:src/../h/riscv.h ****         uint64 volatile stval;
 109:src/../h/riscv.h ****         __asm__ volatile ("csrr %[stval], stval" : [stval] "=r"(stval));
 110:src/../h/riscv.h ****         return stval;
 111:src/../h/riscv.h ****     }
 112:src/../h/riscv.h **** 
 113:src/../h/riscv.h ****     inline void Riscv::w_stval(uint64 stval)
 114:src/../h/riscv.h ****     {
 115:src/../h/riscv.h ****         __asm__ volatile ("csrw stval, %[stval]" : : [stval] "r"(stval));
 116:src/../h/riscv.h ****     }
 117:src/../h/riscv.h **** 
 118:src/../h/riscv.h ****     inline void Riscv::ms_sip(uint64 mask)
 119:src/../h/riscv.h ****     {
 120:src/../h/riscv.h ****         __asm__ volatile ("csrs sip, %[mask]" : : [mask] "r"(mask));
 121:src/../h/riscv.h ****     }
 122:src/../h/riscv.h **** 
 123:src/../h/riscv.h ****     inline void Riscv::mc_sip(uint64 mask)
 124:src/../h/riscv.h ****     {
 125:src/../h/riscv.h ****         __asm__ volatile ("csrc sip, %[mask]" : : [mask] "r"(mask));
 126:src/../h/riscv.h ****     }
 127:src/../h/riscv.h **** 
 128:src/../h/riscv.h ****     inline uint64 Riscv::r_sip()
 129:src/../h/riscv.h ****     {
 130:src/../h/riscv.h ****         uint64 volatile sip;
 131:src/../h/riscv.h ****         __asm__ volatile ("csrr %[sip], sip" : [sip] "=r"(sip));
 132:src/../h/riscv.h ****         return sip;
 133:src/../h/riscv.h ****     }
 134:src/../h/riscv.h **** 
 135:src/../h/riscv.h ****     inline void Riscv::w_sip(uint64 sip)
 136:src/../h/riscv.h ****     {
 137:src/../h/riscv.h ****         __asm__ volatile ("csrw sip, %[sip]" : : [sip] "r"(sip));
 138:src/../h/riscv.h ****     }
 139:src/../h/riscv.h **** 
 140:src/../h/riscv.h ****     inline void Riscv::ms_sstatus(uint64 mask)
 141:src/../h/riscv.h ****     {
 142:src/../h/riscv.h ****         __asm__ volatile ("csrs sstatus, %[mask]" : : [mask] "r"(mask));
GAS LISTING C:\msys64\tmp\ccOR6AX2.s 			page 13


 391              		.loc 2 142 9
 392 012c 93072000 		li	a5,2
 393              	 #APP
 394              	# 142 "src/../h/riscv.h" 1
 143              	    }
 395              		csrs sstatus, a5
 396              	# 0 "" 2
 397              	.LVL39:
 398              	 #NO_APP
 399              	.LBE28:
 400              	.LBE27:
  65:src/main.cpp  **** 
  66:src/main.cpp  ****     // Main malo spava dok niti čekaju
  67:src/main.cpp  ****     for(int i = 0; i < 2; i++) {
 401              		.loc 1 67 5
 402              	.LBB29:
 403              		.loc 1 67 13 is_stmt 0
 404 0134 93040000 		li	s1,0
 405              	.LVL40:
 406              	.L15:
 407              		.loc 1 67 22 is_stmt 1 discriminator 1
 408 0138 93071000 		li	a5,1
 409 013c 63C49702 		bgt	s1,a5,.L14
  68:src/main.cpp  ****         printString("Main: Niti bi trebalo da su blokirane, ja spavam...\n");
 410              		.loc 1 68 9
 411              		.loc 1 68 20 is_stmt 0
 412 0140 17050000 		lla	a0,.LC6
 412      13050500 
 413 0148 97000000 		call	_Z11printStringPKc
 413      E7800000 
 414              	.LVL41:
  69:src/main.cpp  ****         Thread::sleep(15);
 415              		.loc 1 69 9 is_stmt 1
 416              		.loc 1 69 22 is_stmt 0
 417 0150 1305F000 		li	a0,15
 418 0154 97000000 		call	_ZN6Thread5sleepEm
 418      E7800000 
 419              	.LVL42:
  67:src/main.cpp  ****         printString("Main: Niti bi trebalo da su blokirane, ja spavam...\n");
 420              		.loc 1 67 5 is_stmt 1
 421 015c 9B841400 		addiw	s1,s1,1
 422              	.LVL43:
 423 0160 6FF09FFD 		j	.L15
 424              	.LVL44:
 425              	.L14:
 426              	.LBE29:
  70:src/main.cpp  ****     }
  71:src/main.cpp  **** 
  72:src/main.cpp  ****     // Puštamo prvu nit
  73:src/main.cpp  ****     printString("Main: Signaliziram prvi put...\n");
 427              		.loc 1 73 5
 428              		.loc 1 73 16 is_stmt 0
 429 0164 17050000 		lla	a0,.LC7
 429      13050500 
 430 016c 97000000 		call	_Z11printStringPKc
 430      E7800000 
 431              	.LVL45:
GAS LISTING C:\msys64\tmp\ccOR6AX2.s 			page 14


  74:src/main.cpp  ****     testSem->signal();
 432              		.loc 1 74 5 is_stmt 1
 433              		.loc 1 74 20 is_stmt 0
 434 0174 13050A00 		mv	a0,s4
 435 0178 97000000 		call	_ZN9Semaphore6signalEv
 435      E7800000 
 436              	.LVL46:
  75:src/main.cpp  ****     Thread::sleep(10);
 437              		.loc 1 75 5 is_stmt 1
 438              		.loc 1 75 18 is_stmt 0
 439 0180 1305A000 		li	a0,10
 440 0184 97000000 		call	_ZN6Thread5sleepEm
 440      E7800000 
 441              	.LVL47:
  76:src/main.cpp  **** 
  77:src/main.cpp  ****     // Puštamo drugu nit
  78:src/main.cpp  ****     printString("Main: Signaliziram drugi put...\n");
 442              		.loc 1 78 5 is_stmt 1
 443              		.loc 1 78 16 is_stmt 0
 444 018c 17050000 		lla	a0,.LC8
 444      13050500 
 445 0194 97000000 		call	_Z11printStringPKc
 445      E7800000 
 446              	.LVL48:
  79:src/main.cpp  ****     testSem->signal();
 447              		.loc 1 79 5 is_stmt 1
 448              		.loc 1 79 20 is_stmt 0
 449 019c 13050A00 		mv	a0,s4
 450 01a0 97000000 		call	_ZN9Semaphore6signalEv
 450      E7800000 
 451              	.LVL49:
 452              	.LBB30:
  80:src/main.cpp  **** 
  81:src/main.cpp  ****     // Čekamo da sve završe
  82:src/main.cpp  ****     for(int i = 0; i < 5; i++) {
 453              		.loc 1 82 13
 454 01a8 93040000 		li	s1,0
 455              	.LVL50:
 456 01ac 6F004001 		j	.L17
 457              	.LVL51:
 458              	.L29:
  83:src/main.cpp  ****         Thread::sleep(10);
 459              		.loc 1 83 9 is_stmt 1
 460              		.loc 1 83 22 is_stmt 0
 461 01b0 1305A000 		li	a0,10
 462 01b4 97000000 		call	_ZN6Thread5sleepEm
 462      E7800000 
 463              	.LVL52:
  82:src/main.cpp  ****         Thread::sleep(10);
 464              		.loc 1 82 5 is_stmt 1
 465 01bc 9B841400 		addiw	s1,s1,1
 466              	.LVL53:
 467              	.L17:
  82:src/main.cpp  ****         Thread::sleep(10);
 468              		.loc 1 82 22 discriminator 1
 469 01c0 93074000 		li	a5,4
 470 01c4 E3D697FE 		ble	s1,a5,.L29
GAS LISTING C:\msys64\tmp\ccOR6AX2.s 			page 15


 471              	.LBE30:
  84:src/main.cpp  ****     }
  85:src/main.cpp  **** 
  86:src/main.cpp  ****     printString("Test zavrsen.\n");
 472              		.loc 1 86 5
 473              		.loc 1 86 16 is_stmt 0
 474 01c8 17050000 		lla	a0,.LC9
 474      13050500 
 475 01d0 97000000 		call	_Z11printStringPKc
 475      E7800000 
 476              	.LVL54:
 477              	.LEHE6:
  87:src/main.cpp  **** 
  88:src/main.cpp  ****     // Čišćenje memorije
  89:src/main.cpp  ****     delete thr1;
 478              		.loc 1 89 5 is_stmt 1
 479 01d8 638A0900 		beq	s3,zero,.L18
 480              		.loc 1 89 12 is_stmt 0 discriminator 1
 481 01dc 83B70900 		ld	a5,0(s3)
 482 01e0 83B78700 		ld	a5,8(a5)
 483 01e4 13850900 		mv	a0,s3
 484 01e8 E7800700 		jalr	a5
 485              	.LVL55:
 486              	.L18:
  90:src/main.cpp  ****     delete thr2;
 487              		.loc 1 90 5 is_stmt 1
 488 01ec 630A0900 		beq	s2,zero,.L19
 489              		.loc 1 90 12 is_stmt 0 discriminator 1
 490 01f0 83370900 		ld	a5,0(s2)
 491 01f4 83B78700 		ld	a5,8(a5)
 492 01f8 13050900 		mv	a0,s2
 493 01fc E7800700 		jalr	a5
 494              	.LVL56:
 495              	.L19:
  91:src/main.cpp  ****     delete testSem;
 496              		.loc 1 91 5 is_stmt 1
 497 0200 630A0A00 		beq	s4,zero,.L27
 498              		.loc 1 91 12 is_stmt 0 discriminator 1
 499 0204 83370A00 		ld	a5,0(s4)
 500 0208 83B78700 		ld	a5,8(a5)
 501 020c 13050A00 		mv	a0,s4
 502 0210 E7800700 		jalr	a5
 503              	.LVL57:
  92:src/main.cpp  **** 
  93:src/main.cpp  ****     return 0;
 504              		.loc 1 93 5 is_stmt 1 discriminator 1
 505              	.L27:
  94:src/main.cpp  **** }...
 506              		.loc 1 94 1 is_stmt 0
 507 0214 13050000 		li	a0,0
 508 0218 83308103 		ld	ra,56(sp)
 509              		.cfi_remember_state
 510              		.cfi_restore 1
 511 021c 03340103 		ld	s0,48(sp)
 512              		.cfi_restore 8
 513              		.cfi_def_cfa 2, 64
 514 0220 83348102 		ld	s1,40(sp)
GAS LISTING C:\msys64\tmp\ccOR6AX2.s 			page 16


 515              		.cfi_restore 9
 516              	.LVL58:
 517 0224 03390102 		ld	s2,32(sp)
 518              		.cfi_restore 18
 519              	.LVL59:
 520 0228 83398101 		ld	s3,24(sp)
 521              		.cfi_restore 19
 522              	.LVL60:
 523 022c 033A0101 		ld	s4,16(sp)
 524              		.cfi_restore 20
 525              	.LVL61:
 526 0230 13010104 		addi	sp,sp,64
 527              		.cfi_def_cfa_offset 0
 528 0234 67800000 		jr	ra
 529              	.L24:
 530              		.cfi_restore_state
  53:src/main.cpp  ****     Semaphore* testSem = new Semaphore(0);
 531              		.loc 1 53 41
 532 0238 93040500 		mv	s1,a0
 533 023c 13050A00 		mv	a0,s4
 534 0240 97000000 		call	_ZdlPv
 534      E7800000 
 535              	.LVL62:
 536 0248 13850400 		mv	a0,s1
 537              	.LEHB7:
 538 024c 97000000 		call	_Unwind_Resume
 538      E7800000 
 539              	.LVL63:
 540              	.LEHE7:
 541              	.L25:
  56:src/main.cpp  ****     WorkerThread* thr1 = new WorkerThread("NIT_1", testSem);
 542              		.loc 1 56 59
 543 0254 93040500 		mv	s1,a0
 544 0258 13850900 		mv	a0,s3
 545 025c 97000000 		call	_ZdlPv
 545      E7800000 
 546              	.LVL64:
 547 0264 13850400 		mv	a0,s1
 548              	.LEHB8:
 549 0268 97000000 		call	_Unwind_Resume
 549      E7800000 
 550              	.LVL65:
 551              	.LEHE8:
 552              	.L26:
  57:src/main.cpp  ****     WorkerThread* thr2 = new WorkerThread("NIT_2", testSem);
 553              		.loc 1 57 59
 554 0270 93040500 		mv	s1,a0
 555 0274 13050900 		mv	a0,s2
 556 0278 97000000 		call	_ZdlPv
 556      E7800000 
 557              	.LVL66:
 558 0280 13850400 		mv	a0,s1
 559              	.LEHB9:
 560 0284 97000000 		call	_Unwind_Resume
 560      E7800000 
 561              	.LVL67:
 562              	.LEHE9:
GAS LISTING C:\msys64\tmp\ccOR6AX2.s 			page 17


 563              		.cfi_endproc
 564              	.LFE36:
 565              		.globl	__gxx_personality_v0
 566              		.section	.gcc_except_table,"aw",@progbits
 567              	.LLSDA36:
 568 0000 FF       		.byte	0xff
 569 0001 FF       		.byte	0xff
 570 0002 03       		.byte	0x3
 571 0003 8201     		.byte	0x82,0x1
 572 0005 00000000 		.4byte	.LEHB0-.LFB36
 573 0009 00000000 		.4byte	.LEHE0-.LEHB0
 574 000d 00000000 		.4byte	0
 575 0011 00       		.byte	0
 576 0012 00000000 		.4byte	.LEHB1-.LFB36
 577 0016 00000000 		.4byte	.LEHE1-.LEHB1
 578 001a 00000000 		.4byte	.L24-.LFB36
 579 001e 00       		.byte	0
 580 001f 00000000 		.4byte	.LEHB2-.LFB36
 581 0023 00000000 		.4byte	.LEHE2-.LEHB2
 582 0027 00000000 		.4byte	0
 583 002b 00       		.byte	0
 584 002c 00000000 		.4byte	.LEHB3-.LFB36
 585 0030 00000000 		.4byte	.LEHE3-.LEHB3
 586 0034 00000000 		.4byte	.L25-.LFB36
 587 0038 00       		.byte	0
 588 0039 00000000 		.4byte	.LEHB4-.LFB36
 589 003d 00000000 		.4byte	.LEHE4-.LEHB4
 590 0041 00000000 		.4byte	0
 591 0045 00       		.byte	0
 592 0046 00000000 		.4byte	.LEHB5-.LFB36
 593 004a 00000000 		.4byte	.LEHE5-.LEHB5
 594 004e 00000000 		.4byte	.L26-.LFB36
 595 0052 00       		.byte	0
 596 0053 00000000 		.4byte	.LEHB6-.LFB36
 597 0057 00000000 		.4byte	.LEHE6-.LEHB6
 598 005b 00000000 		.4byte	0
 599 005f 00       		.byte	0
 600 0060 00000000 		.4byte	.LEHB7-.LFB36
 601 0064 00000000 		.4byte	.LEHE7-.LEHB7
 602 0068 00000000 		.4byte	0
 603 006c 00       		.byte	0
 604 006d 00000000 		.4byte	.LEHB8-.LFB36
 605 0071 00000000 		.4byte	.LEHE8-.LEHB8
 606 0075 00000000 		.4byte	0
 607 0079 00       		.byte	0
 608 007a 00000000 		.4byte	.LEHB9-.LFB36
 609 007e 00000000 		.4byte	.LEHE9-.LEHB9
 610 0082 00000000 		.4byte	0
 611 0086 00       		.byte	0
 612              		.text
 614              		.weak	_ZTV12WorkerThread
 615              		.section	.rodata._ZTV12WorkerThread,"aG",@progbits,_ZTV12WorkerThread,comdat
 616              		.align	3
 619              	_ZTV12WorkerThread:
 620 0000 00000000 		.dword	0
 620      00000000 
 621 0008 00000000 		.dword	0
GAS LISTING C:\msys64\tmp\ccOR6AX2.s 			page 18


 621      00000000 
 622 0010 00000000 		.dword	_ZN12WorkerThreadD1Ev
 622      00000000 
 623 0018 00000000 		.dword	_ZN12WorkerThreadD0Ev
 623      00000000 
 624 0020 00000000 		.dword	_ZN12WorkerThread3runEv
 624      00000000 
 625              		.text
 626              	.Letext0:
 627              		.file 3 "src/../h/../lib/hw.h"
 628              		.file 4 "src/../h/syscall_c.hpp"
 629              		.file 5 "src/../h/Thread.h"
 630              		.file 6 "src/../h/syscall_cpp.hpp"
 631              		.file 7 "src/../h/printer.h"
 3810              		.align	3
 3813              	DW.ref.__gxx_personality_v0:
 3814 0000 00000000 		.dword	__gxx_personality_v0
 3814      00000000 
 3815              		.ident	"GCC: (GNU) 10.1.0"
GAS LISTING C:\msys64\tmp\ccOR6AX2.s 			page 19


DEFINED SYMBOLS
                            *ABS*:0000000000000000 main.cpp
C:\msys64\tmp\ccOR6AX2.s:12     .text:0000000000000000 _Z5idlefPv
C:\msys64\tmp\ccOR6AX2.s:16     .text:0000000000000000 .L0 
C:\msys64\tmp\ccOR6AX2.s:17     .text:0000000000000000 .L0 
C:\msys64\tmp\ccOR6AX2.s:18     .text:0000000000000004 .L0 
C:\msys64\tmp\ccOR6AX2.s:21     .text:000000000000000c .L0 
C:\msys64\tmp\ccOR6AX2.s:22     .text:000000000000000c .L0 
C:\msys64\tmp\ccOR6AX2.s:24     .text:0000000000000010 .L0 
C:\msys64\tmp\ccOR6AX2.s:27     .text:0000000000000010 .L0 
C:\msys64\tmp\ccOR6AX2.s:28     .text:0000000000000010 .L0 
C:\msys64\tmp\ccOR6AX2.s:29     .text:0000000000000010 .L0 
C:\msys64\tmp\ccOR6AX2.s:32     .text:0000000000000018 .L0 
C:\msys64\tmp\ccOR6AX2.s:33     .text:000000000000001c .L0 
C:\msys64\tmp\ccOR6AX2.s:50     .text._ZN12WorkerThread3runEv:0000000000000000 _ZN12WorkerThread3runEv
C:\msys64\tmp\ccOR6AX2.s:53     .text._ZN12WorkerThread3runEv:0000000000000000 .L0 
C:\msys64\tmp\ccOR6AX2.s:55     .text._ZN12WorkerThread3runEv:0000000000000000 .L0 
C:\msys64\tmp\ccOR6AX2.s:56     .text._ZN12WorkerThread3runEv:0000000000000004 .L0 
C:\msys64\tmp\ccOR6AX2.s:61     .text._ZN12WorkerThread3runEv:0000000000000014 .L0 
C:\msys64\tmp\ccOR6AX2.s:62     .text._ZN12WorkerThread3runEv:0000000000000014 .L0 
C:\msys64\tmp\ccOR6AX2.s:63     .text._ZN12WorkerThread3runEv:0000000000000014 .L0 
C:\msys64\tmp\ccOR6AX2.s:64     .text._ZN12WorkerThread3runEv:0000000000000014 .L0 
C:\msys64\tmp\ccOR6AX2.s:66     .text._ZN12WorkerThread3runEv:0000000000000018 .L0 
C:\msys64\tmp\ccOR6AX2.s:69     .text._ZN12WorkerThread3runEv:000000000000001c .L0 
C:\msys64\tmp\ccOR6AX2.s:70     .text._ZN12WorkerThread3runEv:000000000000001c .L0 
C:\msys64\tmp\ccOR6AX2.s:75     .text._ZN12WorkerThread3runEv:0000000000000028 .L0 
C:\msys64\tmp\ccOR6AX2.s:76     .text._ZN12WorkerThread3runEv:0000000000000028 .L0 
C:\msys64\tmp\ccOR6AX2.s:80     .text._ZN12WorkerThread3runEv:0000000000000038 .L0 
C:\msys64\tmp\ccOR6AX2.s:81     .text._ZN12WorkerThread3runEv:0000000000000038 .L0 
C:\msys64\tmp\ccOR6AX2.s:85     .text._ZN12WorkerThread3runEv:0000000000000044 .L0 
C:\msys64\tmp\ccOR6AX2.s:86     .text._ZN12WorkerThread3runEv:0000000000000044 .L0 
C:\msys64\tmp\ccOR6AX2.s:90     .text._ZN12WorkerThread3runEv:0000000000000050 .L0 
C:\msys64\tmp\ccOR6AX2.s:91     .text._ZN12WorkerThread3runEv:0000000000000050 .L0 
C:\msys64\tmp\ccOR6AX2.s:96     .text._ZN12WorkerThread3runEv:0000000000000060 .L0 
C:\msys64\tmp\ccOR6AX2.s:97     .text._ZN12WorkerThread3runEv:0000000000000060 .L0 
C:\msys64\tmp\ccOR6AX2.s:102    .text._ZN12WorkerThread3runEv:0000000000000068 .L0 
C:\msys64\tmp\ccOR6AX2.s:103    .text._ZN12WorkerThread3runEv:0000000000000068 .L0 
C:\msys64\tmp\ccOR6AX2.s:107    .text._ZN12WorkerThread3runEv:0000000000000074 .L0 
C:\msys64\tmp\ccOR6AX2.s:108    .text._ZN12WorkerThread3runEv:0000000000000074 .L0 
C:\msys64\tmp\ccOR6AX2.s:112    .text._ZN12WorkerThread3runEv:0000000000000084 .L0 
C:\msys64\tmp\ccOR6AX2.s:113    .text._ZN12WorkerThread3runEv:0000000000000084 .L0 
C:\msys64\tmp\ccOR6AX2.s:117    .text._ZN12WorkerThread3runEv:0000000000000090 .L0 
C:\msys64\tmp\ccOR6AX2.s:121    .text._ZN12WorkerThread3runEv:0000000000000094 .L0 
C:\msys64\tmp\ccOR6AX2.s:125    .text._ZN12WorkerThread3runEv:000000000000009c .L0 
C:\msys64\tmp\ccOR6AX2.s:126    .text._ZN12WorkerThread3runEv:00000000000000a0 .L0 
C:\msys64\tmp\ccOR6AX2.s:128    .text._ZN12WorkerThread3runEv:00000000000000a4 .L0 
C:\msys64\tmp\ccOR6AX2.s:129    .text._ZN12WorkerThread3runEv:00000000000000a4 .L0 
C:\msys64\tmp\ccOR6AX2.s:131    .text._ZN12WorkerThread3runEv:00000000000000a8 .L0 
C:\msys64\tmp\ccOR6AX2.s:134    .text._ZN12WorkerThread3runEv:00000000000000ac .L0 
C:\msys64\tmp\ccOR6AX2.s:137    .text._ZN12WorkerThread3runEv:00000000000000b0 .L0 
C:\msys64\tmp\ccOR6AX2.s:139    .text._ZN12WorkerThread3runEv:00000000000000b4 .L0 
C:\msys64\tmp\ccOR6AX2.s:146    .text._ZN12WorkerThreadD2Ev:0000000000000000 _ZN12WorkerThreadD2Ev
C:\msys64\tmp\ccOR6AX2.s:149    .text._ZN12WorkerThreadD2Ev:0000000000000000 .L0 
C:\msys64\tmp\ccOR6AX2.s:151    .text._ZN12WorkerThreadD2Ev:0000000000000000 .L0 
C:\msys64\tmp\ccOR6AX2.s:152    .text._ZN12WorkerThreadD2Ev:0000000000000004 .L0 
C:\msys64\tmp\ccOR6AX2.s:155    .text._ZN12WorkerThreadD2Ev:000000000000000c .L0 
C:\msys64\tmp\ccOR6AX2.s:156    .text._ZN12WorkerThreadD2Ev:000000000000000c .L0 
GAS LISTING C:\msys64\tmp\ccOR6AX2.s 			page 20


C:\msys64\tmp\ccOR6AX2.s:158    .text._ZN12WorkerThreadD2Ev:0000000000000010 .L0 
C:\msys64\tmp\ccOR6AX2.s:619    .rodata._ZTV12WorkerThread:0000000000000000 _ZTV12WorkerThread
C:\msys64\tmp\ccOR6AX2.s:161    .text._ZN12WorkerThreadD2Ev:0000000000000010 .L0 
C:\msys64\tmp\ccOR6AX2.s:167    .text._ZN12WorkerThreadD2Ev:0000000000000028 .L0 
C:\msys64\tmp\ccOR6AX2.s:169    .text._ZN12WorkerThreadD2Ev:000000000000002c .L0 
C:\msys64\tmp\ccOR6AX2.s:170    .text._ZN12WorkerThreadD2Ev:000000000000002c .L0 
C:\msys64\tmp\ccOR6AX2.s:172    .text._ZN12WorkerThreadD2Ev:0000000000000030 .L0 
C:\msys64\tmp\ccOR6AX2.s:174    .text._ZN12WorkerThreadD2Ev:0000000000000034 .L0 
C:\msys64\tmp\ccOR6AX2.s:146    .text._ZN12WorkerThreadD2Ev:0000000000000000 _ZN12WorkerThreadD1Ev
C:\msys64\tmp\ccOR6AX2.s:183    .text._ZN12WorkerThreadD0Ev:0000000000000000 _ZN12WorkerThreadD0Ev
C:\msys64\tmp\ccOR6AX2.s:186    .text._ZN12WorkerThreadD0Ev:0000000000000000 .L0 
C:\msys64\tmp\ccOR6AX2.s:188    .text._ZN12WorkerThreadD0Ev:0000000000000000 .L0 
C:\msys64\tmp\ccOR6AX2.s:189    .text._ZN12WorkerThreadD0Ev:0000000000000004 .L0 
C:\msys64\tmp\ccOR6AX2.s:193    .text._ZN12WorkerThreadD0Ev:0000000000000010 .L0 
C:\msys64\tmp\ccOR6AX2.s:194    .text._ZN12WorkerThreadD0Ev:0000000000000010 .L0 
C:\msys64\tmp\ccOR6AX2.s:195    .text._ZN12WorkerThreadD0Ev:0000000000000010 .L0 
C:\msys64\tmp\ccOR6AX2.s:197    .text._ZN12WorkerThreadD0Ev:0000000000000014 .L0 
C:\msys64\tmp\ccOR6AX2.s:203    .text._ZN12WorkerThreadD0Ev:0000000000000018 .L0 
C:\msys64\tmp\ccOR6AX2.s:213    .text._ZN12WorkerThreadD0Ev:000000000000003c .L0 
C:\msys64\tmp\ccOR6AX2.s:215    .text._ZN12WorkerThreadD0Ev:0000000000000040 .L0 
C:\msys64\tmp\ccOR6AX2.s:216    .text._ZN12WorkerThreadD0Ev:0000000000000040 .L0 
C:\msys64\tmp\ccOR6AX2.s:218    .text._ZN12WorkerThreadD0Ev:0000000000000044 .L0 
C:\msys64\tmp\ccOR6AX2.s:221    .text._ZN12WorkerThreadD0Ev:0000000000000048 .L0 
C:\msys64\tmp\ccOR6AX2.s:223    .text._ZN12WorkerThreadD0Ev:000000000000004c .L0 
C:\msys64\tmp\ccOR6AX2.s:252    .text:000000000000001c main
C:\msys64\tmp\ccOR6AX2.s:255    .text:000000000000001c .L0 
C:\msys64\tmp\ccOR6AX2.s:3813   .sdata.DW.ref.__gxx_personality_v0:0000000000000000 DW.ref.__gxx_personality_v0
C:\msys64\tmp\ccOR6AX2.s:258    .text:000000000000001c .L0 
C:\msys64\tmp\ccOR6AX2.s:259    .text:0000000000000020 .L0 
C:\msys64\tmp\ccOR6AX2.s:266    .text:0000000000000038 .L0 
C:\msys64\tmp\ccOR6AX2.s:267    .text:0000000000000038 .L0 
C:\msys64\tmp\ccOR6AX2.s:268    .text:0000000000000038 .L0 
C:\msys64\tmp\ccOR6AX2.s:269    .text:0000000000000038 .L0 
C:\msys64\tmp\ccOR6AX2.s:270    .text:0000000000000038 .L0 
C:\msys64\tmp\ccOR6AX2.s:271    .text:0000000000000038 .L0 
C:\msys64\tmp\ccOR6AX2.s:273    .text:000000000000003c .L0 
C:\msys64\tmp\ccOR6AX2.s:275    .text:000000000000003c .L0 
C:\msys64\tmp\ccOR6AX2.s:276    .text:000000000000003c .L0 
    src/../h/riscv.h:103    .text:0000000000000044 .L0 
C:\msys64\tmp\ccOR6AX2.s:291    .text:0000000000000048 .L0 
C:\msys64\tmp\ccOR6AX2.s:292    .text:0000000000000048 .L0 
C:\msys64\tmp\ccOR6AX2.s:293    .text:0000000000000048 .L0 
C:\msys64\tmp\ccOR6AX2.s:300    .text:000000000000005c .L0 
C:\msys64\tmp\ccOR6AX2.s:301    .text:000000000000005c .L0 
C:\msys64\tmp\ccOR6AX2.s:304    .text:0000000000000068 .L0 
C:\msys64\tmp\ccOR6AX2.s:305    .text:0000000000000068 .L0 
C:\msys64\tmp\ccOR6AX2.s:306    .text:0000000000000068 .L0 
C:\msys64\tmp\ccOR6AX2.s:312    .text:0000000000000080 .L0 
C:\msys64\tmp\ccOR6AX2.s:313    .text:0000000000000080 .L0 
C:\msys64\tmp\ccOR6AX2.s:317    .text:0000000000000090 .L0 
C:\msys64\tmp\ccOR6AX2.s:318    .text:0000000000000090 .L0 
C:\msys64\tmp\ccOR6AX2.s:329    .text:00000000000000ac .L0 
C:\msys64\tmp\ccOR6AX2.s:330    .text:00000000000000ac .L0 
C:\msys64\tmp\ccOR6AX2.s:341    .text:00000000000000bc .L0 
C:\msys64\tmp\ccOR6AX2.s:345    .text:00000000000000c4 .L0 
C:\msys64\tmp\ccOR6AX2.s:354    .text:00000000000000e0 .L0 
C:\msys64\tmp\ccOR6AX2.s:355    .text:00000000000000e0 .L0 
GAS LISTING C:\msys64\tmp\ccOR6AX2.s 			page 21


C:\msys64\tmp\ccOR6AX2.s:366    .text:00000000000000f0 .L0 
C:\msys64\tmp\ccOR6AX2.s:378    .text:0000000000000114 .L0 
C:\msys64\tmp\ccOR6AX2.s:379    .text:0000000000000114 .L0 
C:\msys64\tmp\ccOR6AX2.s:384    .text:0000000000000120 .L0 
C:\msys64\tmp\ccOR6AX2.s:385    .text:0000000000000120 .L0 
C:\msys64\tmp\ccOR6AX2.s:391    .text:000000000000012c .L0 
C:\msys64\tmp\ccOR6AX2.s:392    .text:000000000000012c .L0 
C:\msys64\tmp\ccOR6AX2.s:403    .text:0000000000000134 .L0 
C:\msys64\tmp\ccOR6AX2.s:404    .text:0000000000000134 .L0 
C:\msys64\tmp\ccOR6AX2.s:408    .text:0000000000000138 .L0 
C:\msys64\tmp\ccOR6AX2.s:411    .text:0000000000000140 .L0 
C:\msys64\tmp\ccOR6AX2.s:412    .text:0000000000000140 .L0 
C:\msys64\tmp\ccOR6AX2.s:416    .text:0000000000000150 .L0 
C:\msys64\tmp\ccOR6AX2.s:417    .text:0000000000000150 .L0 
C:\msys64\tmp\ccOR6AX2.s:421    .text:000000000000015c .L0 
C:\msys64\tmp\ccOR6AX2.s:428    .text:0000000000000164 .L0 
C:\msys64\tmp\ccOR6AX2.s:429    .text:0000000000000164 .L0 
C:\msys64\tmp\ccOR6AX2.s:433    .text:0000000000000174 .L0 
C:\msys64\tmp\ccOR6AX2.s:434    .text:0000000000000174 .L0 
C:\msys64\tmp\ccOR6AX2.s:438    .text:0000000000000180 .L0 
C:\msys64\tmp\ccOR6AX2.s:439    .text:0000000000000180 .L0 
C:\msys64\tmp\ccOR6AX2.s:443    .text:000000000000018c .L0 
C:\msys64\tmp\ccOR6AX2.s:444    .text:000000000000018c .L0 
C:\msys64\tmp\ccOR6AX2.s:448    .text:000000000000019c .L0 
C:\msys64\tmp\ccOR6AX2.s:449    .text:000000000000019c .L0 
C:\msys64\tmp\ccOR6AX2.s:454    .text:00000000000001a8 .L0 
C:\msys64\tmp\ccOR6AX2.s:460    .text:00000000000001b0 .L0 
C:\msys64\tmp\ccOR6AX2.s:461    .text:00000000000001b0 .L0 
C:\msys64\tmp\ccOR6AX2.s:465    .text:00000000000001bc .L0 
C:\msys64\tmp\ccOR6AX2.s:469    .text:00000000000001c0 .L0 
C:\msys64\tmp\ccOR6AX2.s:473    .text:00000000000001c8 .L0 
C:\msys64\tmp\ccOR6AX2.s:474    .text:00000000000001c8 .L0 
C:\msys64\tmp\ccOR6AX2.s:479    .text:00000000000001d8 .L0 
C:\msys64\tmp\ccOR6AX2.s:481    .text:00000000000001dc .L0 
C:\msys64\tmp\ccOR6AX2.s:488    .text:00000000000001ec .L0 
C:\msys64\tmp\ccOR6AX2.s:490    .text:00000000000001f0 .L0 
C:\msys64\tmp\ccOR6AX2.s:497    .text:0000000000000200 .L0 
C:\msys64\tmp\ccOR6AX2.s:499    .text:0000000000000204 .L0 
C:\msys64\tmp\ccOR6AX2.s:506    .text:0000000000000214 .L0 
C:\msys64\tmp\ccOR6AX2.s:507    .text:0000000000000214 .L0 
C:\msys64\tmp\ccOR6AX2.s:509    .text:000000000000021c .L0 
C:\msys64\tmp\ccOR6AX2.s:510    .text:000000000000021c .L0 
C:\msys64\tmp\ccOR6AX2.s:512    .text:0000000000000220 .L0 
C:\msys64\tmp\ccOR6AX2.s:513    .text:0000000000000220 .L0 
C:\msys64\tmp\ccOR6AX2.s:515    .text:0000000000000224 .L0 
C:\msys64\tmp\ccOR6AX2.s:518    .text:0000000000000228 .L0 
C:\msys64\tmp\ccOR6AX2.s:521    .text:000000000000022c .L0 
C:\msys64\tmp\ccOR6AX2.s:524    .text:0000000000000230 .L0 
C:\msys64\tmp\ccOR6AX2.s:527    .text:0000000000000234 .L0 
C:\msys64\tmp\ccOR6AX2.s:530    .text:0000000000000238 .L0 
C:\msys64\tmp\ccOR6AX2.s:532    .text:0000000000000238 .L0 
C:\msys64\tmp\ccOR6AX2.s:543    .text:0000000000000254 .L0 
C:\msys64\tmp\ccOR6AX2.s:554    .text:0000000000000270 .L0 
C:\msys64\tmp\ccOR6AX2.s:563    .text:000000000000028c .L0 
C:\msys64\tmp\ccOR6AX2.s:632    .text:000000000000028c .L0 
C:\msys64\tmp\ccOR6AX2.s:142    .text._ZN12WorkerThread3runEv:00000000000000b4 .L0 
C:\msys64\tmp\ccOR6AX2.s:179    .text._ZN12WorkerThreadD2Ev:0000000000000034 .L0 
GAS LISTING C:\msys64\tmp\ccOR6AX2.s 			page 22


C:\msys64\tmp\ccOR6AX2.s:226    .text._ZN12WorkerThreadD0Ev:000000000000004c .L0 
C:\msys64\tmp\ccOR6AX2.s:276    .text:000000000000003c .L0 
C:\msys64\tmp\ccOR6AX2.s:302    .text:0000000000000060 .L0 
C:\msys64\tmp\ccOR6AX2.s:307    .text:000000000000006c .L0 
C:\msys64\tmp\ccOR6AX2.s:228    .rodata.str1.8:0000000000000000 .LC3
C:\msys64\tmp\ccOR6AX2.s:313    .text:0000000000000080 .L0 
C:\msys64\tmp\ccOR6AX2.s:345    .text:00000000000000c4 .L0 
C:\msys64\tmp\ccOR6AX2.s:231    .rodata.str1.8:0000000000000038 .LC4
C:\msys64\tmp\ccOR6AX2.s:348    .text:00000000000000d4 .L0 
C:\msys64\tmp\ccOR6AX2.s:369    .text:00000000000000f8 .L0 
C:\msys64\tmp\ccOR6AX2.s:234    .rodata.str1.8:0000000000000040 .LC5
C:\msys64\tmp\ccOR6AX2.s:372    .text:0000000000000108 .L0 
C:\msys64\tmp\ccOR6AX2.s:237    .rodata.str1.8:0000000000000048 .LC6
C:\msys64\tmp\ccOR6AX2.s:412    .text:0000000000000140 .L0 
C:\msys64\tmp\ccOR6AX2.s:240    .rodata.str1.8:0000000000000080 .LC7
C:\msys64\tmp\ccOR6AX2.s:429    .text:0000000000000164 .L0 
C:\msys64\tmp\ccOR6AX2.s:243    .rodata.str1.8:00000000000000a0 .LC8
C:\msys64\tmp\ccOR6AX2.s:444    .text:000000000000018c .L0 
C:\msys64\tmp\ccOR6AX2.s:246    .rodata.str1.8:00000000000000c8 .LC9
C:\msys64\tmp\ccOR6AX2.s:474    .text:00000000000001c8 .L0 
C:\msys64\tmp\ccOR6AX2.s:25     .text:0000000000000010 .L2
C:\msys64\tmp\ccOR6AX2.s:425    .text:0000000000000164 .L14
C:\msys64\tmp\ccOR6AX2.s:406    .text:0000000000000138 .L15
C:\msys64\tmp\ccOR6AX2.s:467    .text:00000000000001c0 .L17
C:\msys64\tmp\ccOR6AX2.s:458    .text:00000000000001b0 .L29
C:\msys64\tmp\ccOR6AX2.s:486    .text:00000000000001ec .L18
C:\msys64\tmp\ccOR6AX2.s:495    .text:0000000000000200 .L19
C:\msys64\tmp\ccOR6AX2.s:505    .text:0000000000000214 .L27
C:\msys64\tmp\ccOR6AX2.s:38     .rodata._ZN12WorkerThread3runEv.str1.8:0000000000000000 .LC0
C:\msys64\tmp\ccOR6AX2.s:76     .text._ZN12WorkerThread3runEv:0000000000000028 .L0 
C:\msys64\tmp\ccOR6AX2.s:41     .rodata._ZN12WorkerThread3runEv.str1.8:0000000000000018 .LC1
C:\msys64\tmp\ccOR6AX2.s:91     .text._ZN12WorkerThread3runEv:0000000000000050 .L0 
C:\msys64\tmp\ccOR6AX2.s:44     .rodata._ZN12WorkerThread3runEv.str1.8:0000000000000040 .LC2
C:\msys64\tmp\ccOR6AX2.s:108    .text._ZN12WorkerThread3runEv:0000000000000074 .L0 
C:\msys64\tmp\ccOR6AX2.s:119    .text._ZN12WorkerThread3runEv:0000000000000094 .L6
C:\msys64\tmp\ccOR6AX2.s:100    .text._ZN12WorkerThread3runEv:0000000000000068 .L8
C:\msys64\tmp\ccOR6AX2.s:161    .text._ZN12WorkerThreadD2Ev:0000000000000010 .L0 
C:\msys64\tmp\ccOR6AX2.s:203    .text._ZN12WorkerThreadD0Ev:0000000000000018 .L0 
C:\msys64\tmp\ccOR6AX2.s:296    .text:0000000000000054 .LEHB0
C:\msys64\tmp\ccOR6AX2.s:253    .text:000000000000001c .LFB36
C:\msys64\tmp\ccOR6AX2.s:321    .text:000000000000009c .LEHE0
C:\msys64\tmp\ccOR6AX2.s:324    .text:00000000000000a4 .LEHB1
C:\msys64\tmp\ccOR6AX2.s:327    .text:00000000000000ac .LEHE1
C:\msys64\tmp\ccOR6AX2.s:529    .text:0000000000000238 .L24
C:\msys64\tmp\ccOR6AX2.s:331    .text:00000000000000b0 .LEHB2
C:\msys64\tmp\ccOR6AX2.s:334    .text:00000000000000b8 .LEHE2
C:\msys64\tmp\ccOR6AX2.s:337    .text:00000000000000bc .LEHB3
C:\msys64\tmp\ccOR6AX2.s:343    .text:00000000000000c4 .LEHE3
C:\msys64\tmp\ccOR6AX2.s:541    .text:0000000000000254 .L25
C:\msys64\tmp\ccOR6AX2.s:356    .text:00000000000000e4 .LEHB4
C:\msys64\tmp\ccOR6AX2.s:359    .text:00000000000000ec .LEHE4
C:\msys64\tmp\ccOR6AX2.s:362    .text:00000000000000f0 .LEHB5
C:\msys64\tmp\ccOR6AX2.s:368    .text:00000000000000f8 .LEHE5
C:\msys64\tmp\ccOR6AX2.s:552    .text:0000000000000270 .L26
C:\msys64\tmp\ccOR6AX2.s:380    .text:0000000000000118 .LEHB6
C:\msys64\tmp\ccOR6AX2.s:477    .text:00000000000001d8 .LEHE6
C:\msys64\tmp\ccOR6AX2.s:537    .text:000000000000024c .LEHB7
GAS LISTING C:\msys64\tmp\ccOR6AX2.s 			page 23


C:\msys64\tmp\ccOR6AX2.s:540    .text:0000000000000254 .LEHE7
C:\msys64\tmp\ccOR6AX2.s:548    .text:0000000000000268 .LEHB8
C:\msys64\tmp\ccOR6AX2.s:551    .text:0000000000000270 .LEHE8
C:\msys64\tmp\ccOR6AX2.s:559    .text:0000000000000284 .LEHB9
C:\msys64\tmp\ccOR6AX2.s:562    .text:000000000000028c .LEHE9
C:\msys64\tmp\ccOR6AX2.s:2182   .debug_abbrev:0000000000000000 .Ldebug_abbrev0
C:\msys64\tmp\ccOR6AX2.s:3557   .debug_str:0000000000000145 .LASF130
C:\msys64\tmp\ccOR6AX2.s:3633   .debug_str:000000000000043c .LASF131
C:\msys64\tmp\ccOR6AX2.s:3705   .debug_str:0000000000000631 .LASF132
C:\msys64\tmp\ccOR6AX2.s:3499   .debug_ranges:0000000000000000 .Ldebug_ranges0
C:\msys64\tmp\ccOR6AX2.s:3511   .debug_line:0000000000000000 .Ldebug_line0
C:\msys64\tmp\ccOR6AX2.s:3667   .debug_str:0000000000000543 .LASF0
C:\msys64\tmp\ccOR6AX2.s:3689   .debug_str:00000000000005b1 .LASF1
C:\msys64\tmp\ccOR6AX2.s:3653   .debug_str:00000000000004d7 .LASF2
C:\msys64\tmp\ccOR6AX2.s:3621   .debug_str:0000000000000407 .LASF4
C:\msys64\tmp\ccOR6AX2.s:3733   .debug_str:0000000000000767 .LASF3
C:\msys64\tmp\ccOR6AX2.s:3541   .debug_str:00000000000000dc .LASF5
C:\msys64\tmp\ccOR6AX2.s:3567   .debug_str:000000000000025d .LASF6
C:\msys64\tmp\ccOR6AX2.s:3691   .debug_str:00000000000005c4 .LASF7
C:\msys64\tmp\ccOR6AX2.s:3665   .debug_str:0000000000000530 .LASF8
C:\msys64\tmp\ccOR6AX2.s:3703   .debug_str:0000000000000622 .LASF9
C:\msys64\tmp\ccOR6AX2.s:3555   .debug_str:0000000000000139 .LASF10
C:\msys64\tmp\ccOR6AX2.s:3723   .debug_str:0000000000000717 .LASF11
C:\msys64\tmp\ccOR6AX2.s:3561   .debug_str:0000000000000224 .LASF12
C:\msys64\tmp\ccOR6AX2.s:3513   .debug_str:0000000000000000 .LASF13
C:\msys64\tmp\ccOR6AX2.s:3619   .debug_str:00000000000003ff .LASF42
C:\msys64\tmp\ccOR6AX2.s:3529   .debug_str:000000000000007a .LASF133
C:\msys64\tmp\ccOR6AX2.s:3785   .debug_str:00000000000008f6 .LASF14
C:\msys64\tmp\ccOR6AX2.s:3727   .debug_str:0000000000000738 .LASF16
C:\msys64\tmp\ccOR6AX2.s:3769   .debug_str:0000000000000888 .LASF15
C:\msys64\tmp\ccOR6AX2.s:3695   .debug_str:00000000000005e2 .LASF17
C:\msys64\tmp\ccOR6AX2.s:3631   .debug_str:000000000000042f .LASF18
C:\msys64\tmp\ccOR6AX2.s:3591   .debug_str:000000000000030b .LASF19
C:\msys64\tmp\ccOR6AX2.s:3545   .debug_str:00000000000000ef .LASF134
C:\msys64\tmp\ccOR6AX2.s:3581   .debug_str:00000000000002cb .LASF135
C:\msys64\tmp\ccOR6AX2.s:3671   .debug_str:0000000000000557 .LASF47
C:\msys64\tmp\ccOR6AX2.s:3751   .debug_str:000000000000080a .LASF49
C:\msys64\tmp\ccOR6AX2.s:3693   .debug_str:00000000000005d7 .LASF20
C:\msys64\tmp\ccOR6AX2.s:3515   .debug_str:0000000000000009 .LASF22
C:\msys64\tmp\ccOR6AX2.s:3647   .debug_str:00000000000004a6 .LASF21
C:\msys64\tmp\ccOR6AX2.s:3707   .debug_str:0000000000000660 .LASF23
C:\msys64\tmp\ccOR6AX2.s:3655   .debug_str:00000000000004e5 .LASF24
C:\msys64\tmp\ccOR6AX2.s:3649   .debug_str:00000000000004b3 .LASF25
C:\msys64\tmp\ccOR6AX2.s:3725   .debug_str:000000000000072d .LASF26
C:\msys64\tmp\ccOR6AX2.s:3713   .debug_str:0000000000000698 .LASF27
C:\msys64\tmp\ccOR6AX2.s:3531   .debug_str:0000000000000082 .LASF52
C:\msys64\tmp\ccOR6AX2.s:3639   .debug_str:000000000000045e .LASF136
C:\msys64\tmp\ccOR6AX2.s:3605   .debug_str:0000000000000392 .LASF137
C:\msys64\tmp\ccOR6AX2.s:3533   .debug_str:000000000000009e .LASF91
C:\msys64\tmp\ccOR6AX2.s:3717   .debug_str:00000000000006b7 .LASF138
C:\msys64\tmp\ccOR6AX2.s:3799   .debug_str:0000000000000950 .LASF28
C:\msys64\tmp\ccOR6AX2.s:3651   .debug_str:00000000000004ce .LASF29
C:\msys64\tmp\ccOR6AX2.s:3625   .debug_str:0000000000000417 .LASF30
C:\msys64\tmp\ccOR6AX2.s:3675   .debug_str:0000000000000566 .LASF31
C:\msys64\tmp\ccOR6AX2.s:3673   .debug_str:0000000000000560 .LASF32
C:\msys64\tmp\ccOR6AX2.s:3629   .debug_str:0000000000000427 .LASF33
C:\msys64\tmp\ccOR6AX2.s:3681   .debug_str:000000000000058e .LASF34
GAS LISTING C:\msys64\tmp\ccOR6AX2.s 			page 24


C:\msys64\tmp\ccOR6AX2.s:3777   .debug_str:00000000000008bf .LASF35
C:\msys64\tmp\ccOR6AX2.s:3623   .debug_str:000000000000040e .LASF36
C:\msys64\tmp\ccOR6AX2.s:3521   .debug_str:0000000000000043 .LASF37
C:\msys64\tmp\ccOR6AX2.s:3683   .debug_str:0000000000000598 .LASF38
C:\msys64\tmp\ccOR6AX2.s:3735   .debug_str:0000000000000779 .LASF39
C:\msys64\tmp\ccOR6AX2.s:3677   .debug_str:000000000000056b .LASF40
C:\msys64\tmp\ccOR6AX2.s:3609   .debug_str:00000000000003c3 .LASF41
C:\msys64\tmp\ccOR6AX2.s:3685   .debug_str:00000000000005a5 .LASF43
C:\msys64\tmp\ccOR6AX2.s:3565   .debug_str:000000000000024e .LASF139
C:\msys64\tmp\ccOR6AX2.s:3559   .debug_str:0000000000000218 .LASF44
C:\msys64\tmp\ccOR6AX2.s:3637   .debug_str:0000000000000451 .LASF45
C:\msys64\tmp\ccOR6AX2.s:3543   .debug_str:00000000000000e3 .LASF46
C:\msys64\tmp\ccOR6AX2.s:3721   .debug_str:000000000000070c .LASF48
C:\msys64\tmp\ccOR6AX2.s:3793   .debug_str:0000000000000921 .LASF50
C:\msys64\tmp\ccOR6AX2.s:3525   .debug_str:000000000000005b .LASF54
C:\msys64\tmp\ccOR6AX2.s:3745   .debug_str:00000000000007ca .LASF56
C:\msys64\tmp\ccOR6AX2.s:3579   .debug_str:00000000000002c2 .LASF51
C:\msys64\tmp\ccOR6AX2.s:3577   .debug_str:00000000000002ad .LASF53
C:\msys64\tmp\ccOR6AX2.s:3737   .debug_str:000000000000078a .LASF55
C:\msys64\tmp\ccOR6AX2.s:3739   .debug_str:0000000000000791 .LASF57
C:\msys64\tmp\ccOR6AX2.s:3757   .debug_str:0000000000000849 .LASF58
C:\msys64\tmp\ccOR6AX2.s:3749   .debug_str:00000000000007f7 .LASF59
C:\msys64\tmp\ccOR6AX2.s:3593   .debug_str:0000000000000332 .LASF60
C:\msys64\tmp\ccOR6AX2.s:3563   .debug_str:000000000000023a .LASF61
C:\msys64\tmp\ccOR6AX2.s:3519   .debug_str:000000000000003b .LASF62
C:\msys64\tmp\ccOR6AX2.s:3607   .debug_str:00000000000003af .LASF63
C:\msys64\tmp\ccOR6AX2.s:3583   .debug_str:00000000000002d3 .LASF64
C:\msys64\tmp\ccOR6AX2.s:3549   .debug_str:00000000000000ff .LASF65
C:\msys64\tmp\ccOR6AX2.s:3611   .debug_str:00000000000003c8 .LASF66
C:\msys64\tmp\ccOR6AX2.s:3585   .debug_str:00000000000002db .LASF67
C:\msys64\tmp\ccOR6AX2.s:3669   .debug_str:0000000000000550 .LASF68
C:\msys64\tmp\ccOR6AX2.s:3789   .debug_str:0000000000000909 .LASF69
C:\msys64\tmp\ccOR6AX2.s:3537   .debug_str:00000000000000b2 .LASF70
C:\msys64\tmp\ccOR6AX2.s:3765   .debug_str:0000000000000860 .LASF71
C:\msys64\tmp\ccOR6AX2.s:3597   .debug_str:0000000000000350 .LASF72
C:\msys64\tmp\ccOR6AX2.s:3755   .debug_str:0000000000000837 .LASF73
C:\msys64\tmp\ccOR6AX2.s:3535   .debug_str:00000000000000ac .LASF74
C:\msys64\tmp\ccOR6AX2.s:3805   .debug_str:0000000000000960 .LASF75
C:\msys64\tmp\ccOR6AX2.s:3797   .debug_str:0000000000000945 .LASF76
C:\msys64\tmp\ccOR6AX2.s:3731   .debug_str:000000000000074f .LASF77
C:\msys64\tmp\ccOR6AX2.s:3627   .debug_str:000000000000041c .LASF78
C:\msys64\tmp\ccOR6AX2.s:3747   .debug_str:00000000000007df .LASF79
C:\msys64\tmp\ccOR6AX2.s:3553   .debug_str:000000000000012f .LASF80
C:\msys64\tmp\ccOR6AX2.s:3615   .debug_str:00000000000003df .LASF81
C:\msys64\tmp\ccOR6AX2.s:3659   .debug_str:0000000000000504 .LASF82
C:\msys64\tmp\ccOR6AX2.s:3603   .debug_str:000000000000037c .LASF83
C:\msys64\tmp\ccOR6AX2.s:3523   .debug_str:000000000000004d .LASF84
C:\msys64\tmp\ccOR6AX2.s:3663   .debug_str:0000000000000515 .LASF85
C:\msys64\tmp\ccOR6AX2.s:3773   .debug_str:0000000000000898 .LASF86
C:\msys64\tmp\ccOR6AX2.s:3643   .debug_str:0000000000000471 .LASF87
C:\msys64\tmp\ccOR6AX2.s:3781   .debug_str:00000000000008dc .LASF88
C:\msys64\tmp\ccOR6AX2.s:3551   .debug_str:0000000000000113 .LASF89
C:\msys64\tmp\ccOR6AX2.s:3779   .debug_str:00000000000008c7 .LASF140
C:\msys64\tmp\ccOR6AX2.s:3719   .debug_str:00000000000006e3 .LASF141
C:\msys64\tmp\ccOR6AX2.s:3589   .debug_str:0000000000000306 .LASF90
C:\msys64\tmp\ccOR6AX2.s:3743   .debug_str:00000000000007bd .LASF92
C:\msys64\tmp\ccOR6AX2.s:3645   .debug_str:000000000000048e .LASF93
GAS LISTING C:\msys64\tmp\ccOR6AX2.s 			page 25


C:\msys64\tmp\ccOR6AX2.s:3741   .debug_str:00000000000007a4 .LASF94
C:\msys64\tmp\ccOR6AX2.s:3641   .debug_str:000000000000046c .LASF95
C:\msys64\tmp\ccOR6AX2.s:3569   .debug_str:0000000000000264 .LASF96
C:\msys64\tmp\ccOR6AX2.s:3517   .debug_str:0000000000000023 .LASF142
C:\msys64\tmp\ccOR6AX2.s:3573   .debug_str:0000000000000291 .LASF97
C:\msys64\tmp\ccOR6AX2.s:3679   .debug_str:0000000000000578 .LASF143
C:\msys64\tmp\ccOR6AX2.s:3771   .debug_str:0000000000000891 .LASF103
C:\msys64\tmp\ccOR6AX2.s:3601   .debug_str:0000000000000369 .LASF98
C:\msys64\tmp\ccOR6AX2.s:3803   .debug_str:000000000000095a .LASF100
C:\msys64\tmp\ccOR6AX2.s:3599   .debug_str:0000000000000356 .LASF99
C:\msys64\tmp\ccOR6AX2.s:3687   .debug_str:00000000000005ab .LASF101
C:\msys64\tmp\ccOR6AX2.s:3595   .debug_str:000000000000033a .LASF102
C:\msys64\tmp\ccOR6AX2.s:3571   .debug_str:0000000000000287 .LASF104
C:\msys64\tmp\ccOR6AX2.s:3587   .debug_str:00000000000002ef .LASF105
C:\msys64\tmp\ccOR6AX2.s:3729   .debug_str:0000000000000748 .LASF106
C:\msys64\tmp\ccOR6AX2.s:3767   .debug_str:0000000000000873 .LASF107
C:\msys64\tmp\ccOR6AX2.s:3715   .debug_str:00000000000006b2 .LASF108
C:\msys64\tmp\ccOR6AX2.s:3791   .debug_str:000000000000091c .LASF109
C:\msys64\tmp\ccOR6AX2.s:3617   .debug_str:00000000000003f5 .LASF110
C:\msys64\tmp\ccOR6AX2.s:3527   .debug_str:0000000000000064 .LASF111
C:\msys64\tmp\ccOR6AX2.s:184    .text._ZN12WorkerThreadD0Ev:0000000000000000 .LFB40
C:\msys64\tmp\ccOR6AX2.s:224    .text._ZN12WorkerThreadD0Ev:000000000000004c .LFE40
C:\msys64\tmp\ccOR6AX2.s:3265   .debug_loc:0000000000000000 .LLST3
C:\msys64\tmp\ccOR6AX2.s:200    .text._ZN12WorkerThreadD0Ev:0000000000000018 .LBB19
C:\msys64\tmp\ccOR6AX2.s:208    .text._ZN12WorkerThreadD0Ev:000000000000002c .LBE19
C:\msys64\tmp\ccOR6AX2.s:3283   .debug_loc:000000000000004c .LLST4
C:\msys64\tmp\ccOR6AX2.s:206    .text._ZN12WorkerThreadD0Ev:000000000000002c .LVL19
C:\msys64\tmp\ccOR6AX2.s:211    .text._ZN12WorkerThreadD0Ev:0000000000000038 .LVL20
C:\msys64\tmp\ccOR6AX2.s:3753   .debug_str:0000000000000821 .LASF112
C:\msys64\tmp\ccOR6AX2.s:147    .text._ZN12WorkerThreadD2Ev:0000000000000000 .LFB38
C:\msys64\tmp\ccOR6AX2.s:175    .text._ZN12WorkerThreadD2Ev:0000000000000034 .LFE38
C:\msys64\tmp\ccOR6AX2.s:3294   .debug_loc:0000000000000082 .LLST2
C:\msys64\tmp\ccOR6AX2.s:164    .text._ZN12WorkerThreadD2Ev:0000000000000024 .LVL16
C:\msys64\tmp\ccOR6AX2.s:3699   .debug_str:00000000000005f8 .LASF113
C:\msys64\tmp\ccOR6AX2.s:564    .text:000000000000028c .LFE36
C:\msys64\tmp\ccOR6AX2.s:3783   .debug_str:00000000000008eb .LASF114
C:\msys64\tmp\ccOR6AX2.s:3547   .debug_str:00000000000000f4 .LASF115
C:\msys64\tmp\ccOR6AX2.s:3635   .debug_str:0000000000000449 .LASF116
C:\msys64\tmp\ccOR6AX2.s:3308   .debug_loc:00000000000000bb .LLST5
C:\msys64\tmp\ccOR6AX2.s:3761   .debug_str:0000000000000856 .LASF117
C:\msys64\tmp\ccOR6AX2.s:3319   .debug_loc:00000000000000f1 .LLST6
C:\msys64\tmp\ccOR6AX2.s:3763   .debug_str:000000000000085b .LASF118
C:\msys64\tmp\ccOR6AX2.s:3330   .debug_loc:0000000000000127 .LLST7
C:\msys64\tmp\ccOR6AX2.s:402    .text:0000000000000134 .LBB29
C:\msys64\tmp\ccOR6AX2.s:426    .text:0000000000000164 .LBE29
C:\msys64\tmp\ccOR6AX2.s:3337   .debug_loc:000000000000014a .LLST15
C:\msys64\tmp\ccOR6AX2.s:414    .text:0000000000000150 .LVL41
C:\msys64\tmp\ccOR6AX2.s:419    .text:000000000000015c .LVL42
C:\msys64\tmp\ccOR6AX2.s:452    .text:00000000000001a8 .LBB30
C:\msys64\tmp\ccOR6AX2.s:471    .text:00000000000001c8 .LBE30
C:\msys64\tmp\ccOR6AX2.s:3353   .debug_loc:0000000000000194 .LLST16
C:\msys64\tmp\ccOR6AX2.s:463    .text:00000000000001bc .LVL52
C:\msys64\tmp\ccOR6AX2.s:278    .text:0000000000000044 .LBB21
C:\msys64\tmp\ccOR6AX2.s:289    .text:0000000000000048 .LBE21
C:\msys64\tmp\ccOR6AX2.s:338    .text:00000000000000bc .LBB23
C:\msys64\tmp\ccOR6AX2.s:352    .text:00000000000000e0 .LBE23
C:\msys64\tmp\ccOR6AX2.s:3360   .debug_loc:00000000000001b7 .LLST8
GAS LISTING C:\msys64\tmp\ccOR6AX2.s 			page 26


C:\msys64\tmp\ccOR6AX2.s:3371   .debug_loc:00000000000001ed .LLST9
C:\msys64\tmp\ccOR6AX2.s:3386   .debug_loc:0000000000000235 .LLST10
C:\msys64\tmp\ccOR6AX2.s:342    .text:00000000000000c4 .LVL31
C:\msys64\tmp\ccOR6AX2.s:363    .text:00000000000000f0 .LBB25
C:\msys64\tmp\ccOR6AX2.s:376    .text:0000000000000114 .LBE25
C:\msys64\tmp\ccOR6AX2.s:3401   .debug_loc:000000000000027e .LLST11
C:\msys64\tmp\ccOR6AX2.s:3412   .debug_loc:00000000000002b4 .LLST12
C:\msys64\tmp\ccOR6AX2.s:3427   .debug_loc:00000000000002fc .LLST13
C:\msys64\tmp\ccOR6AX2.s:367    .text:00000000000000f8 .LVL35
C:\msys64\tmp\ccOR6AX2.s:389    .text:000000000000012c .LBB27
C:\msys64\tmp\ccOR6AX2.s:400    .text:0000000000000134 .LBE27
C:\msys64\tmp\ccOR6AX2.s:3442   .debug_loc:0000000000000345 .LLST14
C:\msys64\tmp\ccOR6AX2.s:298    .text:000000000000005c .LVL24
C:\msys64\tmp\ccOR6AX2.s:310    .text:0000000000000080 .LVL25
C:\msys64\tmp\ccOR6AX2.s:315    .text:0000000000000090 .LVL26
C:\msys64\tmp\ccOR6AX2.s:320    .text:000000000000009c .LVL27
C:\msys64\tmp\ccOR6AX2.s:326    .text:00000000000000ac .LVL28
C:\msys64\tmp\ccOR6AX2.s:333    .text:00000000000000b8 .LVL29
C:\msys64\tmp\ccOR6AX2.s:358    .text:00000000000000ec .LVL33
C:\msys64\tmp\ccOR6AX2.s:382    .text:0000000000000120 .LVL37
C:\msys64\tmp\ccOR6AX2.s:387    .text:000000000000012c .LVL38
C:\msys64\tmp\ccOR6AX2.s:431    .text:0000000000000174 .LVL45
C:\msys64\tmp\ccOR6AX2.s:436    .text:0000000000000180 .LVL46
C:\msys64\tmp\ccOR6AX2.s:441    .text:000000000000018c .LVL47
C:\msys64\tmp\ccOR6AX2.s:446    .text:000000000000019c .LVL48
C:\msys64\tmp\ccOR6AX2.s:451    .text:00000000000001a8 .LVL49
C:\msys64\tmp\ccOR6AX2.s:476    .text:00000000000001d8 .LVL54
C:\msys64\tmp\ccOR6AX2.s:485    .text:00000000000001ec .LVL55
C:\msys64\tmp\ccOR6AX2.s:494    .text:0000000000000200 .LVL56
C:\msys64\tmp\ccOR6AX2.s:503    .text:0000000000000214 .LVL57
C:\msys64\tmp\ccOR6AX2.s:535    .text:0000000000000248 .LVL62
C:\msys64\tmp\ccOR6AX2.s:539    .text:0000000000000254 .LVL63
C:\msys64\tmp\ccOR6AX2.s:546    .text:0000000000000264 .LVL64
C:\msys64\tmp\ccOR6AX2.s:550    .text:0000000000000270 .LVL65
C:\msys64\tmp\ccOR6AX2.s:557    .text:0000000000000280 .LVL66
C:\msys64\tmp\ccOR6AX2.s:561    .text:000000000000028c .LVL67
C:\msys64\tmp\ccOR6AX2.s:3759   .debug_str:0000000000000850 .LASF119
C:\msys64\tmp\ccOR6AX2.s:3709   .debug_str:000000000000067d .LASF120
C:\msys64\tmp\ccOR6AX2.s:13     .text:0000000000000000 .LFB35
C:\msys64\tmp\ccOR6AX2.s:34     .text:000000000000001c .LFE35
C:\msys64\tmp\ccOR6AX2.s:30     .text:0000000000000018 .LVL0
C:\msys64\tmp\ccOR6AX2.s:51     .text._ZN12WorkerThread3runEv:0000000000000000 .LFB34
C:\msys64\tmp\ccOR6AX2.s:140    .text._ZN12WorkerThread3runEv:00000000000000b4 .LFE34
C:\msys64\tmp\ccOR6AX2.s:3450   .debug_loc:0000000000000369 .LLST0
C:\msys64\tmp\ccOR6AX2.s:95     .text._ZN12WorkerThread3runEv:0000000000000060 .LBB17
C:\msys64\tmp\ccOR6AX2.s:123    .text._ZN12WorkerThread3runEv:000000000000009c .LBE17
C:\msys64\tmp\ccOR6AX2.s:3468   .debug_loc:00000000000003b5 .LLST1
C:\msys64\tmp\ccOR6AX2.s:105    .text._ZN12WorkerThread3runEv:0000000000000074 .LVL9
C:\msys64\tmp\ccOR6AX2.s:110    .text._ZN12WorkerThread3runEv:0000000000000084 .LVL10
C:\msys64\tmp\ccOR6AX2.s:115    .text._ZN12WorkerThread3runEv:0000000000000090 .LVL11
C:\msys64\tmp\ccOR6AX2.s:73     .text._ZN12WorkerThread3runEv:0000000000000028 .LVL3
C:\msys64\tmp\ccOR6AX2.s:78     .text._ZN12WorkerThread3runEv:0000000000000038 .LVL4
C:\msys64\tmp\ccOR6AX2.s:83     .text._ZN12WorkerThread3runEv:0000000000000044 .LVL5
C:\msys64\tmp\ccOR6AX2.s:88     .text._ZN12WorkerThread3runEv:0000000000000050 .LVL6
C:\msys64\tmp\ccOR6AX2.s:93     .text._ZN12WorkerThread3runEv:0000000000000060 .LVL7
C:\msys64\tmp\ccOR6AX2.s:3539   .debug_str:00000000000000b9 .LASF144
C:\msys64\tmp\ccOR6AX2.s:3801   .debug_str:0000000000000955 .LASF121
GAS LISTING C:\msys64\tmp\ccOR6AX2.s 			page 27


C:\msys64\tmp\ccOR6AX2.s:3697   .debug_str:00000000000005f2 .LASF122
C:\msys64\tmp\ccOR6AX2.s:3661   .debug_str:000000000000050e .LASF123
C:\msys64\tmp\ccOR6AX2.s:3711   .debug_str:0000000000000688 .LASF124
C:\msys64\tmp\ccOR6AX2.s:3657   .debug_str:00000000000004f1 .LASF125
C:\msys64\tmp\ccOR6AX2.s:3795   .debug_str:0000000000000939 .LASF126
C:\msys64\tmp\ccOR6AX2.s:3701   .debug_str:00000000000005fd .LASF127
C:\msys64\tmp\ccOR6AX2.s:3575   .debug_str:000000000000029f .LASF128
C:\msys64\tmp\ccOR6AX2.s:3787   .debug_str:0000000000000903 .LASF129
C:\msys64\tmp\ccOR6AX2.s:3613   .debug_str:00000000000003d0 .LASF145
C:\msys64\tmp\ccOR6AX2.s:3775   .debug_str:00000000000008a7 .LASF146
C:\msys64\tmp\ccOR6AX2.s:187    .text._ZN12WorkerThreadD0Ev:0000000000000000 .LVL17
C:\msys64\tmp\ccOR6AX2.s:219    .text._ZN12WorkerThreadD0Ev:0000000000000044 .LVL21
C:\msys64\tmp\ccOR6AX2.s:199    .text._ZN12WorkerThreadD0Ev:0000000000000018 .LVL18
C:\msys64\tmp\ccOR6AX2.s:150    .text._ZN12WorkerThreadD2Ev:0000000000000000 .LVL15
C:\msys64\tmp\ccOR6AX2.s:525    .text:0000000000000230 .LVL61
C:\msys64\tmp\ccOR6AX2.s:350    .text:00000000000000e0 .LVL32
C:\msys64\tmp\ccOR6AX2.s:522    .text:000000000000022c .LVL60
C:\msys64\tmp\ccOR6AX2.s:374    .text:0000000000000114 .LVL36
C:\msys64\tmp\ccOR6AX2.s:519    .text:0000000000000228 .LVL59
C:\msys64\tmp\ccOR6AX2.s:397    .text:0000000000000134 .LVL39
C:\msys64\tmp\ccOR6AX2.s:405    .text:0000000000000138 .LVL40
C:\msys64\tmp\ccOR6AX2.s:422    .text:0000000000000160 .LVL43
C:\msys64\tmp\ccOR6AX2.s:424    .text:0000000000000164 .LVL44
C:\msys64\tmp\ccOR6AX2.s:455    .text:00000000000001ac .LVL50
C:\msys64\tmp\ccOR6AX2.s:457    .text:00000000000001b0 .LVL51
C:\msys64\tmp\ccOR6AX2.s:516    .text:0000000000000224 .LVL58
C:\msys64\tmp\ccOR6AX2.s:336    .text:00000000000000bc .LVL30
C:\msys64\tmp\ccOR6AX2.s:361    .text:00000000000000f0 .LVL34
C:\msys64\tmp\ccOR6AX2.s:54     .text._ZN12WorkerThread3runEv:0000000000000000 .LVL1
C:\msys64\tmp\ccOR6AX2.s:71     .text._ZN12WorkerThread3runEv:0000000000000020 .LVL2
C:\msys64\tmp\ccOR6AX2.s:135    .text._ZN12WorkerThread3runEv:00000000000000ac .LVL14
C:\msys64\tmp\ccOR6AX2.s:99     .text._ZN12WorkerThread3runEv:0000000000000068 .LVL8
C:\msys64\tmp\ccOR6AX2.s:132    .text._ZN12WorkerThread3runEv:00000000000000a8 .LVL13
C:\msys64\tmp\ccOR6AX2.s:633    .debug_info:0000000000000000 .Ldebug_info0
C:\msys64\tmp\ccOR6AX2.s:8      .text:0000000000000000 .Ltext0
C:\msys64\tmp\ccOR6AX2.s:626    .text:000000000000028c .Letext0
C:\msys64\tmp\ccOR6AX2.s:567    .gcc_except_table:0000000000000000 .LLSDA36
                           .group:0000000000000000 _ZN12WorkerThreadD5Ev

UNDEFINED SYMBOLS
_ZN6Thread8dispatchEv
_Z11printStringPKc
_ZN9Semaphore4waitEv
_ZN6Thread5sleepEm
_ZN6ThreadD2Ev
_ZdlPv
_ZN5Riscv14supervisorTrapEv
_Z13thread_createPP7_threadPFvPvES2_
_ZN7_thread7runningE
_Znwm
_ZN9SemaphoreC1Ej
_ZN6ThreadC2Ev
_ZN6Thread5startEv
_ZN9Semaphore6signalEv
_Unwind_Resume
__gxx_personality_v0
