GAS LISTING C:\msys64\tmp\cc0eqnGz.s 			page 1


   1              		.file	"MemoryAllocator.cpp"
   2              		.option nopic
   3              		.option norelax
   4              		.attribute arch, "rv64i2p0_m2p0_a2p0"
   5              		.attribute unaligned_access, 0
   6              		.attribute stack_align, 16
   7              		.text
   8              	.Ltext0:
   9              		.align	2
  10              		.globl	_ZN15MemoryAllocator4initEv
  12              	_ZN15MemoryAllocator4initEv:
  13              	.LFB2:
  14              		.file 1 "src/MemoryAllocator.cpp"
   1:src/MemoryAllocator.cpp **** #include "../h/MemoryAllocator.h"
   2:src/MemoryAllocator.cpp **** #include "../lib/console.h"
   3:src/MemoryAllocator.cpp **** bool MemoryAllocator::isinit = false;
   4:src/MemoryAllocator.cpp **** MemoryAllocator::segmentHeader *MemoryAllocator::head = nullptr;
   5:src/MemoryAllocator.cpp **** int MemoryAllocator::kfree(void *addr)
   6:src/MemoryAllocator.cpp **** {
   7:src/MemoryAllocator.cpp ****     if (!isinit)
   8:src/MemoryAllocator.cpp ****     {
   9:src/MemoryAllocator.cpp ****         isinit = true;
  10:src/MemoryAllocator.cpp ****         init();
  11:src/MemoryAllocator.cpp ****     }
  12:src/MemoryAllocator.cpp ****     if (!addr)
  13:src/MemoryAllocator.cpp ****         return -1;
  14:src/MemoryAllocator.cpp **** 
  15:src/MemoryAllocator.cpp ****     segmentHeader *newFree = (segmentHeader *)((char *)addr - MEM_BLOCK_SIZE);
  16:src/MemoryAllocator.cpp **** 
  17:src/MemoryAllocator.cpp ****     if ((size_t)newFree < (size_t)HEAP_START_ADDR || (size_t)newFree >= (size_t)HEAP_END_ADDR)
  18:src/MemoryAllocator.cpp ****     {
  19:src/MemoryAllocator.cpp ****         return -1;
  20:src/MemoryAllocator.cpp ****     }
  21:src/MemoryAllocator.cpp **** 
  22:src/MemoryAllocator.cpp ****     segmentHeader *curr = head;
  23:src/MemoryAllocator.cpp ****     segmentHeader *prev = nullptr;
  24:src/MemoryAllocator.cpp **** 
  25:src/MemoryAllocator.cpp ****     while (curr)
  26:src/MemoryAllocator.cpp ****     {
  27:src/MemoryAllocator.cpp ****         if (curr == newFree)
  28:src/MemoryAllocator.cpp ****         {
  29:src/MemoryAllocator.cpp ****             return -1;
  30:src/MemoryAllocator.cpp ****         }
  31:src/MemoryAllocator.cpp ****         if (curr > newFree)
  32:src/MemoryAllocator.cpp ****             break;
  33:src/MemoryAllocator.cpp **** 
  34:src/MemoryAllocator.cpp ****         prev = curr;
  35:src/MemoryAllocator.cpp ****         curr = curr->next;
  36:src/MemoryAllocator.cpp ****     }
  37:src/MemoryAllocator.cpp **** 
  38:src/MemoryAllocator.cpp ****     if (prev)
  39:src/MemoryAllocator.cpp ****     {
  40:src/MemoryAllocator.cpp ****         newFree->next = prev->next;
  41:src/MemoryAllocator.cpp ****         prev->next = newFree;
  42:src/MemoryAllocator.cpp ****     }
  43:src/MemoryAllocator.cpp ****     else
  44:src/MemoryAllocator.cpp ****     {
GAS LISTING C:\msys64\tmp\cc0eqnGz.s 			page 2


  45:src/MemoryAllocator.cpp ****         newFree->next = head;
  46:src/MemoryAllocator.cpp ****         head = newFree;
  47:src/MemoryAllocator.cpp ****     }
  48:src/MemoryAllocator.cpp **** 
  49:src/MemoryAllocator.cpp ****     tryMerge(newFree);
  50:src/MemoryAllocator.cpp ****     tryMerge(prev);
  51:src/MemoryAllocator.cpp **** 
  52:src/MemoryAllocator.cpp ****     return 0;
  53:src/MemoryAllocator.cpp **** }
  54:src/MemoryAllocator.cpp **** 
  55:src/MemoryAllocator.cpp **** void *MemoryAllocator::kmalloc(size_t size)
  56:src/MemoryAllocator.cpp **** { // argument is in bytes
  57:src/MemoryAllocator.cpp ****     if (!isinit)
  58:src/MemoryAllocator.cpp ****     {
  59:src/MemoryAllocator.cpp ****         isinit = true;
  60:src/MemoryAllocator.cpp ****         init();
  61:src/MemoryAllocator.cpp ****     }
  62:src/MemoryAllocator.cpp **** 
  63:src/MemoryAllocator.cpp ****     size_t bytes_needed = (size_t)((size + MEM_BLOCK_SIZE - 1) / MEM_BLOCK_SIZE) * MEM_BLOCK_SIZE;
  64:src/MemoryAllocator.cpp ****     void *address = nullptr;
  65:src/MemoryAllocator.cpp ****     segmentHeader *curr = head;
  66:src/MemoryAllocator.cpp ****     segmentHeader *prev = nullptr;
  67:src/MemoryAllocator.cpp ****     for (; curr; curr = curr->next)
  68:src/MemoryAllocator.cpp ****     {
  69:src/MemoryAllocator.cpp ****         if (curr->size >= bytes_needed)
  70:src/MemoryAllocator.cpp ****         {
  71:src/MemoryAllocator.cpp ****             address = (void *)((size_t)curr + MEM_BLOCK_SIZE);
  72:src/MemoryAllocator.cpp ****             break;
  73:src/MemoryAllocator.cpp ****         }
  74:src/MemoryAllocator.cpp ****         prev = curr;
  75:src/MemoryAllocator.cpp ****     }
  76:src/MemoryAllocator.cpp **** 
  77:src/MemoryAllocator.cpp ****     if (!curr)
  78:src/MemoryAllocator.cpp ****         return nullptr;
  79:src/MemoryAllocator.cpp ****     size_t remaining_bytes = curr->size - bytes_needed;
  80:src/MemoryAllocator.cpp ****     segmentHeader *next_free_node = nullptr;
  81:src/MemoryAllocator.cpp ****     if (remaining_bytes >= 2 * MEM_BLOCK_SIZE)
  82:src/MemoryAllocator.cpp ****     { // there is enough space for header and minimum one block
  83:src/MemoryAllocator.cpp ****         next_free_node = (segmentHeader *)((char *)curr + bytes_needed + MEM_BLOCK_SIZE);
  84:src/MemoryAllocator.cpp ****         next_free_node->next = curr->next;
  85:src/MemoryAllocator.cpp ****         next_free_node->size = remaining_bytes - MEM_BLOCK_SIZE;
  86:src/MemoryAllocator.cpp ****         curr->size = bytes_needed;
  87:src/MemoryAllocator.cpp ****     }
  88:src/MemoryAllocator.cpp ****     else
  89:src/MemoryAllocator.cpp ****     {
  90:src/MemoryAllocator.cpp ****         next_free_node = curr->next;
  91:src/MemoryAllocator.cpp ****     }
  92:src/MemoryAllocator.cpp **** 
  93:src/MemoryAllocator.cpp ****     if (prev)
  94:src/MemoryAllocator.cpp ****     {
  95:src/MemoryAllocator.cpp ****         prev->next = next_free_node;
  96:src/MemoryAllocator.cpp ****     }
  97:src/MemoryAllocator.cpp ****     else
  98:src/MemoryAllocator.cpp ****     {
  99:src/MemoryAllocator.cpp ****         head = next_free_node;
 100:src/MemoryAllocator.cpp ****     }
 101:src/MemoryAllocator.cpp **** 
GAS LISTING C:\msys64\tmp\cc0eqnGz.s 			page 3


 102:src/MemoryAllocator.cpp ****     return address;
 103:src/MemoryAllocator.cpp **** }
 104:src/MemoryAllocator.cpp **** 
 105:src/MemoryAllocator.cpp **** void MemoryAllocator::init()
 106:src/MemoryAllocator.cpp **** {
  15              		.loc 1 106 1
  16              		.cfi_startproc
  17 0000 130101FF 		addi	sp,sp,-16
  18              		.cfi_def_cfa_offset 16
  19 0004 23348100 		sd	s0,8(sp)
  20              		.cfi_offset 8, -8
  21 0008 13040101 		addi	s0,sp,16
  22              		.cfi_def_cfa 8, 0
 107:src/MemoryAllocator.cpp ****     size_t start = (size_t)HEAP_START_ADDR;
  23              		.loc 1 107 5
  24              		.loc 1 107 12 is_stmt 0
  25 000c 97070000 		ld	a5,HEAP_START_ADDR
  25      83B70700 
  26              	.LVL0:
 108:src/MemoryAllocator.cpp ****     size_t end = (size_t)HEAP_END_ADDR;
  27              		.loc 1 108 5 is_stmt 1
  28              		.loc 1 108 12 is_stmt 0
  29 0014 17070000 		ld	a4,HEAP_END_ADDR
  29      03370700 
  30              	.LVL1:
 109:src/MemoryAllocator.cpp **** 
 110:src/MemoryAllocator.cpp ****     start = start % MEM_BLOCK_SIZE == 0 ? start : (start - start % MEM_BLOCK_SIZE) + MEM_BLOCK_SIZE
  31              		.loc 1 110 5 is_stmt 1
  32              		.loc 1 110 19 is_stmt 0
  33 001c 93F6F703 		andi	a3,a5,63
  34              		.loc 1 110 41
  35 0020 63860600 		beq	a3,zero,.L2
  36              		.loc 1 110 58 discriminator 1
  37 0024 93F707FC 		andi	a5,a5,-64
  38              	.LVL2:
  39              		.loc 1 110 41 discriminator 1
  40 0028 93870704 		addi	a5,a5,64
  41              	.L2:
  42              	.LVL3:
 111:src/MemoryAllocator.cpp ****     end = end % MEM_BLOCK_SIZE == 0 ? end : (end - end % MEM_BLOCK_SIZE);
  43              		.loc 1 111 5 is_stmt 1 discriminator 4
  44              		.loc 1 111 15 is_stmt 0 discriminator 4
  45 002c 9376F703 		andi	a3,a4,63
  46              		.loc 1 111 37 discriminator 4
  47 0030 63840600 		beq	a3,zero,.L3
  48              		.loc 1 111 37 discriminator 1
  49 0034 137707FC 		andi	a4,a4,-64
  50              	.LVL4:
  51              	.L3:
 112:src/MemoryAllocator.cpp **** 
 113:src/MemoryAllocator.cpp ****     head = (segmentHeader *)start;
  52              		.loc 1 113 5 is_stmt 1 discriminator 4
  53              		.loc 1 113 10 is_stmt 0 discriminator 4
  54 0038 97060000 		sd	a5,_ZN15MemoryAllocator4headE,a3
  54      23B0F600 
 114:src/MemoryAllocator.cpp ****     head->size = end - start - MEM_BLOCK_SIZE;
  55              		.loc 1 114 5 is_stmt 1 discriminator 4
GAS LISTING C:\msys64\tmp\cc0eqnGz.s 			page 4


  56              		.loc 1 114 22 is_stmt 0 discriminator 4
  57 0040 3307F740 		sub	a4,a4,a5
  58              	.LVL5:
  59              		.loc 1 114 30 discriminator 4
  60 0044 130707FC 		addi	a4,a4,-64
  61              		.loc 1 114 16 discriminator 4
  62 0048 23B4E700 		sd	a4,8(a5)
 115:src/MemoryAllocator.cpp ****     head->next = nullptr;
  63              		.loc 1 115 5 is_stmt 1 discriminator 4
  64              		.loc 1 115 16 is_stmt 0 discriminator 4
  65 004c 23B00700 		sd	zero,0(a5)
 116:src/MemoryAllocator.cpp **** }
  66              		.loc 1 116 1 discriminator 4
  67 0050 03348100 		ld	s0,8(sp)
  68              		.cfi_restore 8
  69              		.cfi_def_cfa 2, 16
  70 0054 13010101 		addi	sp,sp,16
  71              		.cfi_def_cfa_offset 0
  72 0058 67800000 		jr	ra
  73              		.cfi_endproc
  74              	.LFE2:
  76              		.align	2
  77              		.globl	_ZN15MemoryAllocator7kmallocEm
  79              	_ZN15MemoryAllocator7kmallocEm:
  80              	.LFB1:
  56:src/MemoryAllocator.cpp ****     if (!isinit)
  81              		.loc 1 56 1 is_stmt 1
  82              		.cfi_startproc
  83              	.LVL6:
  84 005c 130101FE 		addi	sp,sp,-32
  85              		.cfi_def_cfa_offset 32
  86 0060 233C1100 		sd	ra,24(sp)
  87 0064 23388100 		sd	s0,16(sp)
  88 0068 23349100 		sd	s1,8(sp)
  89              		.cfi_offset 1, -8
  90              		.cfi_offset 8, -16
  91              		.cfi_offset 9, -24
  92 006c 13040102 		addi	s0,sp,32
  93              		.cfi_def_cfa 8, 0
  94 0070 93040500 		mv	s1,a0
  57:src/MemoryAllocator.cpp ****     {
  95              		.loc 1 57 5
  57:src/MemoryAllocator.cpp ****     {
  96              		.loc 1 57 9 is_stmt 0
  97 0074 97070000 		lbu	a5,_ZN15MemoryAllocator6isinitE
  97      83C70700 
  57:src/MemoryAllocator.cpp ****     {
  98              		.loc 1 57 5
  99 007c 638E0700 		beq	a5,zero,.L17
 100              	.LVL7:
 101              	.L6:
  63:src/MemoryAllocator.cpp ****     void *address = nullptr;
 102              		.loc 1 63 5 is_stmt 1
  63:src/MemoryAllocator.cpp ****     void *address = nullptr;
 103              		.loc 1 63 59 is_stmt 0
 104 0080 1387F403 		addi	a4,s1,63
  63:src/MemoryAllocator.cpp ****     void *address = nullptr;
GAS LISTING C:\msys64\tmp\cc0eqnGz.s 			page 5


 105              		.loc 1 63 12
 106 0084 137707FC 		andi	a4,a4,-64
 107              	.LVL8:
  64:src/MemoryAllocator.cpp ****     segmentHeader *curr = head;
 108              		.loc 1 64 5 is_stmt 1
  65:src/MemoryAllocator.cpp ****     segmentHeader *prev = nullptr;
 109              		.loc 1 65 5
  65:src/MemoryAllocator.cpp ****     segmentHeader *prev = nullptr;
 110              		.loc 1 65 20 is_stmt 0
 111 0088 97070000 		ld	a5,_ZN15MemoryAllocator4headE
 111      83B70700 
 112              	.LVL9:
  66:src/MemoryAllocator.cpp ****     for (; curr; curr = curr->next)
 113              		.loc 1 66 5 is_stmt 1
  66:src/MemoryAllocator.cpp ****     for (; curr; curr = curr->next)
 114              		.loc 1 66 20 is_stmt 0
 115 0090 13060000 		li	a2,0
 116 0094 6F004002 		j	.L9
 117              	.LVL10:
 118              	.L17:
  59:src/MemoryAllocator.cpp ****         init();
 119              		.loc 1 59 9 is_stmt 1
  59:src/MemoryAllocator.cpp ****         init();
 120              		.loc 1 59 16 is_stmt 0
 121 0098 93071000 		li	a5,1
 122 009c 17070000 		sb	a5,_ZN15MemoryAllocator6isinitE,a4
 122      2300F700 
  60:src/MemoryAllocator.cpp ****     }
 123              		.loc 1 60 9 is_stmt 1
  60:src/MemoryAllocator.cpp ****     }
 124              		.loc 1 60 13 is_stmt 0
 125 00a4 97000000 		call	_ZN15MemoryAllocator4initEv
 125      E7800000 
 126              	.LVL11:
 127 00ac 6FF05FFD 		j	.L6
 128              	.LVL12:
 129              	.L8:
  74:src/MemoryAllocator.cpp ****     }
 130              		.loc 1 74 9 is_stmt 1
  67:src/MemoryAllocator.cpp ****     {
 131              		.loc 1 67 5
  74:src/MemoryAllocator.cpp ****     }
 132              		.loc 1 74 14 is_stmt 0
 133 00b0 13860700 		mv	a2,a5
  67:src/MemoryAllocator.cpp ****     {
 134              		.loc 1 67 23
 135 00b4 83B70700 		ld	a5,0(a5)
 136              	.LVL13:
 137              	.L9:
  67:src/MemoryAllocator.cpp ****     {
 138              		.loc 1 67 5 is_stmt 1 discriminator 1
  67:src/MemoryAllocator.cpp ****     {
 139              		.loc 1 67 12 discriminator 1
 140 00b8 638A0700 		beq	a5,zero,.L14
  69:src/MemoryAllocator.cpp ****         {
 141              		.loc 1 69 9
  69:src/MemoryAllocator.cpp ****         {
GAS LISTING C:\msys64\tmp\cc0eqnGz.s 			page 6


 142              		.loc 1 69 19 is_stmt 0
 143 00bc 83B68700 		ld	a3,8(a5)
  69:src/MemoryAllocator.cpp ****         {
 144              		.loc 1 69 9
 145 00c0 E3E8E6FE 		bltu	a3,a4,.L8
  71:src/MemoryAllocator.cpp ****             break;
 146              		.loc 1 71 13 is_stmt 1
  71:src/MemoryAllocator.cpp ****             break;
 147              		.loc 1 71 45 is_stmt 0
 148 00c4 13850704 		addi	a0,a5,64
 149              	.LVL14:
  72:src/MemoryAllocator.cpp ****         }
 150              		.loc 1 72 13 is_stmt 1
 151 00c8 6F008000 		j	.L7
 152              	.LVL15:
 153              	.L14:
  64:src/MemoryAllocator.cpp ****     segmentHeader *curr = head;
 154              		.loc 1 64 11 is_stmt 0
 155 00cc 13850700 		mv	a0,a5
 156              	.LVL16:
 157              	.L7:
  77:src/MemoryAllocator.cpp ****         return nullptr;
 158              		.loc 1 77 5 is_stmt 1
 159 00d0 63800706 		beq	a5,zero,.L15
  79:src/MemoryAllocator.cpp ****     segmentHeader *next_free_node = nullptr;
 160              		.loc 1 79 5
  79:src/MemoryAllocator.cpp ****     segmentHeader *next_free_node = nullptr;
 161              		.loc 1 79 36 is_stmt 0
 162 00d4 83B68700 		ld	a3,8(a5)
  79:src/MemoryAllocator.cpp ****     segmentHeader *next_free_node = nullptr;
 163              		.loc 1 79 12
 164 00d8 B386E640 		sub	a3,a3,a4
 165              	.LVL17:
  80:src/MemoryAllocator.cpp ****     if (remaining_bytes >= 2 * MEM_BLOCK_SIZE)
 166              		.loc 1 80 5 is_stmt 1
  81:src/MemoryAllocator.cpp ****     { // there is enough space for header and minimum one block
 167              		.loc 1 81 5
 168 00dc 9305F007 		li	a1,127
 169 00e0 63FED502 		bleu	a3,a1,.L11
  83:src/MemoryAllocator.cpp ****         next_free_node->next = curr->next;
 170              		.loc 1 83 9
  83:src/MemoryAllocator.cpp ****         next_free_node->next = curr->next;
 171              		.loc 1 83 72 is_stmt 0
 172 00e4 93050704 		addi	a1,a4,64
  83:src/MemoryAllocator.cpp ****         next_free_node->next = curr->next;
 173              		.loc 1 83 24
 174 00e8 B385B700 		add	a1,a5,a1
 175              	.LVL18:
  84:src/MemoryAllocator.cpp ****         next_free_node->size = remaining_bytes - MEM_BLOCK_SIZE;
 176              		.loc 1 84 9 is_stmt 1
  84:src/MemoryAllocator.cpp ****         next_free_node->size = remaining_bytes - MEM_BLOCK_SIZE;
 177              		.loc 1 84 38 is_stmt 0
 178 00ec 03B80700 		ld	a6,0(a5)
  84:src/MemoryAllocator.cpp ****         next_free_node->size = remaining_bytes - MEM_BLOCK_SIZE;
 179              		.loc 1 84 30
 180 00f0 23B00501 		sd	a6,0(a1)
  85:src/MemoryAllocator.cpp ****         curr->size = bytes_needed;
GAS LISTING C:\msys64\tmp\cc0eqnGz.s 			page 7


 181              		.loc 1 85 9 is_stmt 1
  85:src/MemoryAllocator.cpp ****         curr->size = bytes_needed;
 182              		.loc 1 85 48 is_stmt 0
 183 00f4 938606FC 		addi	a3,a3,-64
 184              	.LVL19:
  85:src/MemoryAllocator.cpp ****         curr->size = bytes_needed;
 185              		.loc 1 85 30
 186 00f8 23B4D500 		sd	a3,8(a1)
  86:src/MemoryAllocator.cpp ****     }
 187              		.loc 1 86 9 is_stmt 1
  86:src/MemoryAllocator.cpp ****     }
 188              		.loc 1 86 20 is_stmt 0
 189 00fc 23B4E700 		sd	a4,8(a5)
 190              	.LVL20:
 191              	.L12:
  93:src/MemoryAllocator.cpp ****     {
 192              		.loc 1 93 5 is_stmt 1
 193 0100 63020602 		beq	a2,zero,.L13
  95:src/MemoryAllocator.cpp ****     }
 194              		.loc 1 95 9
  95:src/MemoryAllocator.cpp ****     }
 195              		.loc 1 95 20 is_stmt 0
 196 0104 2330B600 		sd	a1,0(a2)
 197              	.LVL21:
 198              	.L5:
 103:src/MemoryAllocator.cpp **** 
 199              		.loc 1 103 1
 200 0108 83308101 		ld	ra,24(sp)
 201              		.cfi_remember_state
 202              		.cfi_restore 1
 203 010c 03340101 		ld	s0,16(sp)
 204              		.cfi_restore 8
 205              		.cfi_def_cfa 2, 32
 206 0110 83348100 		ld	s1,8(sp)
 207              		.cfi_restore 9
 208              	.LVL22:
 209 0114 13010102 		addi	sp,sp,32
 210              		.cfi_def_cfa_offset 0
 211 0118 67800000 		jr	ra
 212              	.LVL23:
 213              	.L11:
 214              		.cfi_restore_state
  90:src/MemoryAllocator.cpp ****     }
 215              		.loc 1 90 9 is_stmt 1
  90:src/MemoryAllocator.cpp ****     }
 216              		.loc 1 90 24 is_stmt 0
 217 011c 83B50700 		ld	a1,0(a5)
 218              	.LVL24:
 219 0120 6FF01FFE 		j	.L12
 220              	.LVL25:
 221              	.L13:
  99:src/MemoryAllocator.cpp ****     }
 222              		.loc 1 99 9 is_stmt 1
  99:src/MemoryAllocator.cpp ****     }
 223              		.loc 1 99 14 is_stmt 0
 224 0124 97070000 		sd	a1,_ZN15MemoryAllocator4headE,a5
 224      23B0B700 
GAS LISTING C:\msys64\tmp\cc0eqnGz.s 			page 8


 225              	.LVL26:
 226 012c 6FF0DFFD 		j	.L5
 227              	.LVL27:
 228              	.L15:
  78:src/MemoryAllocator.cpp ****     size_t remaining_bytes = curr->size - bytes_needed;
 229              		.loc 1 78 16
 230 0130 13850700 		mv	a0,a5
 231              	.LVL28:
 232 0134 6FF05FFD 		j	.L5
 233              		.cfi_endproc
 234              	.LFE1:
 236              		.align	2
 237              		.globl	_ZN15MemoryAllocator8tryMergeEPNS_13segmentHeaderE
 239              	_ZN15MemoryAllocator8tryMergeEPNS_13segmentHeaderE:
 240              	.LFB3:
 117:src/MemoryAllocator.cpp **** 
 118:src/MemoryAllocator.cpp **** void MemoryAllocator::tryMerge(segmentHeader *block)
 119:src/MemoryAllocator.cpp **** {
 241              		.loc 1 119 1 is_stmt 1
 242              		.cfi_startproc
 243              	.LVL29:
 244 0138 130101FF 		addi	sp,sp,-16
 245              		.cfi_def_cfa_offset 16
 246 013c 23348100 		sd	s0,8(sp)
 247              		.cfi_offset 8, -8
 248 0140 13040101 		addi	s0,sp,16
 249              		.cfi_def_cfa 8, 0
 120:src/MemoryAllocator.cpp ****     if (!block)
 250              		.loc 1 120 5
 251 0144 630E0500 		beq	a0,zero,.L18
 121:src/MemoryAllocator.cpp ****         return;
 122:src/MemoryAllocator.cpp **** 
 123:src/MemoryAllocator.cpp ****     segmentHeader *next_seg = block->next;
 252              		.loc 1 123 5
 253              		.loc 1 123 20 is_stmt 0
 254 0148 83370500 		ld	a5,0(a0)
 255              	.LVL30:
 124:src/MemoryAllocator.cpp **** 
 125:src/MemoryAllocator.cpp ****     if (!next_seg)
 256              		.loc 1 125 5 is_stmt 1
 257 014c 638A0700 		beq	a5,zero,.L18
 126:src/MemoryAllocator.cpp ****         return;
 127:src/MemoryAllocator.cpp **** 
 128:src/MemoryAllocator.cpp ****     if ((char *)block + MEM_BLOCK_SIZE + block->size == (char *)next_seg)
 258              		.loc 1 128 5
 259              		.loc 1 128 49 is_stmt 0
 260 0150 83368500 		ld	a3,8(a0)
 261              		.loc 1 128 40
 262 0154 13870604 		addi	a4,a3,64
 263 0158 3307E500 		add	a4,a0,a4
 264              		.loc 1 128 5
 265 015c 6308F700 		beq	a4,a5,.L21
 266              	.LVL31:
 267              	.L18:
 129:src/MemoryAllocator.cpp ****     {
 130:src/MemoryAllocator.cpp ****         block->next = next_seg->next;
 131:src/MemoryAllocator.cpp ****         block->size += next_seg->size + MEM_BLOCK_SIZE;
GAS LISTING C:\msys64\tmp\cc0eqnGz.s 			page 9


 132:src/MemoryAllocator.cpp ****     }
 133:src/MemoryAllocator.cpp **** }
 268              		.loc 1 133 1
 269 0160 03348100 		ld	s0,8(sp)
 270              		.cfi_remember_state
 271              		.cfi_restore 8
 272              		.cfi_def_cfa 2, 16
 273 0164 13010101 		addi	sp,sp,16
 274              		.cfi_def_cfa_offset 0
 275 0168 67800000 		jr	ra
 276              	.LVL32:
 277              	.L21:
 278              		.cfi_restore_state
 130:src/MemoryAllocator.cpp ****         block->size += next_seg->size + MEM_BLOCK_SIZE;
 279              		.loc 1 130 9 is_stmt 1
 130:src/MemoryAllocator.cpp ****         block->size += next_seg->size + MEM_BLOCK_SIZE;
 280              		.loc 1 130 33 is_stmt 0
 281 016c 03B70700 		ld	a4,0(a5)
 130:src/MemoryAllocator.cpp ****         block->size += next_seg->size + MEM_BLOCK_SIZE;
 282              		.loc 1 130 21
 283 0170 2330E500 		sd	a4,0(a0)
 131:src/MemoryAllocator.cpp ****     }
 284              		.loc 1 131 9 is_stmt 1
 131:src/MemoryAllocator.cpp ****     }
 285              		.loc 1 131 34 is_stmt 0
 286 0174 83B78700 		ld	a5,8(a5)
 287              	.LVL33:
 131:src/MemoryAllocator.cpp ****     }
 288              		.loc 1 131 21
 289 0178 B386F600 		add	a3,a3,a5
 290 017c 93860604 		addi	a3,a3,64
 291 0180 2334D500 		sd	a3,8(a0)
 292 0184 6FF0DFFD 		j	.L18
 293              		.cfi_endproc
 294              	.LFE3:
 296              		.align	2
 297              		.globl	_ZN15MemoryAllocator5kfreeEPv
 299              	_ZN15MemoryAllocator5kfreeEPv:
 300              	.LFB0:
   6:src/MemoryAllocator.cpp ****     if (!isinit)
 301              		.loc 1 6 1 is_stmt 1
 302              		.cfi_startproc
 303              	.LVL34:
 304 0188 130101FE 		addi	sp,sp,-32
 305              		.cfi_def_cfa_offset 32
 306 018c 233C1100 		sd	ra,24(sp)
 307 0190 23388100 		sd	s0,16(sp)
 308 0194 23349100 		sd	s1,8(sp)
 309 0198 23302101 		sd	s2,0(sp)
 310              		.cfi_offset 1, -8
 311              		.cfi_offset 8, -16
 312              		.cfi_offset 9, -24
 313              		.cfi_offset 18, -32
 314 019c 13040102 		addi	s0,sp,32
 315              		.cfi_def_cfa 8, 0
 316 01a0 13090500 		mv	s2,a0
   7:src/MemoryAllocator.cpp ****     {
GAS LISTING C:\msys64\tmp\cc0eqnGz.s 			page 10


 317              		.loc 1 7 5
   7:src/MemoryAllocator.cpp ****     {
 318              		.loc 1 7 9 is_stmt 0
 319 01a4 97070000 		lbu	a5,_ZN15MemoryAllocator6isinitE
 319      83C70700 
   7:src/MemoryAllocator.cpp ****     {
 320              		.loc 1 7 5
 321 01ac 63860704 		beq	a5,zero,.L34
 322              	.LVL35:
 323              	.L23:
  12:src/MemoryAllocator.cpp ****         return -1;
 324              		.loc 1 12 5 is_stmt 1
 325 01b0 6308090A 		beq	s2,zero,.L29
  15:src/MemoryAllocator.cpp **** 
 326              		.loc 1 15 5
  15:src/MemoryAllocator.cpp **** 
 327              		.loc 1 15 20 is_stmt 0
 328 01b4 130509FC 		addi	a0,s2,-64
 329              	.LVL36:
  17:src/MemoryAllocator.cpp ****     {
 330              		.loc 1 17 5 is_stmt 1
  17:src/MemoryAllocator.cpp ****     {
 331              		.loc 1 17 25 is_stmt 0
 332 01b8 97070000 		ld	a5,HEAP_START_ADDR
 332      83B70700 
  17:src/MemoryAllocator.cpp ****     {
 333              		.loc 1 17 5
 334 01c0 6364F50A 		bltu	a0,a5,.L30
  17:src/MemoryAllocator.cpp ****     {
 335              		.loc 1 17 70 discriminator 1
 336 01c4 97070000 		ld	a5,HEAP_END_ADDR
 336      83B70700 
  17:src/MemoryAllocator.cpp ****     {
 337              		.loc 1 17 51 discriminator 1
 338 01cc 6372F50A 		bgeu	a0,a5,.L31
  22:src/MemoryAllocator.cpp ****     segmentHeader *prev = nullptr;
 339              		.loc 1 22 5 is_stmt 1
  22:src/MemoryAllocator.cpp ****     segmentHeader *prev = nullptr;
 340              		.loc 1 22 20 is_stmt 0
 341 01d0 17070000 		ld	a4,_ZN15MemoryAllocator4headE
 341      03370700 
 342              	.LVL37:
  23:src/MemoryAllocator.cpp **** 
 343              		.loc 1 23 5 is_stmt 1
  22:src/MemoryAllocator.cpp ****     segmentHeader *prev = nullptr;
 344              		.loc 1 22 20 is_stmt 0
 345 01d8 93070700 		mv	a5,a4
  23:src/MemoryAllocator.cpp **** 
 346              		.loc 1 23 20
 347 01dc 93040000 		li	s1,0
 348              	.LVL38:
 349              	.L26:
  25:src/MemoryAllocator.cpp ****     {
 350              		.loc 1 25 5 is_stmt 1
  25:src/MemoryAllocator.cpp ****     {
 351              		.loc 1 25 12
 352 01e0 63880702 		beq	a5,zero,.L25
GAS LISTING C:\msys64\tmp\cc0eqnGz.s 			page 11


  27:src/MemoryAllocator.cpp ****         {
 353              		.loc 1 27 9
 354 01e4 638AA708 		beq	a5,a0,.L32
  31:src/MemoryAllocator.cpp ****             break;
 355              		.loc 1 31 9
 356 01e8 6364F502 		bgtu	a5,a0,.L25
  34:src/MemoryAllocator.cpp ****         curr = curr->next;
 357              		.loc 1 34 9
 358              	.LVL39:
  35:src/MemoryAllocator.cpp ****     }
 359              		.loc 1 35 9
  34:src/MemoryAllocator.cpp ****         curr = curr->next;
 360              		.loc 1 34 14 is_stmt 0
 361 01ec 93840700 		mv	s1,a5
  35:src/MemoryAllocator.cpp ****     }
 362              		.loc 1 35 14
 363 01f0 83B70700 		ld	a5,0(a5)
 364              	.LVL40:
  25:src/MemoryAllocator.cpp ****     {
 365              		.loc 1 25 5
 366 01f4 6FF0DFFE 		j	.L26
 367              	.LVL41:
 368              	.L34:
   9:src/MemoryAllocator.cpp ****         init();
 369              		.loc 1 9 9 is_stmt 1
   9:src/MemoryAllocator.cpp ****         init();
 370              		.loc 1 9 16 is_stmt 0
 371 01f8 93071000 		li	a5,1
 372 01fc 17070000 		sb	a5,_ZN15MemoryAllocator6isinitE,a4
 372      2300F700 
  10:src/MemoryAllocator.cpp ****     }
 373              		.loc 1 10 9 is_stmt 1
  10:src/MemoryAllocator.cpp ****     }
 374              		.loc 1 10 13 is_stmt 0
 375 0204 97000000 		call	_ZN15MemoryAllocator4initEv
 375      E7800000 
 376              	.LVL42:
 377 020c 6FF05FFA 		j	.L23
 378              	.LVL43:
 379              	.L25:
  38:src/MemoryAllocator.cpp ****     {
 380              		.loc 1 38 5 is_stmt 1
 381 0210 63800404 		beq	s1,zero,.L27
  40:src/MemoryAllocator.cpp ****         prev->next = newFree;
 382              		.loc 1 40 9
  40:src/MemoryAllocator.cpp ****         prev->next = newFree;
 383              		.loc 1 40 31 is_stmt 0
 384 0214 83B70400 		ld	a5,0(s1)
 385              	.LVL44:
  40:src/MemoryAllocator.cpp ****         prev->next = newFree;
 386              		.loc 1 40 23
 387 0218 2330F9FC 		sd	a5,-64(s2)
  41:src/MemoryAllocator.cpp ****     }
 388              		.loc 1 41 9 is_stmt 1
  41:src/MemoryAllocator.cpp ****     }
 389              		.loc 1 41 20 is_stmt 0
 390 021c 23B0A400 		sd	a0,0(s1)
GAS LISTING C:\msys64\tmp\cc0eqnGz.s 			page 12


 391              	.L28:
  49:src/MemoryAllocator.cpp ****     tryMerge(prev);
 392              		.loc 1 49 5 is_stmt 1
  49:src/MemoryAllocator.cpp ****     tryMerge(prev);
 393              		.loc 1 49 13 is_stmt 0
 394 0220 97000000 		call	_ZN15MemoryAllocator8tryMergeEPNS_13segmentHeaderE
 394      E7800000 
 395              	.LVL45:
  50:src/MemoryAllocator.cpp **** 
 396              		.loc 1 50 5 is_stmt 1
  50:src/MemoryAllocator.cpp **** 
 397              		.loc 1 50 13 is_stmt 0
 398 0228 13850400 		mv	a0,s1
 399 022c 97000000 		call	_ZN15MemoryAllocator8tryMergeEPNS_13segmentHeaderE
 399      E7800000 
 400              	.LVL46:
  52:src/MemoryAllocator.cpp **** }
 401              		.loc 1 52 5 is_stmt 1
  52:src/MemoryAllocator.cpp **** }
 402              		.loc 1 52 12 is_stmt 0
 403 0234 13050000 		li	a0,0
 404              	.LVL47:
 405              	.L24:
  53:src/MemoryAllocator.cpp **** 
 406              		.loc 1 53 1
 407 0238 83308101 		ld	ra,24(sp)
 408              		.cfi_remember_state
 409              		.cfi_restore 1
 410 023c 03340101 		ld	s0,16(sp)
 411              		.cfi_restore 8
 412              		.cfi_def_cfa 2, 32
 413 0240 83348100 		ld	s1,8(sp)
 414              		.cfi_restore 9
 415 0244 03390100 		ld	s2,0(sp)
 416              		.cfi_restore 18
 417              	.LVL48:
 418 0248 13010102 		addi	sp,sp,32
 419              		.cfi_def_cfa_offset 0
 420 024c 67800000 		jr	ra
 421              	.LVL49:
 422              	.L27:
 423              		.cfi_restore_state
  45:src/MemoryAllocator.cpp ****         head = newFree;
 424              		.loc 1 45 9 is_stmt 1
  45:src/MemoryAllocator.cpp ****         head = newFree;
 425              		.loc 1 45 23 is_stmt 0
 426 0250 2330E9FC 		sd	a4,-64(s2)
  46:src/MemoryAllocator.cpp ****     }
 427              		.loc 1 46 9 is_stmt 1
  46:src/MemoryAllocator.cpp ****     }
 428              		.loc 1 46 14 is_stmt 0
 429 0254 97070000 		sd	a0,_ZN15MemoryAllocator4headE,a5
 429      23B0A700 
 430              	.LVL50:
 431 025c 6FF05FFC 		j	.L28
 432              	.LVL51:
 433              	.L29:
GAS LISTING C:\msys64\tmp\cc0eqnGz.s 			page 13


  13:src/MemoryAllocator.cpp **** 
 434              		.loc 1 13 17
 435 0260 1305F0FF 		li	a0,-1
 436 0264 6FF05FFD 		j	.L24
 437              	.LVL52:
 438              	.L30:
  19:src/MemoryAllocator.cpp ****     }
 439              		.loc 1 19 17
 440 0268 1305F0FF 		li	a0,-1
 441              	.LVL53:
 442 026c 6FF0DFFC 		j	.L24
 443              	.LVL54:
 444              	.L31:
 445 0270 1305F0FF 		li	a0,-1
 446              	.LVL55:
 447 0274 6FF05FFC 		j	.L24
 448              	.LVL56:
 449              	.L32:
  29:src/MemoryAllocator.cpp ****         }
 450              		.loc 1 29 21
 451 0278 1305F0FF 		li	a0,-1
 452              	.LVL57:
 453 027c 6FF0DFFB 		j	.L24
 454              		.cfi_endproc
 455              	.LFE0:
 457              		.globl	_ZN15MemoryAllocator4headE
 458              		.globl	_ZN15MemoryAllocator6isinitE
 459              		.section	.sbss,"aw",@nobits
 460              		.align	3
 463              	_ZN15MemoryAllocator4headE:
 464 0000 00000000 		.zero	8
 464      00000000 
 467              	_ZN15MemoryAllocator6isinitE:
 468 0008 00       		.zero	1
 469              		.text
 470              	.Letext0:
 471              		.file 2 "src/../h/../lib/hw.h"
 472              		.file 3 "src/../h/MemoryAllocator.h"
GAS LISTING C:\msys64\tmp\cc0eqnGz.s 			page 14


DEFINED SYMBOLS
                            *ABS*:0000000000000000 MemoryAllocator.cpp
C:\msys64\tmp\cc0eqnGz.s:12     .text:0000000000000000 _ZN15MemoryAllocator4initEv
C:\msys64\tmp\cc0eqnGz.s:16     .text:0000000000000000 .L0 
C:\msys64\tmp\cc0eqnGz.s:17     .text:0000000000000000 .L0 
C:\msys64\tmp\cc0eqnGz.s:18     .text:0000000000000004 .L0 
C:\msys64\tmp\cc0eqnGz.s:20     .text:0000000000000008 .L0 
C:\msys64\tmp\cc0eqnGz.s:22     .text:000000000000000c .L0 
C:\msys64\tmp\cc0eqnGz.s:24     .text:000000000000000c .L0 
C:\msys64\tmp\cc0eqnGz.s:25     .text:000000000000000c .L0 
C:\msys64\tmp\cc0eqnGz.s:28     .text:0000000000000014 .L0 
C:\msys64\tmp\cc0eqnGz.s:29     .text:0000000000000014 .L0 
C:\msys64\tmp\cc0eqnGz.s:32     .text:000000000000001c .L0 
C:\msys64\tmp\cc0eqnGz.s:33     .text:000000000000001c .L0 
C:\msys64\tmp\cc0eqnGz.s:35     .text:0000000000000020 .L0 
C:\msys64\tmp\cc0eqnGz.s:37     .text:0000000000000024 .L0 
C:\msys64\tmp\cc0eqnGz.s:40     .text:0000000000000028 .L0 
C:\msys64\tmp\cc0eqnGz.s:44     .text:000000000000002c .L0 
C:\msys64\tmp\cc0eqnGz.s:45     .text:000000000000002c .L0 
C:\msys64\tmp\cc0eqnGz.s:47     .text:0000000000000030 .L0 
C:\msys64\tmp\cc0eqnGz.s:49     .text:0000000000000034 .L0 
C:\msys64\tmp\cc0eqnGz.s:53     .text:0000000000000038 .L0 
C:\msys64\tmp\cc0eqnGz.s:463    .sbss:0000000000000000 _ZN15MemoryAllocator4headE
C:\msys64\tmp\cc0eqnGz.s:54     .text:0000000000000038 .L0 
C:\msys64\tmp\cc0eqnGz.s:56     .text:0000000000000040 .L0 
C:\msys64\tmp\cc0eqnGz.s:57     .text:0000000000000040 .L0 
C:\msys64\tmp\cc0eqnGz.s:60     .text:0000000000000044 .L0 
C:\msys64\tmp\cc0eqnGz.s:62     .text:0000000000000048 .L0 
C:\msys64\tmp\cc0eqnGz.s:64     .text:000000000000004c .L0 
C:\msys64\tmp\cc0eqnGz.s:65     .text:000000000000004c .L0 
C:\msys64\tmp\cc0eqnGz.s:67     .text:0000000000000050 .L0 
C:\msys64\tmp\cc0eqnGz.s:68     .text:0000000000000054 .L0 
C:\msys64\tmp\cc0eqnGz.s:69     .text:0000000000000054 .L0 
C:\msys64\tmp\cc0eqnGz.s:71     .text:0000000000000058 .L0 
C:\msys64\tmp\cc0eqnGz.s:73     .text:000000000000005c .L0 
C:\msys64\tmp\cc0eqnGz.s:79     .text:000000000000005c _ZN15MemoryAllocator7kmallocEm
C:\msys64\tmp\cc0eqnGz.s:82     .text:000000000000005c .L0 
C:\msys64\tmp\cc0eqnGz.s:84     .text:000000000000005c .L0 
C:\msys64\tmp\cc0eqnGz.s:85     .text:0000000000000060 .L0 
C:\msys64\tmp\cc0eqnGz.s:89     .text:000000000000006c .L0 
C:\msys64\tmp\cc0eqnGz.s:90     .text:000000000000006c .L0 
C:\msys64\tmp\cc0eqnGz.s:91     .text:000000000000006c .L0 
C:\msys64\tmp\cc0eqnGz.s:93     .text:0000000000000070 .L0 
C:\msys64\tmp\cc0eqnGz.s:96     .text:0000000000000074 .L0 
C:\msys64\tmp\cc0eqnGz.s:467    .sbss:0000000000000008 _ZN15MemoryAllocator6isinitE
C:\msys64\tmp\cc0eqnGz.s:97     .text:0000000000000074 .L0 
C:\msys64\tmp\cc0eqnGz.s:99     .text:000000000000007c .L0 
C:\msys64\tmp\cc0eqnGz.s:103    .text:0000000000000080 .L0 
C:\msys64\tmp\cc0eqnGz.s:104    .text:0000000000000080 .L0 
C:\msys64\tmp\cc0eqnGz.s:106    .text:0000000000000084 .L0 
C:\msys64\tmp\cc0eqnGz.s:109    .text:0000000000000088 .L0 
C:\msys64\tmp\cc0eqnGz.s:110    .text:0000000000000088 .L0 
C:\msys64\tmp\cc0eqnGz.s:111    .text:0000000000000088 .L0 
C:\msys64\tmp\cc0eqnGz.s:114    .text:0000000000000090 .L0 
C:\msys64\tmp\cc0eqnGz.s:115    .text:0000000000000090 .L0 
C:\msys64\tmp\cc0eqnGz.s:120    .text:0000000000000098 .L0 
C:\msys64\tmp\cc0eqnGz.s:121    .text:0000000000000098 .L0 
GAS LISTING C:\msys64\tmp\cc0eqnGz.s 			page 15


C:\msys64\tmp\cc0eqnGz.s:124    .text:00000000000000a4 .L0 
C:\msys64\tmp\cc0eqnGz.s:125    .text:00000000000000a4 .L0 
C:\msys64\tmp\cc0eqnGz.s:131    .text:00000000000000b0 .L0 
C:\msys64\tmp\cc0eqnGz.s:132    .text:00000000000000b0 .L0 
C:\msys64\tmp\cc0eqnGz.s:133    .text:00000000000000b0 .L0 
C:\msys64\tmp\cc0eqnGz.s:135    .text:00000000000000b4 .L0 
C:\msys64\tmp\cc0eqnGz.s:139    .text:00000000000000b8 .L0 
C:\msys64\tmp\cc0eqnGz.s:140    .text:00000000000000b8 .L0 
C:\msys64\tmp\cc0eqnGz.s:142    .text:00000000000000bc .L0 
C:\msys64\tmp\cc0eqnGz.s:143    .text:00000000000000bc .L0 
C:\msys64\tmp\cc0eqnGz.s:145    .text:00000000000000c0 .L0 
C:\msys64\tmp\cc0eqnGz.s:147    .text:00000000000000c4 .L0 
C:\msys64\tmp\cc0eqnGz.s:148    .text:00000000000000c4 .L0 
C:\msys64\tmp\cc0eqnGz.s:151    .text:00000000000000c8 .L0 
C:\msys64\tmp\cc0eqnGz.s:155    .text:00000000000000cc .L0 
C:\msys64\tmp\cc0eqnGz.s:159    .text:00000000000000d0 .L0 
C:\msys64\tmp\cc0eqnGz.s:161    .text:00000000000000d4 .L0 
C:\msys64\tmp\cc0eqnGz.s:162    .text:00000000000000d4 .L0 
C:\msys64\tmp\cc0eqnGz.s:164    .text:00000000000000d8 .L0 
C:\msys64\tmp\cc0eqnGz.s:167    .text:00000000000000dc .L0 
C:\msys64\tmp\cc0eqnGz.s:168    .text:00000000000000dc .L0 
C:\msys64\tmp\cc0eqnGz.s:171    .text:00000000000000e4 .L0 
C:\msys64\tmp\cc0eqnGz.s:172    .text:00000000000000e4 .L0 
C:\msys64\tmp\cc0eqnGz.s:174    .text:00000000000000e8 .L0 
C:\msys64\tmp\cc0eqnGz.s:177    .text:00000000000000ec .L0 
C:\msys64\tmp\cc0eqnGz.s:178    .text:00000000000000ec .L0 
C:\msys64\tmp\cc0eqnGz.s:180    .text:00000000000000f0 .L0 
C:\msys64\tmp\cc0eqnGz.s:182    .text:00000000000000f4 .L0 
C:\msys64\tmp\cc0eqnGz.s:183    .text:00000000000000f4 .L0 
C:\msys64\tmp\cc0eqnGz.s:186    .text:00000000000000f8 .L0 
C:\msys64\tmp\cc0eqnGz.s:188    .text:00000000000000fc .L0 
C:\msys64\tmp\cc0eqnGz.s:189    .text:00000000000000fc .L0 
C:\msys64\tmp\cc0eqnGz.s:193    .text:0000000000000100 .L0 
C:\msys64\tmp\cc0eqnGz.s:195    .text:0000000000000104 .L0 
C:\msys64\tmp\cc0eqnGz.s:196    .text:0000000000000104 .L0 
C:\msys64\tmp\cc0eqnGz.s:200    .text:0000000000000108 .L0 
C:\msys64\tmp\cc0eqnGz.s:201    .text:000000000000010c .L0 
C:\msys64\tmp\cc0eqnGz.s:202    .text:000000000000010c .L0 
C:\msys64\tmp\cc0eqnGz.s:204    .text:0000000000000110 .L0 
C:\msys64\tmp\cc0eqnGz.s:205    .text:0000000000000110 .L0 
C:\msys64\tmp\cc0eqnGz.s:207    .text:0000000000000114 .L0 
C:\msys64\tmp\cc0eqnGz.s:210    .text:0000000000000118 .L0 
C:\msys64\tmp\cc0eqnGz.s:214    .text:000000000000011c .L0 
C:\msys64\tmp\cc0eqnGz.s:216    .text:000000000000011c .L0 
C:\msys64\tmp\cc0eqnGz.s:217    .text:000000000000011c .L0 
C:\msys64\tmp\cc0eqnGz.s:223    .text:0000000000000124 .L0 
C:\msys64\tmp\cc0eqnGz.s:224    .text:0000000000000124 .L0 
C:\msys64\tmp\cc0eqnGz.s:230    .text:0000000000000130 .L0 
C:\msys64\tmp\cc0eqnGz.s:233    .text:0000000000000138 .L0 
C:\msys64\tmp\cc0eqnGz.s:239    .text:0000000000000138 _ZN15MemoryAllocator8tryMergeEPNS_13segmentHeaderE
C:\msys64\tmp\cc0eqnGz.s:242    .text:0000000000000138 .L0 
C:\msys64\tmp\cc0eqnGz.s:244    .text:0000000000000138 .L0 
C:\msys64\tmp\cc0eqnGz.s:245    .text:000000000000013c .L0 
C:\msys64\tmp\cc0eqnGz.s:247    .text:0000000000000140 .L0 
C:\msys64\tmp\cc0eqnGz.s:249    .text:0000000000000144 .L0 
C:\msys64\tmp\cc0eqnGz.s:251    .text:0000000000000144 .L0 
C:\msys64\tmp\cc0eqnGz.s:253    .text:0000000000000148 .L0 
GAS LISTING C:\msys64\tmp\cc0eqnGz.s 			page 16


C:\msys64\tmp\cc0eqnGz.s:254    .text:0000000000000148 .L0 
C:\msys64\tmp\cc0eqnGz.s:257    .text:000000000000014c .L0 
C:\msys64\tmp\cc0eqnGz.s:259    .text:0000000000000150 .L0 
C:\msys64\tmp\cc0eqnGz.s:260    .text:0000000000000150 .L0 
C:\msys64\tmp\cc0eqnGz.s:262    .text:0000000000000154 .L0 
C:\msys64\tmp\cc0eqnGz.s:265    .text:000000000000015c .L0 
C:\msys64\tmp\cc0eqnGz.s:269    .text:0000000000000160 .L0 
C:\msys64\tmp\cc0eqnGz.s:270    .text:0000000000000164 .L0 
C:\msys64\tmp\cc0eqnGz.s:271    .text:0000000000000164 .L0 
C:\msys64\tmp\cc0eqnGz.s:272    .text:0000000000000164 .L0 
C:\msys64\tmp\cc0eqnGz.s:274    .text:0000000000000168 .L0 
C:\msys64\tmp\cc0eqnGz.s:278    .text:000000000000016c .L0 
C:\msys64\tmp\cc0eqnGz.s:280    .text:000000000000016c .L0 
C:\msys64\tmp\cc0eqnGz.s:281    .text:000000000000016c .L0 
C:\msys64\tmp\cc0eqnGz.s:283    .text:0000000000000170 .L0 
C:\msys64\tmp\cc0eqnGz.s:285    .text:0000000000000174 .L0 
C:\msys64\tmp\cc0eqnGz.s:286    .text:0000000000000174 .L0 
C:\msys64\tmp\cc0eqnGz.s:289    .text:0000000000000178 .L0 
C:\msys64\tmp\cc0eqnGz.s:293    .text:0000000000000188 .L0 
C:\msys64\tmp\cc0eqnGz.s:299    .text:0000000000000188 _ZN15MemoryAllocator5kfreeEPv
C:\msys64\tmp\cc0eqnGz.s:302    .text:0000000000000188 .L0 
C:\msys64\tmp\cc0eqnGz.s:304    .text:0000000000000188 .L0 
C:\msys64\tmp\cc0eqnGz.s:305    .text:000000000000018c .L0 
C:\msys64\tmp\cc0eqnGz.s:310    .text:000000000000019c .L0 
C:\msys64\tmp\cc0eqnGz.s:311    .text:000000000000019c .L0 
C:\msys64\tmp\cc0eqnGz.s:312    .text:000000000000019c .L0 
C:\msys64\tmp\cc0eqnGz.s:313    .text:000000000000019c .L0 
C:\msys64\tmp\cc0eqnGz.s:315    .text:00000000000001a0 .L0 
C:\msys64\tmp\cc0eqnGz.s:318    .text:00000000000001a4 .L0 
C:\msys64\tmp\cc0eqnGz.s:319    .text:00000000000001a4 .L0 
C:\msys64\tmp\cc0eqnGz.s:321    .text:00000000000001ac .L0 
C:\msys64\tmp\cc0eqnGz.s:325    .text:00000000000001b0 .L0 
C:\msys64\tmp\cc0eqnGz.s:327    .text:00000000000001b4 .L0 
C:\msys64\tmp\cc0eqnGz.s:328    .text:00000000000001b4 .L0 
C:\msys64\tmp\cc0eqnGz.s:331    .text:00000000000001b8 .L0 
C:\msys64\tmp\cc0eqnGz.s:332    .text:00000000000001b8 .L0 
C:\msys64\tmp\cc0eqnGz.s:334    .text:00000000000001c0 .L0 
C:\msys64\tmp\cc0eqnGz.s:336    .text:00000000000001c4 .L0 
C:\msys64\tmp\cc0eqnGz.s:338    .text:00000000000001cc .L0 
C:\msys64\tmp\cc0eqnGz.s:340    .text:00000000000001d0 .L0 
C:\msys64\tmp\cc0eqnGz.s:341    .text:00000000000001d0 .L0 
C:\msys64\tmp\cc0eqnGz.s:344    .text:00000000000001d8 .L0 
C:\msys64\tmp\cc0eqnGz.s:345    .text:00000000000001d8 .L0 
C:\msys64\tmp\cc0eqnGz.s:347    .text:00000000000001dc .L0 
C:\msys64\tmp\cc0eqnGz.s:351    .text:00000000000001e0 .L0 
C:\msys64\tmp\cc0eqnGz.s:352    .text:00000000000001e0 .L0 
C:\msys64\tmp\cc0eqnGz.s:354    .text:00000000000001e4 .L0 
C:\msys64\tmp\cc0eqnGz.s:356    .text:00000000000001e8 .L0 
C:\msys64\tmp\cc0eqnGz.s:359    .text:00000000000001ec .L0 
C:\msys64\tmp\cc0eqnGz.s:360    .text:00000000000001ec .L0 
C:\msys64\tmp\cc0eqnGz.s:361    .text:00000000000001ec .L0 
C:\msys64\tmp\cc0eqnGz.s:363    .text:00000000000001f0 .L0 
C:\msys64\tmp\cc0eqnGz.s:366    .text:00000000000001f4 .L0 
C:\msys64\tmp\cc0eqnGz.s:370    .text:00000000000001f8 .L0 
C:\msys64\tmp\cc0eqnGz.s:371    .text:00000000000001f8 .L0 
C:\msys64\tmp\cc0eqnGz.s:374    .text:0000000000000204 .L0 
C:\msys64\tmp\cc0eqnGz.s:375    .text:0000000000000204 .L0 
GAS LISTING C:\msys64\tmp\cc0eqnGz.s 			page 17


C:\msys64\tmp\cc0eqnGz.s:381    .text:0000000000000210 .L0 
C:\msys64\tmp\cc0eqnGz.s:383    .text:0000000000000214 .L0 
C:\msys64\tmp\cc0eqnGz.s:384    .text:0000000000000214 .L0 
C:\msys64\tmp\cc0eqnGz.s:387    .text:0000000000000218 .L0 
C:\msys64\tmp\cc0eqnGz.s:389    .text:000000000000021c .L0 
C:\msys64\tmp\cc0eqnGz.s:390    .text:000000000000021c .L0 
C:\msys64\tmp\cc0eqnGz.s:393    .text:0000000000000220 .L0 
C:\msys64\tmp\cc0eqnGz.s:394    .text:0000000000000220 .L0 
C:\msys64\tmp\cc0eqnGz.s:397    .text:0000000000000228 .L0 
C:\msys64\tmp\cc0eqnGz.s:398    .text:0000000000000228 .L0 
C:\msys64\tmp\cc0eqnGz.s:402    .text:0000000000000234 .L0 
C:\msys64\tmp\cc0eqnGz.s:403    .text:0000000000000234 .L0 
C:\msys64\tmp\cc0eqnGz.s:407    .text:0000000000000238 .L0 
C:\msys64\tmp\cc0eqnGz.s:408    .text:000000000000023c .L0 
C:\msys64\tmp\cc0eqnGz.s:409    .text:000000000000023c .L0 
C:\msys64\tmp\cc0eqnGz.s:411    .text:0000000000000240 .L0 
C:\msys64\tmp\cc0eqnGz.s:412    .text:0000000000000240 .L0 
C:\msys64\tmp\cc0eqnGz.s:414    .text:0000000000000244 .L0 
C:\msys64\tmp\cc0eqnGz.s:416    .text:0000000000000248 .L0 
C:\msys64\tmp\cc0eqnGz.s:419    .text:000000000000024c .L0 
C:\msys64\tmp\cc0eqnGz.s:423    .text:0000000000000250 .L0 
C:\msys64\tmp\cc0eqnGz.s:425    .text:0000000000000250 .L0 
C:\msys64\tmp\cc0eqnGz.s:426    .text:0000000000000250 .L0 
C:\msys64\tmp\cc0eqnGz.s:428    .text:0000000000000254 .L0 
C:\msys64\tmp\cc0eqnGz.s:429    .text:0000000000000254 .L0 
C:\msys64\tmp\cc0eqnGz.s:435    .text:0000000000000260 .L0 
C:\msys64\tmp\cc0eqnGz.s:440    .text:0000000000000268 .L0 
C:\msys64\tmp\cc0eqnGz.s:451    .text:0000000000000278 .L0 
C:\msys64\tmp\cc0eqnGz.s:454    .text:0000000000000280 .L0 
C:\msys64\tmp\cc0eqnGz.s:473    .text:0000000000000280 .L0 
C:\msys64\tmp\cc0eqnGz.s:25     .text:000000000000000c .L0 
C:\msys64\tmp\cc0eqnGz.s:29     .text:0000000000000014 .L0 
C:\msys64\tmp\cc0eqnGz.s:54     .text:0000000000000038 .L0 
C:\msys64\tmp\cc0eqnGz.s:97     .text:0000000000000074 .L0 
C:\msys64\tmp\cc0eqnGz.s:111    .text:0000000000000088 .L0 
C:\msys64\tmp\cc0eqnGz.s:122    .text:000000000000009c .L0 
C:\msys64\tmp\cc0eqnGz.s:224    .text:0000000000000124 .L0 
C:\msys64\tmp\cc0eqnGz.s:319    .text:00000000000001a4 .L0 
C:\msys64\tmp\cc0eqnGz.s:332    .text:00000000000001b8 .L0 
C:\msys64\tmp\cc0eqnGz.s:336    .text:00000000000001c4 .L0 
C:\msys64\tmp\cc0eqnGz.s:341    .text:00000000000001d0 .L0 
C:\msys64\tmp\cc0eqnGz.s:372    .text:00000000000001fc .L0 
C:\msys64\tmp\cc0eqnGz.s:429    .text:0000000000000254 .L0 
C:\msys64\tmp\cc0eqnGz.s:41     .text:000000000000002c .L2
C:\msys64\tmp\cc0eqnGz.s:51     .text:0000000000000038 .L3
C:\msys64\tmp\cc0eqnGz.s:118    .text:0000000000000098 .L17
C:\msys64\tmp\cc0eqnGz.s:137    .text:00000000000000b8 .L9
C:\msys64\tmp\cc0eqnGz.s:101    .text:0000000000000080 .L6
C:\msys64\tmp\cc0eqnGz.s:153    .text:00000000000000cc .L14
C:\msys64\tmp\cc0eqnGz.s:129    .text:00000000000000b0 .L8
C:\msys64\tmp\cc0eqnGz.s:157    .text:00000000000000d0 .L7
C:\msys64\tmp\cc0eqnGz.s:228    .text:0000000000000130 .L15
C:\msys64\tmp\cc0eqnGz.s:213    .text:000000000000011c .L11
C:\msys64\tmp\cc0eqnGz.s:221    .text:0000000000000124 .L13
C:\msys64\tmp\cc0eqnGz.s:191    .text:0000000000000100 .L12
C:\msys64\tmp\cc0eqnGz.s:198    .text:0000000000000108 .L5
C:\msys64\tmp\cc0eqnGz.s:267    .text:0000000000000160 .L18
GAS LISTING C:\msys64\tmp\cc0eqnGz.s 			page 18


C:\msys64\tmp\cc0eqnGz.s:277    .text:000000000000016c .L21
C:\msys64\tmp\cc0eqnGz.s:368    .text:00000000000001f8 .L34
C:\msys64\tmp\cc0eqnGz.s:433    .text:0000000000000260 .L29
C:\msys64\tmp\cc0eqnGz.s:438    .text:0000000000000268 .L30
C:\msys64\tmp\cc0eqnGz.s:444    .text:0000000000000270 .L31
C:\msys64\tmp\cc0eqnGz.s:379    .text:0000000000000210 .L25
C:\msys64\tmp\cc0eqnGz.s:449    .text:0000000000000278 .L32
C:\msys64\tmp\cc0eqnGz.s:349    .text:00000000000001e0 .L26
C:\msys64\tmp\cc0eqnGz.s:323    .text:00000000000001b0 .L23
C:\msys64\tmp\cc0eqnGz.s:422    .text:0000000000000250 .L27
C:\msys64\tmp\cc0eqnGz.s:391    .text:0000000000000220 .L28
C:\msys64\tmp\cc0eqnGz.s:405    .text:0000000000000238 .L24
C:\msys64\tmp\cc0eqnGz.s:912    .debug_abbrev:0000000000000000 .Ldebug_abbrev0
C:\msys64\tmp\cc0eqnGz.s:1844   .debug_str:0000000000000209 .LASF39
C:\msys64\tmp\cc0eqnGz.s:1856   .debug_str:000000000000034a .LASF40
C:\msys64\tmp\cc0eqnGz.s:1840   .debug_str:00000000000001cd .LASF41
C:\msys64\tmp\cc0eqnGz.s:8      .text:0000000000000000 .Ltext0
C:\msys64\tmp\cc0eqnGz.s:470    .text:0000000000000280 .Letext0
C:\msys64\tmp\cc0eqnGz.s:1776   .debug_line:0000000000000000 .Ldebug_line0
C:\msys64\tmp\cc0eqnGz.s:1842   .debug_str:00000000000001fc .LASF0
C:\msys64\tmp\cc0eqnGz.s:1826   .debug_str:000000000000015a .LASF1
C:\msys64\tmp\cc0eqnGz.s:1818   .debug_str:0000000000000116 .LASF2
C:\msys64\tmp\cc0eqnGz.s:1796   .debug_str:0000000000000073 .LASF4
C:\msys64\tmp\cc0eqnGz.s:1824   .debug_str:0000000000000148 .LASF3
C:\msys64\tmp\cc0eqnGz.s:1782   .debug_str:0000000000000023 .LASF5
C:\msys64\tmp\cc0eqnGz.s:1778   .debug_str:0000000000000000 .LASF6
C:\msys64\tmp\cc0eqnGz.s:1814   .debug_str:00000000000000fd .LASF7
C:\msys64\tmp\cc0eqnGz.s:1850   .debug_str:0000000000000308 .LASF8
C:\msys64\tmp\cc0eqnGz.s:1794   .debug_str:0000000000000065 .LASF9
C:\msys64\tmp\cc0eqnGz.s:1874   .debug_str:00000000000003b8 .LASF10
C:\msys64\tmp\cc0eqnGz.s:1828   .debug_str:000000000000016d .LASF11
C:\msys64\tmp\cc0eqnGz.s:1804   .debug_str:00000000000000a0 .LASF12
C:\msys64\tmp\cc0eqnGz.s:1852   .debug_str:0000000000000318 .LASF13
C:\msys64\tmp\cc0eqnGz.s:1780   .debug_str:0000000000000013 .LASF16
C:\msys64\tmp\cc0eqnGz.s:1860   .debug_str:000000000000036b .LASF42
C:\msys64\tmp\cc0eqnGz.s:1784   .debug_str:000000000000002a .LASF14
C:\msys64\tmp\cc0eqnGz.s:1870   .debug_str:00000000000003ae .LASF15
C:\msys64\tmp\cc0eqnGz.s:1836   .debug_str:00000000000001af .LASF17
C:\msys64\tmp\cc0eqnGz.s:1800   .debug_str:000000000000007f .LASF18
C:\msys64\tmp\cc0eqnGz.s:1864   .debug_str:000000000000037e .LASF43
C:\msys64\tmp\cc0eqnGz.s:1820   .debug_str:0000000000000124 .LASF44
C:\msys64\tmp\cc0eqnGz.s:1830   .debug_str:0000000000000179 .LASF19
C:\msys64\tmp\cc0eqnGz.s:1846   .debug_str:00000000000002dc .LASF21
C:\msys64\tmp\cc0eqnGz.s:1810   .debug_str:00000000000000c4 .LASF20
C:\msys64\tmp\cc0eqnGz.s:1832   .debug_str:0000000000000181 .LASF22
C:\msys64\tmp\cc0eqnGz.s:1802   .debug_str:000000000000009b .LASF45
C:\msys64\tmp\cc0eqnGz.s:1854   .debug_str:000000000000032e .LASF46
C:\msys64\tmp\cc0eqnGz.s:1838   .debug_str:00000000000001c8 .LASF23
C:\msys64\tmp\cc0eqnGz.s:1790   .debug_str:000000000000004f .LASF24
C:\msys64\tmp\cc0eqnGz.s:1858   .debug_str:0000000000000362 .LASF47
C:\msys64\tmp\cc0eqnGz.s:1812   .debug_str:00000000000000ca .LASF48
C:\msys64\tmp\cc0eqnGz.s:1798   .debug_str:000000000000007a .LASF25
C:\msys64\tmp\cc0eqnGz.s:1866   .debug_str:0000000000000388 .LASF26
C:\msys64\tmp\cc0eqnGz.s:1786   .debug_str:000000000000002f .LASF27
C:\msys64\tmp\cc0eqnGz.s:240    .text:0000000000000138 .LFB3
C:\msys64\tmp\cc0eqnGz.s:294    .text:0000000000000188 .LFE3
C:\msys64\tmp\cc0eqnGz.s:1816   .debug_str:0000000000000110 .LASF30
GAS LISTING C:\msys64\tmp\cc0eqnGz.s 			page 19


C:\msys64\tmp\cc0eqnGz.s:1868   .debug_str:00000000000003a5 .LASF28
C:\msys64\tmp\cc0eqnGz.s:1448   .debug_loc:0000000000000000 .LLST9
C:\msys64\tmp\cc0eqnGz.s:13     .text:0000000000000000 .LFB2
C:\msys64\tmp\cc0eqnGz.s:74     .text:000000000000005c .LFE2
C:\msys64\tmp\cc0eqnGz.s:1808   .debug_str:00000000000000be .LASF29
C:\msys64\tmp\cc0eqnGz.s:1459   .debug_loc:0000000000000036 .LLST0
C:\msys64\tmp\cc0eqnGz.s:1470   .debug_loc:000000000000006c .LLST1
C:\msys64\tmp\cc0eqnGz.s:80     .text:000000000000005c .LFB1
C:\msys64\tmp\cc0eqnGz.s:234    .text:0000000000000138 .LFE1
C:\msys64\tmp\cc0eqnGz.s:1477   .debug_loc:000000000000008f .LLST2
C:\msys64\tmp\cc0eqnGz.s:1848   .debug_str:00000000000002fb .LASF31
C:\msys64\tmp\cc0eqnGz.s:1499   .debug_loc:00000000000000ee .LLST3
C:\msys64\tmp\cc0eqnGz.s:1822   .debug_str:0000000000000140 .LASF32
C:\msys64\tmp\cc0eqnGz.s:1510   .debug_loc:0000000000000124 .LLST4
C:\msys64\tmp\cc0eqnGz.s:1788   .debug_str:000000000000004a .LASF33
C:\msys64\tmp\cc0eqnGz.s:1540   .debug_loc:00000000000001a9 .LLST5
C:\msys64\tmp\cc0eqnGz.s:1872   .debug_str:00000000000003b3 .LASF34
C:\msys64\tmp\cc0eqnGz.s:1564   .debug_loc:0000000000000219 .LLST6
C:\msys64\tmp\cc0eqnGz.s:1834   .debug_str:000000000000019f .LASF35
C:\msys64\tmp\cc0eqnGz.s:1580   .debug_loc:0000000000000263 .LLST7
C:\msys64\tmp\cc0eqnGz.s:1792   .debug_str:0000000000000056 .LASF36
C:\msys64\tmp\cc0eqnGz.s:1597   .debug_loc:00000000000002af .LLST8
C:\msys64\tmp\cc0eqnGz.s:126    .text:00000000000000ac .LVL11
C:\msys64\tmp\cc0eqnGz.s:300    .text:0000000000000188 .LFB0
C:\msys64\tmp\cc0eqnGz.s:455    .text:0000000000000280 .LFE0
C:\msys64\tmp\cc0eqnGz.s:1862   .debug_str:0000000000000379 .LASF37
C:\msys64\tmp\cc0eqnGz.s:1618   .debug_loc:000000000000030d .LLST10
C:\msys64\tmp\cc0eqnGz.s:1806   .debug_str:00000000000000b6 .LASF38
C:\msys64\tmp\cc0eqnGz.s:1648   .debug_loc:0000000000000392 .LLST11
C:\msys64\tmp\cc0eqnGz.s:1699   .debug_loc:0000000000000468 .LLST12
C:\msys64\tmp\cc0eqnGz.s:1731   .debug_loc:00000000000004fe .LLST13
C:\msys64\tmp\cc0eqnGz.s:376    .text:000000000000020c .LVL42
C:\msys64\tmp\cc0eqnGz.s:395    .text:0000000000000228 .LVL45
C:\msys64\tmp\cc0eqnGz.s:400    .text:0000000000000234 .LVL46
C:\msys64\tmp\cc0eqnGz.s:255    .text:000000000000014c .LVL30
C:\msys64\tmp\cc0eqnGz.s:266    .text:0000000000000160 .LVL31
C:\msys64\tmp\cc0eqnGz.s:276    .text:000000000000016c .LVL32
C:\msys64\tmp\cc0eqnGz.s:287    .text:0000000000000178 .LVL33
C:\msys64\tmp\cc0eqnGz.s:26     .text:0000000000000014 .LVL0
C:\msys64\tmp\cc0eqnGz.s:38     .text:0000000000000028 .LVL2
C:\msys64\tmp\cc0eqnGz.s:42     .text:000000000000002c .LVL3
C:\msys64\tmp\cc0eqnGz.s:30     .text:000000000000001c .LVL1
C:\msys64\tmp\cc0eqnGz.s:58     .text:0000000000000044 .LVL5
C:\msys64\tmp\cc0eqnGz.s:83     .text:000000000000005c .LVL6
C:\msys64\tmp\cc0eqnGz.s:100    .text:0000000000000080 .LVL7
C:\msys64\tmp\cc0eqnGz.s:208    .text:0000000000000114 .LVL22
C:\msys64\tmp\cc0eqnGz.s:212    .text:000000000000011c .LVL23
C:\msys64\tmp\cc0eqnGz.s:107    .text:0000000000000088 .LVL8
C:\msys64\tmp\cc0eqnGz.s:117    .text:0000000000000098 .LVL10
C:\msys64\tmp\cc0eqnGz.s:128    .text:00000000000000b0 .LVL12
C:\msys64\tmp\cc0eqnGz.s:149    .text:00000000000000c8 .LVL14
C:\msys64\tmp\cc0eqnGz.s:152    .text:00000000000000cc .LVL15
C:\msys64\tmp\cc0eqnGz.s:156    .text:00000000000000d0 .LVL16
C:\msys64\tmp\cc0eqnGz.s:197    .text:0000000000000108 .LVL21
C:\msys64\tmp\cc0eqnGz.s:231    .text:0000000000000134 .LVL28
C:\msys64\tmp\cc0eqnGz.s:112    .text:0000000000000090 .LVL9
C:\msys64\tmp\cc0eqnGz.s:136    .text:00000000000000b8 .LVL13
GAS LISTING C:\msys64\tmp\cc0eqnGz.s 			page 20


C:\msys64\tmp\cc0eqnGz.s:225    .text:000000000000012c .LVL26
C:\msys64\tmp\cc0eqnGz.s:227    .text:0000000000000130 .LVL27
C:\msys64\tmp\cc0eqnGz.s:165    .text:00000000000000dc .LVL17
C:\msys64\tmp\cc0eqnGz.s:184    .text:00000000000000f8 .LVL19
C:\msys64\tmp\cc0eqnGz.s:190    .text:0000000000000100 .LVL20
C:\msys64\tmp\cc0eqnGz.s:220    .text:0000000000000124 .LVL25
C:\msys64\tmp\cc0eqnGz.s:175    .text:00000000000000ec .LVL18
C:\msys64\tmp\cc0eqnGz.s:218    .text:0000000000000120 .LVL24
C:\msys64\tmp\cc0eqnGz.s:303    .text:0000000000000188 .LVL34
C:\msys64\tmp\cc0eqnGz.s:322    .text:00000000000001b0 .LVL35
C:\msys64\tmp\cc0eqnGz.s:367    .text:00000000000001f8 .LVL41
C:\msys64\tmp\cc0eqnGz.s:417    .text:0000000000000248 .LVL48
C:\msys64\tmp\cc0eqnGz.s:421    .text:0000000000000250 .LVL49
C:\msys64\tmp\cc0eqnGz.s:329    .text:00000000000001b8 .LVL36
C:\msys64\tmp\cc0eqnGz.s:378    .text:0000000000000210 .LVL43
C:\msys64\tmp\cc0eqnGz.s:404    .text:0000000000000238 .LVL47
C:\msys64\tmp\cc0eqnGz.s:432    .text:0000000000000260 .LVL51
C:\msys64\tmp\cc0eqnGz.s:437    .text:0000000000000268 .LVL52
C:\msys64\tmp\cc0eqnGz.s:441    .text:000000000000026c .LVL53
C:\msys64\tmp\cc0eqnGz.s:443    .text:0000000000000270 .LVL54
C:\msys64\tmp\cc0eqnGz.s:446    .text:0000000000000274 .LVL55
C:\msys64\tmp\cc0eqnGz.s:448    .text:0000000000000278 .LVL56
C:\msys64\tmp\cc0eqnGz.s:452    .text:000000000000027c .LVL57
C:\msys64\tmp\cc0eqnGz.s:342    .text:00000000000001d8 .LVL37
C:\msys64\tmp\cc0eqnGz.s:348    .text:00000000000001e0 .LVL38
C:\msys64\tmp\cc0eqnGz.s:358    .text:00000000000001ec .LVL39
C:\msys64\tmp\cc0eqnGz.s:364    .text:00000000000001f4 .LVL40
C:\msys64\tmp\cc0eqnGz.s:385    .text:0000000000000218 .LVL44
C:\msys64\tmp\cc0eqnGz.s:430    .text:000000000000025c .LVL50
C:\msys64\tmp\cc0eqnGz.s:474    .debug_info:0000000000000000 .Ldebug_info0

UNDEFINED SYMBOLS
HEAP_START_ADDR
HEAP_END_ADDR
