GAS LISTING /tmp/cciyxcJl.s 			page 1


   1              		.file	"new.cpp"
   2              		.option pic
   3              		.option norelax
   4              		.text
   5              	.Ltext0:
   6              		.align	2
   7              		.globl	_Znwm
   9              	_Znwm:
  10              	.LFB0:
  11              		.file 1 "src/new.cpp"
   1:src/new.cpp   **** #include "../lib/mem.h"
   2:src/new.cpp   **** 
   3:src/new.cpp   **** void *operator new (uint64 n){
  12              		.loc 1 3 30
  13              		.cfi_startproc
  14              	.LVL0:
  15 0000 130101FF 		addi	sp,sp,-16
  16              		.cfi_def_cfa_offset 16
  17 0004 23341100 		sd	ra,8(sp)
  18 0008 23308100 		sd	s0,0(sp)
  19              		.cfi_offset 1, -8
  20              		.cfi_offset 8, -16
  21 000c 13040101 		addi	s0,sp,16
  22              		.cfi_def_cfa 8, 0
   4:src/new.cpp   **** return __mem_alloc(n);
  23              		.loc 1 4 1
  24              		.loc 1 4 19 is_stmt 0
  25 0010 97000000 		call	__mem_alloc@plt
  25      E7800000 
  26              	.LVL1:
   5:src/new.cpp   **** }
  27              		.loc 1 5 1
  28 0018 83308100 		ld	ra,8(sp)
  29              		.cfi_restore 1
  30 001c 03340100 		ld	s0,0(sp)
  31              		.cfi_restore 8
  32              		.cfi_def_cfa 2, 16
  33 0020 13010101 		addi	sp,sp,16
  34              		.cfi_def_cfa_offset 0
  35 0024 67800000 		jr	ra
  36              		.cfi_endproc
  37              	.LFE0:
  39              		.align	2
  40              		.globl	_Znam
  42              	_Znam:
  43              	.LFB1:
   6:src/new.cpp   **** 
   7:src/new.cpp   **** void *operator new[](uint64 n) {
  44              		.loc 1 7 32 is_stmt 1
  45              		.cfi_startproc
  46              	.LVL2:
  47 0028 130101FF 		addi	sp,sp,-16
  48              		.cfi_def_cfa_offset 16
  49 002c 23341100 		sd	ra,8(sp)
  50 0030 23308100 		sd	s0,0(sp)
  51              		.cfi_offset 1, -8
  52              		.cfi_offset 8, -16
GAS LISTING /tmp/cciyxcJl.s 			page 2


  53 0034 13040101 		addi	s0,sp,16
  54              		.cfi_def_cfa 8, 0
   8:src/new.cpp   ****     return __mem_alloc(n);
  55              		.loc 1 8 5
  56              		.loc 1 8 23 is_stmt 0
  57 0038 97000000 		call	__mem_alloc@plt
  57      E7800000 
  58              	.LVL3:
   9:src/new.cpp   **** }
  59              		.loc 1 9 1
  60 0040 83308100 		ld	ra,8(sp)
  61              		.cfi_restore 1
  62 0044 03340100 		ld	s0,0(sp)
  63              		.cfi_restore 8
  64              		.cfi_def_cfa 2, 16
  65 0048 13010101 		addi	sp,sp,16
  66              		.cfi_def_cfa_offset 0
  67 004c 67800000 		jr	ra
  68              		.cfi_endproc
  69              	.LFE1:
  71              		.align	2
  72              		.globl	_ZdlPv
  74              	_ZdlPv:
  75              	.LFB2:
  10:src/new.cpp   **** 
  11:src/new.cpp   **** void operator delete(void *p) noexcept{
  76              		.loc 1 11 39 is_stmt 1
  77              		.cfi_startproc
  78              		.cfi_personality 0x9b,DW.ref.__gxx_personality_v0
  79              		.cfi_lsda 0x1b,.LLSDA2
  80              	.LVL4:
  81 0050 130101FF 		addi	sp,sp,-16
  82              		.cfi_def_cfa_offset 16
  83 0054 23341100 		sd	ra,8(sp)
  84 0058 23308100 		sd	s0,0(sp)
  85              		.cfi_offset 1, -8
  86              		.cfi_offset 8, -16
  87 005c 13040101 		addi	s0,sp,16
  88              		.cfi_def_cfa 8, 0
  12:src/new.cpp   **** __mem_free(p);}
  89              		.loc 1 12 1
  90              		.loc 1 12 11 is_stmt 0
  91 0060 97000000 		call	__mem_free@plt
  91      E7800000 
  92              	.LVL5:
  93              		.loc 1 12 15
  94 0068 83308100 		ld	ra,8(sp)
  95              		.cfi_restore 1
  96 006c 03340100 		ld	s0,0(sp)
  97              		.cfi_restore 8
  98              		.cfi_def_cfa 2, 16
  99 0070 13010101 		addi	sp,sp,16
 100              		.cfi_def_cfa_offset 0
 101 0074 67800000 		jr	ra
 102              		.cfi_endproc
 103              	.LFE2:
 104              		.globl	__gxx_personality_v0
GAS LISTING /tmp/cciyxcJl.s 			page 3


 105              		.section	.gcc_except_table,"a",@progbits
 106              	.LLSDA2:
 107 0000 FF       		.byte	0xff
 108 0001 FF       		.byte	0xff
 109 0002 03       		.byte	0x3
 110 0003 00       		.byte	0
 111              		.text
 113              		.align	2
 114              		.globl	_ZdaPv
 116              	_ZdaPv:
 117              	.LFB3:
  13:src/new.cpp   **** 
  14:src/new.cpp   **** void operator delete[](void *p) noexcept{}...
 118              		.loc 1 14 41 is_stmt 1
 119              		.cfi_startproc
 120              	.LVL6:
 121 0078 130101FF 		addi	sp,sp,-16
 122              		.cfi_def_cfa_offset 16
 123 007c 23348100 		sd	s0,8(sp)
 124              		.cfi_offset 8, -8
 125 0080 13040101 		addi	s0,sp,16
 126              		.cfi_def_cfa 8, 0
 127              		.loc 1 14 42 is_stmt 0
 128 0084 03348100 		ld	s0,8(sp)
 129              		.cfi_restore 8
 130              		.cfi_def_cfa 2, 16
 131 0088 13010101 		addi	sp,sp,16
 132              		.cfi_def_cfa_offset 0
 133 008c 67800000 		jr	ra
 134              		.cfi_endproc
 135              	.LFE3:
 137              	.Letext0:
 138              		.file 2 "src/../lib/hw.h"
 139              		.file 3 "src/../lib/mem.h"
 767              		.align	3
 770              	DW.ref.__gxx_personality_v0:
 771 0000 00000000 		.dword	__gxx_personality_v0
 771      00000000 
 772              		.ident	"GCC: (Ubuntu 9.4.0-1ubuntu1~20.04) 9.4.0"
 773              		.section	.note.GNU-stack,"",@progbits
GAS LISTING /tmp/cciyxcJl.s 			page 4

