GAS LISTING C:\msys64\tmp\ccCUaND5.s 			page 1


   1              		.file	"printer.cpp"
   2              		.option nopic
   3              		.option norelax
   4              		.attribute arch, "rv64i2p0_m2p0_a2p0"
   5              		.attribute unaligned_access, 0
   6              		.attribute stack_align, 16
   7              		.text
   8              	.Ltext0:
   9              		.align	2
  10              		.globl	_Z11printStringPKc
  12              	_Z11printStringPKc:
  13              	.LFB18:
  14              		.file 1 "src/printer.cpp"
   1:src/printer.cpp **** // Created by marko on 20.4.22..
   2:src/printer.cpp **** //
   3:src/printer.cpp **** 
   4:src/printer.cpp **** #include "../h/printer.h"
   5:src/printer.cpp **** #include "../lib/console.h"
   6:src/printer.cpp **** #include "../h/riscv.h"
   7:src/printer.cpp **** void printString(char const *string)
   8:src/printer.cpp **** {
  15              		.loc 1 8 1
  16              		.cfi_startproc
  17              	.LVL0:
  18 0000 130101FD 		addi	sp,sp,-48
  19              		.cfi_def_cfa_offset 48
  20 0004 23341102 		sd	ra,40(sp)
  21 0008 23308102 		sd	s0,32(sp)
  22 000c 233C9100 		sd	s1,24(sp)
  23 0010 23382101 		sd	s2,16(sp)
  24              		.cfi_offset 1, -8
  25              		.cfi_offset 8, -16
  26              		.cfi_offset 9, -24
  27              		.cfi_offset 18, -32
  28 0014 13040103 		addi	s0,sp,48
  29              		.cfi_def_cfa 8, 0
  30 0018 93040500 		mv	s1,a0
   9:src/printer.cpp **** 	uint64 sstatus = Riscv::r_sstatus();
  31              		.loc 1 9 2
  32              	.LBB14:
  33              	.LBB15:
  34              		.file 2 "src/../h/riscv.h"
   1:src/../h/riscv.h ****     //
   2:src/../h/riscv.h ****     // Created by os on 3/31/26.
   3:src/../h/riscv.h ****     //
   4:src/../h/riscv.h **** 
   5:src/../h/riscv.h ****     #ifndef PROJECT_BASE_RISCB_H
   6:src/../h/riscv.h ****     #define PROJECT_BASE_RISCB_H
   7:src/../h/riscv.h ****     #include "../lib/hw.h"
   8:src/../h/riscv.h **** 
   9:src/../h/riscv.h ****     class Riscv {
  10:src/../h/riscv.h ****     public:
  11:src/../h/riscv.h **** 	
  12:src/../h/riscv.h **** 	static void popSppSpie();
  13:src/../h/riscv.h **** 	
  14:src/../h/riscv.h **** 	
  15:src/../h/riscv.h ****         static uint64 r_scause();
GAS LISTING C:\msys64\tmp\ccCUaND5.s 			page 2


  16:src/../h/riscv.h **** 
  17:src/../h/riscv.h ****         static void w_scause(uint64 scause);
  18:src/../h/riscv.h **** 
  19:src/../h/riscv.h ****         static uint64 r_sepc();
  20:src/../h/riscv.h **** 
  21:src/../h/riscv.h ****         static void w_sepc(uint64 sepc);
  22:src/../h/riscv.h **** 
  23:src/../h/riscv.h ****         static uint64 r_stvec();
  24:src/../h/riscv.h **** 
  25:src/../h/riscv.h ****         static void w_stvec(uint64 stvec);
  26:src/../h/riscv.h **** 
  27:src/../h/riscv.h ****         static uint64 r_stval();
  28:src/../h/riscv.h **** 
  29:src/../h/riscv.h ****         static void w_stval(uint64 stval);
  30:src/../h/riscv.h **** 
  31:src/../h/riscv.h ****         enum BitMaskSip {
  32:src/../h/riscv.h ****             SIP_SSIP = (1 << 1),
  33:src/../h/riscv.h ****             SIP_STIP = (1 << 5),
  34:src/../h/riscv.h ****             SIP_SEIP = (1 << 9),
  35:src/../h/riscv.h ****         };
  36:src/../h/riscv.h **** 
  37:src/../h/riscv.h ****         static void ms_sip(uint64 mask);
  38:src/../h/riscv.h **** 
  39:src/../h/riscv.h ****         static void mc_sip(uint64 mask);
  40:src/../h/riscv.h **** 
  41:src/../h/riscv.h ****         static uint64 r_sip();
  42:src/../h/riscv.h **** 
  43:src/../h/riscv.h ****         static void w_sip(uint64 sip);
  44:src/../h/riscv.h **** 
  45:src/../h/riscv.h ****         enum BitMaskSstatus {
  46:src/../h/riscv.h ****             SSTATUS_SIE = (1 << 1),
  47:src/../h/riscv.h ****             SSTATUS_SPIE = (1 << 5),
  48:src/../h/riscv.h ****             SSTATUS_SPP = (1 <<8),
  49:src/../h/riscv.h ****         };
  50:src/../h/riscv.h **** 
  51:src/../h/riscv.h ****         static void ms_sstatus(uint64 mask);
  52:src/../h/riscv.h **** 
  53:src/../h/riscv.h ****         static void mc_sstatus(uint64 mask);
  54:src/../h/riscv.h **** 
  55:src/../h/riscv.h ****         static uint64 r_sstatus();
  56:src/../h/riscv.h **** 
  57:src/../h/riscv.h ****         static void w_sstatus(uint64 sstatus);
  58:src/../h/riscv.h **** 
  59:src/../h/riscv.h ****         static uint64 readARegister(int reg_number);
  60:src/../h/riscv.h **** 
  61:src/../h/riscv.h ****         static void writeARegister(int reg_number, uint64 value);
  62:src/../h/riscv.h **** 
  63:src/../h/riscv.h **** 
  64:src/../h/riscv.h ****         static void supervisorTrap();
  65:src/../h/riscv.h ****     private:
  66:src/../h/riscv.h ****         static void handleSupervisorTrap();
  67:src/../h/riscv.h **** 
  68:src/../h/riscv.h ****     };
  69:src/../h/riscv.h **** 
  70:src/../h/riscv.h ****     inline uint64 Riscv::r_scause()
  71:src/../h/riscv.h ****     {
  72:src/../h/riscv.h ****         uint64 volatile scause;
GAS LISTING C:\msys64\tmp\ccCUaND5.s 			page 3


  73:src/../h/riscv.h ****         __asm__ volatile ("csrr %[scause], scause" : [scause] "=r"(scause));
  74:src/../h/riscv.h ****         return scause;
  75:src/../h/riscv.h ****     }
  76:src/../h/riscv.h **** 
  77:src/../h/riscv.h ****     inline void Riscv::w_scause(uint64 scause)
  78:src/../h/riscv.h ****     {
  79:src/../h/riscv.h ****         __asm__ volatile ("csrw scause, %[scause]" : : [scause] "r"(scause));
  80:src/../h/riscv.h ****     }
  81:src/../h/riscv.h **** 
  82:src/../h/riscv.h ****     inline uint64 Riscv::r_sepc()
  83:src/../h/riscv.h ****     {
  84:src/../h/riscv.h ****         uint64 volatile sepc;
  85:src/../h/riscv.h ****         __asm__ volatile ("csrr %[sepc], sepc" : [sepc] "=r"(sepc));
  86:src/../h/riscv.h ****         return sepc;
  87:src/../h/riscv.h ****     }
  88:src/../h/riscv.h **** 
  89:src/../h/riscv.h ****     inline void Riscv::w_sepc(uint64 sepc)
  90:src/../h/riscv.h ****     {
  91:src/../h/riscv.h ****         __asm__ volatile ("csrw sepc, %[sepc]" : : [sepc] "r"(sepc));
  92:src/../h/riscv.h ****     }
  93:src/../h/riscv.h **** 
  94:src/../h/riscv.h ****     inline uint64 Riscv::r_stvec()
  95:src/../h/riscv.h ****     {
  96:src/../h/riscv.h ****         uint64 volatile stvec;
  97:src/../h/riscv.h ****         __asm__ volatile ("csrr %[stvec], stvec" : [stvec] "=r"(stvec));
  98:src/../h/riscv.h ****         return stvec;
  99:src/../h/riscv.h ****     }
 100:src/../h/riscv.h **** 
 101:src/../h/riscv.h ****     inline void Riscv::w_stvec(uint64 stvec)
 102:src/../h/riscv.h ****     {
 103:src/../h/riscv.h ****         __asm__ volatile ("csrw stvec, %[stvec]" : : [stvec] "r"(stvec));
 104:src/../h/riscv.h ****     }
 105:src/../h/riscv.h **** 
 106:src/../h/riscv.h ****     inline uint64 Riscv::r_stval()
 107:src/../h/riscv.h ****     {
 108:src/../h/riscv.h ****         uint64 volatile stval;
 109:src/../h/riscv.h ****         __asm__ volatile ("csrr %[stval], stval" : [stval] "=r"(stval));
 110:src/../h/riscv.h ****         return stval;
 111:src/../h/riscv.h ****     }
 112:src/../h/riscv.h **** 
 113:src/../h/riscv.h ****     inline void Riscv::w_stval(uint64 stval)
 114:src/../h/riscv.h ****     {
 115:src/../h/riscv.h ****         __asm__ volatile ("csrw stval, %[stval]" : : [stval] "r"(stval));
 116:src/../h/riscv.h ****     }
 117:src/../h/riscv.h **** 
 118:src/../h/riscv.h ****     inline void Riscv::ms_sip(uint64 mask)
 119:src/../h/riscv.h ****     {
 120:src/../h/riscv.h ****         __asm__ volatile ("csrs sip, %[mask]" : : [mask] "r"(mask));
 121:src/../h/riscv.h ****     }
 122:src/../h/riscv.h **** 
 123:src/../h/riscv.h ****     inline void Riscv::mc_sip(uint64 mask)
 124:src/../h/riscv.h ****     {
 125:src/../h/riscv.h ****         __asm__ volatile ("csrc sip, %[mask]" : : [mask] "r"(mask));
 126:src/../h/riscv.h ****     }
 127:src/../h/riscv.h **** 
 128:src/../h/riscv.h ****     inline uint64 Riscv::r_sip()
 129:src/../h/riscv.h ****     {
GAS LISTING C:\msys64\tmp\ccCUaND5.s 			page 4


 130:src/../h/riscv.h ****         uint64 volatile sip;
 131:src/../h/riscv.h ****         __asm__ volatile ("csrr %[sip], sip" : [sip] "=r"(sip));
 132:src/../h/riscv.h ****         return sip;
 133:src/../h/riscv.h ****     }
 134:src/../h/riscv.h **** 
 135:src/../h/riscv.h ****     inline void Riscv::w_sip(uint64 sip)
 136:src/../h/riscv.h ****     {
 137:src/../h/riscv.h ****         __asm__ volatile ("csrw sip, %[sip]" : : [sip] "r"(sip));
 138:src/../h/riscv.h ****     }
 139:src/../h/riscv.h **** 
 140:src/../h/riscv.h ****     inline void Riscv::ms_sstatus(uint64 mask)
 141:src/../h/riscv.h ****     {
 142:src/../h/riscv.h ****         __asm__ volatile ("csrs sstatus, %[mask]" : : [mask] "r"(mask));
 143:src/../h/riscv.h ****     }
 144:src/../h/riscv.h **** 
 145:src/../h/riscv.h ****     inline void Riscv::mc_sstatus(uint64 mask)
 146:src/../h/riscv.h ****     {
 147:src/../h/riscv.h ****         __asm__ volatile ("csrc sstatus, %[mask]" : : [mask] "r"(mask));
 148:src/../h/riscv.h ****     }
 149:src/../h/riscv.h **** 
 150:src/../h/riscv.h ****     inline uint64 Riscv::r_sstatus()
 151:src/../h/riscv.h ****     {
 152:src/../h/riscv.h ****         uint64 volatile sstatus;
  35              		.loc 2 152 9
 153:src/../h/riscv.h ****         __asm__ volatile ("csrr %[sstatus], sstatus" : [sstatus] "=r"(sstatus));
  36              		.loc 2 153 9
  37              	 #APP
  38              	# 153 "src/../h/riscv.h" 1
 154              	        return sstatus;
  39              		csrr a5, sstatus
  40              	# 0 "" 2
  41              	 #NO_APP
  42 0020 233CF4FC 		sd	a5,-40(s0)
  43              		.loc 2 154 9
  44              		.loc 2 154 16 is_stmt 0
  45 0024 033984FD 		ld	s2,-40(s0)
  46              	.LVL1:
  47              	.LBE15:
  48              	.LBE14:
  10:src/printer.cpp **** 	Riscv::mc_sstatus(Riscv::SSTATUS_SIE);
  49              		.loc 1 10 2 is_stmt 1
  50              	.LBB16:
  51              	.LBB17:
 147:src/../h/riscv.h ****     }
  52              		.loc 2 147 9
  53 0028 93072000 		li	a5,2
  54              	 #APP
  55              	# 147 "src/../h/riscv.h" 1
 148:src/../h/riscv.h **** 
  56              		csrc sstatus, a5
  57              	# 0 "" 2
  58              		.loc 2 148 5 is_stmt 0
  59              	 #NO_APP
  60 0030 6F000001 		j	.L3
  61              	.LVL2:
  62              	.L5:
  63              	.LBE17:
GAS LISTING C:\msys64\tmp\ccCUaND5.s 			page 5


  64              	.LBE16:
  11:src/printer.cpp ****     while (*string != '\0')
  12:src/printer.cpp ****     {
  13:src/printer.cpp ****         __putc(*string);
  65              		.loc 1 13 9 is_stmt 1
  66              		.loc 1 13 15 is_stmt 0
  67 0034 97000000 		call	__putc
  67      E7800000 
  68              	.LVL3:
  14:src/printer.cpp ****         string++;
  69              		.loc 1 14 9 is_stmt 1
  70              		.loc 1 14 15 is_stmt 0
  71 003c 93841400 		addi	s1,s1,1
  72              	.LVL4:
  73              	.L3:
  11:src/printer.cpp ****     while (*string != '\0')
  74              		.loc 1 11 5 is_stmt 1
  11:src/printer.cpp ****     while (*string != '\0')
  75              		.loc 1 11 20
  11:src/printer.cpp ****     while (*string != '\0')
  76              		.loc 1 11 12 is_stmt 0
  77 0040 03C50400 		lbu	a0,0(s1)
  11:src/printer.cpp ****     while (*string != '\0')
  78              		.loc 1 11 20
  79 0044 E31805FE 		bne	a0,zero,.L5
  15:src/printer.cpp ****     }
  16:src/printer.cpp ****     Riscv::ms_sstatus(sstatus & Riscv::SSTATUS_SIE ? Riscv::SSTATUS_SIE : 0);
  80              		.loc 1 16 5 is_stmt 1
  81              		.loc 1 16 22 is_stmt 0
  82 0048 13792900 		andi	s2,s2,2
  83              	.LVL5:
  84              	.LBB18:
  85              	.LBB19:
 142:src/../h/riscv.h ****     }
  86              		.loc 2 142 9 is_stmt 1
  87              	 #APP
  88              	# 142 "src/../h/riscv.h" 1
  89              		csrs sstatus, s2
  90              	# 0 "" 2
  91              	.LVL6:
  92              	 #NO_APP
  93              	.LBE19:
  94              	.LBE18:
  17:src/printer.cpp **** }
  95              		.loc 1 17 1 is_stmt 0
  96 0050 83308102 		ld	ra,40(sp)
  97              		.cfi_restore 1
  98 0054 03340102 		ld	s0,32(sp)
  99              		.cfi_restore 8
 100              		.cfi_def_cfa 2, 48
 101 0058 83348101 		ld	s1,24(sp)
 102              		.cfi_restore 9
 103              	.LVL7:
 104 005c 03390101 		ld	s2,16(sp)
 105              		.cfi_restore 18
 106 0060 13010103 		addi	sp,sp,48
 107              		.cfi_def_cfa_offset 0
GAS LISTING C:\msys64\tmp\ccCUaND5.s 			page 6


 108 0064 67800000 		jr	ra
 109              		.cfi_endproc
 110              	.LFE18:
 112              		.align	2
 113              		.globl	_Z12printIntegerm
 115              	_Z12printIntegerm:
 116              	.LFB19:
  18:src/printer.cpp **** 
  19:src/printer.cpp **** void printInteger(uint64 integer)
  20:src/printer.cpp **** {	
 117              		.loc 1 20 1 is_stmt 1
 118              		.cfi_startproc
 119              	.LVL8:
 120 0068 130101FC 		addi	sp,sp,-64
 121              		.cfi_def_cfa_offset 64
 122 006c 233C1102 		sd	ra,56(sp)
 123 0070 23388102 		sd	s0,48(sp)
 124 0074 23349102 		sd	s1,40(sp)
 125 0078 23302103 		sd	s2,32(sp)
 126              		.cfi_offset 1, -8
 127              		.cfi_offset 8, -16
 128              		.cfi_offset 9, -24
 129              		.cfi_offset 18, -32
 130 007c 13040104 		addi	s0,sp,64
 131              		.cfi_def_cfa 8, 0
  21:src/printer.cpp **** 	uint64 sstatus = Riscv::r_sstatus();
 132              		.loc 1 21 2
 133              	.LBB20:
 134              	.LBB21:
 152:src/../h/riscv.h ****         __asm__ volatile ("csrr %[sstatus], sstatus" : [sstatus] "=r"(sstatus));
 135              		.loc 2 152 9
 153:src/../h/riscv.h ****         return sstatus;
 136              		.loc 2 153 9
 137              	 #APP
 138              	# 153 "src/../h/riscv.h" 1
 139              		csrr a5, sstatus
 140              	# 0 "" 2
 141              	 #NO_APP
 142 0084 2334F4FC 		sd	a5,-56(s0)
 143              		.loc 2 154 9
 144              		.loc 2 154 16 is_stmt 0
 145 0088 033984FC 		ld	s2,-56(s0)
 146              	.LVL9:
 147              	.LBE21:
 148              	.LBE20:
  22:src/printer.cpp **** 	Riscv::mc_sstatus(Riscv::SSTATUS_SIE);
 149              		.loc 1 22 2 is_stmt 1
 150              	.LBB22:
 151              	.LBB23:
 147:src/../h/riscv.h ****     }
 152              		.loc 2 147 9
 153 008c 93072000 		li	a5,2
 154              	 #APP
 155              	# 147 "src/../h/riscv.h" 1
 156              		csrc sstatus, a5
 157              	# 0 "" 2
 158              	.LVL10:
GAS LISTING C:\msys64\tmp\ccCUaND5.s 			page 7


 159              	 #NO_APP
 160              	.LBE23:
 161              	.LBE22:
  23:src/printer.cpp ****     static char digits[] = "0123456789";
 162              		.loc 1 23 5
  24:src/printer.cpp ****     char buf[16];
 163              		.loc 1 24 5
  25:src/printer.cpp ****     int i, neg;
 164              		.loc 1 25 5
  26:src/printer.cpp ****     uint64 x;
 165              		.loc 1 26 5
  27:src/printer.cpp **** 
  28:src/printer.cpp ****     neg = 0;
 166              		.loc 1 28 5
  29:src/printer.cpp ****     if (integer < 0)
 167              		.loc 1 29 5
  30:src/printer.cpp ****     {
  31:src/printer.cpp ****         neg = 1;
  32:src/printer.cpp ****         x = -integer;
  33:src/printer.cpp ****     }
  34:src/printer.cpp ****     else
  35:src/printer.cpp ****     {
  36:src/printer.cpp ****         x = integer;
 168              		.loc 1 36 9
  37:src/printer.cpp ****     }
  38:src/printer.cpp **** 
  39:src/printer.cpp ****     i = 0;
 169              		.loc 1 39 5
 170              		.loc 1 39 7 is_stmt 0
 171 0094 93040000 		li	s1,0
 172              	.LVL11:
 173              	.L7:
  40:src/printer.cpp ****     do
 174              		.loc 1 40 5 is_stmt 1
  41:src/printer.cpp ****     {
  42:src/printer.cpp ****         buf[i++] = digits[x % 10];
 175              		.loc 1 42 9
 176              		.loc 1 42 29 is_stmt 0
 177 0098 9306A000 		li	a3,10
 178 009c 3376D502 		remu	a2,a0,a3
 179              	.LVL12:
 180              		.loc 1 42 33
 181 00a0 17070000 		lla	a4,.LANCHOR0
 181      13070700 
 182 00a8 3307C700 		add	a4,a4,a2
 183 00ac 03470700 		lbu	a4,0(a4)
 184              		.loc 1 42 18
 185 00b0 130604FE 		addi	a2,s0,-32
 186 00b4 B3079600 		add	a5,a2,s1
 187 00b8 9B841400 		addiw	s1,s1,1
 188              	.LVL13:
 189 00bc 2388E7FE 		sb	a4,-16(a5)
  43:src/printer.cpp ****     } while ((x /= 10) != 0);
 190              		.loc 1 43 24 is_stmt 1
 191 00c0 13070500 		mv	a4,a0
 192              		.loc 1 43 17 is_stmt 0
 193 00c4 3355D502 		divu	a0,a0,a3
GAS LISTING C:\msys64\tmp\ccCUaND5.s 			page 8


 194              	.LVL14:
 195              		.loc 1 43 24
 196 00c8 93079000 		li	a5,9
 197 00cc E3E6E7FC 		bgtu	a4,a5,.L7
 198 00d0 6F008001 		j	.L9
 199              	.LVL15:
 200              	.L11:
  44:src/printer.cpp **** 
  45:src/printer.cpp ****     if (neg)
  46:src/printer.cpp ****         buf[i++] = '-';
  47:src/printer.cpp **** 
  48:src/printer.cpp ****     while (--i >= 0)        __putc(buf[i]);
 201              		.loc 1 48 29 is_stmt 1 discriminator 1
 202              		.loc 1 48 35 is_stmt 0 discriminator 1
 203 00d4 930704FE 		addi	a5,s0,-32
 204 00d8 B3879700 		add	a5,a5,s1
 205 00dc 03C507FF 		lbu	a0,-16(a5)
 206 00e0 97000000 		call	__putc
 206      E7800000 
 207              	.LVL16:
 208              	.L9:
 209              		.loc 1 48 5 is_stmt 1
 210              		.loc 1 48 16
 211 00e8 9B84F4FF 		addiw	s1,s1,-1
 212              	.LVL17:
 213 00ec E3D404FE 		bge	s1,zero,.L11
  49:src/printer.cpp ****     Riscv::ms_sstatus(sstatus & Riscv::SSTATUS_SIE ? Riscv::SSTATUS_SIE : 0);
 214              		.loc 1 49 5
 215              		.loc 1 49 22 is_stmt 0
 216 00f0 13792900 		andi	s2,s2,2
 217              	.LVL18:
 218              	.LBB24:
 219              	.LBB25:
 142:src/../h/riscv.h ****     }
 220              		.loc 2 142 9 is_stmt 1
 221              	 #APP
 222              	# 142 "src/../h/riscv.h" 1
 223              		csrs sstatus, s2
 224              	# 0 "" 2
 225              	.LVL19:
 226              	 #NO_APP
 227              	.LBE25:
 228              	.LBE24:
  50:src/printer.cpp **** }
 229              		.loc 1 50 1 is_stmt 0
 230 00f8 83308103 		ld	ra,56(sp)
 231              		.cfi_restore 1
 232 00fc 03340103 		ld	s0,48(sp)
 233              		.cfi_restore 8
 234              		.cfi_def_cfa 2, 64
 235 0100 83348102 		ld	s1,40(sp)
 236              		.cfi_restore 9
 237 0104 03390102 		ld	s2,32(sp)
 238              		.cfi_restore 18
 239 0108 13010104 		addi	sp,sp,64
 240              		.cfi_def_cfa_offset 0
 241 010c 67800000 		jr	ra
GAS LISTING C:\msys64\tmp\ccCUaND5.s 			page 9


 242              		.cfi_endproc
 243              	.LFE19:
 245              		.section	.rodata
 246              		.align	3
 247              		.set	.LANCHOR0,. + 0
 250              	_ZZ12printIntegermE6digits:
 251 0000 30313233 		.string	"0123456789"
 251      34353637 
 251      383900
 252              		.text
 253              	.Letext0:
 254              		.file 3 "src/../h/../lib/hw.h"
 255              		.file 4 "src/../lib/console.h"
GAS LISTING C:\msys64\tmp\ccCUaND5.s 			page 10


DEFINED SYMBOLS
                            *ABS*:0000000000000000 printer.cpp
C:\msys64\tmp\ccCUaND5.s:12     .text:0000000000000000 _Z11printStringPKc
C:\msys64\tmp\ccCUaND5.s:16     .text:0000000000000000 .L0 
C:\msys64\tmp\ccCUaND5.s:18     .text:0000000000000000 .L0 
C:\msys64\tmp\ccCUaND5.s:19     .text:0000000000000004 .L0 
C:\msys64\tmp\ccCUaND5.s:24     .text:0000000000000014 .L0 
C:\msys64\tmp\ccCUaND5.s:25     .text:0000000000000014 .L0 
C:\msys64\tmp\ccCUaND5.s:26     .text:0000000000000014 .L0 
C:\msys64\tmp\ccCUaND5.s:27     .text:0000000000000014 .L0 
C:\msys64\tmp\ccCUaND5.s:29     .text:0000000000000018 .L0 
C:\msys64\tmp\ccCUaND5.s:35     .text:000000000000001c .L0 
C:\msys64\tmp\ccCUaND5.s:36     .text:000000000000001c .L0 
    src/../h/riscv.h:153    .text:000000000000001c .L0 
C:\msys64\tmp\ccCUaND5.s:44     .text:0000000000000024 .L0 
C:\msys64\tmp\ccCUaND5.s:45     .text:0000000000000024 .L0 
C:\msys64\tmp\ccCUaND5.s:52     .text:0000000000000028 .L0 
C:\msys64\tmp\ccCUaND5.s:53     .text:0000000000000028 .L0 
C:\msys64\tmp\ccCUaND5.s:60     .text:0000000000000030 .L0 
C:\msys64\tmp\ccCUaND5.s:66     .text:0000000000000034 .L0 
C:\msys64\tmp\ccCUaND5.s:67     .text:0000000000000034 .L0 
C:\msys64\tmp\ccCUaND5.s:70     .text:000000000000003c .L0 
C:\msys64\tmp\ccCUaND5.s:71     .text:000000000000003c .L0 
C:\msys64\tmp\ccCUaND5.s:75     .text:0000000000000040 .L0 
C:\msys64\tmp\ccCUaND5.s:76     .text:0000000000000040 .L0 
C:\msys64\tmp\ccCUaND5.s:77     .text:0000000000000040 .L0 
C:\msys64\tmp\ccCUaND5.s:79     .text:0000000000000044 .L0 
C:\msys64\tmp\ccCUaND5.s:81     .text:0000000000000048 .L0 
C:\msys64\tmp\ccCUaND5.s:82     .text:0000000000000048 .L0 
    src/../h/riscv.h:142    .text:000000000000004c .L0 
C:\msys64\tmp\ccCUaND5.s:96     .text:0000000000000050 .L0 
C:\msys64\tmp\ccCUaND5.s:97     .text:0000000000000054 .L0 
C:\msys64\tmp\ccCUaND5.s:99     .text:0000000000000058 .L0 
C:\msys64\tmp\ccCUaND5.s:100    .text:0000000000000058 .L0 
C:\msys64\tmp\ccCUaND5.s:102    .text:000000000000005c .L0 
C:\msys64\tmp\ccCUaND5.s:105    .text:0000000000000060 .L0 
C:\msys64\tmp\ccCUaND5.s:107    .text:0000000000000064 .L0 
C:\msys64\tmp\ccCUaND5.s:109    .text:0000000000000068 .L0 
C:\msys64\tmp\ccCUaND5.s:115    .text:0000000000000068 _Z12printIntegerm
C:\msys64\tmp\ccCUaND5.s:118    .text:0000000000000068 .L0 
C:\msys64\tmp\ccCUaND5.s:120    .text:0000000000000068 .L0 
C:\msys64\tmp\ccCUaND5.s:121    .text:000000000000006c .L0 
C:\msys64\tmp\ccCUaND5.s:126    .text:000000000000007c .L0 
C:\msys64\tmp\ccCUaND5.s:127    .text:000000000000007c .L0 
C:\msys64\tmp\ccCUaND5.s:128    .text:000000000000007c .L0 
C:\msys64\tmp\ccCUaND5.s:129    .text:000000000000007c .L0 
C:\msys64\tmp\ccCUaND5.s:131    .text:0000000000000080 .L0 
C:\msys64\tmp\ccCUaND5.s:135    .text:0000000000000080 .L0 
C:\msys64\tmp\ccCUaND5.s:136    .text:0000000000000080 .L0 
    src/../h/riscv.h:153    .text:0000000000000080 .L0 
C:\msys64\tmp\ccCUaND5.s:144    .text:0000000000000088 .L0 
C:\msys64\tmp\ccCUaND5.s:145    .text:0000000000000088 .L0 
C:\msys64\tmp\ccCUaND5.s:152    .text:000000000000008c .L0 
C:\msys64\tmp\ccCUaND5.s:153    .text:000000000000008c .L0 
C:\msys64\tmp\ccCUaND5.s:163    .text:0000000000000094 .L0 
C:\msys64\tmp\ccCUaND5.s:164    .text:0000000000000094 .L0 
C:\msys64\tmp\ccCUaND5.s:165    .text:0000000000000094 .L0 
GAS LISTING C:\msys64\tmp\ccCUaND5.s 			page 11


C:\msys64\tmp\ccCUaND5.s:166    .text:0000000000000094 .L0 
C:\msys64\tmp\ccCUaND5.s:167    .text:0000000000000094 .L0 
C:\msys64\tmp\ccCUaND5.s:168    .text:0000000000000094 .L0 
C:\msys64\tmp\ccCUaND5.s:169    .text:0000000000000094 .L0 
C:\msys64\tmp\ccCUaND5.s:170    .text:0000000000000094 .L0 
C:\msys64\tmp\ccCUaND5.s:171    .text:0000000000000094 .L0 
C:\msys64\tmp\ccCUaND5.s:175    .text:0000000000000098 .L0 
C:\msys64\tmp\ccCUaND5.s:176    .text:0000000000000098 .L0 
C:\msys64\tmp\ccCUaND5.s:177    .text:0000000000000098 .L0 
C:\msys64\tmp\ccCUaND5.s:181    .text:00000000000000a0 .L0 
C:\msys64\tmp\ccCUaND5.s:185    .text:00000000000000b0 .L0 
C:\msys64\tmp\ccCUaND5.s:191    .text:00000000000000c0 .L0 
C:\msys64\tmp\ccCUaND5.s:193    .text:00000000000000c4 .L0 
C:\msys64\tmp\ccCUaND5.s:196    .text:00000000000000c8 .L0 
C:\msys64\tmp\ccCUaND5.s:202    .text:00000000000000d4 .L0 
C:\msys64\tmp\ccCUaND5.s:203    .text:00000000000000d4 .L0 
C:\msys64\tmp\ccCUaND5.s:210    .text:00000000000000e8 .L0 
C:\msys64\tmp\ccCUaND5.s:211    .text:00000000000000e8 .L0 
C:\msys64\tmp\ccCUaND5.s:215    .text:00000000000000f0 .L0 
C:\msys64\tmp\ccCUaND5.s:216    .text:00000000000000f0 .L0 
    src/../h/riscv.h:142    .text:00000000000000f4 .L0 
C:\msys64\tmp\ccCUaND5.s:230    .text:00000000000000f8 .L0 
C:\msys64\tmp\ccCUaND5.s:231    .text:00000000000000fc .L0 
C:\msys64\tmp\ccCUaND5.s:233    .text:0000000000000100 .L0 
C:\msys64\tmp\ccCUaND5.s:234    .text:0000000000000100 .L0 
C:\msys64\tmp\ccCUaND5.s:236    .text:0000000000000104 .L0 
C:\msys64\tmp\ccCUaND5.s:238    .text:0000000000000108 .L0 
C:\msys64\tmp\ccCUaND5.s:240    .text:000000000000010c .L0 
C:\msys64\tmp\ccCUaND5.s:242    .text:0000000000000110 .L0 
C:\msys64\tmp\ccCUaND5.s:247    .rodata:0000000000000000 .LANCHOR0
C:\msys64\tmp\ccCUaND5.s:250    .rodata:0000000000000000 _ZZ12printIntegermE6digits
C:\msys64\tmp\ccCUaND5.s:256    .text:0000000000000110 .L0 
C:\msys64\tmp\ccCUaND5.s:181    .text:00000000000000a0 .L0 
C:\msys64\tmp\ccCUaND5.s:73     .text:0000000000000040 .L3
C:\msys64\tmp\ccCUaND5.s:62     .text:0000000000000034 .L5
C:\msys64\tmp\ccCUaND5.s:173    .text:0000000000000098 .L7
C:\msys64\tmp\ccCUaND5.s:208    .text:00000000000000e8 .L9
C:\msys64\tmp\ccCUaND5.s:200    .text:00000000000000d4 .L11
C:\msys64\tmp\ccCUaND5.s:839    .debug_abbrev:0000000000000000 .Ldebug_abbrev0
C:\msys64\tmp\ccCUaND5.s:1606   .debug_str:0000000000000272 .LASF63
C:\msys64\tmp\ccCUaND5.s:1614   .debug_str:0000000000000367 .LASF64
C:\msys64\tmp\ccCUaND5.s:1600   .debug_str:000000000000021a .LASF65
C:\msys64\tmp\ccCUaND5.s:8      .text:0000000000000000 .Ltext0
C:\msys64\tmp\ccCUaND5.s:253    .text:0000000000000110 .Letext0
C:\msys64\tmp\ccCUaND5.s:1518   .debug_line:0000000000000000 .Ldebug_line0
C:\msys64\tmp\ccCUaND5.s:1604   .debug_str:0000000000000265 .LASF0
C:\msys64\tmp\ccCUaND5.s:1576   .debug_str:0000000000000188 .LASF1
C:\msys64\tmp\ccCUaND5.s:1566   .debug_str:0000000000000145 .LASF2
C:\msys64\tmp\ccCUaND5.s:1542   .debug_str:000000000000008a .LASF4
C:\msys64\tmp\ccCUaND5.s:1572   .debug_str:000000000000016e .LASF3
C:\msys64\tmp\ccCUaND5.s:1528   .debug_str:0000000000000032 .LASF5
C:\msys64\tmp\ccCUaND5.s:1522   .debug_str:0000000000000013 .LASF6
C:\msys64\tmp\ccCUaND5.s:1558   .debug_str:00000000000000ed .LASF7
C:\msys64\tmp\ccCUaND5.s:1664   .debug_str:0000000000000509 .LASF8
C:\msys64\tmp\ccCUaND5.s:1578   .debug_str:000000000000019b .LASF9
C:\msys64\tmp\ccCUaND5.s:1538   .debug_str:000000000000006f .LASF10
C:\msys64\tmp\ccCUaND5.s:1624   .debug_str:00000000000003b8 .LASF11
GAS LISTING C:\msys64\tmp\ccCUaND5.s 			page 12


C:\msys64\tmp\ccCUaND5.s:1550   .debug_str:00000000000000be .LASF66
C:\msys64\tmp\ccCUaND5.s:1654   .debug_str:00000000000004c6 .LASF67
C:\msys64\tmp\ccCUaND5.s:1616   .debug_str:0000000000000377 .LASF12
C:\msys64\tmp\ccCUaND5.s:1584   .debug_str:00000000000001bd .LASF13
C:\msys64\tmp\ccCUaND5.s:1640   .debug_str:000000000000046f .LASF14
C:\msys64\tmp\ccCUaND5.s:1586   .debug_str:00000000000001ca .LASF49
C:\msys64\tmp\ccCUaND5.s:1644   .debug_str:0000000000000486 .LASF51
C:\msys64\tmp\ccCUaND5.s:1592   .debug_str:00000000000001e6 .LASF15
C:\msys64\tmp\ccCUaND5.s:1530   .debug_str:0000000000000039 .LASF17
C:\msys64\tmp\ccCUaND5.s:1594   .debug_str:00000000000001ef .LASF19
C:\msys64\tmp\ccCUaND5.s:1544   .debug_str:0000000000000091 .LASF21
C:\msys64\tmp\ccCUaND5.s:1608   .debug_str:0000000000000345 .LASF16
C:\msys64\tmp\ccCUaND5.s:1570   .debug_str:000000000000015b .LASF18
C:\msys64\tmp\ccCUaND5.s:1554   .debug_str:00000000000000cb .LASF20
C:\msys64\tmp\ccCUaND5.s:1560   .debug_str:0000000000000100 .LASF22
C:\msys64\tmp\ccCUaND5.s:1652   .debug_str:00000000000004be .LASF23
C:\msys64\tmp\ccCUaND5.s:1638   .debug_str:000000000000045b .LASF24
C:\msys64\tmp\ccCUaND5.s:1574   .debug_str:0000000000000180 .LASF25
C:\msys64\tmp\ccCUaND5.s:1618   .debug_str:0000000000000383 .LASF26
C:\msys64\tmp\ccCUaND5.s:1646   .debug_str:000000000000049e .LASF27
C:\msys64\tmp\ccCUaND5.s:1534   .debug_str:0000000000000055 .LASF28
C:\msys64\tmp\ccCUaND5.s:1568   .debug_str:0000000000000153 .LASF29
C:\msys64\tmp\ccCUaND5.s:1630   .debug_str:00000000000003fc .LASF30
C:\msys64\tmp\ccCUaND5.s:1658   .debug_str:00000000000004e7 .LASF31
C:\msys64\tmp\ccCUaND5.s:1520   .debug_str:0000000000000000 .LASF32
C:\msys64\tmp\ccCUaND5.s:1532   .debug_str:000000000000004e .LASF33
C:\msys64\tmp\ccCUaND5.s:1612   .debug_str:0000000000000354 .LASF34
C:\msys64\tmp\ccCUaND5.s:1650   .debug_str:00000000000004b8 .LASF35
C:\msys64\tmp\ccCUaND5.s:1620   .debug_str:0000000000000397 .LASF36
C:\msys64\tmp\ccCUaND5.s:1536   .debug_str:0000000000000069 .LASF37
C:\msys64\tmp\ccCUaND5.s:1648   .debug_str:00000000000004a6 .LASF38
C:\msys64\tmp\ccCUaND5.s:1642   .debug_str:000000000000047b .LASF39
C:\msys64\tmp\ccCUaND5.s:1598   .debug_str:0000000000000202 .LASF40
C:\msys64\tmp\ccCUaND5.s:1546   .debug_str:00000000000000a6 .LASF41
C:\msys64\tmp\ccCUaND5.s:1626   .debug_str:00000000000003ce .LASF42
C:\msys64\tmp\ccCUaND5.s:1596   .debug_str:00000000000001f8 .LASF43
C:\msys64\tmp\ccCUaND5.s:1628   .debug_str:00000000000003e6 .LASF44
C:\msys64\tmp\ccCUaND5.s:1590   .debug_str:00000000000001dc .LASF45
C:\msys64\tmp\ccCUaND5.s:1636   .debug_str:0000000000000445 .LASF46
C:\msys64\tmp\ccCUaND5.s:1582   .debug_str:00000000000001af .LASF68
C:\msys64\tmp\ccCUaND5.s:1556   .debug_str:00000000000000d2 .LASF69
C:\msys64\tmp\ccCUaND5.s:1622   .debug_str:00000000000003a9 .LASF47
C:\msys64\tmp\ccCUaND5.s:1562   .debug_str:0000000000000113 .LASF48
C:\msys64\tmp\ccCUaND5.s:1660   .debug_str:00000000000004ee .LASF50
C:\msys64\tmp\ccCUaND5.s:1602   .debug_str:0000000000000249 .LASF52
C:\msys64\tmp\ccCUaND5.s:1564   .debug_str:0000000000000130 .LASF70
C:\msys64\tmp\ccCUaND5.s:1634   .debug_str:0000000000000423 .LASF71
C:\msys64\tmp\ccCUaND5.s:1548   .debug_str:00000000000000b1 .LASF56
C:\msys64\tmp\ccCUaND5.s:1656   .debug_str:00000000000004d5 .LASF58
C:\msys64\tmp\ccCUaND5.s:116    .text:0000000000000068 .LFB19
C:\msys64\tmp\ccCUaND5.s:243    .text:0000000000000110 .LFE19
C:\msys64\tmp\ccCUaND5.s:1580   .debug_str:00000000000001a7 .LASF60
C:\msys64\tmp\ccCUaND5.s:1407   .debug_loc:0000000000000000 .LLST4
C:\msys64\tmp\ccCUaND5.s:1610   .debug_str:000000000000034c .LASF53
C:\msys64\tmp\ccCUaND5.s:1421   .debug_loc:0000000000000039 .LLST5
C:\msys64\tmp\ccCUaND5.s:1526   .debug_str:000000000000002b .LASF54
C:\msys64\tmp\ccCUaND5.s:1428   .debug_loc:000000000000005c .LLST6
GAS LISTING C:\msys64\tmp\ccCUaND5.s 			page 13


C:\msys64\tmp\ccCUaND5.s:1450   .debug_loc:00000000000000bb .LLST7
C:\msys64\tmp\ccCUaND5.s:133    .text:0000000000000080 .LBB20
C:\msys64\tmp\ccCUaND5.s:148    .text:000000000000008c .LBE20
C:\msys64\tmp\ccCUaND5.s:150    .text:000000000000008c .LBB22
C:\msys64\tmp\ccCUaND5.s:161    .text:0000000000000094 .LBE22
C:\msys64\tmp\ccCUaND5.s:1457   .debug_loc:00000000000000de .LLST8
C:\msys64\tmp\ccCUaND5.s:218    .text:00000000000000f4 .LBB24
C:\msys64\tmp\ccCUaND5.s:228    .text:00000000000000f8 .LBE24
C:\msys64\tmp\ccCUaND5.s:1465   .debug_loc:0000000000000102 .LLST9
C:\msys64\tmp\ccCUaND5.s:207    .text:00000000000000e8 .LVL16
C:\msys64\tmp\ccCUaND5.s:1524   .debug_str:0000000000000026 .LASF55
C:\msys64\tmp\ccCUaND5.s:1662   .debug_str:00000000000004fd .LASF57
C:\msys64\tmp\ccCUaND5.s:1632   .debug_str:0000000000000410 .LASF59
C:\msys64\tmp\ccCUaND5.s:13     .text:0000000000000000 .LFB18
C:\msys64\tmp\ccCUaND5.s:110    .text:0000000000000068 .LFE18
C:\msys64\tmp\ccCUaND5.s:1552   .debug_str:00000000000000c4 .LASF61
C:\msys64\tmp\ccCUaND5.s:1472   .debug_loc:0000000000000125 .LLST0
C:\msys64\tmp\ccCUaND5.s:1483   .debug_loc:000000000000015b .LLST1
C:\msys64\tmp\ccCUaND5.s:32     .text:000000000000001c .LBB14
C:\msys64\tmp\ccCUaND5.s:48     .text:0000000000000028 .LBE14
C:\msys64\tmp\ccCUaND5.s:50     .text:0000000000000028 .LBB16
C:\msys64\tmp\ccCUaND5.s:64     .text:0000000000000034 .LBE16
C:\msys64\tmp\ccCUaND5.s:1490   .debug_loc:000000000000017e .LLST2
C:\msys64\tmp\ccCUaND5.s:84     .text:000000000000004c .LBB18
C:\msys64\tmp\ccCUaND5.s:94     .text:0000000000000050 .LBE18
C:\msys64\tmp\ccCUaND5.s:1498   .debug_loc:00000000000001a2 .LLST3
C:\msys64\tmp\ccCUaND5.s:68     .text:000000000000003c .LVL3
C:\msys64\tmp\ccCUaND5.s:1540   .debug_str:0000000000000085 .LASF62
C:\msys64\tmp\ccCUaND5.s:1588   .debug_str:00000000000001d5 .LASF72
C:\msys64\tmp\ccCUaND5.s:119    .text:0000000000000068 .LVL8
C:\msys64\tmp\ccCUaND5.s:172    .text:0000000000000098 .LVL11
C:\msys64\tmp\ccCUaND5.s:146    .text:000000000000008c .LVL9
C:\msys64\tmp\ccCUaND5.s:217    .text:00000000000000f4 .LVL18
C:\msys64\tmp\ccCUaND5.s:158    .text:0000000000000094 .LVL10
C:\msys64\tmp\ccCUaND5.s:179    .text:00000000000000a0 .LVL12
C:\msys64\tmp\ccCUaND5.s:188    .text:00000000000000bc .LVL13
C:\msys64\tmp\ccCUaND5.s:212    .text:00000000000000ec .LVL17
C:\msys64\tmp\ccCUaND5.s:199    .text:00000000000000d4 .LVL15
C:\msys64\tmp\ccCUaND5.s:225    .text:00000000000000f8 .LVL19
C:\msys64\tmp\ccCUaND5.s:17     .text:0000000000000000 .LVL0
C:\msys64\tmp\ccCUaND5.s:61     .text:0000000000000034 .LVL2
C:\msys64\tmp\ccCUaND5.s:103    .text:000000000000005c .LVL7
C:\msys64\tmp\ccCUaND5.s:46     .text:0000000000000028 .LVL1
C:\msys64\tmp\ccCUaND5.s:83     .text:000000000000004c .LVL5
C:\msys64\tmp\ccCUaND5.s:91     .text:0000000000000050 .LVL6
C:\msys64\tmp\ccCUaND5.s:257    .debug_info:0000000000000000 .Ldebug_info0

UNDEFINED SYMBOLS
__putc
