GAS LISTING C:\msys64\tmp\ccAtBPFw.s 			page 1


   1              		.file	"print.cpp"
   2              		.option nopic
   3              		.option norelax
   4              		.attribute arch, "rv64i2p0_m2p0_a2p0"
   5              		.attribute unaligned_access, 0
   6              		.attribute stack_align, 16
   7              		.text
   8              	.Ltext0:
   9              		.align	2
  10              		.globl	_Z12_printStringPKc
  12              	_Z12_printStringPKc:
  13              	.LFB5:
  14              		.file 1 "src/print.cpp"
   1:src/print.cpp **** #include "../h/print.hpp"
   2:src/print.cpp **** #include "../h/Console.h"
   3:src/print.cpp **** 
   4:src/print.cpp **** #include "../lib/hw.h"
   5:src/print.cpp **** void _printString(const char *string)
   6:src/print.cpp **** {
  15              		.loc 1 6 1
  16              		.cfi_startproc
  17              	.LVL0:
  18 0000 130101FE 		addi	sp,sp,-32
  19              		.cfi_def_cfa_offset 32
  20 0004 233C1100 		sd	ra,24(sp)
  21 0008 23388100 		sd	s0,16(sp)
  22 000c 23349100 		sd	s1,8(sp)
  23              		.cfi_offset 1, -8
  24              		.cfi_offset 8, -16
  25              		.cfi_offset 9, -24
  26 0010 13040102 		addi	s0,sp,32
  27              		.cfi_def_cfa 8, 0
  28 0014 93040500 		mv	s1,a0
  29 0018 6F000001 		j	.L3
  30              	.LVL1:
  31              	.L5:
   7:src/print.cpp ****     while (*string != '\0')
   8:src/print.cpp ****     {
   9:src/print.cpp ****         _console::putc(*string);
  32              		.loc 1 9 9
  33              		.loc 1 9 23 is_stmt 0
  34 001c 97000000 		call	_ZN8_console4putcEc
  34      E7800000 
  35              	.LVL2:
  10:src/print.cpp ****         string++;
  36              		.loc 1 10 9 is_stmt 1
  37              		.loc 1 10 15 is_stmt 0
  38 0024 93841400 		addi	s1,s1,1
  39              	.LVL3:
  40              	.L3:
   7:src/print.cpp ****     while (*string != '\0')
  41              		.loc 1 7 5 is_stmt 1
   7:src/print.cpp ****     while (*string != '\0')
  42              		.loc 1 7 20
   7:src/print.cpp ****     while (*string != '\0')
  43              		.loc 1 7 12 is_stmt 0
  44 0028 03C50400 		lbu	a0,0(s1)
GAS LISTING C:\msys64\tmp\ccAtBPFw.s 			page 2


   7:src/print.cpp ****     while (*string != '\0')
  45              		.loc 1 7 20
  46 002c E31805FE 		bne	a0,zero,.L5
  11:src/print.cpp ****     }
  12:src/print.cpp **** }
  47              		.loc 1 12 1
  48 0030 83308101 		ld	ra,24(sp)
  49              		.cfi_restore 1
  50 0034 03340101 		ld	s0,16(sp)
  51              		.cfi_restore 8
  52              		.cfi_def_cfa 2, 32
  53 0038 83348100 		ld	s1,8(sp)
  54              		.cfi_restore 9
  55              	.LVL4:
  56 003c 13010102 		addi	sp,sp,32
  57              		.cfi_def_cfa_offset 0
  58 0040 67800000 		jr	ra
  59              		.cfi_endproc
  60              	.LFE5:
  62              		.section	.rodata.str1.8,"aMS",@progbits,1
  63              		.align	3
  64              	.LC0:
  65 0000 4572726F 		.string	"Error in printInteger: base not supported\n"
  65      7220696E 
  65      20707269 
  65      6E74496E 
  65      74656765 
  66              		.text
  67              		.align	2
  68              		.globl	_Z13_printIntegermmb
  70              	_Z13_printIntegermmb:
  71              	.LFB6:
  13:src/print.cpp **** 
  14:src/print.cpp **** void _printInteger(uint64 integer, uint64 base, bool sign)
  15:src/print.cpp **** {
  72              		.loc 1 15 1 is_stmt 1
  73              		.cfi_startproc
  74              	.LVL5:
  75 0044 130101FD 		addi	sp,sp,-48
  76              		.cfi_def_cfa_offset 48
  77 0048 23341102 		sd	ra,40(sp)
  78 004c 23308102 		sd	s0,32(sp)
  79 0050 233C9100 		sd	s1,24(sp)
  80              		.cfi_offset 1, -8
  81              		.cfi_offset 8, -16
  82              		.cfi_offset 9, -24
  83 0054 13040103 		addi	s0,sp,48
  84              		.cfi_def_cfa 8, 0
  16:src/print.cpp ****     if (base < 2 || base > 16){
  85              		.loc 1 16 5
  86              		.loc 1 16 18 is_stmt 0
  87 0058 1387E5FF 		addi	a4,a1,-2
  88              		.loc 1 16 5
  89 005c 9307E000 		li	a5,14
  90 0060 63EAE700 		bgtu	a4,a5,.L17
  17:src/print.cpp ****         _printString("Error in printInteger: base not supported\n");
  18:src/print.cpp ****         return;
GAS LISTING C:\msys64\tmp\ccAtBPFw.s 			page 3


  19:src/print.cpp ****     }
  20:src/print.cpp ****     static char digits[] = "0123456789abcdef";
  91              		.loc 1 20 5 is_stmt 1
  21:src/print.cpp ****     char buf[16];
  92              		.loc 1 21 5
  22:src/print.cpp ****     int i, neg;
  93              		.loc 1 22 5
  23:src/print.cpp ****     uint64 x;
  94              		.loc 1 23 5
  24:src/print.cpp **** 
  25:src/print.cpp ****     neg = 0;
  95              		.loc 1 25 5
  96              	.LVL6:
  26:src/print.cpp ****     if (sign && (long long)integer < 0)
  97              		.loc 1 26 5
  98 0064 63080602 		beq	a2,zero,.L14
  99              		.loc 1 26 14 is_stmt 0 discriminator 1
 100 0068 63400502 		blt	a0,zero,.L18
  25:src/print.cpp ****     if (sign && (long long)integer < 0)
 101              		.loc 1 25 9
 102 006c 13060000 		li	a2,0
 103              	.LVL7:
 104 0070 6F008002 		j	.L9
 105              	.LVL8:
 106              	.L17:
  17:src/print.cpp ****         return;
 107              		.loc 1 17 9 is_stmt 1
  17:src/print.cpp ****         return;
 108              		.loc 1 17 21 is_stmt 0
 109 0074 17050000 		lla	a0,.LC0
 109      13050500 
 110              	.LVL9:
 111 007c 97000000 		call	_Z12_printStringPKc
 111      E7800000 
 112              	.LVL10:
  18:src/print.cpp ****     }
 113              		.loc 1 18 9 is_stmt 1
 114 0084 6F004008 		j	.L6
 115              	.LVL11:
 116              	.L18:
  27:src/print.cpp ****     {
  28:src/print.cpp ****         neg = 1;
 117              		.loc 1 28 9
  29:src/print.cpp ****         x = -(long long)integer;
 118              		.loc 1 29 9
 119              		.loc 1 29 13 is_stmt 0
 120 0088 3305A040 		neg	a0,a0
 121              	.LVL12:
  28:src/print.cpp ****         x = -(long long)integer;
 122              		.loc 1 28 13
 123 008c 13061000 		li	a2,1
 124              	.LVL13:
 125              		.loc 1 29 11
 126 0090 6F008000 		j	.L9
 127              	.LVL14:
 128              	.L14:
  25:src/print.cpp ****     if (sign && (long long)integer < 0)
GAS LISTING C:\msys64\tmp\ccAtBPFw.s 			page 4


 129              		.loc 1 25 9
 130 0094 13060000 		li	a2,0
 131              	.LVL15:
 132              	.L9:
  30:src/print.cpp ****     } else
  31:src/print.cpp ****     {
  32:src/print.cpp ****         x = integer;
  33:src/print.cpp ****     }
  34:src/print.cpp **** 
  35:src/print.cpp ****     i = 0;
 133              		.loc 1 35 5 is_stmt 1
 134              		.loc 1 35 7 is_stmt 0
 135 0098 93040000 		li	s1,0
 136              	.LVL16:
 137              	.L10:
  36:src/print.cpp ****     do
 138              		.loc 1 36 5 is_stmt 1
  37:src/print.cpp ****     {
  38:src/print.cpp ****         buf[i++] = digits[x % base];
 139              		.loc 1 38 9
 140              		.loc 1 38 29 is_stmt 0
 141 009c B376B502 		remu	a3,a0,a1
 142 00a0 13870400 		mv	a4,s1
 143              		.loc 1 38 14
 144 00a4 9B841400 		addiw	s1,s1,1
 145              	.LVL17:
 146              		.loc 1 38 35
 147 00a8 97070000 		lla	a5,.LANCHOR0
 147      93870700 
 148 00b0 B387D700 		add	a5,a5,a3
 149 00b4 83C60700 		lbu	a3,0(a5)
 150              		.loc 1 38 18
 151 00b8 930704FE 		addi	a5,s0,-32
 152 00bc B387E700 		add	a5,a5,a4
 153 00c0 2388D7FE 		sb	a3,-16(a5)
  39:src/print.cpp ****     } while ((x /= base) != 0);
 154              		.loc 1 39 26 is_stmt 1
 155 00c4 93070500 		mv	a5,a0
 156              		.loc 1 39 17 is_stmt 0
 157 00c8 3355B502 		divu	a0,a0,a1
 158              	.LVL18:
 159              		.loc 1 39 26
 160 00cc E3F8B7FC 		bgeu	a5,a1,.L10
  40:src/print.cpp ****     if (neg)
 161              		.loc 1 40 5 is_stmt 1
 162 00d0 63080602 		beq	a2,zero,.L13
  41:src/print.cpp ****         buf[i++] = '-';
 163              		.loc 1 41 9
 164              	.LVL19:
 165              		.loc 1 41 18 is_stmt 0
 166 00d4 930704FE 		addi	a5,s0,-32
 167 00d8 B3849700 		add	s1,a5,s1
 168 00dc 9307D002 		li	a5,45
 169 00e0 2388F4FE 		sb	a5,-16(s1)
 170              		.loc 1 41 14
 171 00e4 9B042700 		addiw	s1,a4,2
 172 00e8 6F008001 		j	.L13
GAS LISTING C:\msys64\tmp\ccAtBPFw.s 			page 5


 173              	.LVL20:
 174              	.L19:
  42:src/print.cpp **** 
  43:src/print.cpp ****     while (--i >= 0) { _console::putc(buf[i]); }
 175              		.loc 1 43 24 is_stmt 1 discriminator 1
 176              		.loc 1 43 38 is_stmt 0 discriminator 1
 177 00ec 930704FE 		addi	a5,s0,-32
 178 00f0 B3879700 		add	a5,a5,s1
 179 00f4 03C507FF 		lbu	a0,-16(a5)
 180 00f8 97000000 		call	_ZN8_console4putcEc
 180      E7800000 
 181              	.LVL21:
 182              	.L13:
 183              		.loc 1 43 5 is_stmt 1
 184              		.loc 1 43 16
 185 0100 9B84F4FF 		addiw	s1,s1,-1
 186              	.LVL22:
 187 0104 E3D404FE 		bge	s1,zero,.L19
 188              	.L6:
  44:src/print.cpp **** }...
 189              		.loc 1 44 1 is_stmt 0
 190 0108 83308102 		ld	ra,40(sp)
 191              		.cfi_restore 1
 192 010c 03340102 		ld	s0,32(sp)
 193              		.cfi_restore 8
 194              		.cfi_def_cfa 2, 48
 195 0110 83348101 		ld	s1,24(sp)
 196              		.cfi_restore 9
 197 0114 13010103 		addi	sp,sp,48
 198              		.cfi_def_cfa_offset 0
 199 0118 67800000 		jr	ra
 200              		.cfi_endproc
 201              	.LFE6:
 203              		.section	.rodata
 204              		.align	3
 205              		.set	.LANCHOR0,. + 0
 208              	_ZZ13_printIntegermmbE6digits:
 209 0000 30313233 		.string	"0123456789abcdef"
 209      34353637 
 209      38396162 
 209      63646566 
 209      00
 210              		.text
 211              	.Letext0:
 212              		.file 2 "src/../h/../lib/hw.h"
 213              		.file 3 "src/../h/../h/Semaphore.h"
 214              		.file 4 "src/../h/../h/Buffer.h"
 215              		.file 5 "src/../h/Console.h"
GAS LISTING C:\msys64\tmp\ccAtBPFw.s 			page 6

