GAS LISTING C:\msys64\tmp\ccfzZER6.s 			page 1


   1              		.file	"riscv.cpp"
   2              		.option nopic
   3              		.option norelax
   4              		.attribute arch, "rv64i2p0_m2p0_a2p0"
   5              		.attribute unaligned_access, 0
   6              		.attribute stack_align, 16
   7              		.text
   8              	.Ltext0:
   9              		.align	2
  10              		.globl	_ZN5Riscv10popSppSpieEv
  12              	_ZN5Riscv10popSppSpieEv:
  13              	.LFB34:
  14              		.file 1 "src/riscv.cpp"
   1:src/riscv.cpp **** #include "../h/riscv.h"
   2:src/riscv.cpp **** #include "../lib/console.h"
   3:src/riscv.cpp **** #include "../h/MemoryAllocator.h"
   4:src/riscv.cpp **** #include "../h/Thread.h"
   5:src/riscv.cpp **** #include  "../h/Semaphore.h"
   6:src/riscv.cpp **** #include "../h/Console.h"
   7:src/riscv.cpp **** void Riscv::popSppSpie()
   8:src/riscv.cpp **** {
  15              		.loc 1 8 1
  16              		.cfi_startproc
  17 0000 130101FF 		addi	sp,sp,-16
  18              		.cfi_def_cfa_offset 16
  19 0004 23348100 		sd	s0,8(sp)
  20              		.cfi_offset 8, -8
  21 0008 13040101 		addi	s0,sp,16
  22              		.cfi_def_cfa 8, 0
   9:src/riscv.cpp **** 	__asm__ volatile("csrw sepc, ra");
  23              		.loc 1 9 2
  24              	 #APP
  25              	# 9 "src/riscv.cpp" 1
  10              		__asm__ volatile("sret");
  26              		csrw sepc, ra
  27              	# 0 "" 2
  28              		.loc 1 10 2
  29              	# 10 "src/riscv.cpp" 1
  11              	}
  30              		sret
  31              	# 0 "" 2
  32              		.loc 1 11 1 is_stmt 0
  33              	 #NO_APP
  34 0014 03348100 		ld	s0,8(sp)
  35              		.cfi_restore 8
  36              		.cfi_def_cfa 2, 16
  37 0018 13010101 		addi	sp,sp,16
  38              		.cfi_def_cfa_offset 0
  39 001c 67800000 		jr	ra
  40              		.cfi_endproc
  41              	.LFE34:
  43              		.align	2
  44              		.globl	_ZN5Riscv20handleSupervisorTrapEmmmmmmmm
  46              	_ZN5Riscv20handleSupervisorTrapEmmmmmmmm:
  47              	.LFB35:
  12:src/riscv.cpp **** void Riscv::handleSupervisorTrap(uint64 a0, uint64 a1, uint64 a2, uint64 a3, uint64 a4, uint64 a5, 
  48              		.loc 1 12 121 is_stmt 1
GAS LISTING C:\msys64\tmp\ccfzZER6.s 			page 2


  49              		.cfi_startproc
  50              		.cfi_personality 0x9b,DW.ref.__gxx_personality_v0
  51              		.cfi_lsda 0x1b,.LLSDA35
  52              	.LVL0:
  53 0020 130101F7 		addi	sp,sp,-144
  54              		.cfi_def_cfa_offset 144
  55 0024 23341108 		sd	ra,136(sp)
  56 0028 23308108 		sd	s0,128(sp)
  57 002c 233C9106 		sd	s1,120(sp)
  58 0030 23382107 		sd	s2,112(sp)
  59 0034 23343107 		sd	s3,104(sp)
  60              		.cfi_offset 1, -8
  61              		.cfi_offset 8, -16
  62              		.cfi_offset 9, -24
  63              		.cfi_offset 18, -32
  64              		.cfi_offset 19, -40
  65 0038 13040109 		addi	s0,sp,144
  66              		.cfi_def_cfa 8, 0
  67 003c 93840500 		mv	s1,a1
  68 0040 13090600 		mv	s2,a2
  13:src/riscv.cpp **** 
  14:src/riscv.cpp **** 	uint64 scause = r_scause();
  69              		.loc 1 14 2
  70              	.LBB112:
  71              	.LBB113:
  72              		.file 2 "src/../h/riscv.h"
   1:src/../h/riscv.h ****     //
   2:src/../h/riscv.h ****     // Created by os on 3/31/26.
   3:src/../h/riscv.h ****     //
   4:src/../h/riscv.h **** 
   5:src/../h/riscv.h ****     #ifndef PROJECT_BASE_RISCB_H
   6:src/../h/riscv.h ****     #define PROJECT_BASE_RISCB_H
   7:src/../h/riscv.h ****     #include "../lib/hw.h"
   8:src/../h/riscv.h **** 
   9:src/../h/riscv.h ****     class Riscv {
  10:src/../h/riscv.h ****     public:
  11:src/../h/riscv.h **** 	
  12:src/../h/riscv.h **** 	static void popSppSpie();
  13:src/../h/riscv.h **** 	
  14:src/../h/riscv.h **** 	
  15:src/../h/riscv.h ****         static uint64 r_scause();
  16:src/../h/riscv.h **** 
  17:src/../h/riscv.h ****         static void w_scause(uint64 scause);
  18:src/../h/riscv.h **** 
  19:src/../h/riscv.h ****         static uint64 r_sepc();
  20:src/../h/riscv.h **** 
  21:src/../h/riscv.h ****         static void w_sepc(uint64 sepc);
  22:src/../h/riscv.h **** 
  23:src/../h/riscv.h ****         static uint64 r_stvec();
  24:src/../h/riscv.h **** 
  25:src/../h/riscv.h ****         static void w_stvec(uint64 stvec);
  26:src/../h/riscv.h **** 
  27:src/../h/riscv.h ****         static uint64 r_stval();
  28:src/../h/riscv.h **** 
  29:src/../h/riscv.h ****         static void w_stval(uint64 stval);
  30:src/../h/riscv.h **** 
  31:src/../h/riscv.h ****         enum BitMaskSip {
GAS LISTING C:\msys64\tmp\ccfzZER6.s 			page 3


  32:src/../h/riscv.h ****             SIP_SSIP = (1 << 1),
  33:src/../h/riscv.h ****             SIP_STIP = (1 << 5),
  34:src/../h/riscv.h ****             SIP_SEIP = (1 << 9),
  35:src/../h/riscv.h ****         };
  36:src/../h/riscv.h **** 
  37:src/../h/riscv.h ****         static void ms_sip(uint64 mask);
  38:src/../h/riscv.h **** 
  39:src/../h/riscv.h ****         static void mc_sip(uint64 mask);
  40:src/../h/riscv.h **** 
  41:src/../h/riscv.h ****         static uint64 r_sip();
  42:src/../h/riscv.h **** 
  43:src/../h/riscv.h ****         static void w_sip(uint64 sip);
  44:src/../h/riscv.h **** 
  45:src/../h/riscv.h ****         enum BitMaskSstatus {
  46:src/../h/riscv.h ****             SSTATUS_SIE = (1 << 1),
  47:src/../h/riscv.h ****             SSTATUS_SPIE = (1 << 5),
  48:src/../h/riscv.h ****             SSTATUS_SPP = (1 <<8),
  49:src/../h/riscv.h ****         };
  50:src/../h/riscv.h **** 
  51:src/../h/riscv.h ****         static void ms_sstatus(uint64 mask);
  52:src/../h/riscv.h **** 
  53:src/../h/riscv.h ****         static void mc_sstatus(uint64 mask);
  54:src/../h/riscv.h **** 
  55:src/../h/riscv.h ****         static uint64 r_sstatus();
  56:src/../h/riscv.h **** 
  57:src/../h/riscv.h ****         static void w_sstatus(uint64 sstatus);
  58:src/../h/riscv.h **** 
  59:src/../h/riscv.h ****         static uint64 readARegister(int reg_number);
  60:src/../h/riscv.h **** 
  61:src/../h/riscv.h ****         static void writeARegister(int reg_number, uint64 value);
  62:src/../h/riscv.h **** 
  63:src/../h/riscv.h **** 
  64:src/../h/riscv.h ****         static void supervisorTrap();
  65:src/../h/riscv.h ****     private:
  66:src/../h/riscv.h ****         static void handleSupervisorTrap(uint64 a0, uint64 a1, uint64 a2, uint64 a3, uint64 a4, uin
  67:src/../h/riscv.h **** 
  68:src/../h/riscv.h ****     };
  69:src/../h/riscv.h **** 
  70:src/../h/riscv.h ****     inline uint64 Riscv::r_scause()
  71:src/../h/riscv.h ****     {
  72:src/../h/riscv.h ****         uint64 volatile scause;
  73              		.loc 2 72 9
  73:src/../h/riscv.h ****         __asm__ volatile ("csrr %[scause], scause" : [scause] "=r"(scause));
  74              		.loc 2 73 9
  75              	 #APP
  76              	# 73 "src/../h/riscv.h" 1
  74              	        return scause;
  77              		csrr a5, scause
  78              	# 0 "" 2
  79              	.LVL1:
  80              	 #NO_APP
  81 0048 2334F4FA 		sd	a5,-88(s0)
  82              		.loc 2 74 9
  83              		.loc 2 74 16 is_stmt 0
  84 004c 033684FA 		ld	a2,-88(s0)
  85              	.LVL2:
  86              	.LBE113:
GAS LISTING C:\msys64\tmp\ccfzZER6.s 			page 4


  87              	.LBE112:
  15:src/riscv.cpp **** 
  16:src/riscv.cpp **** 	if (scause == 0x0000000000000008UL || scause == 0x0000000000000009UL) {
  88              		.loc 1 16 2 is_stmt 1
  89              	.LBB114:
  90              		.loc 1 16 37 is_stmt 0
  91 0050 930586FF 		addi	a1,a2,-8
  92              	.LVL3:
  93              		.loc 1 16 2
  94 0054 93071000 		li	a5,1
  95 0058 63FCB704 		bleu	a1,a5,.L43
  96              	.LBE114:
  17:src/riscv.cpp **** 		uint64 call = a0;
  18:src/riscv.cpp **** 		uint64 volatile sepc = r_sepc() + 4;
  19:src/riscv.cpp **** 		uint64 volatile sstatus = r_sstatus();
  20:src/riscv.cpp **** 
  21:src/riscv.cpp **** 		switch(call) {
  22:src/riscv.cpp **** 			case 0x01: {
  23:src/riscv.cpp **** 				size_t bytes = a1 * MEM_BLOCK_SIZE;
  24:src/riscv.cpp **** 				writeARegister(0, (uint64)MemoryAllocator::kmalloc(bytes));
  25:src/riscv.cpp **** 				break;
  26:src/riscv.cpp **** 			}
  27:src/riscv.cpp **** 			case 0x02: {
  28:src/riscv.cpp **** 				writeARegister(0, (uint64)MemoryAllocator::kfree((void*)a1));
  29:src/riscv.cpp **** 				break;
  30:src/riscv.cpp **** 			}
  31:src/riscv.cpp **** 			case 0x11: {
  32:src/riscv.cpp **** 				Thread** handle = (Thread**) a1;
  33:src/riscv.cpp **** 				Thread::Body body =(Thread::Body) a2;
  34:src/riscv.cpp **** 				void* volatile arg = (void*) a3;
  35:src/riscv.cpp **** 				void* volatile stack_space = (void*) a4;
  36:src/riscv.cpp **** 
  37:src/riscv.cpp **** 				*handle =  Thread::createThread(body, arg, stack_space);
  38:src/riscv.cpp **** 
  39:src/riscv.cpp **** 				if(*handle) {
  40:src/riscv.cpp **** 					if (body!=nullptr) Scheduler::instance().put(*handle);
  41:src/riscv.cpp **** 					writeARegister(0, 0);
  42:src/riscv.cpp **** 				} else
  43:src/riscv.cpp **** 					writeARegister(0, -1);
  44:src/riscv.cpp **** 				break;
  45:src/riscv.cpp **** 			}
  46:src/riscv.cpp **** 			case 0x12: {
  47:src/riscv.cpp **** 				Thread::timeSliceCounter = 0;
  48:src/riscv.cpp **** 				if (Thread::running) {
  49:src/riscv.cpp **** 					Thread::running -> setFinished(true);		//possible need to notify if someone is wating for this
  50:src/riscv.cpp **** 					writeARegister(0, 0);
  51:src/riscv.cpp **** 				}else {
  52:src/riscv.cpp **** 					writeARegister(0, -1);
  53:src/riscv.cpp **** 				}
  54:src/riscv.cpp **** 
  55:src/riscv.cpp **** 
  56:src/riscv.cpp **** 				Thread::dispatch();
  57:src/riscv.cpp **** 				break;
  58:src/riscv.cpp **** 			}
  59:src/riscv.cpp **** 			case 0x13: {
  60:src/riscv.cpp **** 				Thread::timeSliceCounter = 0;
  61:src/riscv.cpp **** 				Thread::dispatch();
GAS LISTING C:\msys64\tmp\ccfzZER6.s 			page 5


  62:src/riscv.cpp **** 				break;
  63:src/riscv.cpp **** 			}
  64:src/riscv.cpp **** 			case 0x21: {
  65:src/riscv.cpp **** 				Semaphore** handle = (Semaphore**) a1;
  66:src/riscv.cpp **** 
  67:src/riscv.cpp **** 
  68:src/riscv.cpp **** 				*handle = new Semaphore(a2);
  69:src/riscv.cpp **** 
  70:src/riscv.cpp **** 				if(*handle) {
  71:src/riscv.cpp **** 					writeARegister(0, 0);
  72:src/riscv.cpp **** 				} else
  73:src/riscv.cpp **** 					writeARegister(0, -1);
  74:src/riscv.cpp **** 				break;
  75:src/riscv.cpp **** 			}
  76:src/riscv.cpp **** 			case 0x22: {
  77:src/riscv.cpp **** 				Semaphore* s = (Semaphore*)a1;
  78:src/riscv.cpp **** 				if (s == nullptr) {
  79:src/riscv.cpp **** 					writeARegister(0, -1);
  80:src/riscv.cpp **** 				}else {
  81:src/riscv.cpp **** 					writeARegister(0, s->close());
  82:src/riscv.cpp **** 					delete s;
  83:src/riscv.cpp **** 				}
  84:src/riscv.cpp **** 
  85:src/riscv.cpp **** 				break;
  86:src/riscv.cpp **** 			}
  87:src/riscv.cpp **** 			case 0x23: {
  88:src/riscv.cpp **** 				Semaphore* s = (Semaphore*)a1;
  89:src/riscv.cpp **** 				if (s == nullptr) {
  90:src/riscv.cpp **** 					writeARegister(0, -1);
  91:src/riscv.cpp **** 				}else {
  92:src/riscv.cpp **** 					writeARegister(0, s->wait());
  93:src/riscv.cpp **** 				}
  94:src/riscv.cpp **** 
  95:src/riscv.cpp **** 				break;
  96:src/riscv.cpp **** 			}
  97:src/riscv.cpp **** 			case 0x24: {
  98:src/riscv.cpp **** 				Semaphore* s = (Semaphore*)a1;
  99:src/riscv.cpp **** 				if (s == nullptr) {
 100:src/riscv.cpp **** 					writeARegister(0, -1);
 101:src/riscv.cpp **** 				}else {
 102:src/riscv.cpp **** 					writeARegister(0, s->signal());
 103:src/riscv.cpp **** 				}
 104:src/riscv.cpp **** 				break;
 105:src/riscv.cpp **** 			}
 106:src/riscv.cpp **** 			case 0x31: {
 107:src/riscv.cpp **** 				if (Thread::running == nullptr) {
 108:src/riscv.cpp **** 					writeARegister(0, -1);
 109:src/riscv.cpp **** 				}else {
 110:src/riscv.cpp **** 					Thread::running -> time_sleep(a1);
 111:src/riscv.cpp **** 					writeARegister(0, 0);
 112:src/riscv.cpp **** 				}
 113:src/riscv.cpp **** 
 114:src/riscv.cpp **** 				break;
 115:src/riscv.cpp **** 			}
 116:src/riscv.cpp **** 			case 0x41: {
 117:src/riscv.cpp **** 				char c = Console::getc();
 118:src/riscv.cpp **** 				writeARegister(0, (uint64)c);
GAS LISTING C:\msys64\tmp\ccfzZER6.s 			page 6


 119:src/riscv.cpp **** 				break;
 120:src/riscv.cpp **** 			}
 121:src/riscv.cpp **** 
 122:src/riscv.cpp **** 			case 0x42: { // putc
 123:src/riscv.cpp **** 				char c = (char)a1; // Karakter koji je korisnik prosledio
 124:src/riscv.cpp **** 				Console::putc(c);
 125:src/riscv.cpp **** 				break;
 126:src/riscv.cpp **** 			}
 127:src/riscv.cpp **** 			default: {
 128:src/riscv.cpp **** 				break;
 129:src/riscv.cpp **** 			}
 130:src/riscv.cpp **** 		}
 131:src/riscv.cpp **** 
 132:src/riscv.cpp **** 		w_sstatus(sstatus);
 133:src/riscv.cpp **** 		w_sepc(sepc);
 134:src/riscv.cpp **** 
 135:src/riscv.cpp ****     } else if (scause == 0x8000000000000009UL) {
  97              		.loc 1 135 12 is_stmt 1
  98              	.LBB238:
  99              	.LBB115:
 100 005c 9307F0FF 		li	a5,-1
 101 0060 9397F703 		slli	a5,a5,63
 102 0064 93879700 		addi	a5,a5,9
 103 0068 6308F62A 		beq	a2,a5,.L44
 104              	.LBE115:
 105              	.LBE238:
 136:src/riscv.cpp ****     	int irq = plic_claim(); // Potvrđujemo prekid PLIC kontroleru
 137:src/riscv.cpp **** 
 138:src/riscv.cpp ****     	if (irq == CONSOLE_IRQ) { // Proveravamo da li je prekid stigao baš sa konzole (obično 10)
 139:src/riscv.cpp **** 
 140:src/riscv.cpp ****     		// RX deo: Čitamo sve dok hardver ima podataka I dok imamo gde da ih smestimo
 141:src/riscv.cpp ****     	while ((*((volatile uint8*)CONSOLE_STATUS) & 0x01) && !Console::getInBuff()->isFull()) {
 142:src/riscv.cpp ****     		char c = *((volatile uint8*)CONSOLE_RX_DATA);
 143:src/riscv.cpp ****     		Console::getInBuff()->put(c);
 144:src/riscv.cpp ****     		Console::getInSem()->signal();
 145:src/riscv.cpp ****     	}
 146:src/riscv.cpp **** 
 147:src/riscv.cpp ****     	// TX deo: Šaljemo sve dok je hardver spreman I dok imamo šta da pošaljemo
 148:src/riscv.cpp ****     	while ((*((volatile uint8*)CONSOLE_STATUS) & 0x20) && !Console::getOutBuff()->isEmpty()) {
 149:src/riscv.cpp ****     		char c = Console::getOutBuff()->get();
 150:src/riscv.cpp ****     		*((volatile uint8*)CONSOLE_TX_DATA) = (uint8)c;
 151:src/riscv.cpp ****     		Console::getOutSem()->signal();
 152:src/riscv.cpp ****     	}
 153:src/riscv.cpp ****     	}
 154:src/riscv.cpp **** 
 155:src/riscv.cpp ****     	plic_complete(irq); // Obaveštavamo PLIC da je obrada završena
 156:src/riscv.cpp ****     } else if (scause == 0x8000000000000001UL) {
 106              		.loc 1 156 12
 107              	.LBB239:
 108              	.LBB169:
 109              	.LBB116:
 110 006c 9307F0FF 		li	a5,-1
 111 0070 9397F703 		slli	a5,a5,63
 112 0074 93871700 		addi	a5,a5,1
 113 0078 6310F60A 		bne	a2,a5,.L3
 114              	.LBB117:
 157:src/riscv.cpp ****     	Thread::timeSliceCounter++;
GAS LISTING C:\msys64\tmp\ccfzZER6.s 			page 7


 115              		.loc 1 157 6
 116              		.loc 1 157 30 is_stmt 0
 117 007c 17070000 		lla	a4,_ZN6Thread16timeSliceCounterE
 117      13070700 
 118              	.LVL4:
 119 0084 83370700 		ld	a5,0(a4)
 120 0088 93871700 		addi	a5,a5,1
 121 008c 2330F700 		sd	a5,0(a4)
 158:src/riscv.cpp ****     	if (Thread::sleepingHead) {
 122              		.loc 1 158 6 is_stmt 1
 123              	.LBB118:
 124              		.loc 1 158 18 is_stmt 0
 125 0090 97070000 		ld	a5,_ZN6Thread12sleepingHeadE
 125      83B70700 
 126              		.loc 1 158 6
 127 0098 638A073A 		beq	a5,zero,.L35
 128              	.LBB119:
 159:src/riscv.cpp ****     		if (Thread::sleepingHead->timeSleeping > 0) {
 129              		.loc 1 159 7 is_stmt 1
 130              		.loc 1 159 33 is_stmt 0
 131 009c 03B78704 		ld	a4,72(a5)
 132              		.loc 1 159 7
 133 00a0 630A0734 		beq	a4,zero,.L38
 160:src/riscv.cpp ****     			Thread::sleepingHead->timeSleeping--;
 134              		.loc 1 160 8 is_stmt 1
 135              		.loc 1 160 42 is_stmt 0
 136 00a4 1307F7FF 		addi	a4,a4,-1
 137 00a8 23B4E704 		sd	a4,72(a5)
 138 00ac 6F008034 		j	.L38
 139              	.LVL5:
 140              	.L43:
 141              	.LBE119:
 142              	.LBE118:
 143              	.LBE117:
 144              	.LBE116:
 145              	.LBE169:
 146              	.LBB170:
  17:src/riscv.cpp **** 		uint64 volatile sepc = r_sepc() + 4;
 147              		.loc 1 17 3 is_stmt 1
  18:src/riscv.cpp **** 		uint64 volatile sstatus = r_sstatus();
 148              		.loc 1 18 3
 149              	.LBB171:
 150              	.LBB172:
  75:src/../h/riscv.h ****     }
  76:src/../h/riscv.h **** 
  77:src/../h/riscv.h ****     inline void Riscv::w_scause(uint64 scause)
  78:src/../h/riscv.h ****     {
  79:src/../h/riscv.h ****         __asm__ volatile ("csrw scause, %[scause]" : : [scause] "r"(scause));
  80:src/../h/riscv.h ****     }
  81:src/../h/riscv.h **** 
  82:src/../h/riscv.h ****     inline uint64 Riscv::r_sepc()
  83:src/../h/riscv.h ****     {
  84:src/../h/riscv.h ****         uint64 volatile sepc;
 151              		.loc 2 84 9
  85:src/../h/riscv.h ****         __asm__ volatile ("csrr %[sepc], sepc" : [sepc] "=r"(sepc));
 152              		.loc 2 85 9
 153              	 #APP
GAS LISTING C:\msys64\tmp\ccfzZER6.s 			page 8


 154              	# 85 "src/../h/riscv.h" 1
  86              	        return sepc;
 155              		csrr a5, sepc
 156              	# 0 "" 2
 157              	 #NO_APP
 158 00b4 233CF4FA 		sd	a5,-72(s0)
 159              		.loc 2 86 9
 160              		.loc 2 86 16 is_stmt 0
 161 00b8 833784FB 		ld	a5,-72(s0)
 162              	.LBE172:
 163              	.LBE171:
  18:src/riscv.cpp **** 		uint64 volatile sstatus = r_sstatus();
 164              		.loc 1 18 35
 165 00bc 93874700 		addi	a5,a5,4
  18:src/riscv.cpp **** 		uint64 volatile sstatus = r_sstatus();
 166              		.loc 1 18 37
 167 00c0 233CF4F6 		sd	a5,-136(s0)
  19:src/riscv.cpp **** 
 168              		.loc 1 19 3 is_stmt 1
 169              	.LBB173:
 170              	.LBB174:
  87:src/../h/riscv.h ****     }
  88:src/../h/riscv.h **** 
  89:src/../h/riscv.h ****     inline void Riscv::w_sepc(uint64 sepc)
  90:src/../h/riscv.h ****     {
  91:src/../h/riscv.h ****         __asm__ volatile ("csrw sepc, %[sepc]" : : [sepc] "r"(sepc));
  92:src/../h/riscv.h ****     }
  93:src/../h/riscv.h **** 
  94:src/../h/riscv.h ****     inline uint64 Riscv::r_stvec()
  95:src/../h/riscv.h ****     {
  96:src/../h/riscv.h ****         uint64 volatile stvec;
  97:src/../h/riscv.h ****         __asm__ volatile ("csrr %[stvec], stvec" : [stvec] "=r"(stvec));
  98:src/../h/riscv.h ****         return stvec;
  99:src/../h/riscv.h ****     }
 100:src/../h/riscv.h **** 
 101:src/../h/riscv.h ****     inline void Riscv::w_stvec(uint64 stvec)
 102:src/../h/riscv.h ****     {
 103:src/../h/riscv.h ****         __asm__ volatile ("csrw stvec, %[stvec]" : : [stvec] "r"(stvec));
 104:src/../h/riscv.h ****     }
 105:src/../h/riscv.h **** 
 106:src/../h/riscv.h ****     inline uint64 Riscv::r_stval()
 107:src/../h/riscv.h ****     {
 108:src/../h/riscv.h ****         uint64 volatile stval;
 109:src/../h/riscv.h ****         __asm__ volatile ("csrr %[stval], stval" : [stval] "=r"(stval));
 110:src/../h/riscv.h ****         return stval;
 111:src/../h/riscv.h ****     }
 112:src/../h/riscv.h **** 
 113:src/../h/riscv.h ****     inline void Riscv::w_stval(uint64 stval)
 114:src/../h/riscv.h ****     {
 115:src/../h/riscv.h ****         __asm__ volatile ("csrw stval, %[stval]" : : [stval] "r"(stval));
 116:src/../h/riscv.h ****     }
 117:src/../h/riscv.h **** 
 118:src/../h/riscv.h ****     inline void Riscv::ms_sip(uint64 mask)
 119:src/../h/riscv.h ****     {
 120:src/../h/riscv.h ****         __asm__ volatile ("csrs sip, %[mask]" : : [mask] "r"(mask));
 121:src/../h/riscv.h ****     }
 122:src/../h/riscv.h **** 
GAS LISTING C:\msys64\tmp\ccfzZER6.s 			page 9


 123:src/../h/riscv.h ****     inline void Riscv::mc_sip(uint64 mask)
 124:src/../h/riscv.h ****     {
 125:src/../h/riscv.h ****         __asm__ volatile ("csrc sip, %[mask]" : : [mask] "r"(mask));
 126:src/../h/riscv.h ****     }
 127:src/../h/riscv.h **** 
 128:src/../h/riscv.h ****     inline uint64 Riscv::r_sip()
 129:src/../h/riscv.h ****     {
 130:src/../h/riscv.h ****         uint64 volatile sip;
 131:src/../h/riscv.h ****         __asm__ volatile ("csrr %[sip], sip" : [sip] "=r"(sip));
 132:src/../h/riscv.h ****         return sip;
 133:src/../h/riscv.h ****     }
 134:src/../h/riscv.h **** 
 135:src/../h/riscv.h ****     inline void Riscv::w_sip(uint64 sip)
 136:src/../h/riscv.h ****     {
 137:src/../h/riscv.h ****         __asm__ volatile ("csrw sip, %[sip]" : : [sip] "r"(sip));
 138:src/../h/riscv.h ****     }
 139:src/../h/riscv.h **** 
 140:src/../h/riscv.h ****     inline void Riscv::ms_sstatus(uint64 mask)
 141:src/../h/riscv.h ****     {
 142:src/../h/riscv.h ****         __asm__ volatile ("csrs sstatus, %[mask]" : : [mask] "r"(mask));
 143:src/../h/riscv.h ****     }
 144:src/../h/riscv.h **** 
 145:src/../h/riscv.h ****     inline void Riscv::mc_sstatus(uint64 mask)
 146:src/../h/riscv.h ****     {
 147:src/../h/riscv.h ****         __asm__ volatile ("csrc sstatus, %[mask]" : : [mask] "r"(mask));
 148:src/../h/riscv.h ****     }
 149:src/../h/riscv.h **** 
 150:src/../h/riscv.h ****     inline uint64 Riscv::r_sstatus()
 151:src/../h/riscv.h ****     {
 152:src/../h/riscv.h ****         uint64 volatile sstatus;
 171              		.loc 2 152 9
 153:src/../h/riscv.h ****         __asm__ volatile ("csrr %[sstatus], sstatus" : [sstatus] "=r"(sstatus));
 172              		.loc 2 153 9
 173              	 #APP
 174              	# 153 "src/../h/riscv.h" 1
 154              	        return sstatus;
 175              		csrr a5, sstatus
 176              	# 0 "" 2
 177              	 #NO_APP
 178 00c8 2338F4FA 		sd	a5,-80(s0)
 179              		.loc 2 154 9
 180              		.loc 2 154 16 is_stmt 0
 181 00cc 833704FB 		ld	a5,-80(s0)
 182              	.LBE174:
 183              	.LBE173:
  19:src/riscv.cpp **** 
 184              		.loc 1 19 39
 185 00d0 2330F4F8 		sd	a5,-128(s0)
  21:src/riscv.cpp **** 			case 0x01: {
 186              		.loc 1 21 3 is_stmt 1
 187 00d4 93072004 		li	a5,66
 188 00d8 63E8A702 		bgtu	a0,a5,.L5
 189 00dc 13152500 		slli	a0,a0,2
 190              	.LVL6:
 191 00e0 17060000 		lla	a2,.L7
 191      13060600 
 192              	.LVL7:
GAS LISTING C:\msys64\tmp\ccfzZER6.s 			page 10


 193 00e8 3305C500 		add	a0,a0,a2
 194 00ec 83270500 		lw	a5,0(a0)
 195 00f0 B387C700 		add	a5,a5,a2
 196 00f4 67800700 		jr	a5
 197              		.section	.rodata
 198              		.align	2
 199              		.align	2
 200              	.L7:
 201 0000 00000000 		.word	.L5-.L7
 202 0004 00000000 		.word	.L18-.L7
 203 0008 00000000 		.word	.L17-.L7
 204 000c 00000000 		.word	.L5-.L7
 205 0010 00000000 		.word	.L5-.L7
 206 0014 00000000 		.word	.L5-.L7
 207 0018 00000000 		.word	.L5-.L7
 208 001c 00000000 		.word	.L5-.L7
 209 0020 00000000 		.word	.L5-.L7
 210 0024 00000000 		.word	.L5-.L7
 211 0028 00000000 		.word	.L5-.L7
 212 002c 00000000 		.word	.L5-.L7
 213 0030 00000000 		.word	.L5-.L7
 214 0034 00000000 		.word	.L5-.L7
 215 0038 00000000 		.word	.L5-.L7
 216 003c 00000000 		.word	.L5-.L7
 217 0040 00000000 		.word	.L5-.L7
 218 0044 00000000 		.word	.L16-.L7
 219 0048 00000000 		.word	.L15-.L7
 220 004c 00000000 		.word	.L14-.L7
 221 0050 00000000 		.word	.L5-.L7
 222 0054 00000000 		.word	.L5-.L7
 223 0058 00000000 		.word	.L5-.L7
 224 005c 00000000 		.word	.L5-.L7
 225 0060 00000000 		.word	.L5-.L7
 226 0064 00000000 		.word	.L5-.L7
 227 0068 00000000 		.word	.L5-.L7
 228 006c 00000000 		.word	.L5-.L7
 229 0070 00000000 		.word	.L5-.L7
 230 0074 00000000 		.word	.L5-.L7
 231 0078 00000000 		.word	.L5-.L7
 232 007c 00000000 		.word	.L5-.L7
 233 0080 00000000 		.word	.L5-.L7
 234 0084 00000000 		.word	.L13-.L7
 235 0088 00000000 		.word	.L12-.L7
 236 008c 00000000 		.word	.L11-.L7
 237 0090 00000000 		.word	.L10-.L7
 238 0094 00000000 		.word	.L5-.L7
 239 0098 00000000 		.word	.L5-.L7
 240 009c 00000000 		.word	.L5-.L7
 241 00a0 00000000 		.word	.L5-.L7
 242 00a4 00000000 		.word	.L5-.L7
 243 00a8 00000000 		.word	.L5-.L7
 244 00ac 00000000 		.word	.L5-.L7
 245 00b0 00000000 		.word	.L5-.L7
 246 00b4 00000000 		.word	.L5-.L7
 247 00b8 00000000 		.word	.L5-.L7
 248 00bc 00000000 		.word	.L5-.L7
 249 00c0 00000000 		.word	.L5-.L7
GAS LISTING C:\msys64\tmp\ccfzZER6.s 			page 11


 250 00c4 00000000 		.word	.L9-.L7
 251 00c8 00000000 		.word	.L5-.L7
 252 00cc 00000000 		.word	.L5-.L7
 253 00d0 00000000 		.word	.L5-.L7
 254 00d4 00000000 		.word	.L5-.L7
 255 00d8 00000000 		.word	.L5-.L7
 256 00dc 00000000 		.word	.L5-.L7
 257 00e0 00000000 		.word	.L5-.L7
 258 00e4 00000000 		.word	.L5-.L7
 259 00e8 00000000 		.word	.L5-.L7
 260 00ec 00000000 		.word	.L5-.L7
 261 00f0 00000000 		.word	.L5-.L7
 262 00f4 00000000 		.word	.L5-.L7
 263 00f8 00000000 		.word	.L5-.L7
 264 00fc 00000000 		.word	.L5-.L7
 265 0100 00000000 		.word	.L5-.L7
 266 0104 00000000 		.word	.L8-.L7
 267 0108 00000000 		.word	.L6-.L7
 268              		.text
 269              	.L18:
 270              	.LBB175:
  22:src/riscv.cpp **** 				size_t bytes = a1 * MEM_BLOCK_SIZE;
 271              		.loc 1 22 4
  22:src/riscv.cpp **** 				size_t bytes = a1 * MEM_BLOCK_SIZE;
 272              		.loc 1 22 15
 273              	.LBB176:
  23:src/riscv.cpp **** 				writeARegister(0, (uint64)MemoryAllocator::kmalloc(bytes));
 274              		.loc 1 23 5
 275              	.LVL8:
  24:src/riscv.cpp **** 				break;
 276              		.loc 1 24 5
  24:src/riscv.cpp **** 				break;
 277              		.loc 1 24 55 is_stmt 0
 278 00f8 13956400 		slli	a0,s1,6
 279              	.LVL9:
 280              	.LEHB0:
 281 00fc 97000000 		call	_ZN15MemoryAllocator7kmallocEm
 281      E7800000 
 282              	.LVL10:
 283              	.LBB177:
 284              	.LBB178:
 155:src/../h/riscv.h ****     }
 156:src/../h/riscv.h **** 
 157:src/../h/riscv.h ****     inline void Riscv::w_sstatus(uint64 sstatus)
 158:src/../h/riscv.h ****     {
 159:src/../h/riscv.h ****         __asm__ volatile ("csrw sstatus, %[sstatus]" : : [sstatus] "r"(sstatus));
 160:src/../h/riscv.h ****     }
 161:src/../h/riscv.h **** 
 162:src/../h/riscv.h **** inline uint64 Riscv::readARegister(int reg_number) {
 163:src/../h/riscv.h ****         uint64 value;
 164:src/../h/riscv.h ****         __asm__ volatile("mv %[val], a%[reg]" : [val] "=r" (value) : [reg] "i" (reg_number));
 165:src/../h/riscv.h ****         return value;
 166:src/../h/riscv.h ****     }
 167:src/../h/riscv.h **** 
 168:src/../h/riscv.h **** 
 169:src/../h/riscv.h **** inline void Riscv::writeARegister( int reg_number, uint64 value) {
 170:src/../h/riscv.h ****         __asm__ volatile("mv a%[reg], %[val]" :: [reg] "i" (reg_number), [val] "r" (value));
GAS LISTING C:\msys64\tmp\ccfzZER6.s 			page 12


 285              		.loc 2 170 9 is_stmt 1
 286              	 #APP
 287              	# 170 "src/../h/riscv.h" 1
 171              	    }
 288              		mv a0, a0
 289              	# 0 "" 2
 290              	.LVL11:
 291              	 #NO_APP
 292              	.L5:
 293              	.LBE178:
 294              	.LBE177:
 295              	.LBE176:
 296              	.LBE175:
 132:src/riscv.cpp **** 		w_sepc(sepc);
 297              		.loc 1 132 3
 132:src/riscv.cpp **** 		w_sepc(sepc);
 298              		.loc 1 132 12 is_stmt 0
 299 0108 833704F8 		ld	a5,-128(s0)
 300              	.LVL12:
 301              	.LBB228:
 302              	.LBB229:
 159:src/../h/riscv.h ****     }
 303              		.loc 2 159 9 is_stmt 1
 304              	 #APP
 305              	# 159 "src/../h/riscv.h" 1
 306              		csrw sstatus, a5
 307              	# 0 "" 2
 308              	.LVL13:
 309              	 #NO_APP
 310              	.LBE229:
 311              	.LBE228:
 133:src/riscv.cpp **** 
 312              		.loc 1 133 3
 133:src/riscv.cpp **** 
 313              		.loc 1 133 9 is_stmt 0
 314 0110 833784F7 		ld	a5,-136(s0)
 315              	.LVL14:
 316              	.LBB230:
 317              	.LBB231:
  91:src/../h/riscv.h ****     }
 318              		.loc 2 91 9 is_stmt 1
 319              	 #APP
 320              	# 91 "src/../h/riscv.h" 1
 321              		csrw sepc, a5
 322              	# 0 "" 2
 323              	.LVL15:
 324              	 #NO_APP
 325              	.L3:
 326              	.LBE231:
 327              	.LBE230:
 328              	.LBE170:
 329              	.LBE239:
 161:src/riscv.cpp ****     		}
 162:src/riscv.cpp **** 
 163:src/riscv.cpp ****     		while (Thread::sleepingHead && Thread::sleepingHead -> timeSleeping == 0) {
 164:src/riscv.cpp ****     			Thread* t = Thread::sleepingHead;
 165:src/riscv.cpp **** 
GAS LISTING C:\msys64\tmp\ccfzZER6.s 			page 13


 166:src/riscv.cpp ****     			Thread::sleepingHead = t->waitnext;
 167:src/riscv.cpp **** 
 168:src/riscv.cpp ****     			t->waitnext = nullptr;
 169:src/riscv.cpp ****     			t->isReady = true;
 170:src/riscv.cpp ****     			Scheduler::instance().put(t);
 171:src/riscv.cpp ****     		}
 172:src/riscv.cpp **** 
 173:src/riscv.cpp ****     	}
 174:src/riscv.cpp ****     if(Thread::timeSliceCounter >= Thread::running -> getTimeSlice())
 175:src/riscv.cpp ****     {
 176:src/riscv.cpp ****     	uint64 volatile sepc = r_sepc();
 177:src/riscv.cpp ****     	uint64 volatile sstatus = r_sstatus();
 178:src/riscv.cpp ****     	Thread::timeSliceCounter = 0;
 179:src/riscv.cpp ****     	Thread::dispatch();
 180:src/riscv.cpp ****     	w_sstatus(sstatus);
 181:src/riscv.cpp ****     	w_sepc(sepc);
 182:src/riscv.cpp ****     	
 183:src/riscv.cpp ****     }
 184:src/riscv.cpp ****         mc_sip(SIP_SSIP);
 185:src/riscv.cpp ****     }
 186:src/riscv.cpp **** }
 330              		.loc 1 186 1 is_stmt 0
 331 0118 83308108 		ld	ra,136(sp)
 332              		.cfi_remember_state
 333              		.cfi_restore 1
 334 011c 03340108 		ld	s0,128(sp)
 335              		.cfi_restore 8
 336              		.cfi_def_cfa 2, 144
 337 0120 83348107 		ld	s1,120(sp)
 338              		.cfi_restore 9
 339 0124 03390107 		ld	s2,112(sp)
 340              		.cfi_restore 18
 341 0128 83398106 		ld	s3,104(sp)
 342              		.cfi_restore 19
 343 012c 13010109 		addi	sp,sp,144
 344              		.cfi_def_cfa_offset 0
 345 0130 67800000 		jr	ra
 346              	.LVL16:
 347              	.L17:
 348              		.cfi_restore_state
 349              	.LBB240:
 350              	.LBB234:
 351              	.LBB232:
  27:src/riscv.cpp **** 				writeARegister(0, (uint64)MemoryAllocator::kfree((void*)a1));
 352              		.loc 1 27 4 is_stmt 1
  27:src/riscv.cpp **** 				writeARegister(0, (uint64)MemoryAllocator::kfree((void*)a1));
 353              		.loc 1 27 15
  28:src/riscv.cpp **** 				break;
 354              		.loc 1 28 5
  28:src/riscv.cpp **** 				break;
 355              		.loc 1 28 53 is_stmt 0
 356 0134 13850400 		mv	a0,s1
 357 0138 97000000 		call	_ZN15MemoryAllocator5kfreeEPv
 357      E7800000 
 358              	.LVL17:
 359              	.LBB179:
 360              	.LBB180:
GAS LISTING C:\msys64\tmp\ccfzZER6.s 			page 14


 170:src/../h/riscv.h ****     }
 361              		.loc 2 170 9 is_stmt 1
 362              	 #APP
 363              	# 170 "src/../h/riscv.h" 1
 364              		mv a0, a0
 365              	# 0 "" 2
 366              		.loc 2 171 5 is_stmt 0
 367              	 #NO_APP
 368 0144 6FF05FFC 		j	.L5
 369              	.LVL18:
 370              	.L16:
 371              	.LBE180:
 372              	.LBE179:
  31:src/riscv.cpp **** 				Thread** handle = (Thread**) a1;
 373              		.loc 1 31 4 is_stmt 1
  31:src/riscv.cpp **** 				Thread** handle = (Thread**) a1;
 374              		.loc 1 31 15
 375              	.LBB181:
  32:src/riscv.cpp **** 				Thread::Body body =(Thread::Body) a2;
 376              		.loc 1 32 5
  33:src/riscv.cpp **** 				void* volatile arg = (void*) a3;
 377              		.loc 1 33 5
  34:src/riscv.cpp **** 				void* volatile stack_space = (void*) a4;
 378              		.loc 1 34 5
  34:src/riscv.cpp **** 				void* volatile stack_space = (void*) a4;
 379              		.loc 1 34 20 is_stmt 0
 380 0148 2334D4F8 		sd	a3,-120(s0)
  35:src/riscv.cpp **** 
 381              		.loc 1 35 5 is_stmt 1
  35:src/riscv.cpp **** 
 382              		.loc 1 35 20 is_stmt 0
 383 014c 2338E4F8 		sd	a4,-112(s0)
  37:src/riscv.cpp **** 
 384              		.loc 1 37 5 is_stmt 1
  37:src/riscv.cpp **** 
 385              		.loc 1 37 36 is_stmt 0
 386 0150 833584F8 		ld	a1,-120(s0)
 387              	.LVL19:
 388 0154 033604F9 		ld	a2,-112(s0)
 389 0158 13050900 		mv	a0,s2
 390 015c 97000000 		call	_ZN6Thread12createThreadEPFvPvES0_S0_
 390      E7800000 
 391              	.LVL20:
  37:src/riscv.cpp **** 
 392              		.loc 1 37 13
 393 0164 23B0A400 		sd	a0,0(s1)
  39:src/riscv.cpp **** 					if (body!=nullptr) Scheduler::instance().put(*handle);
 394              		.loc 1 39 5 is_stmt 1
 395 0168 63080504 		beq	a0,zero,.L19
  40:src/riscv.cpp **** 					writeARegister(0, 0);
 396              		.loc 1 40 6
 397 016c 63000904 		beq	s2,zero,.L20
  40:src/riscv.cpp **** 					writeARegister(0, 0);
 398              		.loc 1 40 25
 399              	.LBB182:
 400              	.LBB183:
 401              		.file 3 "src/../h/Scheduler.h"
GAS LISTING C:\msys64\tmp\ccfzZER6.s 			page 15


   1:src/../h/Scheduler.h **** //
   2:src/../h/Scheduler.h **** // Created by os on 4/1/26.
   3:src/../h/Scheduler.h **** //
   4:src/../h/Scheduler.h **** 
   5:src/../h/Scheduler.h **** #ifndef PROJEKAT_SCHEDULER_H
   6:src/../h/Scheduler.h **** #define PROJEKAT_SCHEDULER_H
   7:src/../h/Scheduler.h **** 
   8:src/../h/Scheduler.h **** class Thread;
   9:src/../h/Scheduler.h **** 
  10:src/../h/Scheduler.h **** class Scheduler {
  11:src/../h/Scheduler.h **** public:
  12:src/../h/Scheduler.h ****     static Scheduler& instance(){static Scheduler instance; return instance;}
 402              		.loc 3 12 34
 403              		.loc 3 12 51 is_stmt 0
 404 0170 97070000 		lbu	a5,_ZGVZN9Scheduler8instanceEvE8instance
 404      83C70700 
 405 0178 63900702 		bne	a5,zero,.L21
 406              	.LVL21:
 407              	.LBB184:
 408              	.LBB185:
 409              	.LBB186:
  13:src/../h/Scheduler.h **** 
  14:src/../h/Scheduler.h ****     Scheduler(const Scheduler&) = delete;
  15:src/../h/Scheduler.h ****     Scheduler& operator=(const Scheduler&) = delete;
  16:src/../h/Scheduler.h **** 
  17:src/../h/Scheduler.h **** 
  18:src/../h/Scheduler.h ****     void put(Thread* t);
  19:src/../h/Scheduler.h **** 
  20:src/../h/Scheduler.h ****     Thread* get();
  21:src/../h/Scheduler.h **** private:
  22:src/../h/Scheduler.h ****     Scheduler():head(nullptr), tail(nullptr){};
 410              		.loc 3 22 44
 411 017c 97070000 		lla	a5,_ZZN9Scheduler8instanceEvE8instance
 411      93870700 
 412 0184 23B00700 		sd	zero,0(a5)
 413 0188 23B40700 		sd	zero,8(a5)
 414              	.LVL22:
 415              	.LBE186:
 416              	.LBE185:
 417              	.LBE184:
  12:src/../h/Scheduler.h **** 
 418              		.loc 3 12 51
 419 018c 93071000 		li	a5,1
 420 0190 17070000 		sb	a5,_ZGVZN9Scheduler8instanceEvE8instance,a4
 420      2300F700 
 421              	.L21:
  12:src/../h/Scheduler.h **** 
 422              		.loc 3 12 61 is_stmt 1
 423              	.LBE183:
 424              	.LBE182:
  40:src/riscv.cpp **** 					writeARegister(0, 0);
 425              		.loc 1 40 50 is_stmt 0
 426 0198 83B50400 		ld	a1,0(s1)
 427 019c 17050000 		lla	a0,_ZZN9Scheduler8instanceEvE8instance
 427      13050500 
 428 01a4 97000000 		call	_ZN9Scheduler3putEP6Thread
 428      E7800000 
GAS LISTING C:\msys64\tmp\ccfzZER6.s 			page 16


 429              	.LVL23:
 430              	.L20:
  41:src/riscv.cpp **** 				} else
 431              		.loc 1 41 6 is_stmt 1
 432              	.LBB187:
 433              	.LBB188:
 170:src/../h/riscv.h ****     }
 434              		.loc 2 170 9
 435 01ac 93070000 		li	a5,0
 436              	 #APP
 437              	# 170 "src/../h/riscv.h" 1
 438              		mv a0, a5
 439              	# 0 "" 2
 440              		.loc 2 171 5 is_stmt 0
 441              	 #NO_APP
 442 01b4 6FF05FF5 		j	.L5
 443              	.LVL24:
 444              	.L19:
 445              	.LBE188:
 446              	.LBE187:
  43:src/riscv.cpp **** 				break;
 447              		.loc 1 43 6 is_stmt 1
 448              	.LBB189:
 449              	.LBB190:
 170:src/../h/riscv.h ****     }
 450              		.loc 2 170 9
 451 01b8 9307F0FF 		li	a5,-1
 452              	 #APP
 453              	# 170 "src/../h/riscv.h" 1
 454              		mv a0, a5
 455              	# 0 "" 2
 456              		.loc 2 171 5 is_stmt 0
 457              	 #NO_APP
 458 01c0 6FF09FF4 		j	.L5
 459              	.LVL25:
 460              	.L15:
 461              	.LBE190:
 462              	.LBE189:
 463              	.LBE181:
  46:src/riscv.cpp **** 				Thread::timeSliceCounter = 0;
 464              		.loc 1 46 4 is_stmt 1
  46:src/riscv.cpp **** 				Thread::timeSliceCounter = 0;
 465              		.loc 1 46 15
  47:src/riscv.cpp **** 				if (Thread::running) {
 466              		.loc 1 47 5
  47:src/riscv.cpp **** 				if (Thread::running) {
 467              		.loc 1 47 30 is_stmt 0
 468 01c4 97070000 		sd	zero,_ZN6Thread16timeSliceCounterE,a5
 468      23B00700 
  48:src/riscv.cpp **** 					Thread::running -> setFinished(true);		//possible need to notify if someone is wating for this
 469              		.loc 1 48 5 is_stmt 1
  48:src/riscv.cpp **** 					Thread::running -> setFinished(true);		//possible need to notify if someone is wating for this
 470              		.loc 1 48 17 is_stmt 0
 471 01cc 97070000 		ld	a5,_ZN6Thread7runningE
 471      83B70700 
  48:src/riscv.cpp **** 					Thread::running -> setFinished(true);		//possible need to notify if someone is wating for this
 472              		.loc 1 48 5
GAS LISTING C:\msys64\tmp\ccfzZER6.s 			page 17


 473 01d4 63800702 		beq	a5,zero,.L22
  49:src/riscv.cpp **** 					writeARegister(0, 0);
 474              		.loc 1 49 6 is_stmt 1
 475              	.LVL26:
 476              	.LBB191:
 477              	.LBB192:
 478              		.file 4 "src/../h/Thread.h"
   1:src/../h/Thread.h ****  #ifndef PROJEKAT_THREAD_H
   2:src/../h/Thread.h **** #define PROJEKAT_THREAD_H
   3:src/../h/Thread.h **** 
   4:src/../h/Thread.h **** #include "../lib/hw.h"
   5:src/../h/Thread.h **** #include "MemoryAllocator.h"
   6:src/../h/Thread.h **** #include "Scheduler.h"
   7:src/../h/Thread.h **** 
   8:src/../h/Thread.h **** typedef unsigned long time_t;
   9:src/../h/Thread.h **** class Thread {
  10:src/../h/Thread.h **** public:
  11:src/../h/Thread.h **** 
  12:src/../h/Thread.h **** 	void* operator new(size_t size){
  13:src/../h/Thread.h **** 		void* ptr = MemoryAllocator::kmalloc(size);
  14:src/../h/Thread.h **** 		return ptr;
  15:src/../h/Thread.h **** 	}
  16:src/../h/Thread.h ****     ~Thread() {delete stack;};
  17:src/../h/Thread.h ****     using Body = void (*)(void*);
  18:src/../h/Thread.h **** 
  19:src/../h/Thread.h ****     static Thread* createThread(Body body, void* args, void* stack);
  20:src/../h/Thread.h ****     
  21:src/../h/Thread.h ****     static Thread* running;
  22:src/../h/Thread.h **** 
  23:src/../h/Thread.h **** 
  24:src/../h/Thread.h **** 
  25:src/../h/Thread.h ****     static void dispatch();
  26:src/../h/Thread.h **** 
  27:src/../h/Thread.h ****     bool isFinished(){return finished;};
  28:src/../h/Thread.h **** 	
  29:src/../h/Thread.h **** 	uint64 getTimeSlice() const {
  30:src/../h/Thread.h **** 		return timeSlice;
  31:src/../h/Thread.h **** 	}
  32:src/../h/Thread.h ****     void setFinished(bool finished){Thread::finished = finished;};
 479              		.loc 4 32 37
 480              		.loc 4 32 54 is_stmt 0
 481 01d8 13071000 		li	a4,1
 482              	.LVL27:
 483 01dc A380E704 		sb	a4,65(a5)
 484              	.LVL28:
 485              	.LBE192:
 486              	.LBE191:
  50:src/riscv.cpp **** 				}else {
 487              		.loc 1 50 6 is_stmt 1
 488              	.LBB193:
 489              	.LBB194:
 170:src/../h/riscv.h ****     }
 490              		.loc 2 170 9
 491 01e0 93070000 		li	a5,0
 492              	 #APP
 493              	# 170 "src/../h/riscv.h" 1
 494              		mv a0, a5
GAS LISTING C:\msys64\tmp\ccfzZER6.s 			page 18


 495              	# 0 "" 2
 496              	.LVL29:
 497              	 #NO_APP
 498              	.L23:
 499              	.LBE194:
 500              	.LBE193:
  56:src/riscv.cpp **** 				break;
 501              		.loc 1 56 5
  56:src/riscv.cpp **** 				break;
 502              		.loc 1 56 21 is_stmt 0
 503 01e8 97000000 		call	_ZN6Thread8dispatchEv
 503      E7800000 
 504              	.LVL30:
  57:src/riscv.cpp **** 			}
 505              		.loc 1 57 5 is_stmt 1
 506 01f0 6FF09FF1 		j	.L5
 507              	.LVL31:
 508              	.L22:
  52:src/riscv.cpp **** 				}
 509              		.loc 1 52 6
 510              	.LBB195:
 511              	.LBB196:
 170:src/../h/riscv.h ****     }
 512              		.loc 2 170 9
 513 01f4 9307F0FF 		li	a5,-1
 514              	 #APP
 515              	# 170 "src/../h/riscv.h" 1
 516              		mv a0, a5
 517              	# 0 "" 2
 518              		.loc 2 171 5 is_stmt 0
 519              	 #NO_APP
 520 01fc 6FF0DFFE 		j	.L23
 521              	.LVL32:
 522              	.L14:
 523              	.LBE196:
 524              	.LBE195:
  59:src/riscv.cpp **** 				Thread::timeSliceCounter = 0;
 525              		.loc 1 59 4 is_stmt 1
  59:src/riscv.cpp **** 				Thread::timeSliceCounter = 0;
 526              		.loc 1 59 15
  60:src/riscv.cpp **** 				Thread::dispatch();
 527              		.loc 1 60 5
  60:src/riscv.cpp **** 				Thread::dispatch();
 528              		.loc 1 60 30 is_stmt 0
 529 0200 97070000 		sd	zero,_ZN6Thread16timeSliceCounterE,a5
 529      23B00700 
  61:src/riscv.cpp **** 				break;
 530              		.loc 1 61 5 is_stmt 1
  61:src/riscv.cpp **** 				break;
 531              		.loc 1 61 21 is_stmt 0
 532 0208 97000000 		call	_ZN6Thread8dispatchEv
 532      E7800000 
 533              	.LVL33:
  62:src/riscv.cpp **** 			}
 534              		.loc 1 62 5 is_stmt 1
 535 0210 6FF09FEF 		j	.L5
 536              	.LVL34:
GAS LISTING C:\msys64\tmp\ccfzZER6.s 			page 19


 537              	.L13:
  64:src/riscv.cpp **** 				Semaphore** handle = (Semaphore**) a1;
 538              		.loc 1 64 4
  64:src/riscv.cpp **** 				Semaphore** handle = (Semaphore**) a1;
 539              		.loc 1 64 15
 540              	.LBB197:
  65:src/riscv.cpp **** 
 541              		.loc 1 65 5
  68:src/riscv.cpp **** 
 542              		.loc 1 68 5
 543              	.LBB198:
 544              	.LBB199:
 545              		.file 5 "src/../h/Semaphore.h"
   1:src/../h/Semaphore.h **** //
   2:src/../h/Semaphore.h **** // Created by os on 4/6/26.
   3:src/../h/Semaphore.h **** //
   4:src/../h/Semaphore.h **** 
   5:src/../h/Semaphore.h **** #ifndef PROJECT_BASE_V1_1_SEMAPHORE_H
   6:src/../h/Semaphore.h **** #define PROJECT_BASE_V1_1_SEMAPHORE_H
   7:src/../h/Semaphore.h **** #include "../lib/hw.h"
   8:src/../h/Semaphore.h **** #include "../h/MemoryAllocator.h"
   9:src/../h/Semaphore.h **** class Thread;
  10:src/../h/Semaphore.h **** 
  11:src/../h/Semaphore.h **** class Semaphore {
  12:src/../h/Semaphore.h **** public:
  13:src/../h/Semaphore.h **** 
  14:src/../h/Semaphore.h ****     void* operator new(size_t size){
  15:src/../h/Semaphore.h ****         void* ptr = MemoryAllocator::kmalloc(size);
 546              		.loc 5 15 9
 547              		.loc 5 15 45 is_stmt 0
 548 0214 13050002 		li	a0,32
 549 0218 97000000 		call	_ZN15MemoryAllocator7kmallocEm
 549      E7800000 
 550              	.LVL35:
 551              	.LEHE0:
 552 0220 93090500 		mv	s3,a0
 553              	.LVL36:
  16:src/../h/Semaphore.h ****         return ptr;
 554              		.loc 5 16 9 is_stmt 1
 555              	.LBE199:
 556              	.LBE198:
  68:src/riscv.cpp **** 
 557              		.loc 1 68 31 is_stmt 0
 558 0224 9B050900 		sext.w	a1,s2
 559              	.LEHB1:
 560 0228 97000000 		call	_ZN9SemaphoreC1Ei
 560      E7800000 
 561              	.LVL37:
 562              	.LEHE1:
  68:src/riscv.cpp **** 
 563              		.loc 1 68 13 discriminator 2
 564 0230 23B03401 		sd	s3,0(s1)
  70:src/riscv.cpp **** 					writeARegister(0, 0);
 565              		.loc 1 70 5 is_stmt 1 discriminator 2
 566 0234 63880900 		beq	s3,zero,.L24
  71:src/riscv.cpp **** 				} else
 567              		.loc 1 71 6
GAS LISTING C:\msys64\tmp\ccfzZER6.s 			page 20


 568              	.LVL38:
 569              	.LBB200:
 570              	.LBB201:
 170:src/../h/riscv.h ****     }
 571              		.loc 2 170 9
 572 0238 93070000 		li	a5,0
 573              	 #APP
 574              	# 170 "src/../h/riscv.h" 1
 575              		mv a0, a5
 576              	# 0 "" 2
 577              		.loc 2 171 5 is_stmt 0
 578              	 #NO_APP
 579 0240 6FF09FEC 		j	.L5
 580              	.LVL39:
 581              	.L24:
 582              	.LBE201:
 583              	.LBE200:
  73:src/riscv.cpp **** 				break;
 584              		.loc 1 73 6 is_stmt 1
 585              	.LBB202:
 586              	.LBB203:
 170:src/../h/riscv.h ****     }
 587              		.loc 2 170 9
 588 0244 9307F0FF 		li	a5,-1
 589              	 #APP
 590              	# 170 "src/../h/riscv.h" 1
 591              		mv a0, a5
 592              	# 0 "" 2
 593              		.loc 2 171 5 is_stmt 0
 594              	 #NO_APP
 595 024c 6FF0DFEB 		j	.L5
 596              	.LVL40:
 597              	.L12:
 598              	.LBE203:
 599              	.LBE202:
 600              	.LBE197:
  76:src/riscv.cpp **** 				Semaphore* s = (Semaphore*)a1;
 601              		.loc 1 76 4 is_stmt 1
  76:src/riscv.cpp **** 				Semaphore* s = (Semaphore*)a1;
 602              		.loc 1 76 15
 603              	.LBB204:
  77:src/riscv.cpp **** 				if (s == nullptr) {
 604              		.loc 1 77 5
  78:src/riscv.cpp **** 					writeARegister(0, -1);
 605              		.loc 1 78 5
 606 0250 63980400 		bne	s1,zero,.L25
  79:src/riscv.cpp **** 				}else {
 607              		.loc 1 79 6
 608              	.LVL41:
 609              	.LBB205:
 610              	.LBB206:
 170:src/../h/riscv.h ****     }
 611              		.loc 2 170 9
 612 0254 9307F0FF 		li	a5,-1
 613              	 #APP
 614              	# 170 "src/../h/riscv.h" 1
 615              		mv a0, a5
GAS LISTING C:\msys64\tmp\ccfzZER6.s 			page 21


 616              	# 0 "" 2
 617              		.loc 2 171 5 is_stmt 0
 618              	 #NO_APP
 619 025c 6FF0DFEA 		j	.L5
 620              	.LVL42:
 621              	.L25:
 622              	.LBE206:
 623              	.LBE205:
  81:src/riscv.cpp **** 					delete s;
 624              		.loc 1 81 6 is_stmt 1
  81:src/riscv.cpp **** 					delete s;
 625              		.loc 1 81 32 is_stmt 0
 626 0260 13850400 		mv	a0,s1
 627              	.LEHB2:
 628 0264 97000000 		call	_ZN9Semaphore5closeEv
 628      E7800000 
 629              	.LVL43:
 630              	.LBB207:
 631              	.LBB208:
 170:src/../h/riscv.h ****     }
 632              		.loc 2 170 9 is_stmt 1
 633              	 #APP
 634              	# 170 "src/../h/riscv.h" 1
 635              		mv a0, a0
 636              	# 0 "" 2
 637              	.LVL44:
 638              	 #NO_APP
 639              	.LBE208:
 640              	.LBE207:
  82:src/riscv.cpp **** 				}
 641              		.loc 1 82 6
  82:src/riscv.cpp **** 				}
 642              		.loc 1 82 13 is_stmt 0
 643 0270 13850400 		mv	a0,s1
 644 0274 97000000 		call	_ZdlPv
 644      E7800000 
 645              	.LVL45:
 646 027c 6FF0DFE8 		j	.L5
 647              	.LVL46:
 648              	.L11:
 649              	.LBE204:
  87:src/riscv.cpp **** 				Semaphore* s = (Semaphore*)a1;
 650              		.loc 1 87 4 is_stmt 1
  87:src/riscv.cpp **** 				Semaphore* s = (Semaphore*)a1;
 651              		.loc 1 87 15
 652              	.LBB209:
  88:src/riscv.cpp **** 				if (s == nullptr) {
 653              		.loc 1 88 5
  89:src/riscv.cpp **** 					writeARegister(0, -1);
 654              		.loc 1 89 5
 655 0280 63980400 		bne	s1,zero,.L26
  90:src/riscv.cpp **** 				}else {
 656              		.loc 1 90 6
 657              	.LVL47:
 658              	.LBB210:
 659              	.LBB211:
 170:src/../h/riscv.h ****     }
GAS LISTING C:\msys64\tmp\ccfzZER6.s 			page 22


 660              		.loc 2 170 9
 661 0284 9307F0FF 		li	a5,-1
 662              	 #APP
 663              	# 170 "src/../h/riscv.h" 1
 664              		mv a0, a5
 665              	# 0 "" 2
 666              		.loc 2 171 5 is_stmt 0
 667              	 #NO_APP
 668 028c 6FF0DFE7 		j	.L5
 669              	.LVL48:
 670              	.L26:
 671              	.LBE211:
 672              	.LBE210:
  92:src/riscv.cpp **** 				}
 673              		.loc 1 92 6 is_stmt 1
  92:src/riscv.cpp **** 				}
 674              		.loc 1 92 31 is_stmt 0
 675 0290 13850400 		mv	a0,s1
 676 0294 97000000 		call	_ZN9Semaphore4waitEv
 676      E7800000 
 677              	.LVL49:
 678              	.LBB212:
 679              	.LBB213:
 170:src/../h/riscv.h ****     }
 680              		.loc 2 170 9 is_stmt 1
 681              	 #APP
 682              	# 170 "src/../h/riscv.h" 1
 683              		mv a0, a0
 684              	# 0 "" 2
 685              		.loc 2 171 5 is_stmt 0
 686              	 #NO_APP
 687 02a0 6FF09FE6 		j	.L5
 688              	.LVL50:
 689              	.L10:
 690              	.LBE213:
 691              	.LBE212:
 692              	.LBE209:
  97:src/riscv.cpp **** 				Semaphore* s = (Semaphore*)a1;
 693              		.loc 1 97 4 is_stmt 1
  97:src/riscv.cpp **** 				Semaphore* s = (Semaphore*)a1;
 694              		.loc 1 97 15
 695              	.LBB214:
  98:src/riscv.cpp **** 				if (s == nullptr) {
 696              		.loc 1 98 5
  99:src/riscv.cpp **** 					writeARegister(0, -1);
 697              		.loc 1 99 5
 698 02a4 63980400 		bne	s1,zero,.L27
 100:src/riscv.cpp **** 				}else {
 699              		.loc 1 100 6
 700              	.LVL51:
 701              	.LBB215:
 702              	.LBB216:
 170:src/../h/riscv.h ****     }
 703              		.loc 2 170 9
 704 02a8 9307F0FF 		li	a5,-1
 705              	 #APP
 706              	# 170 "src/../h/riscv.h" 1
GAS LISTING C:\msys64\tmp\ccfzZER6.s 			page 23


 707              		mv a0, a5
 708              	# 0 "" 2
 709              		.loc 2 171 5 is_stmt 0
 710              	 #NO_APP
 711 02b0 6FF09FE5 		j	.L5
 712              	.LVL52:
 713              	.L27:
 714              	.LBE216:
 715              	.LBE215:
 102:src/riscv.cpp **** 				}
 716              		.loc 1 102 6 is_stmt 1
 102:src/riscv.cpp **** 				}
 717              		.loc 1 102 33 is_stmt 0
 718 02b4 13850400 		mv	a0,s1
 719 02b8 97000000 		call	_ZN9Semaphore6signalEv
 719      E7800000 
 720              	.LVL53:
 721              	.LBB217:
 722              	.LBB218:
 170:src/../h/riscv.h ****     }
 723              		.loc 2 170 9 is_stmt 1
 724              	 #APP
 725              	# 170 "src/../h/riscv.h" 1
 726              		mv a0, a0
 727              	# 0 "" 2
 728              		.loc 2 171 5 is_stmt 0
 729              	 #NO_APP
 730 02c4 6FF05FE4 		j	.L5
 731              	.LVL54:
 732              	.L9:
 733              	.LBE218:
 734              	.LBE217:
 735              	.LBE214:
 106:src/riscv.cpp **** 				if (Thread::running == nullptr) {
 736              		.loc 1 106 4 is_stmt 1
 106:src/riscv.cpp **** 				if (Thread::running == nullptr) {
 737              		.loc 1 106 15
 107:src/riscv.cpp **** 					writeARegister(0, -1);
 738              		.loc 1 107 5
 107:src/riscv.cpp **** 					writeARegister(0, -1);
 739              		.loc 1 107 25 is_stmt 0
 740 02c8 17050000 		ld	a0,_ZN6Thread7runningE
 740      03350500 
 107:src/riscv.cpp **** 					writeARegister(0, -1);
 741              		.loc 1 107 5
 742 02d0 630E0500 		beq	a0,zero,.L45
 110:src/riscv.cpp **** 					writeARegister(0, 0);
 743              		.loc 1 110 6 is_stmt 1
 110:src/riscv.cpp **** 					writeARegister(0, 0);
 744              		.loc 1 110 35 is_stmt 0
 745 02d4 93850400 		mv	a1,s1
 746              	.LVL55:
 747 02d8 97000000 		call	_ZN6Thread10time_sleepEm
 747      E7800000 
 748              	.LVL56:
 111:src/riscv.cpp **** 				}
 749              		.loc 1 111 6 is_stmt 1
GAS LISTING C:\msys64\tmp\ccfzZER6.s 			page 24


 750              	.LBB219:
 751              	.LBB220:
 170:src/../h/riscv.h ****     }
 752              		.loc 2 170 9
 753 02e0 93070000 		li	a5,0
 754              	 #APP
 755              	# 170 "src/../h/riscv.h" 1
 756              		mv a0, a5
 757              	# 0 "" 2
 758              		.loc 2 171 5 is_stmt 0
 759              	 #NO_APP
 760 02e8 6FF01FE2 		j	.L5
 761              	.LVL57:
 762              	.L45:
 763              	.LBE220:
 764              	.LBE219:
 108:src/riscv.cpp **** 				}else {
 765              		.loc 1 108 6 is_stmt 1
 766              	.LBB221:
 767              	.LBB222:
 170:src/../h/riscv.h ****     }
 768              		.loc 2 170 9
 769 02ec 9307F0FF 		li	a5,-1
 770              	 #APP
 771              	# 170 "src/../h/riscv.h" 1
 772              		mv a0, a5
 773              	# 0 "" 2
 774              		.loc 2 171 5 is_stmt 0
 775              	 #NO_APP
 776 02f4 6FF05FE1 		j	.L5
 777              	.LVL58:
 778              	.L8:
 779              	.LBE222:
 780              	.LBE221:
 116:src/riscv.cpp **** 				char c = Console::getc();
 781              		.loc 1 116 4 is_stmt 1
 116:src/riscv.cpp **** 				char c = Console::getc();
 782              		.loc 1 116 15
 783              	.LBB223:
 117:src/riscv.cpp **** 				writeARegister(0, (uint64)c);
 784              		.loc 1 117 5
 117:src/riscv.cpp **** 				writeARegister(0, (uint64)c);
 785              		.loc 1 117 27 is_stmt 0
 786 02f8 97000000 		call	_ZN7Console4getcEv
 786      E7800000 
 787              	.LVL59:
 118:src/riscv.cpp **** 				break;
 788              		.loc 1 118 5 is_stmt 1
 789              	.LBB224:
 790              	.LBB225:
 170:src/../h/riscv.h ****     }
 791              		.loc 2 170 9
 792              	 #APP
 793              	# 170 "src/../h/riscv.h" 1
 794              		mv a0, a0
 795              	# 0 "" 2
 796              		.loc 2 171 5 is_stmt 0
GAS LISTING C:\msys64\tmp\ccfzZER6.s 			page 25


 797              	 #NO_APP
 798 0304 6FF05FE0 		j	.L5
 799              	.LVL60:
 800              	.L6:
 801              	.LBE225:
 802              	.LBE224:
 803              	.LBE223:
 122:src/riscv.cpp **** 				char c = (char)a1; // Karakter koji je korisnik prosledio
 804              		.loc 1 122 4 is_stmt 1
 122:src/riscv.cpp **** 				char c = (char)a1; // Karakter koji je korisnik prosledio
 805              		.loc 1 122 15
 806              	.LBB226:
 123:src/riscv.cpp **** 				Console::putc(c);
 807              		.loc 1 123 5
 124:src/riscv.cpp **** 				break;
 808              		.loc 1 124 5
 124:src/riscv.cpp **** 				break;
 809              		.loc 1 124 18 is_stmt 0
 810 0308 13F5F40F 		andi	a0,s1,0xff
 811 030c 97000000 		call	_ZN7Console4putcEc
 811      E7800000 
 812              	.LVL61:
 125:src/riscv.cpp **** 			}
 813              		.loc 1 125 5 is_stmt 1
 814 0314 6FF05FDF 		j	.L5
 815              	.LVL62:
 816              	.L44:
 817              	.LBE226:
 818              	.LBE232:
 819              	.LBE234:
 820              	.LBB235:
 821              	.LBB148:
 136:src/riscv.cpp **** 
 822              		.loc 1 136 6
 136:src/riscv.cpp **** 
 823              		.loc 1 136 26 is_stmt 0
 824 0318 97000000 		call	plic_claim
 824      E7800000 
 825              	.LVL63:
 826 0320 13090500 		mv	s2,a0
 827              	.LVL64:
 138:src/riscv.cpp **** 
 828              		.loc 1 138 6 is_stmt 1
 829              	.LBB149:
 830 0324 9307A000 		li	a5,10
 831 0328 6302F504 		beq	a0,a5,.L33
 832              	.LVL65:
 833              	.L31:
 834              	.LBE149:
 155:src/riscv.cpp ****     } else if (scause == 0x8000000000000001UL) {
 835              		.loc 1 155 6
 155:src/riscv.cpp ****     } else if (scause == 0x8000000000000001UL) {
 836              		.loc 1 155 19 is_stmt 0
 837 032c 13050900 		mv	a0,s2
 838 0330 97000000 		call	plic_complete
 838      E7800000 
 839              	.LVL66:
GAS LISTING C:\msys64\tmp\ccfzZER6.s 			page 26


 840              	.LBE148:
 841 0338 6FF01FDE 		j	.L3
 842              	.L46:
 843              	.LBB166:
 844              	.LBB165:
 845              	.LBB150:
 846              	.LBB151:
 142:src/riscv.cpp ****     		Console::getInBuff()->put(c);
 847              		.loc 1 142 7 is_stmt 1
 142:src/riscv.cpp ****     		Console::getInBuff()->put(c);
 848              		.loc 1 142 16 is_stmt 0
 849 033c 97070000 		ld	a5,CONSOLE_RX_DATA
 849      83B70700 
 142:src/riscv.cpp ****     		Console::getInBuff()->put(c);
 850              		.loc 1 142 50
 851 0344 83C50700 		lbu	a1,0(a5)
 852              	.LVL67:
 143:src/riscv.cpp ****     		Console::getInSem()->signal();
 853              		.loc 1 143 7 is_stmt 1
 854              	.LBB152:
 855              	.LBB153:
 856              		.file 6 "src/../h/Console.h"
   1:src/../h/Console.h **** #ifndef PROJEKAT_CONSOLE_H
   2:src/../h/Console.h **** #define PROJEKAT_CONSOLE_H
   3:src/../h/Console.h **** 
   4:src/../h/Console.h **** #include "../h/Semaphore.h"
   5:src/../h/Console.h **** #include "../h/Buffer.h"
   6:src/../h/Console.h **** 
   7:src/../h/Console.h **** class Console {
   8:src/../h/Console.h **** public:
   9:src/../h/Console.h ****     // Zabrana pravljenja objekata klase Console
  10:src/../h/Console.h ****     Console() = delete;
  11:src/../h/Console.h ****     Console(const Console&) = delete;
  12:src/../h/Console.h ****     Console& operator=(const Console&) = delete;
  13:src/../h/Console.h **** 
  14:src/../h/Console.h ****     // Funkcija koju pozivaš u main-u pre pokretanja niti i prekida
  15:src/../h/Console.h ****     static void init();
  16:src/../h/Console.h **** 
  17:src/../h/Console.h ****     // Sistemski pozivi (0x41 i 0x42)
  18:src/../h/Console.h ****     static char getc();
  19:src/../h/Console.h ****     static void putc(char c);
  20:src/../h/Console.h **** 
  21:src/../h/Console.h ****     // Geteri za prekidnu rutinu (console_handler)
  22:src/../h/Console.h ****     static Buffer* getInBuff() { return inbuff; }
 857              		.loc 6 22 34
 858              	.LBE153:
 859              	.LBE152:
 143:src/riscv.cpp ****     		Console::getInSem()->signal();
 860              		.loc 1 143 32 is_stmt 0
 861 0348 93F5F50F 		andi	a1,a1,0xff
 862 034c 17050000 		ld	a0,_ZN7Console6inbuffE
 862      03350500 
 863 0354 97000000 		call	_ZN6Buffer3putEc
 863      E7800000 
 864              	.LVL68:
 144:src/riscv.cpp ****     	}
 865              		.loc 1 144 7 is_stmt 1
GAS LISTING C:\msys64\tmp\ccfzZER6.s 			page 27


 866              	.LBB154:
 867              	.LBB155:
  23:src/../h/Console.h ****     static Buffer* getOutBuff() { return outbuff; }
  24:src/../h/Console.h ****     static Semaphore* getInSem() { return inSem; }
 868              		.loc 6 24 36
 869              	.LBE155:
 870              	.LBE154:
 144:src/riscv.cpp ****     	}
 871              		.loc 1 144 34 is_stmt 0
 872 035c 17050000 		ld	a0,_ZN7Console5inSemE
 872      03350500 
 873 0364 97000000 		call	_ZN9Semaphore6signalEv
 873      E7800000 
 874              	.LVL69:
 875              	.L33:
 876              	.LBE151:
 141:src/riscv.cpp ****     		char c = *((volatile uint8*)CONSOLE_RX_DATA);
 877              		.loc 1 141 6 is_stmt 1
 141:src/riscv.cpp ****     		char c = *((volatile uint8*)CONSOLE_RX_DATA);
 878              		.loc 1 141 57
 141:src/riscv.cpp ****     		char c = *((volatile uint8*)CONSOLE_RX_DATA);
 879              		.loc 1 141 14 is_stmt 0
 880 036c 97040000 		ld	s1,CONSOLE_STATUS
 880      83B40400 
 881 0374 83C70400 		lbu	a5,0(s1)
 141:src/riscv.cpp ****     		char c = *((volatile uint8*)CONSOLE_RX_DATA);
 882              		.loc 1 141 57
 883 0378 93F71700 		andi	a5,a5,1
 884 037c 638C0700 		beq	a5,zero,.L34
 885              	.LBB156:
 886              	.LBB157:
  22:src/../h/Console.h ****     static Buffer* getOutBuff() { return outbuff; }
 887              		.loc 6 22 34 is_stmt 1
 888              	.LBE157:
 889              	.LBE156:
 141:src/riscv.cpp ****     		char c = *((volatile uint8*)CONSOLE_RX_DATA);
 890              		.loc 1 141 89 is_stmt 0
 891 0380 17050000 		ld	a0,_ZN7Console6inbuffE
 891      03350500 
 892 0388 97000000 		call	_ZN6Buffer6isFullEv
 892      E7800000 
 893              	.LVL70:
 141:src/riscv.cpp ****     		char c = *((volatile uint8*)CONSOLE_RX_DATA);
 894              		.loc 1 141 57
 895 0390 E30605FA 		beq	a0,zero,.L46
 896              	.L34:
 148:src/riscv.cpp ****     		char c = Console::getOutBuff()->get();
 897              		.loc 1 148 6 is_stmt 1
 148:src/riscv.cpp ****     		char c = Console::getOutBuff()->get();
 898              		.loc 1 148 57
 148:src/riscv.cpp ****     		char c = Console::getOutBuff()->get();
 899              		.loc 1 148 14 is_stmt 0
 900 0394 83C70400 		lbu	a5,0(s1)
 148:src/riscv.cpp ****     		char c = Console::getOutBuff()->get();
 901              		.loc 1 148 57
 902 0398 93F70702 		andi	a5,a5,32
 903 039c E38807F8 		beq	a5,zero,.L31
GAS LISTING C:\msys64\tmp\ccfzZER6.s 			page 28


 904              	.LBB158:
 905              	.LBB159:
  23:src/../h/Console.h ****     static Semaphore* getInSem() { return inSem; }
 906              		.loc 6 23 35 is_stmt 1
 907              	.LBE159:
 908              	.LBE158:
 148:src/riscv.cpp ****     		char c = Console::getOutBuff()->get();
 909              		.loc 1 148 91 is_stmt 0
 910 03a0 17050000 		ld	a0,_ZN7Console7outbuffE
 910      03350500 
 911 03a8 97000000 		call	_ZN6Buffer7isEmptyEv
 911      E7800000 
 912              	.LVL71:
 148:src/riscv.cpp ****     		char c = Console::getOutBuff()->get();
 913              		.loc 1 148 57
 914 03b0 E31E05F6 		bne	a0,zero,.L31
 915              	.LBB160:
 149:src/riscv.cpp ****     		*((volatile uint8*)CONSOLE_TX_DATA) = (uint8)c;
 916              		.loc 1 149 7 is_stmt 1
 917              	.LBB161:
 918              	.LBB162:
  23:src/../h/Console.h ****     static Semaphore* getInSem() { return inSem; }
 919              		.loc 6 23 35
 920              	.LBE162:
 921              	.LBE161:
 149:src/riscv.cpp ****     		*((volatile uint8*)CONSOLE_TX_DATA) = (uint8)c;
 922              		.loc 1 149 42 is_stmt 0
 923 03b4 17050000 		ld	a0,_ZN7Console7outbuffE
 923      03350500 
 924 03bc 97000000 		call	_ZN6Buffer3getEv
 924      E7800000 
 925              	.LVL72:
 150:src/riscv.cpp ****     		Console::getOutSem()->signal();
 926              		.loc 1 150 7 is_stmt 1
 927 03c4 97070000 		ld	a5,CONSOLE_TX_DATA
 927      83B70700 
 150:src/riscv.cpp ****     		Console::getOutSem()->signal();
 928              		.loc 1 150 43 is_stmt 0
 929 03cc 2380A700 		sb	a0,0(a5)
 151:src/riscv.cpp ****     	}
 930              		.loc 1 151 7 is_stmt 1
 931              	.LBB163:
 932              	.LBB164:
  25:src/../h/Console.h ****     static Semaphore* getOutSem() { return outSem; }
 933              		.loc 6 25 37
 934              	.LBE164:
 935              	.LBE163:
 151:src/riscv.cpp ****     	}
 936              		.loc 1 151 35 is_stmt 0
 937 03d0 17050000 		ld	a0,_ZN7Console6outSemE
 937      03350500 
 938              	.LVL73:
 939 03d8 97000000 		call	_ZN9Semaphore6signalEv
 939      E7800000 
 940              	.LVL74:
 941              	.LBE160:
 148:src/riscv.cpp ****     		char c = Console::getOutBuff()->get();
GAS LISTING C:\msys64\tmp\ccfzZER6.s 			page 29


 942              		.loc 1 148 6
 943 03e0 6FF05FFB 		j	.L34
 944              	.LVL75:
 945              	.L37:
 946              	.LBE150:
 947              	.LBE165:
 948              	.LBE166:
 949              	.LBB167:
 950              	.LBB146:
 951              	.LBB130:
 952              	.LBB129:
 953              	.LBB120:
 954              	.LBB121:
 955              	.LBB122:
  12:src/../h/Scheduler.h **** 
 956              		.loc 3 12 61 is_stmt 1
 957              	.LBE122:
 958              	.LBE121:
 170:src/riscv.cpp ****     		}
 959              		.loc 1 170 33 is_stmt 0
 960 03e4 17050000 		lla	a0,_ZZN9Scheduler8instanceEvE8instance
 960      13050500 
 961 03ec 97000000 		call	_ZN9Scheduler3putEP6Thread
 961      E7800000 
 962              	.LVL76:
 963              	.L38:
 964              	.LBE120:
 163:src/riscv.cpp ****     			Thread* t = Thread::sleepingHead;
 965              		.loc 1 163 7 is_stmt 1
 163:src/riscv.cpp ****     			Thread* t = Thread::sleepingHead;
 966              		.loc 1 163 35
 163:src/riscv.cpp ****     			Thread* t = Thread::sleepingHead;
 967              		.loc 1 163 22 is_stmt 0
 968 03f4 97050000 		ld	a1,_ZN6Thread12sleepingHeadE
 968      83B50500 
 163:src/riscv.cpp ****     			Thread* t = Thread::sleepingHead;
 969              		.loc 1 163 35
 970 03fc 63880504 		beq	a1,zero,.L35
 163:src/riscv.cpp ****     			Thread* t = Thread::sleepingHead;
 971              		.loc 1 163 62 discriminator 1
 972 0400 83B78504 		ld	a5,72(a1)
 163:src/riscv.cpp ****     			Thread* t = Thread::sleepingHead;
 973              		.loc 1 163 35 discriminator 1
 974 0404 63940704 		bne	a5,zero,.L35
 975              	.LBB128:
 164:src/riscv.cpp **** 
 976              		.loc 1 164 8 is_stmt 1
 977              	.LVL77:
 166:src/riscv.cpp **** 
 978              		.loc 1 166 8
 166:src/riscv.cpp **** 
 979              		.loc 1 166 34 is_stmt 0
 980 0408 83B78500 		ld	a5,8(a1)
 166:src/riscv.cpp **** 
 981              		.loc 1 166 29
 982 040c 17070000 		sd	a5,_ZN6Thread12sleepingHeadE,a4
 982      2330F700 
GAS LISTING C:\msys64\tmp\ccfzZER6.s 			page 30


 168:src/riscv.cpp ****     			t->isReady = true;
 983              		.loc 1 168 8 is_stmt 1
 168:src/riscv.cpp ****     			t->isReady = true;
 984              		.loc 1 168 20 is_stmt 0
 985 0414 23B40500 		sd	zero,8(a1)
 169:src/riscv.cpp ****     			Scheduler::instance().put(t);
 986              		.loc 1 169 8 is_stmt 1
 169:src/riscv.cpp ****     			Scheduler::instance().put(t);
 987              		.loc 1 169 19 is_stmt 0
 988 0418 93071000 		li	a5,1
 989 041c 2380F504 		sb	a5,64(a1)
 170:src/riscv.cpp ****     		}
 990              		.loc 1 170 8 is_stmt 1
 991              	.LBB127:
 992              	.LBB126:
  12:src/../h/Scheduler.h **** 
 993              		.loc 3 12 34
  12:src/../h/Scheduler.h **** 
 994              		.loc 3 12 51 is_stmt 0
 995 0420 97070000 		lbu	a5,_ZGVZN9Scheduler8instanceEvE8instance
 995      83C70700 
 996 0428 E39E07FA 		bne	a5,zero,.L37
 997              	.LVL78:
 998              	.LBB123:
 999              	.LBB124:
 1000              	.LBB125:
 1001              		.loc 3 22 44
 1002 042c 97070000 		lla	a5,_ZZN9Scheduler8instanceEvE8instance
 1002      93870700 
 1003 0434 23B00700 		sd	zero,0(a5)
 1004 0438 23B40700 		sd	zero,8(a5)
 1005              	.LVL79:
 1006              	.LBE125:
 1007              	.LBE124:
 1008              	.LBE123:
  12:src/../h/Scheduler.h **** 
 1009              		.loc 3 12 51
 1010 043c 93071000 		li	a5,1
 1011 0440 17070000 		sb	a5,_ZGVZN9Scheduler8instanceEvE8instance,a4
 1011      2300F700 
 1012 0448 6FF0DFF9 		j	.L37
 1013              	.LVL80:
 1014              	.L35:
 1015              	.LBE126:
 1016              	.LBE127:
 1017              	.LBE128:
 1018              	.LBE129:
 1019              	.LBE130:
 174:src/riscv.cpp ****     {
 1020              		.loc 1 174 5 is_stmt 1
 1021              	.LBB131:
 174:src/riscv.cpp ****     {
 1022              		.loc 1 174 67 is_stmt 0
 1023 044c 97070000 		ld	a5,_ZN6Thread7runningE
 1023      83B70700 
 1024              	.LVL81:
 1025              	.LBB132:
GAS LISTING C:\msys64\tmp\ccfzZER6.s 			page 31


 1026              	.LBB133:
  30:src/../h/Thread.h **** 	}
 1027              		.loc 4 30 3 is_stmt 1
  30:src/../h/Thread.h **** 	}
 1028              		.loc 4 30 10 is_stmt 0
 1029 0454 83B78703 		ld	a5,56(a5)
 1030              	.LVL82:
 1031              	.LBE133:
 1032              	.LBE132:
 174:src/riscv.cpp ****     {
 1033              		.loc 1 174 33
 1034 0458 17070000 		ld	a4,_ZN6Thread16timeSliceCounterE
 1034      03370700 
 174:src/riscv.cpp ****     {
 1035              		.loc 1 174 5
 1036 0460 6378F700 		bgeu	a4,a5,.L47
 1037              	.L39:
 1038              	.LBE131:
 184:src/riscv.cpp ****     }
 1039              		.loc 1 184 9 is_stmt 1
 1040              	.LVL83:
 1041              	.LBB143:
 1042              	.LBB144:
 125:src/../h/riscv.h ****     }
 1043              		.loc 2 125 9
 1044 0464 93072000 		li	a5,2
 1045              	 #APP
 1046              	# 125 "src/../h/riscv.h" 1
 1047              		csrc sip, a5
 1048              	# 0 "" 2
 1049              	.LVL84:
 1050              	 #NO_APP
 1051              	.LBE144:
 1052              	.LBE143:
 1053              	.LBE146:
 1054              	.LBE167:
 1055              	.LBE235:
 1056              	.LBE240:
 1057              		.loc 1 186 1 is_stmt 0
 1058 046c 6FF0DFCA 		j	.L3
 1059              	.L47:
 1060              	.LBB241:
 1061              	.LBB236:
 1062              	.LBB168:
 1063              	.LBB147:
 1064              	.LBB145:
 1065              	.LBB134:
 176:src/riscv.cpp ****     	uint64 volatile sstatus = r_sstatus();
 1066              		.loc 1 176 6 is_stmt 1
 1067              	.LBB135:
 1068              	.LBB136:
  84:src/../h/riscv.h ****         __asm__ volatile ("csrr %[sepc], sepc" : [sepc] "=r"(sepc));
 1069              		.loc 2 84 9
  85:src/../h/riscv.h ****         return sepc;
 1070              		.loc 2 85 9
 1071              	 #APP
 1072              	# 85 "src/../h/riscv.h" 1
GAS LISTING C:\msys64\tmp\ccfzZER6.s 			page 32


 1073              		csrr a5, sepc
 1074              	# 0 "" 2
 1075              	 #NO_APP
 1076 0474 2334F4FC 		sd	a5,-56(s0)
  86:src/../h/riscv.h ****     }
 1077              		.loc 2 86 9
  86:src/../h/riscv.h ****     }
 1078              		.loc 2 86 16 is_stmt 0
 1079 0478 833784FC 		ld	a5,-56(s0)
 1080              	.LBE136:
 1081              	.LBE135:
 176:src/riscv.cpp ****     	uint64 volatile sstatus = r_sstatus();
 1082              		.loc 1 176 36
 1083 047c 233CF4F8 		sd	a5,-104(s0)
 177:src/riscv.cpp ****     	Thread::timeSliceCounter = 0;
 1084              		.loc 1 177 6 is_stmt 1
 1085              	.LBB137:
 1086              	.LBB138:
 152:src/../h/riscv.h ****         __asm__ volatile ("csrr %[sstatus], sstatus" : [sstatus] "=r"(sstatus));
 1087              		.loc 2 152 9
 153:src/../h/riscv.h ****         return sstatus;
 1088              		.loc 2 153 9
 1089              	 #APP
 1090              	# 153 "src/../h/riscv.h" 1
 1091              		csrr a5, sstatus
 1092              	# 0 "" 2
 1093              	 #NO_APP
 1094 0484 2330F4FC 		sd	a5,-64(s0)
 154:src/../h/riscv.h ****     }
 1095              		.loc 2 154 9
 154:src/../h/riscv.h ****     }
 1096              		.loc 2 154 16 is_stmt 0
 1097 0488 833704FC 		ld	a5,-64(s0)
 1098              	.LBE138:
 1099              	.LBE137:
 177:src/riscv.cpp ****     	Thread::timeSliceCounter = 0;
 1100              		.loc 1 177 42
 1101 048c 2330F4FA 		sd	a5,-96(s0)
 178:src/riscv.cpp ****     	Thread::dispatch();
 1102              		.loc 1 178 6 is_stmt 1
 178:src/riscv.cpp ****     	Thread::dispatch();
 1103              		.loc 1 178 31 is_stmt 0
 1104 0490 97070000 		sd	zero,_ZN6Thread16timeSliceCounterE,a5
 1104      23B00700 
 179:src/riscv.cpp ****     	w_sstatus(sstatus);
 1105              		.loc 1 179 6 is_stmt 1
 179:src/riscv.cpp ****     	w_sstatus(sstatus);
 1106              		.loc 1 179 22 is_stmt 0
 1107 0498 97000000 		call	_ZN6Thread8dispatchEv
 1107      E7800000 
 1108              	.LVL85:
 180:src/riscv.cpp ****     	w_sepc(sepc);
 1109              		.loc 1 180 6 is_stmt 1
 180:src/riscv.cpp ****     	w_sepc(sepc);
 1110              		.loc 1 180 15 is_stmt 0
 1111 04a0 833704FA 		ld	a5,-96(s0)
 1112              	.LVL86:
GAS LISTING C:\msys64\tmp\ccfzZER6.s 			page 33


 1113              	.LBB139:
 1114              	.LBB140:
 159:src/../h/riscv.h ****     }
 1115              		.loc 2 159 9 is_stmt 1
 1116              	 #APP
 1117              	# 159 "src/../h/riscv.h" 1
 1118              		csrw sstatus, a5
 1119              	# 0 "" 2
 1120              	.LVL87:
 1121              	 #NO_APP
 1122              	.LBE140:
 1123              	.LBE139:
 181:src/riscv.cpp ****     	
 1124              		.loc 1 181 6
 181:src/riscv.cpp ****     	
 1125              		.loc 1 181 12 is_stmt 0
 1126 04a8 833784F9 		ld	a5,-104(s0)
 1127              	.LVL88:
 1128              	.LBB141:
 1129              	.LBB142:
  91:src/../h/riscv.h ****     }
 1130              		.loc 2 91 9 is_stmt 1
 1131              	 #APP
 1132              	# 91 "src/../h/riscv.h" 1
  92:src/../h/riscv.h **** 
 1133              		csrw sepc, a5
 1134              	# 0 "" 2
 1135              		.loc 2 92 5 is_stmt 0
 1136              	 #NO_APP
 1137 04b0 6FF05FFB 		j	.L39
 1138              	.LVL89:
 1139              	.L41:
 1140              	.LBE142:
 1141              	.LBE141:
 1142              	.LBE134:
 1143              	.LBE145:
 1144              	.LBE147:
 1145              	.LBE168:
 1146              	.LBE236:
 1147              	.LBB237:
 1148              	.LBB233:
 1149              	.LBB227:
  68:src/riscv.cpp **** 
 1150              		.loc 1 68 31
 1151 04b4 93040500 		mv	s1,a0
 1152              	.LVL90:
 1153 04b8 13850900 		mv	a0,s3
 1154 04bc 97000000 		call	_ZdlPv
 1154      E7800000 
 1155              	.LVL91:
 1156 04c4 13850400 		mv	a0,s1
 1157 04c8 97000000 		call	_Unwind_Resume
 1157      E7800000 
 1158              	.LVL92:
 1159              	.LEHE2:
 1160              	.LBE227:
 1161              	.LBE233:
GAS LISTING C:\msys64\tmp\ccfzZER6.s 			page 34


 1162              	.LBE237:
 1163              	.LBE241:
 1164              		.cfi_endproc
 1165              	.LFE35:
 1166              		.globl	__gxx_personality_v0
 1167              		.section	.gcc_except_table,"aw",@progbits
 1168              	.LLSDA35:
 1169 0000 FF       		.byte	0xff
 1170 0001 FF       		.byte	0xff
 1171 0002 03       		.byte	0x3
 1172 0003 27       		.byte	0x27
 1173 0004 00000000 		.4byte	.LEHB0-.LFB35
 1174 0008 00000000 		.4byte	.LEHE0-.LEHB0
 1175 000c 00000000 		.4byte	0
 1176 0010 00       		.byte	0
 1177 0011 00000000 		.4byte	.LEHB1-.LFB35
 1178 0015 00000000 		.4byte	.LEHE1-.LEHB1
 1179 0019 00000000 		.4byte	.L41-.LFB35
 1180 001d 00       		.byte	0
 1181 001e 00000000 		.4byte	.LEHB2-.LFB35
 1182 0022 00000000 		.4byte	.LEHE2-.LEHB2
 1183 0026 00000000 		.4byte	0
 1184 002a 00       		.byte	0
 1185              		.text
 1187              		.weak	_ZGVZN9Scheduler8instanceEvE8instance
 1188              		.section	.sbss._ZGVZN9Scheduler8instanceEvE8instance,"awG",@nobits,_ZGVZN9Scheduler8instanceEvE8in
 1189              		.align	3
 1192              	_ZGVZN9Scheduler8instanceEvE8instance:
 1193 0000 00000000 		.zero	8
 1193      00000000 
 1194              		.weak	_ZZN9Scheduler8instanceEvE8instance
 1195              		.section	.bss._ZZN9Scheduler8instanceEvE8instance,"awG",@nobits,_ZZN9Scheduler8instanceEvE8instanc
 1196              		.align	3
 1199              	_ZZN9Scheduler8instanceEvE8instance:
 1200 0000 00000000 		.zero	16
 1200      00000000 
 1200      00000000 
 1200      00000000 
 1201              		.text
 1202              	.Letext0:
 1203              		.file 7 "src/../h/../lib/hw.h"
 1204              		.file 8 "src/../h/MemoryAllocator.h"
 1205              		.file 9 "src/../h/../h/Buffer.h"
 6745              		.align	3
 6748              	DW.ref.__gxx_personality_v0:
 6749 0000 00000000 		.dword	__gxx_personality_v0
 6749      00000000 
 6750              		.ident	"GCC: (GNU) 10.1.0"
GAS LISTING C:\msys64\tmp\ccfzZER6.s 			page 35


DEFINED SYMBOLS
                            *ABS*:0000000000000000 riscv.cpp
C:\msys64\tmp\ccfzZER6.s:12     .text:0000000000000000 _ZN5Riscv10popSppSpieEv
C:\msys64\tmp\ccfzZER6.s:16     .text:0000000000000000 .L0 
C:\msys64\tmp\ccfzZER6.s:17     .text:0000000000000000 .L0 
C:\msys64\tmp\ccfzZER6.s:18     .text:0000000000000004 .L0 
C:\msys64\tmp\ccfzZER6.s:20     .text:0000000000000008 .L0 
C:\msys64\tmp\ccfzZER6.s:22     .text:000000000000000c .L0 
       src/riscv.cpp:9      .text:000000000000000c .L0 
       src/riscv.cpp:10     .text:0000000000000010 .L0 
C:\msys64\tmp\ccfzZER6.s:34     .text:0000000000000014 .L0 
C:\msys64\tmp\ccfzZER6.s:35     .text:0000000000000018 .L0 
C:\msys64\tmp\ccfzZER6.s:36     .text:0000000000000018 .L0 
C:\msys64\tmp\ccfzZER6.s:38     .text:000000000000001c .L0 
C:\msys64\tmp\ccfzZER6.s:40     .text:0000000000000020 .L0 
C:\msys64\tmp\ccfzZER6.s:46     .text:0000000000000020 _ZN5Riscv20handleSupervisorTrapEmmmmmmmm
C:\msys64\tmp\ccfzZER6.s:49     .text:0000000000000020 .L0 
C:\msys64\tmp\ccfzZER6.s:6748   .sdata.DW.ref.__gxx_personality_v0:0000000000000000 DW.ref.__gxx_personality_v0
C:\msys64\tmp\ccfzZER6.s:53     .text:0000000000000020 .L0 
C:\msys64\tmp\ccfzZER6.s:54     .text:0000000000000024 .L0 
C:\msys64\tmp\ccfzZER6.s:60     .text:0000000000000038 .L0 
C:\msys64\tmp\ccfzZER6.s:61     .text:0000000000000038 .L0 
C:\msys64\tmp\ccfzZER6.s:62     .text:0000000000000038 .L0 
C:\msys64\tmp\ccfzZER6.s:63     .text:0000000000000038 .L0 
C:\msys64\tmp\ccfzZER6.s:64     .text:0000000000000038 .L0 
C:\msys64\tmp\ccfzZER6.s:66     .text:000000000000003c .L0 
C:\msys64\tmp\ccfzZER6.s:73     .text:0000000000000044 .L0 
C:\msys64\tmp\ccfzZER6.s:74     .text:0000000000000044 .L0 
    src/../h/riscv.h:73     .text:0000000000000044 .L0 
C:\msys64\tmp\ccfzZER6.s:83     .text:000000000000004c .L0 
C:\msys64\tmp\ccfzZER6.s:84     .text:000000000000004c .L0 
C:\msys64\tmp\ccfzZER6.s:90     .text:0000000000000050 .L0 
C:\msys64\tmp\ccfzZER6.s:91     .text:0000000000000050 .L0 
C:\msys64\tmp\ccfzZER6.s:94     .text:0000000000000054 .L0 
C:\msys64\tmp\ccfzZER6.s:100    .text:000000000000005c .L0 
C:\msys64\tmp\ccfzZER6.s:110    .text:000000000000006c .L0 
C:\msys64\tmp\ccfzZER6.s:116    .text:000000000000007c .L0 
C:\msys64\tmp\ccfzZER6.s:117    .text:000000000000007c .L0 
C:\msys64\tmp\ccfzZER6.s:124    .text:0000000000000090 .L0 
C:\msys64\tmp\ccfzZER6.s:125    .text:0000000000000090 .L0 
C:\msys64\tmp\ccfzZER6.s:127    .text:0000000000000098 .L0 
C:\msys64\tmp\ccfzZER6.s:130    .text:000000000000009c .L0 
C:\msys64\tmp\ccfzZER6.s:131    .text:000000000000009c .L0 
C:\msys64\tmp\ccfzZER6.s:133    .text:00000000000000a0 .L0 
C:\msys64\tmp\ccfzZER6.s:135    .text:00000000000000a4 .L0 
C:\msys64\tmp\ccfzZER6.s:136    .text:00000000000000a4 .L0 
C:\msys64\tmp\ccfzZER6.s:148    .text:00000000000000b0 .L0 
C:\msys64\tmp\ccfzZER6.s:151    .text:00000000000000b0 .L0 
C:\msys64\tmp\ccfzZER6.s:152    .text:00000000000000b0 .L0 
    src/../h/riscv.h:85     .text:00000000000000b0 .L0 
C:\msys64\tmp\ccfzZER6.s:160    .text:00000000000000b8 .L0 
C:\msys64\tmp\ccfzZER6.s:161    .text:00000000000000b8 .L0 
C:\msys64\tmp\ccfzZER6.s:165    .text:00000000000000bc .L0 
C:\msys64\tmp\ccfzZER6.s:167    .text:00000000000000c0 .L0 
C:\msys64\tmp\ccfzZER6.s:171    .text:00000000000000c4 .L0 
C:\msys64\tmp\ccfzZER6.s:172    .text:00000000000000c4 .L0 
    src/../h/riscv.h:153    .text:00000000000000c4 .L0 
GAS LISTING C:\msys64\tmp\ccfzZER6.s 			page 36


C:\msys64\tmp\ccfzZER6.s:180    .text:00000000000000cc .L0 
C:\msys64\tmp\ccfzZER6.s:181    .text:00000000000000cc .L0 
C:\msys64\tmp\ccfzZER6.s:185    .text:00000000000000d0 .L0 
C:\msys64\tmp\ccfzZER6.s:187    .text:00000000000000d4 .L0 
C:\msys64\tmp\ccfzZER6.s:272    .text:00000000000000f8 .L0 
C:\msys64\tmp\ccfzZER6.s:274    .text:00000000000000f8 .L0 
C:\msys64\tmp\ccfzZER6.s:276    .text:00000000000000f8 .L0 
C:\msys64\tmp\ccfzZER6.s:277    .text:00000000000000f8 .L0 
C:\msys64\tmp\ccfzZER6.s:278    .text:00000000000000f8 .L0 
    src/../h/riscv.h:170    .text:0000000000000104 .L0 
C:\msys64\tmp\ccfzZER6.s:298    .text:0000000000000108 .L0 
C:\msys64\tmp\ccfzZER6.s:299    .text:0000000000000108 .L0 
    src/../h/riscv.h:159    .text:000000000000010c .L0 
C:\msys64\tmp\ccfzZER6.s:313    .text:0000000000000110 .L0 
C:\msys64\tmp\ccfzZER6.s:314    .text:0000000000000110 .L0 
    src/../h/riscv.h:91     .text:0000000000000114 .L0 
C:\msys64\tmp\ccfzZER6.s:331    .text:0000000000000118 .L0 
C:\msys64\tmp\ccfzZER6.s:332    .text:000000000000011c .L0 
C:\msys64\tmp\ccfzZER6.s:333    .text:000000000000011c .L0 
C:\msys64\tmp\ccfzZER6.s:335    .text:0000000000000120 .L0 
C:\msys64\tmp\ccfzZER6.s:336    .text:0000000000000120 .L0 
C:\msys64\tmp\ccfzZER6.s:338    .text:0000000000000124 .L0 
C:\msys64\tmp\ccfzZER6.s:340    .text:0000000000000128 .L0 
C:\msys64\tmp\ccfzZER6.s:342    .text:000000000000012c .L0 
C:\msys64\tmp\ccfzZER6.s:344    .text:0000000000000130 .L0 
C:\msys64\tmp\ccfzZER6.s:348    .text:0000000000000134 .L0 
C:\msys64\tmp\ccfzZER6.s:353    .text:0000000000000134 .L0 
C:\msys64\tmp\ccfzZER6.s:354    .text:0000000000000134 .L0 
C:\msys64\tmp\ccfzZER6.s:355    .text:0000000000000134 .L0 
C:\msys64\tmp\ccfzZER6.s:356    .text:0000000000000134 .L0 
    src/../h/riscv.h:170    .text:0000000000000140 .L0 
C:\msys64\tmp\ccfzZER6.s:368    .text:0000000000000144 .L0 
C:\msys64\tmp\ccfzZER6.s:374    .text:0000000000000148 .L0 
C:\msys64\tmp\ccfzZER6.s:376    .text:0000000000000148 .L0 
C:\msys64\tmp\ccfzZER6.s:377    .text:0000000000000148 .L0 
C:\msys64\tmp\ccfzZER6.s:378    .text:0000000000000148 .L0 
C:\msys64\tmp\ccfzZER6.s:379    .text:0000000000000148 .L0 
C:\msys64\tmp\ccfzZER6.s:380    .text:0000000000000148 .L0 
C:\msys64\tmp\ccfzZER6.s:382    .text:000000000000014c .L0 
C:\msys64\tmp\ccfzZER6.s:383    .text:000000000000014c .L0 
C:\msys64\tmp\ccfzZER6.s:385    .text:0000000000000150 .L0 
C:\msys64\tmp\ccfzZER6.s:386    .text:0000000000000150 .L0 
C:\msys64\tmp\ccfzZER6.s:393    .text:0000000000000164 .L0 
C:\msys64\tmp\ccfzZER6.s:395    .text:0000000000000168 .L0 
C:\msys64\tmp\ccfzZER6.s:397    .text:000000000000016c .L0 
C:\msys64\tmp\ccfzZER6.s:402    .text:0000000000000170 .L0 
C:\msys64\tmp\ccfzZER6.s:403    .text:0000000000000170 .L0 
C:\msys64\tmp\ccfzZER6.s:1192   .sbss._ZGVZN9Scheduler8instanceEvE8instance:0000000000000000 _ZGVZN9Scheduler8instanceEvE8instance
C:\msys64\tmp\ccfzZER6.s:404    .text:0000000000000170 .L0 
C:\msys64\tmp\ccfzZER6.s:1199   .bss._ZZN9Scheduler8instanceEvE8instance:0000000000000000 _ZZN9Scheduler8instanceEvE8instance
C:\msys64\tmp\ccfzZER6.s:411    .text:000000000000017c .L0 
C:\msys64\tmp\ccfzZER6.s:419    .text:000000000000018c .L0 
C:\msys64\tmp\ccfzZER6.s:425    .text:0000000000000198 .L0 
C:\msys64\tmp\ccfzZER6.s:426    .text:0000000000000198 .L0 
C:\msys64\tmp\ccfzZER6.s:434    .text:00000000000001ac .L0 
C:\msys64\tmp\ccfzZER6.s:435    .text:00000000000001ac .L0 
C:\msys64\tmp\ccfzZER6.s:442    .text:00000000000001b4 .L0 
GAS LISTING C:\msys64\tmp\ccfzZER6.s 			page 37


C:\msys64\tmp\ccfzZER6.s:450    .text:00000000000001b8 .L0 
C:\msys64\tmp\ccfzZER6.s:451    .text:00000000000001b8 .L0 
C:\msys64\tmp\ccfzZER6.s:458    .text:00000000000001c0 .L0 
C:\msys64\tmp\ccfzZER6.s:465    .text:00000000000001c4 .L0 
C:\msys64\tmp\ccfzZER6.s:466    .text:00000000000001c4 .L0 
C:\msys64\tmp\ccfzZER6.s:467    .text:00000000000001c4 .L0 
C:\msys64\tmp\ccfzZER6.s:468    .text:00000000000001c4 .L0 
C:\msys64\tmp\ccfzZER6.s:470    .text:00000000000001cc .L0 
C:\msys64\tmp\ccfzZER6.s:471    .text:00000000000001cc .L0 
C:\msys64\tmp\ccfzZER6.s:473    .text:00000000000001d4 .L0 
C:\msys64\tmp\ccfzZER6.s:479    .text:00000000000001d8 .L0 
C:\msys64\tmp\ccfzZER6.s:480    .text:00000000000001d8 .L0 
C:\msys64\tmp\ccfzZER6.s:481    .text:00000000000001d8 .L0 
C:\msys64\tmp\ccfzZER6.s:490    .text:00000000000001e0 .L0 
C:\msys64\tmp\ccfzZER6.s:491    .text:00000000000001e0 .L0 
C:\msys64\tmp\ccfzZER6.s:502    .text:00000000000001e8 .L0 
C:\msys64\tmp\ccfzZER6.s:503    .text:00000000000001e8 .L0 
C:\msys64\tmp\ccfzZER6.s:506    .text:00000000000001f0 .L0 
C:\msys64\tmp\ccfzZER6.s:512    .text:00000000000001f4 .L0 
C:\msys64\tmp\ccfzZER6.s:513    .text:00000000000001f4 .L0 
C:\msys64\tmp\ccfzZER6.s:520    .text:00000000000001fc .L0 
C:\msys64\tmp\ccfzZER6.s:526    .text:0000000000000200 .L0 
C:\msys64\tmp\ccfzZER6.s:527    .text:0000000000000200 .L0 
C:\msys64\tmp\ccfzZER6.s:528    .text:0000000000000200 .L0 
C:\msys64\tmp\ccfzZER6.s:529    .text:0000000000000200 .L0 
C:\msys64\tmp\ccfzZER6.s:531    .text:0000000000000208 .L0 
C:\msys64\tmp\ccfzZER6.s:532    .text:0000000000000208 .L0 
C:\msys64\tmp\ccfzZER6.s:535    .text:0000000000000210 .L0 
C:\msys64\tmp\ccfzZER6.s:539    .text:0000000000000214 .L0 
C:\msys64\tmp\ccfzZER6.s:541    .text:0000000000000214 .L0 
C:\msys64\tmp\ccfzZER6.s:542    .text:0000000000000214 .L0 
C:\msys64\tmp\ccfzZER6.s:546    .text:0000000000000214 .L0 
C:\msys64\tmp\ccfzZER6.s:547    .text:0000000000000214 .L0 
C:\msys64\tmp\ccfzZER6.s:548    .text:0000000000000214 .L0 
C:\msys64\tmp\ccfzZER6.s:557    .text:0000000000000224 .L0 
C:\msys64\tmp\ccfzZER6.s:558    .text:0000000000000224 .L0 
C:\msys64\tmp\ccfzZER6.s:564    .text:0000000000000230 .L0 
C:\msys64\tmp\ccfzZER6.s:566    .text:0000000000000234 .L0 
C:\msys64\tmp\ccfzZER6.s:571    .text:0000000000000238 .L0 
C:\msys64\tmp\ccfzZER6.s:572    .text:0000000000000238 .L0 
C:\msys64\tmp\ccfzZER6.s:579    .text:0000000000000240 .L0 
C:\msys64\tmp\ccfzZER6.s:587    .text:0000000000000244 .L0 
C:\msys64\tmp\ccfzZER6.s:588    .text:0000000000000244 .L0 
C:\msys64\tmp\ccfzZER6.s:595    .text:000000000000024c .L0 
C:\msys64\tmp\ccfzZER6.s:602    .text:0000000000000250 .L0 
C:\msys64\tmp\ccfzZER6.s:604    .text:0000000000000250 .L0 
C:\msys64\tmp\ccfzZER6.s:605    .text:0000000000000250 .L0 
C:\msys64\tmp\ccfzZER6.s:606    .text:0000000000000250 .L0 
C:\msys64\tmp\ccfzZER6.s:611    .text:0000000000000254 .L0 
C:\msys64\tmp\ccfzZER6.s:612    .text:0000000000000254 .L0 
C:\msys64\tmp\ccfzZER6.s:619    .text:000000000000025c .L0 
C:\msys64\tmp\ccfzZER6.s:625    .text:0000000000000260 .L0 
C:\msys64\tmp\ccfzZER6.s:626    .text:0000000000000260 .L0 
    src/../h/riscv.h:170    .text:000000000000026c .L0 
C:\msys64\tmp\ccfzZER6.s:642    .text:0000000000000270 .L0 
C:\msys64\tmp\ccfzZER6.s:643    .text:0000000000000270 .L0 
C:\msys64\tmp\ccfzZER6.s:651    .text:0000000000000280 .L0 
GAS LISTING C:\msys64\tmp\ccfzZER6.s 			page 38


C:\msys64\tmp\ccfzZER6.s:653    .text:0000000000000280 .L0 
C:\msys64\tmp\ccfzZER6.s:654    .text:0000000000000280 .L0 
C:\msys64\tmp\ccfzZER6.s:655    .text:0000000000000280 .L0 
C:\msys64\tmp\ccfzZER6.s:660    .text:0000000000000284 .L0 
C:\msys64\tmp\ccfzZER6.s:661    .text:0000000000000284 .L0 
C:\msys64\tmp\ccfzZER6.s:668    .text:000000000000028c .L0 
C:\msys64\tmp\ccfzZER6.s:674    .text:0000000000000290 .L0 
C:\msys64\tmp\ccfzZER6.s:675    .text:0000000000000290 .L0 
    src/../h/riscv.h:170    .text:000000000000029c .L0 
C:\msys64\tmp\ccfzZER6.s:687    .text:00000000000002a0 .L0 
C:\msys64\tmp\ccfzZER6.s:694    .text:00000000000002a4 .L0 
C:\msys64\tmp\ccfzZER6.s:696    .text:00000000000002a4 .L0 
C:\msys64\tmp\ccfzZER6.s:697    .text:00000000000002a4 .L0 
C:\msys64\tmp\ccfzZER6.s:698    .text:00000000000002a4 .L0 
C:\msys64\tmp\ccfzZER6.s:703    .text:00000000000002a8 .L0 
C:\msys64\tmp\ccfzZER6.s:704    .text:00000000000002a8 .L0 
C:\msys64\tmp\ccfzZER6.s:711    .text:00000000000002b0 .L0 
C:\msys64\tmp\ccfzZER6.s:717    .text:00000000000002b4 .L0 
C:\msys64\tmp\ccfzZER6.s:718    .text:00000000000002b4 .L0 
    src/../h/riscv.h:170    .text:00000000000002c0 .L0 
C:\msys64\tmp\ccfzZER6.s:730    .text:00000000000002c4 .L0 
C:\msys64\tmp\ccfzZER6.s:737    .text:00000000000002c8 .L0 
C:\msys64\tmp\ccfzZER6.s:738    .text:00000000000002c8 .L0 
C:\msys64\tmp\ccfzZER6.s:739    .text:00000000000002c8 .L0 
C:\msys64\tmp\ccfzZER6.s:740    .text:00000000000002c8 .L0 
C:\msys64\tmp\ccfzZER6.s:742    .text:00000000000002d0 .L0 
C:\msys64\tmp\ccfzZER6.s:744    .text:00000000000002d4 .L0 
C:\msys64\tmp\ccfzZER6.s:745    .text:00000000000002d4 .L0 
C:\msys64\tmp\ccfzZER6.s:752    .text:00000000000002e0 .L0 
C:\msys64\tmp\ccfzZER6.s:753    .text:00000000000002e0 .L0 
C:\msys64\tmp\ccfzZER6.s:760    .text:00000000000002e8 .L0 
C:\msys64\tmp\ccfzZER6.s:768    .text:00000000000002ec .L0 
C:\msys64\tmp\ccfzZER6.s:769    .text:00000000000002ec .L0 
C:\msys64\tmp\ccfzZER6.s:776    .text:00000000000002f4 .L0 
C:\msys64\tmp\ccfzZER6.s:782    .text:00000000000002f8 .L0 
C:\msys64\tmp\ccfzZER6.s:784    .text:00000000000002f8 .L0 
C:\msys64\tmp\ccfzZER6.s:785    .text:00000000000002f8 .L0 
C:\msys64\tmp\ccfzZER6.s:786    .text:00000000000002f8 .L0 
C:\msys64\tmp\ccfzZER6.s:791    .text:0000000000000300 .L0 
    src/../h/riscv.h:170    .text:0000000000000300 .L0 
C:\msys64\tmp\ccfzZER6.s:798    .text:0000000000000304 .L0 
C:\msys64\tmp\ccfzZER6.s:805    .text:0000000000000308 .L0 
C:\msys64\tmp\ccfzZER6.s:807    .text:0000000000000308 .L0 
C:\msys64\tmp\ccfzZER6.s:808    .text:0000000000000308 .L0 
C:\msys64\tmp\ccfzZER6.s:809    .text:0000000000000308 .L0 
C:\msys64\tmp\ccfzZER6.s:810    .text:0000000000000308 .L0 
C:\msys64\tmp\ccfzZER6.s:814    .text:0000000000000314 .L0 
C:\msys64\tmp\ccfzZER6.s:823    .text:0000000000000318 .L0 
C:\msys64\tmp\ccfzZER6.s:824    .text:0000000000000318 .L0 
C:\msys64\tmp\ccfzZER6.s:830    .text:0000000000000324 .L0 
C:\msys64\tmp\ccfzZER6.s:836    .text:000000000000032c .L0 
C:\msys64\tmp\ccfzZER6.s:837    .text:000000000000032c .L0 
C:\msys64\tmp\ccfzZER6.s:848    .text:000000000000033c .L0 
C:\msys64\tmp\ccfzZER6.s:849    .text:000000000000033c .L0 
C:\msys64\tmp\ccfzZER6.s:851    .text:0000000000000344 .L0 
C:\msys64\tmp\ccfzZER6.s:857    .text:0000000000000348 .L0 
C:\msys64\tmp\ccfzZER6.s:860    .text:0000000000000348 .L0 
GAS LISTING C:\msys64\tmp\ccfzZER6.s 			page 39


C:\msys64\tmp\ccfzZER6.s:861    .text:0000000000000348 .L0 
C:\msys64\tmp\ccfzZER6.s:868    .text:000000000000035c .L0 
C:\msys64\tmp\ccfzZER6.s:871    .text:000000000000035c .L0 
C:\msys64\tmp\ccfzZER6.s:872    .text:000000000000035c .L0 
C:\msys64\tmp\ccfzZER6.s:878    .text:000000000000036c .L0 
C:\msys64\tmp\ccfzZER6.s:879    .text:000000000000036c .L0 
C:\msys64\tmp\ccfzZER6.s:880    .text:000000000000036c .L0 
C:\msys64\tmp\ccfzZER6.s:883    .text:0000000000000378 .L0 
C:\msys64\tmp\ccfzZER6.s:890    .text:0000000000000380 .L0 
C:\msys64\tmp\ccfzZER6.s:891    .text:0000000000000380 .L0 
C:\msys64\tmp\ccfzZER6.s:895    .text:0000000000000390 .L0 
C:\msys64\tmp\ccfzZER6.s:898    .text:0000000000000394 .L0 
C:\msys64\tmp\ccfzZER6.s:899    .text:0000000000000394 .L0 
C:\msys64\tmp\ccfzZER6.s:900    .text:0000000000000394 .L0 
C:\msys64\tmp\ccfzZER6.s:902    .text:0000000000000398 .L0 
C:\msys64\tmp\ccfzZER6.s:909    .text:00000000000003a0 .L0 
C:\msys64\tmp\ccfzZER6.s:910    .text:00000000000003a0 .L0 
C:\msys64\tmp\ccfzZER6.s:914    .text:00000000000003b0 .L0 
C:\msys64\tmp\ccfzZER6.s:919    .text:00000000000003b4 .L0 
C:\msys64\tmp\ccfzZER6.s:922    .text:00000000000003b4 .L0 
C:\msys64\tmp\ccfzZER6.s:923    .text:00000000000003b4 .L0 
C:\msys64\tmp\ccfzZER6.s:927    .text:00000000000003c4 .L0 
C:\msys64\tmp\ccfzZER6.s:929    .text:00000000000003cc .L0 
C:\msys64\tmp\ccfzZER6.s:933    .text:00000000000003d0 .L0 
C:\msys64\tmp\ccfzZER6.s:936    .text:00000000000003d0 .L0 
C:\msys64\tmp\ccfzZER6.s:937    .text:00000000000003d0 .L0 
C:\msys64\tmp\ccfzZER6.s:943    .text:00000000000003e0 .L0 
C:\msys64\tmp\ccfzZER6.s:959    .text:00000000000003e4 .L0 
C:\msys64\tmp\ccfzZER6.s:960    .text:00000000000003e4 .L0 
C:\msys64\tmp\ccfzZER6.s:966    .text:00000000000003f4 .L0 
C:\msys64\tmp\ccfzZER6.s:967    .text:00000000000003f4 .L0 
C:\msys64\tmp\ccfzZER6.s:968    .text:00000000000003f4 .L0 
C:\msys64\tmp\ccfzZER6.s:970    .text:00000000000003fc .L0 
C:\msys64\tmp\ccfzZER6.s:972    .text:0000000000000400 .L0 
C:\msys64\tmp\ccfzZER6.s:974    .text:0000000000000404 .L0 
C:\msys64\tmp\ccfzZER6.s:978    .text:0000000000000408 .L0 
C:\msys64\tmp\ccfzZER6.s:979    .text:0000000000000408 .L0 
C:\msys64\tmp\ccfzZER6.s:980    .text:0000000000000408 .L0 
C:\msys64\tmp\ccfzZER6.s:982    .text:000000000000040c .L0 
C:\msys64\tmp\ccfzZER6.s:984    .text:0000000000000414 .L0 
C:\msys64\tmp\ccfzZER6.s:985    .text:0000000000000414 .L0 
C:\msys64\tmp\ccfzZER6.s:987    .text:0000000000000418 .L0 
C:\msys64\tmp\ccfzZER6.s:988    .text:0000000000000418 .L0 
C:\msys64\tmp\ccfzZER6.s:993    .text:0000000000000420 .L0 
C:\msys64\tmp\ccfzZER6.s:994    .text:0000000000000420 .L0 
C:\msys64\tmp\ccfzZER6.s:995    .text:0000000000000420 .L0 
C:\msys64\tmp\ccfzZER6.s:1002   .text:000000000000042c .L0 
C:\msys64\tmp\ccfzZER6.s:1010   .text:000000000000043c .L0 
C:\msys64\tmp\ccfzZER6.s:1022   .text:000000000000044c .L0 
C:\msys64\tmp\ccfzZER6.s:1023   .text:000000000000044c .L0 
C:\msys64\tmp\ccfzZER6.s:1028   .text:0000000000000454 .L0 
C:\msys64\tmp\ccfzZER6.s:1029   .text:0000000000000454 .L0 
C:\msys64\tmp\ccfzZER6.s:1034   .text:0000000000000458 .L0 
C:\msys64\tmp\ccfzZER6.s:1036   .text:0000000000000460 .L0 
C:\msys64\tmp\ccfzZER6.s:1043   .text:0000000000000464 .L0 
C:\msys64\tmp\ccfzZER6.s:1044   .text:0000000000000464 .L0 
C:\msys64\tmp\ccfzZER6.s:1058   .text:000000000000046c .L0 
GAS LISTING C:\msys64\tmp\ccfzZER6.s 			page 40


C:\msys64\tmp\ccfzZER6.s:1069   .text:0000000000000470 .L0 
C:\msys64\tmp\ccfzZER6.s:1070   .text:0000000000000470 .L0 
    src/../h/riscv.h:85     .text:0000000000000470 .L0 
C:\msys64\tmp\ccfzZER6.s:1078   .text:0000000000000478 .L0 
C:\msys64\tmp\ccfzZER6.s:1079   .text:0000000000000478 .L0 
C:\msys64\tmp\ccfzZER6.s:1083   .text:000000000000047c .L0 
C:\msys64\tmp\ccfzZER6.s:1087   .text:0000000000000480 .L0 
C:\msys64\tmp\ccfzZER6.s:1088   .text:0000000000000480 .L0 
    src/../h/riscv.h:153    .text:0000000000000480 .L0 
C:\msys64\tmp\ccfzZER6.s:1096   .text:0000000000000488 .L0 
C:\msys64\tmp\ccfzZER6.s:1097   .text:0000000000000488 .L0 
C:\msys64\tmp\ccfzZER6.s:1101   .text:000000000000048c .L0 
C:\msys64\tmp\ccfzZER6.s:1103   .text:0000000000000490 .L0 
C:\msys64\tmp\ccfzZER6.s:1104   .text:0000000000000490 .L0 
C:\msys64\tmp\ccfzZER6.s:1106   .text:0000000000000498 .L0 
C:\msys64\tmp\ccfzZER6.s:1107   .text:0000000000000498 .L0 
C:\msys64\tmp\ccfzZER6.s:1110   .text:00000000000004a0 .L0 
C:\msys64\tmp\ccfzZER6.s:1111   .text:00000000000004a0 .L0 
    src/../h/riscv.h:159    .text:00000000000004a4 .L0 
C:\msys64\tmp\ccfzZER6.s:1125   .text:00000000000004a8 .L0 
C:\msys64\tmp\ccfzZER6.s:1126   .text:00000000000004a8 .L0 
    src/../h/riscv.h:91     .text:00000000000004ac .L0 
C:\msys64\tmp\ccfzZER6.s:1137   .text:00000000000004b0 .L0 
C:\msys64\tmp\ccfzZER6.s:1151   .text:00000000000004b4 .L0 
C:\msys64\tmp\ccfzZER6.s:1164   .text:00000000000004d0 .L0 
C:\msys64\tmp\ccfzZER6.s:1206   .text:00000000000004d0 .L0 
C:\msys64\tmp\ccfzZER6.s:117    .text:000000000000007c .L0 
C:\msys64\tmp\ccfzZER6.s:125    .text:0000000000000090 .L0 
C:\msys64\tmp\ccfzZER6.s:200    .rodata:0000000000000000 .L7
C:\msys64\tmp\ccfzZER6.s:191    .text:00000000000000e0 .L0 
C:\msys64\tmp\ccfzZER6.s:404    .text:0000000000000170 .L0 
C:\msys64\tmp\ccfzZER6.s:411    .text:000000000000017c .L0 
C:\msys64\tmp\ccfzZER6.s:420    .text:0000000000000190 .L0 
C:\msys64\tmp\ccfzZER6.s:427    .text:000000000000019c .L0 
C:\msys64\tmp\ccfzZER6.s:468    .text:00000000000001c4 .L0 
C:\msys64\tmp\ccfzZER6.s:471    .text:00000000000001cc .L0 
C:\msys64\tmp\ccfzZER6.s:529    .text:0000000000000200 .L0 
C:\msys64\tmp\ccfzZER6.s:740    .text:00000000000002c8 .L0 
C:\msys64\tmp\ccfzZER6.s:849    .text:000000000000033c .L0 
C:\msys64\tmp\ccfzZER6.s:862    .text:000000000000034c .L0 
C:\msys64\tmp\ccfzZER6.s:872    .text:000000000000035c .L0 
C:\msys64\tmp\ccfzZER6.s:880    .text:000000000000036c .L0 
C:\msys64\tmp\ccfzZER6.s:891    .text:0000000000000380 .L0 
C:\msys64\tmp\ccfzZER6.s:910    .text:00000000000003a0 .L0 
C:\msys64\tmp\ccfzZER6.s:923    .text:00000000000003b4 .L0 
C:\msys64\tmp\ccfzZER6.s:927    .text:00000000000003c4 .L0 
C:\msys64\tmp\ccfzZER6.s:937    .text:00000000000003d0 .L0 
C:\msys64\tmp\ccfzZER6.s:960    .text:00000000000003e4 .L0 
C:\msys64\tmp\ccfzZER6.s:968    .text:00000000000003f4 .L0 
C:\msys64\tmp\ccfzZER6.s:982    .text:000000000000040c .L0 
C:\msys64\tmp\ccfzZER6.s:995    .text:0000000000000420 .L0 
C:\msys64\tmp\ccfzZER6.s:1002   .text:000000000000042c .L0 
C:\msys64\tmp\ccfzZER6.s:1011   .text:0000000000000440 .L0 
C:\msys64\tmp\ccfzZER6.s:1023   .text:000000000000044c .L0 
C:\msys64\tmp\ccfzZER6.s:1034   .text:0000000000000458 .L0 
C:\msys64\tmp\ccfzZER6.s:1104   .text:0000000000000490 .L0 
C:\msys64\tmp\ccfzZER6.s:140    .text:00000000000000b0 .L43
GAS LISTING C:\msys64\tmp\ccfzZER6.s 			page 41


C:\msys64\tmp\ccfzZER6.s:816    .text:0000000000000318 .L44
C:\msys64\tmp\ccfzZER6.s:325    .text:0000000000000118 .L3
C:\msys64\tmp\ccfzZER6.s:1014   .text:000000000000044c .L35
C:\msys64\tmp\ccfzZER6.s:963    .text:00000000000003f4 .L38
C:\msys64\tmp\ccfzZER6.s:292    .text:0000000000000108 .L5
C:\msys64\tmp\ccfzZER6.s:444    .text:00000000000001b8 .L19
C:\msys64\tmp\ccfzZER6.s:430    .text:00000000000001ac .L20
C:\msys64\tmp\ccfzZER6.s:421    .text:0000000000000198 .L21
C:\msys64\tmp\ccfzZER6.s:508    .text:00000000000001f4 .L22
C:\msys64\tmp\ccfzZER6.s:498    .text:00000000000001e8 .L23
C:\msys64\tmp\ccfzZER6.s:581    .text:0000000000000244 .L24
C:\msys64\tmp\ccfzZER6.s:621    .text:0000000000000260 .L25
C:\msys64\tmp\ccfzZER6.s:670    .text:0000000000000290 .L26
C:\msys64\tmp\ccfzZER6.s:713    .text:00000000000002b4 .L27
C:\msys64\tmp\ccfzZER6.s:762    .text:00000000000002ec .L45
C:\msys64\tmp\ccfzZER6.s:875    .text:000000000000036c .L33
C:\msys64\tmp\ccfzZER6.s:896    .text:0000000000000394 .L34
C:\msys64\tmp\ccfzZER6.s:842    .text:000000000000033c .L46
C:\msys64\tmp\ccfzZER6.s:833    .text:000000000000032c .L31
C:\msys64\tmp\ccfzZER6.s:945    .text:00000000000003e4 .L37
C:\msys64\tmp\ccfzZER6.s:1059   .text:0000000000000470 .L47
C:\msys64\tmp\ccfzZER6.s:1037   .text:0000000000000464 .L39
C:\msys64\tmp\ccfzZER6.s:269    .text:00000000000000f8 .L18
C:\msys64\tmp\ccfzZER6.s:347    .text:0000000000000134 .L17
C:\msys64\tmp\ccfzZER6.s:370    .text:0000000000000148 .L16
C:\msys64\tmp\ccfzZER6.s:460    .text:00000000000001c4 .L15
C:\msys64\tmp\ccfzZER6.s:522    .text:0000000000000200 .L14
C:\msys64\tmp\ccfzZER6.s:537    .text:0000000000000214 .L13
C:\msys64\tmp\ccfzZER6.s:597    .text:0000000000000250 .L12
C:\msys64\tmp\ccfzZER6.s:648    .text:0000000000000280 .L11
C:\msys64\tmp\ccfzZER6.s:689    .text:00000000000002a4 .L10
C:\msys64\tmp\ccfzZER6.s:732    .text:00000000000002c8 .L9
C:\msys64\tmp\ccfzZER6.s:778    .text:00000000000002f8 .L8
C:\msys64\tmp\ccfzZER6.s:800    .text:0000000000000308 .L6
C:\msys64\tmp\ccfzZER6.s:280    .text:00000000000000fc .LEHB0
C:\msys64\tmp\ccfzZER6.s:47     .text:0000000000000020 .LFB35
C:\msys64\tmp\ccfzZER6.s:551    .text:0000000000000220 .LEHE0
C:\msys64\tmp\ccfzZER6.s:559    .text:0000000000000228 .LEHB1
C:\msys64\tmp\ccfzZER6.s:562    .text:0000000000000230 .LEHE1
C:\msys64\tmp\ccfzZER6.s:1139   .text:00000000000004b4 .L41
C:\msys64\tmp\ccfzZER6.s:627    .text:0000000000000264 .LEHB2
C:\msys64\tmp\ccfzZER6.s:1159   .text:00000000000004d0 .LEHE2
C:\msys64\tmp\ccfzZER6.s:3753   .debug_abbrev:0000000000000000 .Ldebug_abbrev0
C:\msys64\tmp\ccfzZER6.s:6698   .debug_str:00000000000009fd .LASF186
C:\msys64\tmp\ccfzZER6.s:6704   .debug_str:0000000000000ae7 .LASF187
C:\msys64\tmp\ccfzZER6.s:6716   .debug_str:0000000000000b37 .LASF188
C:\msys64\tmp\ccfzZER6.s:8      .text:0000000000000000 .Ltext0
C:\msys64\tmp\ccfzZER6.s:1202   .text:00000000000004d0 .Letext0
C:\msys64\tmp\ccfzZER6.s:6348   .debug_line:0000000000000000 .Ldebug_line0
C:\msys64\tmp\ccfzZER6.s:6470   .debug_str:0000000000000395 .LASF0
C:\msys64\tmp\ccfzZER6.s:6508   .debug_str:00000000000004dd .LASF1
C:\msys64\tmp\ccfzZER6.s:6588   .debug_str:0000000000000721 .LASF2
C:\msys64\tmp\ccfzZER6.s:6430   .debug_str:0000000000000292 .LASF3
C:\msys64\tmp\ccfzZER6.s:6596   .debug_str:0000000000000766 .LASF4
C:\msys64\tmp\ccfzZER6.s:6486   .debug_str:000000000000042e .LASF5
C:\msys64\tmp\ccfzZER6.s:6360   .debug_str:000000000000004d .LASF6
C:\msys64\tmp\ccfzZER6.s:6564   .debug_str:000000000000067d .LASF7
GAS LISTING C:\msys64\tmp\ccfzZER6.s 			page 42


C:\msys64\tmp\ccfzZER6.s:6556   .debug_str:0000000000000635 .LASF8
C:\msys64\tmp\ccfzZER6.s:6496   .debug_str:000000000000048d .LASF9
C:\msys64\tmp\ccfzZER6.s:6388   .debug_str:0000000000000113 .LASF10
C:\msys64\tmp\ccfzZER6.s:6436   .debug_str:00000000000002b2 .LASF11
C:\msys64\tmp\ccfzZER6.s:6400   .debug_str:0000000000000156 .LASF12
C:\msys64\tmp\ccfzZER6.s:6386   .debug_str:0000000000000103 .LASF13
C:\msys64\tmp\ccfzZER6.s:6632   .debug_str:0000000000000852 .LASF14
C:\msys64\tmp\ccfzZER6.s:6424   .debug_str:0000000000000243 .LASF15
C:\msys64\tmp\ccfzZER6.s:6616   .debug_str:00000000000007c7 .LASF16
C:\msys64\tmp\ccfzZER6.s:6690   .debug_str:00000000000009d3 .LASF58
C:\msys64\tmp\ccfzZER6.s:6574   .debug_str:00000000000006cd .LASF189
C:\msys64\tmp\ccfzZER6.s:6510   .debug_str:00000000000004f0 .LASF17
C:\msys64\tmp\ccfzZER6.s:6366   .debug_str:0000000000000078 .LASF18
C:\msys64\tmp\ccfzZER6.s:6708   .debug_str:0000000000000aff .LASF19
C:\msys64\tmp\ccfzZER6.s:6460   .debug_str:0000000000000340 .LASF54
C:\msys64\tmp\ccfzZER6.s:6468   .debug_str:000000000000037d .LASF56
C:\msys64\tmp\ccfzZER6.s:6672   .debug_str:0000000000000975 .LASF20
C:\msys64\tmp\ccfzZER6.s:6668   .debug_str:000000000000095a .LASF22
C:\msys64\tmp\ccfzZER6.s:6582   .debug_str:00000000000006fb .LASF24
C:\msys64\tmp\ccfzZER6.s:6544   .debug_str:00000000000005c6 .LASF26
C:\msys64\tmp\ccfzZER6.s:6568   .debug_str:000000000000069f .LASF21
C:\msys64\tmp\ccfzZER6.s:6570   .debug_str:00000000000006a6 .LASF23
C:\msys64\tmp\ccfzZER6.s:6540   .debug_str:00000000000005ab .LASF25
C:\msys64\tmp\ccfzZER6.s:6500   .debug_str:00000000000004b7 .LASF27
C:\msys64\tmp\ccfzZER6.s:6702   .debug_str:0000000000000adf .LASF28
C:\msys64\tmp\ccfzZER6.s:6650   .debug_str:00000000000008ae .LASF29
C:\msys64\tmp\ccfzZER6.s:6536   .debug_str:000000000000059e .LASF30
C:\msys64\tmp\ccfzZER6.s:6542   .debug_str:00000000000005b2 .LASF31
C:\msys64\tmp\ccfzZER6.s:6512   .debug_str:00000000000004f9 .LASF32
C:\msys64\tmp\ccfzZER6.s:6572   .debug_str:00000000000006b9 .LASF33
C:\msys64\tmp\ccfzZER6.s:6736   .debug_str:0000000000000bec .LASF34
C:\msys64\tmp\ccfzZER6.s:6480   .debug_str:00000000000003e7 .LASF35
C:\msys64\tmp\ccfzZER6.s:6628   .debug_str:000000000000083e .LASF36
C:\msys64\tmp\ccfzZER6.s:6600   .debug_str:0000000000000777 .LASF37
C:\msys64\tmp\ccfzZER6.s:6602   .debug_str:000000000000078a .LASF38
C:\msys64\tmp\ccfzZER6.s:6392   .debug_str:0000000000000127 .LASF39
C:\msys64\tmp\ccfzZER6.s:6416   .debug_str:00000000000001dd .LASF40
C:\msys64\tmp\ccfzZER6.s:6466   .debug_str:000000000000036b .LASF41
C:\msys64\tmp\ccfzZER6.s:6478   .debug_str:00000000000003e1 .LASF42
C:\msys64\tmp\ccfzZER6.s:6408   .debug_str:00000000000001a4 .LASF43
C:\msys64\tmp\ccfzZER6.s:6362   .debug_str:0000000000000054 .LASF44
C:\msys64\tmp\ccfzZER6.s:6592   .debug_str:0000000000000739 .LASF45
C:\msys64\tmp\ccfzZER6.s:6586   .debug_str:0000000000000716 .LASF46
C:\msys64\tmp\ccfzZER6.s:6730   .debug_str:0000000000000bb6 .LASF47
C:\msys64\tmp\ccfzZER6.s:6692   .debug_str:00000000000009d9 .LASF48
C:\msys64\tmp\ccfzZER6.s:6712   .debug_str:0000000000000b0f .LASF49
C:\msys64\tmp\ccfzZER6.s:6686   .debug_str:00000000000009c2 .LASF50
C:\msys64\tmp\ccfzZER6.s:6528   .debug_str:0000000000000568 .LASF51
C:\msys64\tmp\ccfzZER6.s:6494   .debug_str:000000000000047f .LASF64
C:\msys64\tmp\ccfzZER6.s:6456   .debug_str:000000000000031e .LASF66
C:\msys64\tmp\ccfzZER6.s:6580   .debug_str:00000000000006ec .LASF52
C:\msys64\tmp\ccfzZER6.s:6358   .debug_str:0000000000000030 .LASF53
C:\msys64\tmp\ccfzZER6.s:6700   .debug_str:0000000000000ad0 .LASF55
C:\msys64\tmp\ccfzZER6.s:6448   .debug_str:00000000000002e4 .LASF57
C:\msys64\tmp\ccfzZER6.s:6558   .debug_str:0000000000000648 .LASF72
C:\msys64\tmp\ccfzZER6.s:6420   .debug_str:00000000000001f6 .LASF74
C:\msys64\tmp\ccfzZER6.s:6554   .debug_str:0000000000000625 .LASF59
GAS LISTING C:\msys64\tmp\ccfzZER6.s 			page 43


C:\msys64\tmp\ccfzZER6.s:6396   .debug_str:000000000000013f .LASF87
C:\msys64\tmp\ccfzZER6.s:6390   .debug_str:0000000000000122 .LASF60
C:\msys64\tmp\ccfzZER6.s:6506   .debug_str:00000000000004d8 .LASF61
C:\msys64\tmp\ccfzZER6.s:6370   .debug_str:0000000000000087 .LASF62
C:\msys64\tmp\ccfzZER6.s:6490   .debug_str:0000000000000449 .LASF63
C:\msys64\tmp\ccfzZER6.s:6590   .debug_str:000000000000072f .LASF81
C:\msys64\tmp\ccfzZER6.s:6678   .debug_str:0000000000000990 .LASF82
C:\msys64\tmp\ccfzZER6.s:6438   .debug_str:00000000000002c1 .LASF65
C:\msys64\tmp\ccfzZER6.s:6526   .debug_str:0000000000000549 .LASF67
C:\msys64\tmp\ccfzZER6.s:6442   .debug_str:00000000000002ce .LASF68
C:\msys64\tmp\ccfzZER6.s:6548   .debug_str:00000000000005ec .LASF69
C:\msys64\tmp\ccfzZER6.s:6372   .debug_str:00000000000000a0 .LASF106
C:\msys64\tmp\ccfzZER6.s:6654   .debug_str:00000000000008cc .LASF108
C:\msys64\tmp\ccfzZER6.s:6626   .debug_str:0000000000000839 .LASF70
C:\msys64\tmp\ccfzZER6.s:6638   .debug_str:000000000000086d .LASF71
C:\msys64\tmp\ccfzZER6.s:6488   .debug_str:0000000000000440 .LASF73
C:\msys64\tmp\ccfzZER6.s:6618   .debug_str:00000000000007dd .LASF75
C:\msys64\tmp\ccfzZER6.s:6518   .debug_str:000000000000051c .LASF76
C:\msys64\tmp\ccfzZER6.s:6444   .debug_str:00000000000002d4 .LASF77
C:\msys64\tmp\ccfzZER6.s:6398   .debug_str:000000000000014d .LASF78
C:\msys64\tmp\ccfzZER6.s:6414   .debug_str:00000000000001c4 .LASF79
C:\msys64\tmp\ccfzZER6.s:6384   .debug_str:00000000000000ee .LASF80
C:\msys64\tmp\ccfzZER6.s:6594   .debug_str:0000000000000751 .LASF83
C:\msys64\tmp\ccfzZER6.s:6476   .debug_str:00000000000003c6 .LASF131
C:\msys64\tmp\ccfzZER6.s:6722   .debug_str:0000000000000b84 .LASF137
C:\msys64\tmp\ccfzZER6.s:6714   .debug_str:0000000000000b25 .LASF84
C:\msys64\tmp\ccfzZER6.s:6538   .debug_str:00000000000005a6 .LASF85
C:\msys64\tmp\ccfzZER6.s:6458   .debug_str:0000000000000339 .LASF86
C:\msys64\tmp\ccfzZER6.s:6636   .debug_str:0000000000000865 .LASF88
C:\msys64\tmp\ccfzZER6.s:6732   .debug_str:0000000000000bce .LASF89
C:\msys64\tmp\ccfzZER6.s:6532   .debug_str:0000000000000585 .LASF90
C:\msys64\tmp\ccfzZER6.s:6612   .debug_str:00000000000007b6 .LASF91
C:\msys64\tmp\ccfzZER6.s:6434   .debug_str:00000000000002a3 .LASF92
C:\msys64\tmp\ccfzZER6.s:6630   .debug_str:0000000000000845 .LASF93
C:\msys64\tmp\ccfzZER6.s:6428   .debug_str:000000000000026c .LASF94
C:\msys64\tmp\ccfzZER6.s:6550   .debug_str:000000000000060a .LASF190
C:\msys64\tmp\ccfzZER6.s:6646   .debug_str:00000000000008a1 .LASF144
C:\msys64\tmp\ccfzZER6.s:6410   .debug_str:00000000000001b6 .LASF95
C:\msys64\tmp\ccfzZER6.s:6552   .debug_str:000000000000060f .LASF96
C:\msys64\tmp\ccfzZER6.s:6454   .debug_str:0000000000000313 .LASF97
C:\msys64\tmp\ccfzZER6.s:6662   .debug_str:000000000000092c .LASF98
C:\msys64\tmp\ccfzZER6.s:6524   .debug_str:000000000000053c .LASF99
C:\msys64\tmp\ccfzZER6.s:6374   .debug_str:00000000000000a5 .LASF100
C:\msys64\tmp\ccfzZER6.s:6376   .debug_str:00000000000000c1 .LASF101
C:\msys64\tmp\ccfzZER6.s:6492   .debug_str:0000000000000465 .LASF102
C:\msys64\tmp\ccfzZER6.s:6578   .debug_str:00000000000006e1 .LASF103
C:\msys64\tmp\ccfzZER6.s:6364   .debug_str:000000000000005f .LASF104
C:\msys64\tmp\ccfzZER6.s:6622   .debug_str:0000000000000817 .LASF105
C:\msys64\tmp\ccfzZER6.s:6378   .debug_str:00000000000000cd .LASF107
C:\msys64\tmp\ccfzZER6.s:6356   .debug_str:0000000000000014 .LASF109
C:\msys64\tmp\ccfzZER6.s:6452   .debug_str:0000000000000305 .LASF191
C:\msys64\tmp\ccfzZER6.s:6484   .debug_str:0000000000000403 .LASF192
C:\msys64\tmp\ccfzZER6.s:6502   .debug_str:00000000000004ca .LASF110
C:\msys64\tmp\ccfzZER6.s:6354   .debug_str:000000000000000f .LASF111
C:\msys64\tmp\ccfzZER6.s:6728   .debug_str:0000000000000bb1 .LASF112
C:\msys64\tmp\ccfzZER6.s:6610   .debug_str:00000000000007b0 .LASF113
C:\msys64\tmp\ccfzZER6.s:6666   .debug_str:0000000000000952 .LASF114
GAS LISTING C:\msys64\tmp\ccfzZER6.s 			page 44


C:\msys64\tmp\ccfzZER6.s:6652   .debug_str:00000000000008c2 .LASF115
C:\msys64\tmp\ccfzZER6.s:6674   .debug_str:000000000000097e .LASF116
C:\msys64\tmp\ccfzZER6.s:6614   .debug_str:00000000000007be .LASF117
C:\msys64\tmp\ccfzZER6.s:6534   .debug_str:0000000000000594 .LASF118
C:\msys64\tmp\ccfzZER6.s:6664   .debug_str:0000000000000945 .LASF119
C:\msys64\tmp\ccfzZER6.s:6604   .debug_str:0000000000000791 .LASF120
C:\msys64\tmp\ccfzZER6.s:6724   .debug_str:0000000000000b98 .LASF121
C:\msys64\tmp\ccfzZER6.s:6676   .debug_str:0000000000000986 .LASF122
C:\msys64\tmp\ccfzZER6.s:6562   .debug_str:000000000000066b .LASF123
C:\msys64\tmp\ccfzZER6.s:6644   .debug_str:000000000000088f .LASF124
C:\msys64\tmp\ccfzZER6.s:6412   .debug_str:00000000000001bf .LASF125
C:\msys64\tmp\ccfzZER6.s:6658   .debug_str:0000000000000900 .LASF126
C:\msys64\tmp\ccfzZER6.s:6634   .debug_str:000000000000085e .LASF127
C:\msys64\tmp\ccfzZER6.s:6660   .debug_str:0000000000000915 .LASF128
C:\msys64\tmp\ccfzZER6.s:6368   .debug_str:0000000000000081 .LASF129
C:\msys64\tmp\ccfzZER6.s:6640   .debug_str:0000000000000874 .LASF130
C:\msys64\tmp\ccfzZER6.s:6566   .debug_str:0000000000000684 .LASF193
C:\msys64\tmp\ccfzZER6.s:6740   .debug_str:0000000000000c0c .LASF132
C:\msys64\tmp\ccfzZER6.s:6688   .debug_str:00000000000009cc .LASF133
C:\msys64\tmp\ccfzZER6.s:6682   .debug_str:00000000000009b4 .LASF134
C:\msys64\tmp\ccfzZER6.s:6718   .debug_str:0000000000000b66 .LASF135
C:\msys64\tmp\ccfzZER6.s:6546   .debug_str:00000000000005db .LASF136
C:\msys64\tmp\ccfzZER6.s:6734   .debug_str:0000000000000bdb .LASF138
C:\msys64\tmp\ccfzZER6.s:6620   .debug_str:0000000000000810 .LASF139
C:\msys64\tmp\ccfzZER6.s:6474   .debug_str:00000000000003b2 .LASF140
C:\msys64\tmp\ccfzZER6.s:6482   .debug_str:00000000000003fb .LASF141
C:\msys64\tmp\ccfzZER6.s:6696   .debug_str:00000000000009e8 .LASF142
C:\msys64\tmp\ccfzZER6.s:6350   .debug_str:0000000000000000 .LASF143
C:\msys64\tmp\ccfzZER6.s:6352   .debug_str:0000000000000006 .LASF145
C:\msys64\tmp\ccfzZER6.s:6608   .debug_str:00000000000007a9 .LASF146
C:\msys64\tmp\ccfzZER6.s:6642   .debug_str:000000000000088a .LASF147
C:\msys64\tmp\ccfzZER6.s:6520   .debug_str:0000000000000521 .LASF148
C:\msys64\tmp\ccfzZER6.s:6514   .debug_str:0000000000000501 .LASF149
C:\msys64\tmp\ccfzZER6.s:6402   .debug_str:0000000000000166 .LASF150
C:\msys64\tmp\ccfzZER6.s:6522   .debug_str:0000000000000529 .LASF151
C:\msys64\tmp\ccfzZER6.s:6426   .debug_str:0000000000000259 .LASF152
C:\msys64\tmp\ccfzZER6.s:6394   .debug_str:000000000000013a .LASF153
C:\msys64\tmp\ccfzZER6.s:6404   .debug_str:0000000000000179 .LASF154
C:\msys64\tmp\ccfzZER6.s:6694   .debug_str:00000000000009e3 .LASF155
C:\msys64\tmp\ccfzZER6.s:6418   .debug_str:00000000000001e3 .LASF156
C:\msys64\tmp\ccfzZER6.s:6598   .debug_str:000000000000076d .LASF157
C:\msys64\tmp\ccfzZER6.s:6656   .debug_str:00000000000008e8 .LASF158
C:\msys64\tmp\ccfzZER6.s:6382   .debug_str:00000000000000e3 .LASF159
C:\msys64\tmp\ccfzZER6.s:6462   .debug_str:000000000000034b .LASF160
C:\msys64\tmp\ccfzZER6.s:6576   .debug_str:00000000000006d8 .LASF161
C:\msys64\tmp\ccfzZER6.s:6498   .debug_str:00000000000004a0 .LASF162
C:\msys64\tmp\ccfzZER6.s:6706   .debug_str:0000000000000af5 .LASF163
C:\msys64\tmp\ccfzZER6.s:6738   .debug_str:0000000000000bf4 .LASF164
C:\msys64\tmp\ccfzZER6.s:6606   .debug_str:00000000000007a2 .LASF165
C:\msys64\tmp\ccfzZER6.s:6380   .debug_str:00000000000000db .LASF166
C:\msys64\tmp\ccfzZER6.s:6670   .debug_str:000000000000096f .LASF167
C:\msys64\tmp\ccfzZER6.s:6530   .debug_str:000000000000057e .LASF168
C:\msys64\tmp\ccfzZER6.s:1165   .text:00000000000004d0 .LFE35
C:\msys64\tmp\ccfzZER6.s:5024   .debug_loc:0000000000000000 .LLST0
C:\msys64\tmp\ccfzZER6.s:5049   .debug_loc:0000000000000062 .LLST1
C:\msys64\tmp\ccfzZER6.s:5089   .debug_loc:0000000000000100 .LLST2
C:\msys64\tmp\ccfzZER6.s:5122   .debug_loc:0000000000000188 .LLST3
GAS LISTING C:\msys64\tmp\ccfzZER6.s 			page 45


C:\msys64\tmp\ccfzZER6.s:5268   .debug_loc:00000000000003ad .LLST4
C:\msys64\tmp\ccfzZER6.s:5423   .debug_loc:00000000000005fa .LLST5
C:\msys64\tmp\ccfzZER6.s:5437   .debug_loc:0000000000000633 .LLST6
C:\msys64\tmp\ccfzZER6.s:5583   .debug_loc:0000000000000858 .LLST7
C:\msys64\tmp\ccfzZER6.s:6624   .debug_str:0000000000000832 .LASF169
C:\msys64\tmp\ccfzZER6.s:5729   .debug_loc:0000000000000a7d .LLST8
C:\msys64\tmp\ccfzZER6.s:6314   .debug_ranges:0000000000000000 .Ldebug_ranges0
C:\msys64\tmp\ccfzZER6.s:6504   .debug_str:00000000000004d3 .LASF170
C:\msys64\tmp\ccfzZER6.s:5812   .debug_loc:0000000000000baf .LLST18
C:\msys64\tmp\ccfzZER6.s:6648   .debug_str:00000000000008a9 .LASF171
C:\msys64\tmp\ccfzZER6.s:6680   .debug_str:00000000000009ac .LASF172
C:\msys64\tmp\ccfzZER6.s:273    .text:00000000000000f8 .LBB176
C:\msys64\tmp\ccfzZER6.s:295    .text:0000000000000108 .LBE176
C:\msys64\tmp\ccfzZER6.s:6446   .debug_str:00000000000002de .LASF173
C:\msys64\tmp\ccfzZER6.s:5840   .debug_loc:0000000000000c14 .LLST19
C:\msys64\tmp\ccfzZER6.s:283    .text:0000000000000104 .LBB177
C:\msys64\tmp\ccfzZER6.s:294    .text:0000000000000108 .LBE177
C:\msys64\tmp\ccfzZER6.s:5863   .debug_loc:0000000000000c65 .LLST20
C:\msys64\tmp\ccfzZER6.s:5870   .debug_loc:0000000000000c88 .LLST21
C:\msys64\tmp\ccfzZER6.s:282    .text:0000000000000104 .LVL10
C:\msys64\tmp\ccfzZER6.s:375    .text:0000000000000148 .LBB181
C:\msys64\tmp\ccfzZER6.s:463    .text:00000000000001c4 .LBE181
C:\msys64\tmp\ccfzZER6.s:6710   .debug_str:0000000000000b08 .LASF174
C:\msys64\tmp\ccfzZER6.s:5878   .debug_loc:0000000000000cac .LLST24
C:\msys64\tmp\ccfzZER6.s:5885   .debug_loc:0000000000000ccf .LLST25
C:\msys64\tmp\ccfzZER6.s:6726   .debug_str:0000000000000ba5 .LASF175
C:\msys64\tmp\ccfzZER6.s:399    .text:0000000000000170 .LBB182
C:\msys64\tmp\ccfzZER6.s:424    .text:0000000000000198 .LBE182
C:\msys64\tmp\ccfzZER6.s:407    .text:000000000000017c .LBB184
C:\msys64\tmp\ccfzZER6.s:417    .text:000000000000018c .LBE184
C:\msys64\tmp\ccfzZER6.s:5892   .debug_loc:0000000000000cf2 .LLST26
C:\msys64\tmp\ccfzZER6.s:432    .text:00000000000001ac .LBB187
C:\msys64\tmp\ccfzZER6.s:446    .text:00000000000001b8 .LBE187
C:\msys64\tmp\ccfzZER6.s:5901   .debug_loc:0000000000000d1e .LLST27
C:\msys64\tmp\ccfzZER6.s:448    .text:00000000000001b8 .LBB189
C:\msys64\tmp\ccfzZER6.s:462    .text:00000000000001c4 .LBE189
C:\msys64\tmp\ccfzZER6.s:5909   .debug_loc:0000000000000d42 .LLST29
C:\msys64\tmp\ccfzZER6.s:5918   .debug_loc:0000000000000d67 .LLST30
C:\msys64\tmp\ccfzZER6.s:391    .text:0000000000000164 .LVL20
C:\msys64\tmp\ccfzZER6.s:429    .text:00000000000001ac .LVL23
C:\msys64\tmp\ccfzZER6.s:5926   .debug_loc:0000000000000d8b .LLST37
C:\msys64\tmp\ccfzZER6.s:543    .text:0000000000000214 .LBB198
C:\msys64\tmp\ccfzZER6.s:556    .text:0000000000000224 .LBE198
C:\msys64\tmp\ccfzZER6.s:5944   .debug_loc:0000000000000dd7 .LLST38
C:\msys64\tmp\ccfzZER6.s:5953   .debug_loc:0000000000000dfc .LLST39
C:\msys64\tmp\ccfzZER6.s:550    .text:0000000000000220 .LVL35
C:\msys64\tmp\ccfzZER6.s:569    .text:0000000000000238 .LBB200
C:\msys64\tmp\ccfzZER6.s:583    .text:0000000000000244 .LBE200
C:\msys64\tmp\ccfzZER6.s:5968   .debug_loc:0000000000000e45 .LLST40
C:\msys64\tmp\ccfzZER6.s:585    .text:0000000000000244 .LBB202
C:\msys64\tmp\ccfzZER6.s:599    .text:0000000000000250 .LBE202
C:\msys64\tmp\ccfzZER6.s:5976   .debug_loc:0000000000000e69 .LLST42
C:\msys64\tmp\ccfzZER6.s:5985   .debug_loc:0000000000000e8e .LLST43
C:\msys64\tmp\ccfzZER6.s:561    .text:0000000000000230 .LVL37
C:\msys64\tmp\ccfzZER6.s:1155   .text:00000000000004c4 .LVL91
C:\msys64\tmp\ccfzZER6.s:603    .text:0000000000000250 .LBB204
C:\msys64\tmp\ccfzZER6.s:649    .text:0000000000000280 .LBE204
GAS LISTING C:\msys64\tmp\ccfzZER6.s 			page 46


C:\msys64\tmp\ccfzZER6.s:5993   .debug_loc:0000000000000eb2 .LLST44
C:\msys64\tmp\ccfzZER6.s:609    .text:0000000000000254 .LBB205
C:\msys64\tmp\ccfzZER6.s:623    .text:0000000000000260 .LBE205
C:\msys64\tmp\ccfzZER6.s:6000   .debug_loc:0000000000000ed5 .LLST45
C:\msys64\tmp\ccfzZER6.s:6009   .debug_loc:0000000000000efa .LLST46
C:\msys64\tmp\ccfzZER6.s:630    .text:000000000000026c .LBB207
C:\msys64\tmp\ccfzZER6.s:640    .text:0000000000000270 .LBE207
C:\msys64\tmp\ccfzZER6.s:6017   .debug_loc:0000000000000f1e .LLST47
C:\msys64\tmp\ccfzZER6.s:6024   .debug_loc:0000000000000f41 .LLST48
C:\msys64\tmp\ccfzZER6.s:629    .text:000000000000026c .LVL43
C:\msys64\tmp\ccfzZER6.s:645    .text:000000000000027c .LVL45
C:\msys64\tmp\ccfzZER6.s:652    .text:0000000000000280 .LBB209
C:\msys64\tmp\ccfzZER6.s:692    .text:00000000000002a4 .LBE209
C:\msys64\tmp\ccfzZER6.s:6032   .debug_loc:0000000000000f65 .LLST49
C:\msys64\tmp\ccfzZER6.s:658    .text:0000000000000284 .LBB210
C:\msys64\tmp\ccfzZER6.s:672    .text:0000000000000290 .LBE210
C:\msys64\tmp\ccfzZER6.s:6039   .debug_loc:0000000000000f88 .LLST50
C:\msys64\tmp\ccfzZER6.s:6048   .debug_loc:0000000000000fad .LLST51
C:\msys64\tmp\ccfzZER6.s:678    .text:000000000000029c .LBB212
C:\msys64\tmp\ccfzZER6.s:691    .text:00000000000002a4 .LBE212
C:\msys64\tmp\ccfzZER6.s:6056   .debug_loc:0000000000000fd1 .LLST52
C:\msys64\tmp\ccfzZER6.s:6063   .debug_loc:0000000000000ff4 .LLST53
C:\msys64\tmp\ccfzZER6.s:677    .text:000000000000029c .LVL49
C:\msys64\tmp\ccfzZER6.s:695    .text:00000000000002a4 .LBB214
C:\msys64\tmp\ccfzZER6.s:735    .text:00000000000002c8 .LBE214
C:\msys64\tmp\ccfzZER6.s:6071   .debug_loc:0000000000001018 .LLST54
C:\msys64\tmp\ccfzZER6.s:701    .text:00000000000002a8 .LBB215
C:\msys64\tmp\ccfzZER6.s:715    .text:00000000000002b4 .LBE215
C:\msys64\tmp\ccfzZER6.s:6078   .debug_loc:000000000000103b .LLST55
C:\msys64\tmp\ccfzZER6.s:6087   .debug_loc:0000000000001060 .LLST56
C:\msys64\tmp\ccfzZER6.s:721    .text:00000000000002c0 .LBB217
C:\msys64\tmp\ccfzZER6.s:734    .text:00000000000002c8 .LBE217
C:\msys64\tmp\ccfzZER6.s:6095   .debug_loc:0000000000001084 .LLST57
C:\msys64\tmp\ccfzZER6.s:6102   .debug_loc:00000000000010a7 .LLST58
C:\msys64\tmp\ccfzZER6.s:720    .text:00000000000002c0 .LVL53
C:\msys64\tmp\ccfzZER6.s:783    .text:00000000000002f8 .LBB223
C:\msys64\tmp\ccfzZER6.s:803    .text:0000000000000308 .LBE223
C:\msys64\tmp\ccfzZER6.s:6110   .debug_loc:00000000000010cb .LLST63
C:\msys64\tmp\ccfzZER6.s:789    .text:0000000000000300 .LBB224
C:\msys64\tmp\ccfzZER6.s:802    .text:0000000000000308 .LBE224
C:\msys64\tmp\ccfzZER6.s:6117   .debug_loc:00000000000010ee .LLST65
C:\msys64\tmp\ccfzZER6.s:787    .text:0000000000000300 .LVL59
C:\msys64\tmp\ccfzZER6.s:806    .text:0000000000000308 .LBB226
C:\msys64\tmp\ccfzZER6.s:817    .text:0000000000000318 .LBE226
C:\msys64\tmp\ccfzZER6.s:6125   .debug_loc:0000000000001112 .LLST66
C:\msys64\tmp\ccfzZER6.s:812    .text:0000000000000314 .LVL61
C:\msys64\tmp\ccfzZER6.s:149    .text:00000000000000b0 .LBB171
C:\msys64\tmp\ccfzZER6.s:163    .text:00000000000000bc .LBE171
C:\msys64\tmp\ccfzZER6.s:169    .text:00000000000000c4 .LBB173
C:\msys64\tmp\ccfzZER6.s:183    .text:00000000000000d0 .LBE173
C:\msys64\tmp\ccfzZER6.s:359    .text:0000000000000140 .LBB179
C:\msys64\tmp\ccfzZER6.s:372    .text:0000000000000148 .LBE179
C:\msys64\tmp\ccfzZER6.s:6132   .debug_loc:0000000000001135 .LLST22
C:\msys64\tmp\ccfzZER6.s:6139   .debug_loc:0000000000001158 .LLST23
C:\msys64\tmp\ccfzZER6.s:476    .text:00000000000001d8 .LBB191
C:\msys64\tmp\ccfzZER6.s:486    .text:00000000000001e0 .LBE191
C:\msys64\tmp\ccfzZER6.s:6147   .debug_loc:000000000000117c .LLST31
GAS LISTING C:\msys64\tmp\ccfzZER6.s 			page 47


C:\msys64\tmp\ccfzZER6.s:6155   .debug_loc:00000000000011a0 .LLST32
C:\msys64\tmp\ccfzZER6.s:488    .text:00000000000001e0 .LBB193
C:\msys64\tmp\ccfzZER6.s:500    .text:00000000000001e8 .LBE193
C:\msys64\tmp\ccfzZER6.s:6162   .debug_loc:00000000000011c3 .LLST33
C:\msys64\tmp\ccfzZER6.s:510    .text:00000000000001f4 .LBB195
C:\msys64\tmp\ccfzZER6.s:524    .text:0000000000000200 .LBE195
C:\msys64\tmp\ccfzZER6.s:6170   .debug_loc:00000000000011e7 .LLST35
C:\msys64\tmp\ccfzZER6.s:6179   .debug_loc:000000000000120c .LLST36
C:\msys64\tmp\ccfzZER6.s:750    .text:00000000000002e0 .LBB219
C:\msys64\tmp\ccfzZER6.s:764    .text:00000000000002ec .LBE219
C:\msys64\tmp\ccfzZER6.s:6187   .debug_loc:0000000000001230 .LLST59
C:\msys64\tmp\ccfzZER6.s:766    .text:00000000000002ec .LBB221
C:\msys64\tmp\ccfzZER6.s:780    .text:00000000000002f8 .LBE221
C:\msys64\tmp\ccfzZER6.s:6195   .debug_loc:0000000000001254 .LLST61
C:\msys64\tmp\ccfzZER6.s:6204   .debug_loc:0000000000001279 .LLST62
C:\msys64\tmp\ccfzZER6.s:301    .text:000000000000010c .LBB228
C:\msys64\tmp\ccfzZER6.s:311    .text:0000000000000110 .LBE228
C:\msys64\tmp\ccfzZER6.s:6212   .debug_loc:000000000000129d .LLST67
C:\msys64\tmp\ccfzZER6.s:316    .text:0000000000000114 .LBB230
C:\msys64\tmp\ccfzZER6.s:327    .text:0000000000000118 .LBE230
C:\msys64\tmp\ccfzZER6.s:6219   .debug_loc:00000000000012c0 .LLST68
C:\msys64\tmp\ccfzZER6.s:358    .text:0000000000000140 .LVL17
C:\msys64\tmp\ccfzZER6.s:504    .text:00000000000001f0 .LVL30
C:\msys64\tmp\ccfzZER6.s:533    .text:0000000000000210 .LVL33
C:\msys64\tmp\ccfzZER6.s:748    .text:00000000000002e0 .LVL56
C:\msys64\tmp\ccfzZER6.s:6226   .debug_loc:00000000000012e3 .LLST15
C:\msys64\tmp\ccfzZER6.s:846    .text:000000000000033c .LBB151
C:\msys64\tmp\ccfzZER6.s:876    .text:000000000000036c .LBE151
C:\msys64\tmp\ccfzZER6.s:6233   .debug_loc:0000000000001306 .LLST16
C:\msys64\tmp\ccfzZER6.s:854    .text:0000000000000348 .LBB152
C:\msys64\tmp\ccfzZER6.s:859    .text:0000000000000348 .LBE152
C:\msys64\tmp\ccfzZER6.s:866    .text:000000000000035c .LBB154
C:\msys64\tmp\ccfzZER6.s:870    .text:000000000000035c .LBE154
C:\msys64\tmp\ccfzZER6.s:864    .text:000000000000035c .LVL68
C:\msys64\tmp\ccfzZER6.s:874    .text:000000000000036c .LVL69
C:\msys64\tmp\ccfzZER6.s:915    .text:00000000000003b4 .LBB160
C:\msys64\tmp\ccfzZER6.s:941    .text:00000000000003e0 .LBE160
C:\msys64\tmp\ccfzZER6.s:6240   .debug_loc:0000000000001329 .LLST17
C:\msys64\tmp\ccfzZER6.s:917    .text:00000000000003b4 .LBB161
C:\msys64\tmp\ccfzZER6.s:921    .text:00000000000003b4 .LBE161
C:\msys64\tmp\ccfzZER6.s:931    .text:00000000000003d0 .LBB163
C:\msys64\tmp\ccfzZER6.s:935    .text:00000000000003d0 .LBE163
C:\msys64\tmp\ccfzZER6.s:925    .text:00000000000003c4 .LVL72
C:\msys64\tmp\ccfzZER6.s:940    .text:00000000000003e0 .LVL74
C:\msys64\tmp\ccfzZER6.s:885    .text:0000000000000380 .LBB156
C:\msys64\tmp\ccfzZER6.s:889    .text:0000000000000380 .LBE156
C:\msys64\tmp\ccfzZER6.s:904    .text:00000000000003a0 .LBB158
C:\msys64\tmp\ccfzZER6.s:908    .text:00000000000003a0 .LBE158
C:\msys64\tmp\ccfzZER6.s:825    .text:0000000000000320 .LVL63
C:\msys64\tmp\ccfzZER6.s:839    .text:0000000000000338 .LVL66
C:\msys64\tmp\ccfzZER6.s:893    .text:0000000000000390 .LVL70
C:\msys64\tmp\ccfzZER6.s:912    .text:00000000000003b0 .LVL71
C:\msys64\tmp\ccfzZER6.s:6252   .debug_loc:0000000000001360 .LLST9
C:\msys64\tmp\ccfzZER6.s:954    .text:00000000000003e4 .LBB121
C:\msys64\tmp\ccfzZER6.s:998    .text:000000000000042c .LBB123
C:\msys64\tmp\ccfzZER6.s:1008   .text:000000000000043c .LBE123
C:\msys64\tmp\ccfzZER6.s:6263   .debug_loc:0000000000001396 .LLST10
GAS LISTING C:\msys64\tmp\ccfzZER6.s 			page 48


C:\msys64\tmp\ccfzZER6.s:962    .text:00000000000003f4 .LVL76
C:\msys64\tmp\ccfzZER6.s:1065   .text:0000000000000470 .LBB134
C:\msys64\tmp\ccfzZER6.s:1142   .text:00000000000004b4 .LBE134
C:\msys64\tmp\ccfzZER6.s:1067   .text:0000000000000470 .LBB135
C:\msys64\tmp\ccfzZER6.s:1081   .text:000000000000047c .LBE135
C:\msys64\tmp\ccfzZER6.s:1085   .text:0000000000000480 .LBB137
C:\msys64\tmp\ccfzZER6.s:1099   .text:000000000000048c .LBE137
C:\msys64\tmp\ccfzZER6.s:1113   .text:00000000000004a4 .LBB139
C:\msys64\tmp\ccfzZER6.s:1123   .text:00000000000004a8 .LBE139
C:\msys64\tmp\ccfzZER6.s:6272   .debug_loc:00000000000013c2 .LLST12
C:\msys64\tmp\ccfzZER6.s:1128   .text:00000000000004ac .LBB141
C:\msys64\tmp\ccfzZER6.s:1141   .text:00000000000004b4 .LBE141
C:\msys64\tmp\ccfzZER6.s:6279   .debug_loc:00000000000013e5 .LLST13
C:\msys64\tmp\ccfzZER6.s:1108   .text:00000000000004a0 .LVL85
C:\msys64\tmp\ccfzZER6.s:70     .text:0000000000000044 .LBB112
C:\msys64\tmp\ccfzZER6.s:87     .text:0000000000000050 .LBE112
C:\msys64\tmp\ccfzZER6.s:1025   .text:0000000000000454 .LBB132
C:\msys64\tmp\ccfzZER6.s:1032   .text:0000000000000458 .LBE132
C:\msys64\tmp\ccfzZER6.s:6286   .debug_loc:0000000000001408 .LLST11
C:\msys64\tmp\ccfzZER6.s:1041   .text:0000000000000464 .LBB143
C:\msys64\tmp\ccfzZER6.s:1052   .text:000000000000046c .LBE143
C:\msys64\tmp\ccfzZER6.s:6293   .debug_loc:000000000000142b .LLST14
C:\msys64\tmp\ccfzZER6.s:1158   .text:00000000000004d0 .LVL92
C:\msys64\tmp\ccfzZER6.s:13     .text:0000000000000000 .LFB34
C:\msys64\tmp\ccfzZER6.s:41     .text:0000000000000020 .LFE34
C:\msys64\tmp\ccfzZER6.s:6440   .debug_str:00000000000002c9 .LASF176
C:\msys64\tmp\ccfzZER6.s:6584   .debug_str:0000000000000704 .LASF194
C:\msys64\tmp\ccfzZER6.s:6422   .debug_str:000000000000021f .LASF195
C:\msys64\tmp\ccfzZER6.s:6432   .debug_str:0000000000000298 .LASF177
C:\msys64\tmp\ccfzZER6.s:6464   .debug_str:0000000000000365 .LASF178
C:\msys64\tmp\ccfzZER6.s:6450   .debug_str:0000000000000300 .LASF179
C:\msys64\tmp\ccfzZER6.s:6684   .debug_str:00000000000009bb .LASF182
C:\msys64\tmp\ccfzZER6.s:6472   .debug_str:00000000000003a2 .LASF184
C:\msys64\tmp\ccfzZER6.s:6516   .debug_str:0000000000000511 .LASF180
C:\msys64\tmp\ccfzZER6.s:6560   .debug_str:000000000000065d .LASF181
C:\msys64\tmp\ccfzZER6.s:6720   .debug_str:0000000000000b75 .LASF183
C:\msys64\tmp\ccfzZER6.s:6406   .debug_str:000000000000018c .LASF185
C:\msys64\tmp\ccfzZER6.s:52     .text:0000000000000020 .LVL0
C:\msys64\tmp\ccfzZER6.s:190    .text:00000000000000e0 .LVL6
C:\msys64\tmp\ccfzZER6.s:815    .text:0000000000000318 .LVL62
C:\msys64\tmp\ccfzZER6.s:92     .text:0000000000000054 .LVL3
C:\msys64\tmp\ccfzZER6.s:323    .text:0000000000000118 .LVL15
C:\msys64\tmp\ccfzZER6.s:346    .text:0000000000000134 .LVL16
C:\msys64\tmp\ccfzZER6.s:832    .text:000000000000032c .LVL65
C:\msys64\tmp\ccfzZER6.s:944    .text:00000000000003e4 .LVL75
C:\msys64\tmp\ccfzZER6.s:1152   .text:00000000000004b8 .LVL90
C:\msys64\tmp\ccfzZER6.s:85     .text:0000000000000050 .LVL2
C:\msys64\tmp\ccfzZER6.s:827    .text:0000000000000324 .LVL64
C:\msys64\tmp\ccfzZER6.s:369    .text:0000000000000148 .LVL18
C:\msys64\tmp\ccfzZER6.s:459    .text:00000000000001c4 .LVL25
C:\msys64\tmp\ccfzZER6.s:507    .text:00000000000001f4 .LVL31
C:\msys64\tmp\ccfzZER6.s:536    .text:0000000000000214 .LVL34
C:\msys64\tmp\ccfzZER6.s:596    .text:0000000000000250 .LVL40
C:\msys64\tmp\ccfzZER6.s:647    .text:0000000000000280 .LVL46
C:\msys64\tmp\ccfzZER6.s:688    .text:00000000000002a4 .LVL50
C:\msys64\tmp\ccfzZER6.s:731    .text:00000000000002c8 .LVL54
C:\msys64\tmp\ccfzZER6.s:761    .text:00000000000002ec .LVL57
GAS LISTING C:\msys64\tmp\ccfzZER6.s 			page 49


C:\msys64\tmp\ccfzZER6.s:799    .text:0000000000000308 .LVL60
C:\msys64\tmp\ccfzZER6.s:118    .text:0000000000000084 .LVL4
C:\msys64\tmp\ccfzZER6.s:139    .text:00000000000000b0 .LVL5
C:\msys64\tmp\ccfzZER6.s:482    .text:00000000000001dc .LVL27
C:\msys64\tmp\ccfzZER6.s:79     .text:0000000000000048 .LVL1
C:\msys64\tmp\ccfzZER6.s:192    .text:00000000000000e8 .LVL7
C:\msys64\tmp\ccfzZER6.s:387    .text:0000000000000154 .LVL19
C:\msys64\tmp\ccfzZER6.s:746    .text:00000000000002d8 .LVL55
C:\msys64\tmp\ccfzZER6.s:1138   .text:00000000000004b4 .LVL89
C:\msys64\tmp\ccfzZER6.s:275    .text:00000000000000f8 .LVL8
C:\msys64\tmp\ccfzZER6.s:279    .text:00000000000000fc .LVL9
C:\msys64\tmp\ccfzZER6.s:290    .text:0000000000000108 .LVL11
C:\msys64\tmp\ccfzZER6.s:406    .text:000000000000017c .LVL21
C:\msys64\tmp\ccfzZER6.s:414    .text:000000000000018c .LVL22
C:\msys64\tmp\ccfzZER6.s:443    .text:00000000000001b8 .LVL24
C:\msys64\tmp\ccfzZER6.s:553    .text:0000000000000224 .LVL36
C:\msys64\tmp\ccfzZER6.s:568    .text:0000000000000238 .LVL38
C:\msys64\tmp\ccfzZER6.s:580    .text:0000000000000244 .LVL39
C:\msys64\tmp\ccfzZER6.s:608    .text:0000000000000254 .LVL41
C:\msys64\tmp\ccfzZER6.s:620    .text:0000000000000260 .LVL42
C:\msys64\tmp\ccfzZER6.s:637    .text:0000000000000270 .LVL44
C:\msys64\tmp\ccfzZER6.s:657    .text:0000000000000284 .LVL47
C:\msys64\tmp\ccfzZER6.s:669    .text:0000000000000290 .LVL48
C:\msys64\tmp\ccfzZER6.s:700    .text:00000000000002a8 .LVL51
C:\msys64\tmp\ccfzZER6.s:712    .text:00000000000002b4 .LVL52
C:\msys64\tmp\ccfzZER6.s:475    .text:00000000000001d8 .LVL26
C:\msys64\tmp\ccfzZER6.s:484    .text:00000000000001e0 .LVL28
C:\msys64\tmp\ccfzZER6.s:496    .text:00000000000001e8 .LVL29
C:\msys64\tmp\ccfzZER6.s:521    .text:0000000000000200 .LVL32
C:\msys64\tmp\ccfzZER6.s:777    .text:00000000000002f8 .LVL58
C:\msys64\tmp\ccfzZER6.s:300    .text:000000000000010c .LVL12
C:\msys64\tmp\ccfzZER6.s:308    .text:0000000000000110 .LVL13
C:\msys64\tmp\ccfzZER6.s:315    .text:0000000000000114 .LVL14
C:\msys64\tmp\ccfzZER6.s:852    .text:0000000000000348 .LVL67
C:\msys64\tmp\ccfzZER6.s:938    .text:00000000000003d8 .LVL73
C:\msys64\tmp\ccfzZER6.s:977    .text:0000000000000408 .LVL77
C:\msys64\tmp\ccfzZER6.s:1013   .text:000000000000044c .LVL80
C:\msys64\tmp\ccfzZER6.s:997    .text:000000000000042c .LVL78
C:\msys64\tmp\ccfzZER6.s:1005   .text:000000000000043c .LVL79
C:\msys64\tmp\ccfzZER6.s:1112   .text:00000000000004a4 .LVL86
C:\msys64\tmp\ccfzZER6.s:1120   .text:00000000000004a8 .LVL87
C:\msys64\tmp\ccfzZER6.s:1127   .text:00000000000004ac .LVL88
C:\msys64\tmp\ccfzZER6.s:1024   .text:0000000000000454 .LVL81
C:\msys64\tmp\ccfzZER6.s:1030   .text:0000000000000458 .LVL82
C:\msys64\tmp\ccfzZER6.s:1040   .text:0000000000000464 .LVL83
C:\msys64\tmp\ccfzZER6.s:1049   .text:000000000000046c .LVL84
C:\msys64\tmp\ccfzZER6.s:1207   .debug_info:0000000000000000 .Ldebug_info0
C:\msys64\tmp\ccfzZER6.s:953    .text:00000000000003e4 .LBB120
C:\msys64\tmp\ccfzZER6.s:964    .text:00000000000003f4 .LBE120
C:\msys64\tmp\ccfzZER6.s:975    .text:0000000000000408 .LBB128
C:\msys64\tmp\ccfzZER6.s:1017   .text:000000000000044c .LBE128
C:\msys64\tmp\ccfzZER6.s:958    .text:00000000000003e4 .LBE121
C:\msys64\tmp\ccfzZER6.s:991    .text:0000000000000420 .LBB127
C:\msys64\tmp\ccfzZER6.s:1016   .text:000000000000044c .LBE127
C:\msys64\tmp\ccfzZER6.s:821    .text:0000000000000318 .LBB148
C:\msys64\tmp\ccfzZER6.s:840    .text:0000000000000338 .LBE148
C:\msys64\tmp\ccfzZER6.s:843    .text:000000000000033c .LBB166
GAS LISTING C:\msys64\tmp\ccfzZER6.s 			page 50


C:\msys64\tmp\ccfzZER6.s:948    .text:00000000000003e4 .LBE166
C:\msys64\tmp\ccfzZER6.s:146    .text:00000000000000b0 .LBB170
C:\msys64\tmp\ccfzZER6.s:328    .text:0000000000000118 .LBE170
C:\msys64\tmp\ccfzZER6.s:350    .text:0000000000000134 .LBB234
C:\msys64\tmp\ccfzZER6.s:819    .text:0000000000000318 .LBE234
C:\msys64\tmp\ccfzZER6.s:1147   .text:00000000000004b4 .LBB237
C:\msys64\tmp\ccfzZER6.s:1162   .text:00000000000004d0 .LBE237
C:\msys64\tmp\ccfzZER6.s:540    .text:0000000000000214 .LBB197
C:\msys64\tmp\ccfzZER6.s:600    .text:0000000000000250 .LBE197
C:\msys64\tmp\ccfzZER6.s:1149   .text:00000000000004b4 .LBB227
C:\msys64\tmp\ccfzZER6.s:1160   .text:00000000000004d0 .LBE227
C:\msys64\tmp\ccfzZER6.s:1168   .gcc_except_table:0000000000000000 .LLSDA35

UNDEFINED SYMBOLS
_ZN6Thread16timeSliceCounterE
_ZN6Thread12sleepingHeadE
_ZN15MemoryAllocator7kmallocEm
_ZN15MemoryAllocator5kfreeEPv
_ZN6Thread12createThreadEPFvPvES0_S0_
_ZN9Scheduler3putEP6Thread
_ZN6Thread7runningE
_ZN6Thread8dispatchEv
_ZN9SemaphoreC1Ei
_ZN9Semaphore5closeEv
_ZdlPv
_ZN9Semaphore4waitEv
_ZN9Semaphore6signalEv
_ZN6Thread10time_sleepEm
_ZN7Console4getcEv
_ZN7Console4putcEc
plic_claim
plic_complete
CONSOLE_RX_DATA
_ZN7Console6inbuffE
_ZN6Buffer3putEc
_ZN7Console5inSemE
CONSOLE_STATUS
_ZN6Buffer6isFullEv
_ZN7Console7outbuffE
_ZN6Buffer7isEmptyEv
_ZN6Buffer3getEv
CONSOLE_TX_DATA
_ZN7Console6outSemE
_Unwind_Resume
__gxx_personality_v0
