GAS LISTING C:\msys64\tmp\cczdVx3K.s 			page 1


   1              		.file	"riscv.cpp"
   2              		.option nopic
   3              		.option norelax
   4              		.attribute arch, "rv64i2p0_m2p0_a2p0"
   5              		.attribute unaligned_access, 0
   6              		.attribute stack_align, 16
   7              		.text
   8              	.Ltext0:
   9              		.align	2
  10              		.globl	_ZN5Riscv10popSppSpieEv
  12              	_ZN5Riscv10popSppSpieEv:
  13              	.LFB34:
  14              		.file 1 "src/riscv.cpp"
   1:src/riscv.cpp **** #include "../h/riscv.h"
   2:src/riscv.cpp **** #include "../lib/console.h"
   3:src/riscv.cpp **** #include "../h/MemoryAllocator.h"
   4:src/riscv.cpp **** #include "../h/Thread.h"
   5:src/riscv.cpp **** #include "../h/Semaphore.h"
   6:src/riscv.cpp **** #include "../h/Console.h"
   7:src/riscv.cpp **** #include "../h/print.hpp"
   8:src/riscv.cpp **** void Riscv::popSppSpie()
   9:src/riscv.cpp **** {
  15              		.loc 1 9 1
  16              		.cfi_startproc
  17 0000 130101FF 		addi	sp,sp,-16
  18              		.cfi_def_cfa_offset 16
  19 0004 23348100 		sd	s0,8(sp)
  20              		.cfi_offset 8, -8
  21 0008 13040101 		addi	s0,sp,16
  22              		.cfi_def_cfa 8, 0
  10:src/riscv.cpp **** 	__asm__ volatile("csrw sepc, ra");
  23              		.loc 1 10 2
  24              	 #APP
  25              	# 10 "src/riscv.cpp" 1
  11              		Riscv::mc_sstatus(Riscv::SSTATUS_SPP);
  26              		csrw sepc, ra
  27              	# 0 "" 2
  28              		.loc 1 11 2
  29              	.LVL0:
  30              	 #NO_APP
  31              	.LBB128:
  32              	.LBB129:
  33              		.file 2 "src/../h/riscv.h"
   1:src/../h/riscv.h **** //
   2:src/../h/riscv.h **** // Created by os on 3/31/26.
   3:src/../h/riscv.h **** //
   4:src/../h/riscv.h **** 
   5:src/../h/riscv.h **** #ifndef PROJECT_BASE_RISCB_H
   6:src/../h/riscv.h **** #define PROJECT_BASE_RISCB_H
   7:src/../h/riscv.h **** #include "../lib/hw.h"
   8:src/../h/riscv.h **** 
   9:src/../h/riscv.h **** class Riscv
  10:src/../h/riscv.h **** {
  11:src/../h/riscv.h **** public:
  12:src/../h/riscv.h ****     static void popSppSpie();
  13:src/../h/riscv.h **** 
  14:src/../h/riscv.h ****     static uint64 r_scause();
GAS LISTING C:\msys64\tmp\cczdVx3K.s 			page 2


  15:src/../h/riscv.h **** 
  16:src/../h/riscv.h ****     static void w_scause(uint64 scause);
  17:src/../h/riscv.h **** 
  18:src/../h/riscv.h ****     static uint64 r_sepc();
  19:src/../h/riscv.h **** 
  20:src/../h/riscv.h ****     static void w_sepc(uint64 sepc);
  21:src/../h/riscv.h **** 
  22:src/../h/riscv.h ****     static uint64 r_stvec();
  23:src/../h/riscv.h **** 
  24:src/../h/riscv.h ****     static void w_stvec(uint64 stvec);
  25:src/../h/riscv.h **** 
  26:src/../h/riscv.h ****     static uint64 r_stval();
  27:src/../h/riscv.h **** 
  28:src/../h/riscv.h ****     static void w_stval(uint64 stval);
  29:src/../h/riscv.h **** 
  30:src/../h/riscv.h ****     enum BitMaskSip
  31:src/../h/riscv.h ****     {
  32:src/../h/riscv.h ****         SIP_SSIP = (1 << 1),
  33:src/../h/riscv.h ****         SIP_STIP = (1 << 5),
  34:src/../h/riscv.h ****         SIP_SEIP = (1 << 9),
  35:src/../h/riscv.h ****     };
  36:src/../h/riscv.h **** 
  37:src/../h/riscv.h ****     static void ms_sip(uint64 mask);
  38:src/../h/riscv.h **** 
  39:src/../h/riscv.h ****     static void mc_sip(uint64 mask);
  40:src/../h/riscv.h **** 
  41:src/../h/riscv.h ****     static uint64 r_sip();
  42:src/../h/riscv.h **** 
  43:src/../h/riscv.h ****     static void w_sip(uint64 sip);
  44:src/../h/riscv.h **** 
  45:src/../h/riscv.h ****     enum BitMaskSstatus
  46:src/../h/riscv.h ****     {
  47:src/../h/riscv.h ****         SSTATUS_SIE = (1 << 1),
  48:src/../h/riscv.h ****         SSTATUS_SPIE = (1 << 5),
  49:src/../h/riscv.h ****         SSTATUS_SPP = (1 << 8),
  50:src/../h/riscv.h ****     };
  51:src/../h/riscv.h **** 
  52:src/../h/riscv.h ****     static void ms_sstatus(uint64 mask);
  53:src/../h/riscv.h **** 
  54:src/../h/riscv.h ****     static void mc_sstatus(uint64 mask);
  55:src/../h/riscv.h **** 
  56:src/../h/riscv.h ****     static uint64 r_sstatus();
  57:src/../h/riscv.h **** 
  58:src/../h/riscv.h ****     static void w_sstatus(uint64 sstatus);
  59:src/../h/riscv.h **** 
  60:src/../h/riscv.h ****     static uint64 readARegister(int reg_number);
  61:src/../h/riscv.h **** 
  62:src/../h/riscv.h ****     static void writeARegister(int reg_number, uint64 value);
  63:src/../h/riscv.h **** 
  64:src/../h/riscv.h ****     static void supervisorTrap();
  65:src/../h/riscv.h **** 
  66:src/../h/riscv.h **** private:
  67:src/../h/riscv.h ****     static void handleSupervisorTrap(uint64 a0, uint64 a1, uint64 a2, uint64 a3, uint64 a4, uint64 
  68:src/../h/riscv.h **** };
  69:src/../h/riscv.h **** 
  70:src/../h/riscv.h **** inline uint64 Riscv::r_scause()
  71:src/../h/riscv.h **** {
GAS LISTING C:\msys64\tmp\cczdVx3K.s 			page 3


  72:src/../h/riscv.h ****     uint64 volatile scause;
  73:src/../h/riscv.h ****     __asm__ volatile("csrr %[scause], scause" : [scause] "=r"(scause));
  74:src/../h/riscv.h ****     return scause;
  75:src/../h/riscv.h **** }
  76:src/../h/riscv.h **** 
  77:src/../h/riscv.h **** inline void Riscv::w_scause(uint64 scause)
  78:src/../h/riscv.h **** {
  79:src/../h/riscv.h ****     __asm__ volatile("csrw scause, %[scause]" : : [scause] "r"(scause));
  80:src/../h/riscv.h **** }
  81:src/../h/riscv.h **** 
  82:src/../h/riscv.h **** inline uint64 Riscv::r_sepc()
  83:src/../h/riscv.h **** {
  84:src/../h/riscv.h ****     uint64 volatile sepc;
  85:src/../h/riscv.h ****     __asm__ volatile("csrr %[sepc], sepc" : [sepc] "=r"(sepc));
  86:src/../h/riscv.h ****     return sepc;
  87:src/../h/riscv.h **** }
  88:src/../h/riscv.h **** 
  89:src/../h/riscv.h **** inline void Riscv::w_sepc(uint64 sepc)
  90:src/../h/riscv.h **** {
  91:src/../h/riscv.h ****     __asm__ volatile("csrw sepc, %[sepc]" : : [sepc] "r"(sepc));
  92:src/../h/riscv.h **** }
  93:src/../h/riscv.h **** 
  94:src/../h/riscv.h **** inline uint64 Riscv::r_stvec()
  95:src/../h/riscv.h **** {
  96:src/../h/riscv.h ****     uint64 volatile stvec;
  97:src/../h/riscv.h ****     __asm__ volatile("csrr %[stvec], stvec" : [stvec] "=r"(stvec));
  98:src/../h/riscv.h ****     return stvec;
  99:src/../h/riscv.h **** }
 100:src/../h/riscv.h **** 
 101:src/../h/riscv.h **** inline void Riscv::w_stvec(uint64 stvec)
 102:src/../h/riscv.h **** {
 103:src/../h/riscv.h ****     __asm__ volatile("csrw stvec, %[stvec]" : : [stvec] "r"(stvec));
 104:src/../h/riscv.h **** }
 105:src/../h/riscv.h **** 
 106:src/../h/riscv.h **** inline uint64 Riscv::r_stval()
 107:src/../h/riscv.h **** {
 108:src/../h/riscv.h ****     uint64 volatile stval;
 109:src/../h/riscv.h ****     __asm__ volatile("csrr %[stval], stval" : [stval] "=r"(stval));
 110:src/../h/riscv.h ****     return stval;
 111:src/../h/riscv.h **** }
 112:src/../h/riscv.h **** 
 113:src/../h/riscv.h **** inline void Riscv::w_stval(uint64 stval)
 114:src/../h/riscv.h **** {
 115:src/../h/riscv.h ****     __asm__ volatile("csrw stval, %[stval]" : : [stval] "r"(stval));
 116:src/../h/riscv.h **** }
 117:src/../h/riscv.h **** 
 118:src/../h/riscv.h **** inline void Riscv::ms_sip(uint64 mask)
 119:src/../h/riscv.h **** {
 120:src/../h/riscv.h ****     __asm__ volatile("csrs sip, %[mask]" : : [mask] "r"(mask));
 121:src/../h/riscv.h **** }
 122:src/../h/riscv.h **** 
 123:src/../h/riscv.h **** inline void Riscv::mc_sip(uint64 mask)
 124:src/../h/riscv.h **** {
 125:src/../h/riscv.h ****     __asm__ volatile("csrc sip, %[mask]" : : [mask] "r"(mask));
 126:src/../h/riscv.h **** }
 127:src/../h/riscv.h **** 
 128:src/../h/riscv.h **** inline uint64 Riscv::r_sip()
GAS LISTING C:\msys64\tmp\cczdVx3K.s 			page 4


 129:src/../h/riscv.h **** {
 130:src/../h/riscv.h ****     uint64 volatile sip;
 131:src/../h/riscv.h ****     __asm__ volatile("csrr %[sip], sip" : [sip] "=r"(sip));
 132:src/../h/riscv.h ****     return sip;
 133:src/../h/riscv.h **** }
 134:src/../h/riscv.h **** 
 135:src/../h/riscv.h **** inline void Riscv::w_sip(uint64 sip)
 136:src/../h/riscv.h **** {
 137:src/../h/riscv.h ****     __asm__ volatile("csrw sip, %[sip]" : : [sip] "r"(sip));
 138:src/../h/riscv.h **** }
 139:src/../h/riscv.h **** 
 140:src/../h/riscv.h **** inline void Riscv::ms_sstatus(uint64 mask)
 141:src/../h/riscv.h **** {
 142:src/../h/riscv.h ****     __asm__ volatile("csrs sstatus, %[mask]" : : [mask] "r"(mask));
 143:src/../h/riscv.h **** }
 144:src/../h/riscv.h **** 
 145:src/../h/riscv.h **** inline void Riscv::mc_sstatus(uint64 mask)
 146:src/../h/riscv.h **** {
 147:src/../h/riscv.h ****     __asm__ volatile("csrc sstatus, %[mask]" : : [mask] "r"(mask));
  34              		.loc 2 147 5
  35 0010 93070010 		li	a5,256
  36              	 #APP
  37              	# 147 "src/../h/riscv.h" 1
 148              	}
  38              		csrc sstatus, a5
  39              	# 0 "" 2
  40              	.LVL1:
  41              	 #NO_APP
  42              	.LBE129:
  43              	.LBE128:
  12:src/riscv.cpp **** 	__asm__ volatile("sret");
  44              		.loc 1 12 2
  45              	 #APP
  46              	# 12 "src/riscv.cpp" 1
  13              	}
  47              		sret
  48              	# 0 "" 2
  49              		.loc 1 13 1 is_stmt 0
  50              	 #NO_APP
  51 001c 03348100 		ld	s0,8(sp)
  52              		.cfi_restore 8
  53              		.cfi_def_cfa 2, 16
  54 0020 13010101 		addi	sp,sp,16
  55              		.cfi_def_cfa_offset 0
  56 0024 67800000 		jr	ra
  57              		.cfi_endproc
  58              	.LFE34:
  60              		.section	.rodata.str1.8,"aMS",@progbits,1
  61              		.align	3
  62              	.LC0:
  63 0000 556E6861 		.string	"Unhandled exception: SEPC = "
  63      6E646C65 
  63      64206578 
  63      63657074 
  63      696F6E3A 
  64 001d 000000   		.align	3
  65              	.LC1:
GAS LISTING C:\msys64\tmp\cczdVx3K.s 			page 5


  66 0020 2C205343 		.string	", SCAUSE = "
  66      41555345 
  66      203D2000 
  67 002c 00000000 		.align	3
  68              	.LC2:
  69 0030 0A00     		.string	"\n"
  70              		.text
  71              		.align	2
  72              		.globl	_ZN5Riscv20handleSupervisorTrapEmmmmmmmm
  74              	_ZN5Riscv20handleSupervisorTrapEmmmmmmmm:
  75              	.LFB35:
  14:src/riscv.cpp **** void Riscv::handleSupervisorTrap(uint64 a0, uint64 a1, uint64 a2, uint64 a3, uint64 a4, uint64 a5, 
  15:src/riscv.cpp **** {
  76              		.loc 1 15 1 is_stmt 1
  77              		.cfi_startproc
  78              		.cfi_personality 0x9b,DW.ref.__gxx_personality_v0
  79              		.cfi_lsda 0x1b,.LLSDA35
  80              	.LVL2:
  81 0028 130101F7 		addi	sp,sp,-144
  82              		.cfi_def_cfa_offset 144
  83 002c 23341108 		sd	ra,136(sp)
  84 0030 23308108 		sd	s0,128(sp)
  85 0034 233C9106 		sd	s1,120(sp)
  86 0038 23382107 		sd	s2,112(sp)
  87 003c 23343107 		sd	s3,104(sp)
  88              		.cfi_offset 1, -8
  89              		.cfi_offset 8, -16
  90              		.cfi_offset 9, -24
  91              		.cfi_offset 18, -32
  92              		.cfi_offset 19, -40
  93 0040 13040109 		addi	s0,sp,144
  94              		.cfi_def_cfa 8, 0
  95 0044 93840500 		mv	s1,a1
  96 0048 13090600 		mv	s2,a2
  16:src/riscv.cpp **** 
  17:src/riscv.cpp **** 	uint64 scause = r_scause();
  97              		.loc 1 17 2
  98              	.LBB130:
  99              	.LBB131:
  72:src/../h/riscv.h ****     __asm__ volatile("csrr %[scause], scause" : [scause] "=r"(scause));
 100              		.loc 2 72 5
  73:src/../h/riscv.h ****     return scause;
 101              		.loc 2 73 5
 102              	 #APP
 103              	# 73 "src/../h/riscv.h" 1
 104              		csrr a5, scause
 105              	# 0 "" 2
 106              	.LVL3:
 107              	 #NO_APP
 108 0050 2334F4FA 		sd	a5,-88(s0)
  74:src/../h/riscv.h **** }
 109              		.loc 2 74 5
  74:src/../h/riscv.h **** }
 110              		.loc 2 74 12 is_stmt 0
 111 0054 033684FA 		ld	a2,-88(s0)
 112              	.LVL4:
 113              	.LBE131:
GAS LISTING C:\msys64\tmp\cczdVx3K.s 			page 6


 114              	.LBE130:
  18:src/riscv.cpp **** 
  19:src/riscv.cpp **** 	if (scause == 0x0000000000000008UL || scause == 0x0000000000000009UL)
 115              		.loc 1 19 2 is_stmt 1
 116              	.LBB132:
 117              		.loc 1 19 37 is_stmt 0
 118 0058 930586FF 		addi	a1,a2,-8
 119              	.LVL5:
 120              		.loc 1 19 2
 121 005c 93071000 		li	a5,1
 122 0060 63FCB704 		bleu	a1,a5,.L49
 123              	.LBE132:
  20:src/riscv.cpp **** 	{
  21:src/riscv.cpp **** 		uint64 call = a0;
  22:src/riscv.cpp **** 		uint64 volatile sepc = r_sepc() + 4;
  23:src/riscv.cpp **** 		uint64 volatile sstatus = r_sstatus();
  24:src/riscv.cpp **** 
  25:src/riscv.cpp **** 		switch (call)
  26:src/riscv.cpp **** 		{
  27:src/riscv.cpp **** 		case 0x01:
  28:src/riscv.cpp **** 		{
  29:src/riscv.cpp **** 			size_t bytes = a1 * MEM_BLOCK_SIZE;
  30:src/riscv.cpp **** 			writeARegister(0, (uint64)MemoryAllocator::kmalloc(bytes));
  31:src/riscv.cpp **** 			break;
  32:src/riscv.cpp **** 		}
  33:src/riscv.cpp **** 		case 0x02:
  34:src/riscv.cpp **** 		{
  35:src/riscv.cpp **** 			writeARegister(0, (uint64)MemoryAllocator::kfree((void *)a1));
  36:src/riscv.cpp **** 			break;
  37:src/riscv.cpp **** 		}
  38:src/riscv.cpp **** 		case 0x11:
  39:src/riscv.cpp **** 		{
  40:src/riscv.cpp **** 			_thread **handle = (_thread **)a1;
  41:src/riscv.cpp **** 			_thread::Body body = (_thread::Body)a2;
  42:src/riscv.cpp **** 			void *volatile arg = (void *)a3;
  43:src/riscv.cpp **** 			void *volatile stack_space = (void *)a4;
  44:src/riscv.cpp **** 
  45:src/riscv.cpp **** 			*handle = _thread::createThread(body, arg, stack_space);
  46:src/riscv.cpp **** 
  47:src/riscv.cpp **** 			if (*handle)
  48:src/riscv.cpp **** 			{
  49:src/riscv.cpp **** 				if (body != nullptr)
  50:src/riscv.cpp **** 					Scheduler::instance().put(*handle);
  51:src/riscv.cpp **** 				writeARegister(0, 0);
  52:src/riscv.cpp **** 			}
  53:src/riscv.cpp **** 			else
  54:src/riscv.cpp **** 				writeARegister(0, -1);
  55:src/riscv.cpp **** 			break;
  56:src/riscv.cpp **** 		}
  57:src/riscv.cpp **** 		case 0x12:
  58:src/riscv.cpp **** 		{
  59:src/riscv.cpp **** 			_thread::timeSliceCounter = 0;
  60:src/riscv.cpp **** 			if (_thread::running)
  61:src/riscv.cpp **** 			{
  62:src/riscv.cpp **** 				_thread::running->setFinished(true); // possible need to notify if someone is wating for this t
  63:src/riscv.cpp **** 				writeARegister(0, 0);
  64:src/riscv.cpp **** 			}
GAS LISTING C:\msys64\tmp\cczdVx3K.s 			page 7


  65:src/riscv.cpp **** 			else
  66:src/riscv.cpp **** 			{
  67:src/riscv.cpp **** 				writeARegister(0, -1);
  68:src/riscv.cpp **** 			}
  69:src/riscv.cpp **** 
  70:src/riscv.cpp **** 			_thread::dispatch();
  71:src/riscv.cpp **** 			break;
  72:src/riscv.cpp **** 		}
  73:src/riscv.cpp **** 		case 0x13:
  74:src/riscv.cpp **** 		{
  75:src/riscv.cpp **** 			_thread::timeSliceCounter = 0;
  76:src/riscv.cpp **** 			_thread::dispatch();
  77:src/riscv.cpp **** 			break;
  78:src/riscv.cpp **** 		}
  79:src/riscv.cpp **** 		case 0x21:
  80:src/riscv.cpp **** 		{
  81:src/riscv.cpp **** 			_sem **handle = (_sem **)a1;
  82:src/riscv.cpp **** 
  83:src/riscv.cpp **** 			*handle = new _sem(a2);
  84:src/riscv.cpp **** 
  85:src/riscv.cpp **** 			if (*handle)
  86:src/riscv.cpp **** 			{
  87:src/riscv.cpp **** 				writeARegister(0, 0);
  88:src/riscv.cpp **** 			}
  89:src/riscv.cpp **** 			else
  90:src/riscv.cpp **** 				writeARegister(0, -1);
  91:src/riscv.cpp **** 			break;
  92:src/riscv.cpp **** 		}
  93:src/riscv.cpp **** 		case 0x22:
  94:src/riscv.cpp **** 		{
  95:src/riscv.cpp **** 			_sem *s = (_sem *)a1;
  96:src/riscv.cpp **** 			if (s == nullptr)
  97:src/riscv.cpp **** 			{
  98:src/riscv.cpp **** 				writeARegister(0, -1);
  99:src/riscv.cpp **** 			}
 100:src/riscv.cpp **** 			else
 101:src/riscv.cpp **** 			{
 102:src/riscv.cpp **** 				writeARegister(0, s->close());
 103:src/riscv.cpp **** 				delete s;
 104:src/riscv.cpp **** 			}
 105:src/riscv.cpp **** 
 106:src/riscv.cpp **** 			break;
 107:src/riscv.cpp **** 		}
 108:src/riscv.cpp **** 		case 0x23:
 109:src/riscv.cpp **** 		{
 110:src/riscv.cpp **** 			_sem *s = (_sem *)a1;
 111:src/riscv.cpp **** 			if (s == nullptr)
 112:src/riscv.cpp **** 			{
 113:src/riscv.cpp **** 				writeARegister(0, -1);
 114:src/riscv.cpp **** 			}
 115:src/riscv.cpp **** 			else
 116:src/riscv.cpp **** 			{
 117:src/riscv.cpp **** 				writeARegister(0, s->wait());
 118:src/riscv.cpp **** 			}
 119:src/riscv.cpp **** 
 120:src/riscv.cpp **** 			break;
 121:src/riscv.cpp **** 		}
GAS LISTING C:\msys64\tmp\cczdVx3K.s 			page 8


 122:src/riscv.cpp **** 		case 0x24:
 123:src/riscv.cpp **** 		{
 124:src/riscv.cpp **** 			_sem *s = (_sem *)a1;
 125:src/riscv.cpp **** 			if (s == nullptr)
 126:src/riscv.cpp **** 			{
 127:src/riscv.cpp **** 				writeARegister(0, -1);
 128:src/riscv.cpp **** 			}
 129:src/riscv.cpp **** 			else
 130:src/riscv.cpp **** 			{
 131:src/riscv.cpp **** 				writeARegister(0, s->signal());
 132:src/riscv.cpp **** 			}
 133:src/riscv.cpp **** 			break;
 134:src/riscv.cpp **** 		}
 135:src/riscv.cpp **** 		case 0x25:{
 136:src/riscv.cpp **** 			_sem *s = (_sem *)a1;
 137:src/riscv.cpp **** 			unsigned n = (unsigned)a2;
 138:src/riscv.cpp **** 			if (s == nullptr)
 139:src/riscv.cpp **** 			{
 140:src/riscv.cpp **** 				writeARegister(0, -1);
 141:src/riscv.cpp **** 			}
 142:src/riscv.cpp **** 			else
 143:src/riscv.cpp **** 			{
 144:src/riscv.cpp **** 				writeARegister(0, s->wait_n(n));
 145:src/riscv.cpp **** 			}
 146:src/riscv.cpp **** 			break;
 147:src/riscv.cpp **** 		}
 148:src/riscv.cpp **** 		case 0x26:{
 149:src/riscv.cpp **** 			_sem *s = (_sem *)a1;
 150:src/riscv.cpp **** 			unsigned n = (unsigned)a2;
 151:src/riscv.cpp **** 			if (s == nullptr)
 152:src/riscv.cpp **** 			{
 153:src/riscv.cpp **** 				writeARegister(0, -1);
 154:src/riscv.cpp **** 			}
 155:src/riscv.cpp **** 			else
 156:src/riscv.cpp **** 			{
 157:src/riscv.cpp **** 				writeARegister(0, s->signal_n(n));
 158:src/riscv.cpp **** 			}
 159:src/riscv.cpp **** 			break;
 160:src/riscv.cpp **** 		}
 161:src/riscv.cpp **** 		case 0x31:
 162:src/riscv.cpp **** 		{
 163:src/riscv.cpp **** 			if (_thread::running == nullptr)
 164:src/riscv.cpp **** 			{
 165:src/riscv.cpp **** 				writeARegister(0, -1);
 166:src/riscv.cpp **** 			}
 167:src/riscv.cpp **** 			else
 168:src/riscv.cpp **** 			{
 169:src/riscv.cpp **** 				_thread::running->time_sleep(a1);
 170:src/riscv.cpp **** 				writeARegister(0, 0);
 171:src/riscv.cpp **** 			}
 172:src/riscv.cpp **** 
 173:src/riscv.cpp **** 			break;
 174:src/riscv.cpp **** 		}
 175:src/riscv.cpp **** 		case 0x41:
 176:src/riscv.cpp **** 		{
 177:src/riscv.cpp **** 			char c = _console::getc();
 178:src/riscv.cpp **** 			writeARegister(0, (uint64)c);
GAS LISTING C:\msys64\tmp\cczdVx3K.s 			page 9


 179:src/riscv.cpp **** 			break;
 180:src/riscv.cpp **** 		}
 181:src/riscv.cpp **** 
 182:src/riscv.cpp **** 		case 0x42:
 183:src/riscv.cpp **** 		{					   // putc
 184:src/riscv.cpp **** 			char c = (char)a1; // Karakter koji je korisnik prosledio
 185:src/riscv.cpp **** 			_console::putc(c);
 186:src/riscv.cpp **** 			break;
 187:src/riscv.cpp **** 		}
 188:src/riscv.cpp **** 		default:
 189:src/riscv.cpp **** 		{
 190:src/riscv.cpp **** 			break;
 191:src/riscv.cpp **** 		}
 192:src/riscv.cpp **** 		}
 193:src/riscv.cpp **** 
 194:src/riscv.cpp **** 		w_sstatus(sstatus);
 195:src/riscv.cpp **** 		w_sepc(sepc);
 196:src/riscv.cpp **** 	}
 197:src/riscv.cpp **** 	else if (scause == 0x8000000000000009UL)
 124              		.loc 1 197 7 is_stmt 1
 125              	.LBB267:
 126              	.LBB133:
 127 0064 9307F0FF 		li	a5,-1
 128 0068 9397F703 		slli	a5,a5,63
 129 006c 93879700 		addi	a5,a5,9
 130 0070 6300F630 		beq	a2,a5,.L50
 131              	.LBE133:
 132              	.LBE267:
 198:src/riscv.cpp **** 	{
 199:src/riscv.cpp **** 		int irq = plic_claim(); // Potvrđujemo prekid PLIC kontroleru
 200:src/riscv.cpp **** 
 201:src/riscv.cpp **** 		if (irq == CONSOLE_IRQ)
 202:src/riscv.cpp **** 		{ // Proveravamo da li je prekid stigao baš sa konzole (obično 10)
 203:src/riscv.cpp **** 
 204:src/riscv.cpp **** 			// RX deo: Čitamo sve dok hardver ima podataka I dok imamo gde da ih smestimo
 205:src/riscv.cpp **** 			while ((*((volatile uint8 *)CONSOLE_STATUS) & 0x01) && !_console::getInBuff()->isFull())
 206:src/riscv.cpp **** 			{
 207:src/riscv.cpp **** 				char c = *((volatile uint8 *)CONSOLE_RX_DATA);
 208:src/riscv.cpp **** 				_console::getInBuff()->put(c);
 209:src/riscv.cpp **** 				_console::getInSem()->signal();
 210:src/riscv.cpp **** 			}
 211:src/riscv.cpp **** 
 212:src/riscv.cpp **** 			// TX deo: Šaljemo sve dok je hardver spreman I dok imamo šta da pošaljemo
 213:src/riscv.cpp **** 			while ((*((volatile uint8 *)CONSOLE_STATUS) & 0x20) && !_console::getOutBuff()->isEmpty())
 214:src/riscv.cpp **** 			{
 215:src/riscv.cpp **** 				char c = _console::getOutBuff()->get();
 216:src/riscv.cpp **** 				*((volatile uint8 *)CONSOLE_TX_DATA) = (uint8)c;
 217:src/riscv.cpp **** 				_console::getOutSem()->signal();
 218:src/riscv.cpp **** 			}
 219:src/riscv.cpp **** 		}
 220:src/riscv.cpp **** 
 221:src/riscv.cpp **** 		plic_complete(irq); // Obaveštavamo PLIC da je obrada završena
 222:src/riscv.cpp **** 	}
 223:src/riscv.cpp **** 	else if (scause == 0x8000000000000001UL)
 133              		.loc 1 223 7
 134              	.LBB268:
 135              	.LBB189:
GAS LISTING C:\msys64\tmp\cczdVx3K.s 			page 10


 136              	.LBB134:
 137 0074 9307F0FF 		li	a5,-1
 138 0078 9397F703 		slli	a5,a5,63
 139 007c 93871700 		addi	a5,a5,1
 140 0080 6312F64C 		bne	a2,a5,.L39
 141              	.LBB135:
 224:src/riscv.cpp **** 	{
 225:src/riscv.cpp **** 		_thread::timeSliceCounter++;
 142              		.loc 1 225 3
 143              		.loc 1 225 28 is_stmt 0
 144 0084 17070000 		lla	a4,_ZN7_thread16timeSliceCounterE
 144      13070700 
 145              	.LVL6:
 146 008c 83370700 		ld	a5,0(a4)
 147 0090 93871700 		addi	a5,a5,1
 148 0094 2330F700 		sd	a5,0(a4)
 226:src/riscv.cpp **** 		if (_thread::sleepingHead)
 149              		.loc 1 226 3 is_stmt 1
 150              	.LBB136:
 151              		.loc 1 226 16 is_stmt 0
 152 0098 97070000 		ld	a5,_ZN7_thread12sleepingHeadE
 152      83B70700 
 153              		.loc 1 226 3
 154 00a0 638E0742 		beq	a5,zero,.L40
 155              	.LBB137:
 227:src/riscv.cpp **** 		{
 228:src/riscv.cpp **** 			if (_thread::sleepingHead->timeSleeping > 0)
 156              		.loc 1 228 4 is_stmt 1
 157              		.loc 1 228 31 is_stmt 0
 158 00a4 03B70705 		ld	a4,80(a5)
 159              		.loc 1 228 4
 160 00a8 630E073C 		beq	a4,zero,.L43
 229:src/riscv.cpp **** 			{
 230:src/riscv.cpp **** 				_thread::sleepingHead->timeSleeping--;
 161              		.loc 1 230 5 is_stmt 1
 162              		.loc 1 230 40 is_stmt 0
 163 00ac 1307F7FF 		addi	a4,a4,-1
 164 00b0 23B8E704 		sd	a4,80(a5)
 165 00b4 6F00003D 		j	.L43
 166              	.LVL7:
 167              	.L49:
 168              	.LBE137:
 169              	.LBE136:
 170              	.LBE135:
 171              	.LBE134:
 172              	.LBE189:
 173              	.LBB190:
  21:src/riscv.cpp **** 		uint64 volatile sepc = r_sepc() + 4;
 174              		.loc 1 21 3 is_stmt 1
  22:src/riscv.cpp **** 		uint64 volatile sstatus = r_sstatus();
 175              		.loc 1 22 3
 176              	.LBB191:
 177              	.LBB192:
  84:src/../h/riscv.h ****     __asm__ volatile("csrr %[sepc], sepc" : [sepc] "=r"(sepc));
 178              		.loc 2 84 5
  85:src/../h/riscv.h ****     return sepc;
 179              		.loc 2 85 5
GAS LISTING C:\msys64\tmp\cczdVx3K.s 			page 11


 180              	 #APP
 181              	# 85 "src/../h/riscv.h" 1
 182              		csrr a5, sepc
 183              	# 0 "" 2
 184              	 #NO_APP
 185 00bc 233CF4FA 		sd	a5,-72(s0)
  86:src/../h/riscv.h **** }
 186              		.loc 2 86 5
  86:src/../h/riscv.h **** }
 187              		.loc 2 86 12 is_stmt 0
 188 00c0 833784FB 		ld	a5,-72(s0)
 189              	.LBE192:
 190              	.LBE191:
  22:src/riscv.cpp **** 		uint64 volatile sstatus = r_sstatus();
 191              		.loc 1 22 35
 192 00c4 93874700 		addi	a5,a5,4
  22:src/riscv.cpp **** 		uint64 volatile sstatus = r_sstatus();
 193              		.loc 1 22 37
 194 00c8 233CF4F6 		sd	a5,-136(s0)
  23:src/riscv.cpp **** 
 195              		.loc 1 23 3 is_stmt 1
 196              	.LBB193:
 197              	.LBB194:
 149:src/../h/riscv.h **** 
 150:src/../h/riscv.h **** inline uint64 Riscv::r_sstatus()
 151:src/../h/riscv.h **** {
 152:src/../h/riscv.h ****     uint64 volatile sstatus;
 198              		.loc 2 152 5
 153:src/../h/riscv.h ****     __asm__ volatile("csrr %[sstatus], sstatus" : [sstatus] "=r"(sstatus));
 199              		.loc 2 153 5
 200              	 #APP
 201              	# 153 "src/../h/riscv.h" 1
 154              	    return sstatus;
 202              		csrr a5, sstatus
 203              	# 0 "" 2
 204              	 #NO_APP
 205 00d0 2338F4FA 		sd	a5,-80(s0)
 206              		.loc 2 154 5
 207              		.loc 2 154 12 is_stmt 0
 208 00d4 833704FB 		ld	a5,-80(s0)
 209              	.LBE194:
 210              	.LBE193:
  23:src/riscv.cpp **** 
 211              		.loc 1 23 39
 212 00d8 2330F4F8 		sd	a5,-128(s0)
  25:src/riscv.cpp **** 		{
 213              		.loc 1 25 3 is_stmt 1
 214 00dc 93072004 		li	a5,66
 215 00e0 63E8A702 		bgtu	a0,a5,.L5
 216 00e4 13152500 		slli	a0,a0,2
 217              	.LVL8:
 218 00e8 17060000 		lla	a2,.L7
 218      13060600 
 219              	.LVL9:
 220 00f0 B307C500 		add	a5,a0,a2
 221 00f4 83A70700 		lw	a5,0(a5)
 222 00f8 B387C700 		add	a5,a5,a2
GAS LISTING C:\msys64\tmp\cczdVx3K.s 			page 12


 223 00fc 67800700 		jr	a5
 224              		.section	.rodata
 225              		.align	2
 226              		.align	2
 227              	.L7:
 228 0000 00000000 		.word	.L5-.L7
 229 0004 00000000 		.word	.L20-.L7
 230 0008 00000000 		.word	.L19-.L7
 231 000c 00000000 		.word	.L5-.L7
 232 0010 00000000 		.word	.L5-.L7
 233 0014 00000000 		.word	.L5-.L7
 234 0018 00000000 		.word	.L5-.L7
 235 001c 00000000 		.word	.L5-.L7
 236 0020 00000000 		.word	.L5-.L7
 237 0024 00000000 		.word	.L5-.L7
 238 0028 00000000 		.word	.L5-.L7
 239 002c 00000000 		.word	.L5-.L7
 240 0030 00000000 		.word	.L5-.L7
 241 0034 00000000 		.word	.L5-.L7
 242 0038 00000000 		.word	.L5-.L7
 243 003c 00000000 		.word	.L5-.L7
 244 0040 00000000 		.word	.L5-.L7
 245 0044 00000000 		.word	.L18-.L7
 246 0048 00000000 		.word	.L17-.L7
 247 004c 00000000 		.word	.L16-.L7
 248 0050 00000000 		.word	.L5-.L7
 249 0054 00000000 		.word	.L5-.L7
 250 0058 00000000 		.word	.L5-.L7
 251 005c 00000000 		.word	.L5-.L7
 252 0060 00000000 		.word	.L5-.L7
 253 0064 00000000 		.word	.L5-.L7
 254 0068 00000000 		.word	.L5-.L7
 255 006c 00000000 		.word	.L5-.L7
 256 0070 00000000 		.word	.L5-.L7
 257 0074 00000000 		.word	.L5-.L7
 258 0078 00000000 		.word	.L5-.L7
 259 007c 00000000 		.word	.L5-.L7
 260 0080 00000000 		.word	.L5-.L7
 261 0084 00000000 		.word	.L15-.L7
 262 0088 00000000 		.word	.L14-.L7
 263 008c 00000000 		.word	.L13-.L7
 264 0090 00000000 		.word	.L12-.L7
 265 0094 00000000 		.word	.L11-.L7
 266 0098 00000000 		.word	.L10-.L7
 267 009c 00000000 		.word	.L5-.L7
 268 00a0 00000000 		.word	.L5-.L7
 269 00a4 00000000 		.word	.L5-.L7
 270 00a8 00000000 		.word	.L5-.L7
 271 00ac 00000000 		.word	.L5-.L7
 272 00b0 00000000 		.word	.L5-.L7
 273 00b4 00000000 		.word	.L5-.L7
 274 00b8 00000000 		.word	.L5-.L7
 275 00bc 00000000 		.word	.L5-.L7
 276 00c0 00000000 		.word	.L5-.L7
 277 00c4 00000000 		.word	.L9-.L7
 278 00c8 00000000 		.word	.L5-.L7
 279 00cc 00000000 		.word	.L5-.L7
GAS LISTING C:\msys64\tmp\cczdVx3K.s 			page 13


 280 00d0 00000000 		.word	.L5-.L7
 281 00d4 00000000 		.word	.L5-.L7
 282 00d8 00000000 		.word	.L5-.L7
 283 00dc 00000000 		.word	.L5-.L7
 284 00e0 00000000 		.word	.L5-.L7
 285 00e4 00000000 		.word	.L5-.L7
 286 00e8 00000000 		.word	.L5-.L7
 287 00ec 00000000 		.word	.L5-.L7
 288 00f0 00000000 		.word	.L5-.L7
 289 00f4 00000000 		.word	.L5-.L7
 290 00f8 00000000 		.word	.L5-.L7
 291 00fc 00000000 		.word	.L5-.L7
 292 0100 00000000 		.word	.L5-.L7
 293 0104 00000000 		.word	.L8-.L7
 294 0108 00000000 		.word	.L6-.L7
 295              		.text
 296              	.L20:
 297              	.LBB195:
  27:src/riscv.cpp **** 		{
 298              		.loc 1 27 3
  28:src/riscv.cpp **** 			size_t bytes = a1 * MEM_BLOCK_SIZE;
 299              		.loc 1 28 3
 300              	.LBB196:
  29:src/riscv.cpp **** 			writeARegister(0, (uint64)MemoryAllocator::kmalloc(bytes));
 301              		.loc 1 29 4
 302              	.LVL10:
  30:src/riscv.cpp **** 			break;
 303              		.loc 1 30 4
  30:src/riscv.cpp **** 			break;
 304              		.loc 1 30 54 is_stmt 0
 305 0100 13956400 		slli	a0,s1,6
 306              	.LVL11:
 307              	.LEHB0:
 308 0104 97000000 		call	_ZN15MemoryAllocator7kmallocEm
 308      E7800000 
 309              	.LVL12:
 310              	.LBB197:
 311              	.LBB198:
 155:src/../h/riscv.h **** }
 156:src/../h/riscv.h **** 
 157:src/../h/riscv.h **** inline void Riscv::w_sstatus(uint64 sstatus)
 158:src/../h/riscv.h **** {
 159:src/../h/riscv.h ****     __asm__ volatile("csrw sstatus, %[sstatus]" : : [sstatus] "r"(sstatus));
 160:src/../h/riscv.h **** }
 161:src/../h/riscv.h **** 
 162:src/../h/riscv.h **** inline uint64 Riscv::readARegister(int reg_number)
 163:src/../h/riscv.h **** {
 164:src/../h/riscv.h ****     uint64 value;
 165:src/../h/riscv.h ****     __asm__ volatile("mv %[val], a%[reg]" : [val] "=r"(value) : [reg] "i"(reg_number));
 166:src/../h/riscv.h ****     return value;
 167:src/../h/riscv.h **** }
 168:src/../h/riscv.h **** 
 169:src/../h/riscv.h **** inline void Riscv::writeARegister(int reg_number, uint64 value)
 170:src/../h/riscv.h **** {
 171:src/../h/riscv.h ****     __asm__ volatile("mv a%[reg], %[val]" ::[reg] "i"(reg_number), [val] "r"(value));
 312              		.loc 2 171 5 is_stmt 1
 313              	 #APP
GAS LISTING C:\msys64\tmp\cczdVx3K.s 			page 14


 314              	# 171 "src/../h/riscv.h" 1
 172              	}
 315              		mv a0, a0
 316              	# 0 "" 2
 317              	.LVL13:
 318              	 #NO_APP
 319              	.L5:
 320              	.LBE198:
 321              	.LBE197:
 322              	.LBE196:
 323              	.LBE195:
 194:src/riscv.cpp **** 		w_sepc(sepc);
 324              		.loc 1 194 3
 194:src/riscv.cpp **** 		w_sepc(sepc);
 325              		.loc 1 194 12 is_stmt 0
 326 0110 833704F8 		ld	a5,-128(s0)
 327              	.LVL14:
 328              	.LBB258:
 329              	.LBB259:
 159:src/../h/riscv.h **** }
 330              		.loc 2 159 5 is_stmt 1
 331              	 #APP
 332              	# 159 "src/../h/riscv.h" 1
 333              		csrw sstatus, a5
 334              	# 0 "" 2
 335              	.LVL15:
 336              	 #NO_APP
 337              	.LBE259:
 338              	.LBE258:
 195:src/riscv.cpp **** 	}
 339              		.loc 1 195 3
 195:src/riscv.cpp **** 	}
 340              		.loc 1 195 9 is_stmt 0
 341 0118 833784F7 		ld	a5,-136(s0)
 342              	.LVL16:
 343              	.LBB260:
 344              	.LBB261:
  91:src/../h/riscv.h **** }
 345              		.loc 2 91 5 is_stmt 1
 346              	 #APP
 347              	# 91 "src/../h/riscv.h" 1
 348              		csrw sepc, a5
 349              	# 0 "" 2
 350              	.LVL17:
 351              	 #NO_APP
 352              	.L3:
 353              	.LBE261:
 354              	.LBE260:
 355              	.LBE190:
 356              	.LBE268:
 231:src/riscv.cpp **** 			}
 232:src/riscv.cpp **** 
 233:src/riscv.cpp **** 			while (_thread::sleepingHead && _thread::sleepingHead->timeSleeping == 0)
 234:src/riscv.cpp **** 			{
 235:src/riscv.cpp **** 				_thread *t = _thread::sleepingHead;
 236:src/riscv.cpp **** 
 237:src/riscv.cpp **** 				_thread::sleepingHead = t->waitnext;
GAS LISTING C:\msys64\tmp\cczdVx3K.s 			page 15


 238:src/riscv.cpp **** 
 239:src/riscv.cpp **** 				t->waitnext = nullptr;
 240:src/riscv.cpp **** 				t->isReady = true;
 241:src/riscv.cpp **** 				Scheduler::instance().put(t);
 242:src/riscv.cpp **** 			}
 243:src/riscv.cpp **** 		}
 244:src/riscv.cpp **** 		if (_thread::timeSliceCounter >= _thread::running->getTimeSlice())
 245:src/riscv.cpp **** 		{
 246:src/riscv.cpp **** 			uint64 volatile sepc = r_sepc();
 247:src/riscv.cpp **** 			uint64 volatile sstatus = r_sstatus();
 248:src/riscv.cpp **** 			_thread::timeSliceCounter = 0;
 249:src/riscv.cpp **** 			_thread::dispatch();
 250:src/riscv.cpp **** 			w_sstatus(sstatus);
 251:src/riscv.cpp **** 			w_sepc(sepc);
 252:src/riscv.cpp **** 		}
 253:src/riscv.cpp **** 		mc_sip(SIP_SSIP);
 254:src/riscv.cpp **** 	}else{
 255:src/riscv.cpp **** 		_printString("Unhandled exception: SEPC = ");
 256:src/riscv.cpp ****         _printInteger(r_sepc(), 16);
 257:src/riscv.cpp ****         _printString(", SCAUSE = ");
 258:src/riscv.cpp ****         _printInteger(r_scause());
 259:src/riscv.cpp ****         _printString("\n");
 260:src/riscv.cpp **** 
 261:src/riscv.cpp ****         while(1);
 262:src/riscv.cpp **** 	}
 263:src/riscv.cpp **** }
 357              		.loc 1 263 1 is_stmt 0
 358 0120 83308108 		ld	ra,136(sp)
 359              		.cfi_remember_state
 360              		.cfi_restore 1
 361 0124 03340108 		ld	s0,128(sp)
 362              		.cfi_restore 8
 363              		.cfi_def_cfa 2, 144
 364 0128 83348107 		ld	s1,120(sp)
 365              		.cfi_restore 9
 366 012c 03390107 		ld	s2,112(sp)
 367              		.cfi_restore 18
 368 0130 83398106 		ld	s3,104(sp)
 369              		.cfi_restore 19
 370 0134 13010109 		addi	sp,sp,144
 371              		.cfi_def_cfa_offset 0
 372 0138 67800000 		jr	ra
 373              	.LVL18:
 374              	.L19:
 375              		.cfi_restore_state
 376              	.LBB269:
 377              	.LBB264:
 378              	.LBB262:
  33:src/riscv.cpp **** 		{
 379              		.loc 1 33 3 is_stmt 1
  34:src/riscv.cpp **** 			writeARegister(0, (uint64)MemoryAllocator::kfree((void *)a1));
 380              		.loc 1 34 3
  35:src/riscv.cpp **** 			break;
 381              		.loc 1 35 4
  35:src/riscv.cpp **** 			break;
 382              		.loc 1 35 52 is_stmt 0
 383 013c 13850400 		mv	a0,s1
GAS LISTING C:\msys64\tmp\cczdVx3K.s 			page 16


 384 0140 97000000 		call	_ZN15MemoryAllocator5kfreeEPv
 384      E7800000 
 385              	.LVL19:
 386              	.LBB199:
 387              	.LBB200:
 171:src/../h/riscv.h **** }
 388              		.loc 2 171 5 is_stmt 1
 389              	 #APP
 390              	# 171 "src/../h/riscv.h" 1
 391              		mv a0, a0
 392              	# 0 "" 2
 393              		.loc 2 172 1 is_stmt 0
 394              	 #NO_APP
 395 014c 6FF05FFC 		j	.L5
 396              	.LVL20:
 397              	.L18:
 398              	.LBE200:
 399              	.LBE199:
  38:src/riscv.cpp **** 		{
 400              		.loc 1 38 3 is_stmt 1
  39:src/riscv.cpp **** 			_thread **handle = (_thread **)a1;
 401              		.loc 1 39 3
 402              	.LBB201:
  40:src/riscv.cpp **** 			_thread::Body body = (_thread::Body)a2;
 403              		.loc 1 40 4
  41:src/riscv.cpp **** 			void *volatile arg = (void *)a3;
 404              		.loc 1 41 4
  42:src/riscv.cpp **** 			void *volatile stack_space = (void *)a4;
 405              		.loc 1 42 4
  42:src/riscv.cpp **** 			void *volatile stack_space = (void *)a4;
 406              		.loc 1 42 19 is_stmt 0
 407 0150 2334D4F8 		sd	a3,-120(s0)
  43:src/riscv.cpp **** 
 408              		.loc 1 43 4 is_stmt 1
  43:src/riscv.cpp **** 
 409              		.loc 1 43 19 is_stmt 0
 410 0154 2338E4F8 		sd	a4,-112(s0)
  45:src/riscv.cpp **** 
 411              		.loc 1 45 4 is_stmt 1
  45:src/riscv.cpp **** 
 412              		.loc 1 45 35 is_stmt 0
 413 0158 833584F8 		ld	a1,-120(s0)
 414              	.LVL21:
 415 015c 033604F9 		ld	a2,-112(s0)
 416 0160 13050900 		mv	a0,s2
 417 0164 97000000 		call	_ZN7_thread12createThreadEPFvPvES0_S0_
 417      E7800000 
 418              	.LVL22:
  45:src/riscv.cpp **** 
 419              		.loc 1 45 12
 420 016c 23B0A400 		sd	a0,0(s1)
  47:src/riscv.cpp **** 			{
 421              		.loc 1 47 4 is_stmt 1
 422 0170 63080504 		beq	a0,zero,.L21
  49:src/riscv.cpp **** 					Scheduler::instance().put(*handle);
 423              		.loc 1 49 5
 424 0174 63000904 		beq	s2,zero,.L22
GAS LISTING C:\msys64\tmp\cczdVx3K.s 			page 17


  50:src/riscv.cpp **** 				writeARegister(0, 0);
 425              		.loc 1 50 6
 426              	.LBB202:
 427              	.LBB203:
 428              		.file 3 "src/../h/Scheduler.h"
   1:src/../h/Scheduler.h **** //
   2:src/../h/Scheduler.h **** // Created by os on 4/1/26.
   3:src/../h/Scheduler.h **** //
   4:src/../h/Scheduler.h **** 
   5:src/../h/Scheduler.h **** #ifndef PROJEKAT_SCHEDULER_H
   6:src/../h/Scheduler.h **** #define PROJEKAT_SCHEDULER_H
   7:src/../h/Scheduler.h **** 
   8:src/../h/Scheduler.h **** class _thread;
   9:src/../h/Scheduler.h **** 
  10:src/../h/Scheduler.h **** class Scheduler
  11:src/../h/Scheduler.h **** {
  12:src/../h/Scheduler.h **** public:
  13:src/../h/Scheduler.h ****     static Scheduler &instance()
  14:src/../h/Scheduler.h ****     {
  15:src/../h/Scheduler.h ****         static Scheduler instance;
 429              		.loc 3 15 9
 430              		.loc 3 15 26 is_stmt 0
 431 0178 97070000 		lbu	a5,_ZGVZN9Scheduler8instanceEvE8instance
 431      83C70700 
 432 0180 63900702 		bne	a5,zero,.L23
 433              	.LVL23:
 434              	.LBB204:
 435              	.LBB205:
 436              	.LBB206:
  16:src/../h/Scheduler.h ****         return instance;
  17:src/../h/Scheduler.h ****     }
  18:src/../h/Scheduler.h **** 
  19:src/../h/Scheduler.h ****     Scheduler(const Scheduler &) = delete;
  20:src/../h/Scheduler.h ****     Scheduler &operator=(const Scheduler &) = delete;
  21:src/../h/Scheduler.h **** 
  22:src/../h/Scheduler.h ****     void put(_thread *t);
  23:src/../h/Scheduler.h **** 
  24:src/../h/Scheduler.h ****     _thread *get();
  25:src/../h/Scheduler.h **** 
  26:src/../h/Scheduler.h **** private:
  27:src/../h/Scheduler.h ****     Scheduler() : head(nullptr), tail(nullptr) {};
 437              		.loc 3 27 46
 438 0184 97070000 		lla	a5,_ZZN9Scheduler8instanceEvE8instance
 438      93870700 
 439 018c 23B00700 		sd	zero,0(a5)
 440 0190 23B40700 		sd	zero,8(a5)
 441              	.LVL24:
 442              	.LBE206:
 443              	.LBE205:
 444              	.LBE204:
  15:src/../h/Scheduler.h ****         return instance;
 445              		.loc 3 15 26
 446 0194 93071000 		li	a5,1
 447 0198 17070000 		sb	a5,_ZGVZN9Scheduler8instanceEvE8instance,a4
 447      2300F700 
 448              	.L23:
  16:src/../h/Scheduler.h ****         return instance;
GAS LISTING C:\msys64\tmp\cczdVx3K.s 			page 18


 449              		.loc 3 16 9 is_stmt 1
 450              	.LBE203:
 451              	.LBE202:
  50:src/riscv.cpp **** 				writeARegister(0, 0);
 452              		.loc 1 50 31 is_stmt 0
 453 01a0 83B50400 		ld	a1,0(s1)
 454 01a4 17050000 		lla	a0,_ZZN9Scheduler8instanceEvE8instance
 454      13050500 
 455 01ac 97000000 		call	_ZN9Scheduler3putEP7_thread
 455      E7800000 
 456              	.LVL25:
 457              	.L22:
  51:src/riscv.cpp **** 			}
 458              		.loc 1 51 5 is_stmt 1
 459              	.LBB207:
 460              	.LBB208:
 171:src/../h/riscv.h **** }
 461              		.loc 2 171 5
 462 01b4 93070000 		li	a5,0
 463              	 #APP
 464              	# 171 "src/../h/riscv.h" 1
 465              		mv a0, a5
 466              	# 0 "" 2
 467              		.loc 2 172 1 is_stmt 0
 468              	 #NO_APP
 469 01bc 6FF05FF5 		j	.L5
 470              	.LVL26:
 471              	.L21:
 472              	.LBE208:
 473              	.LBE207:
  54:src/riscv.cpp **** 			break;
 474              		.loc 1 54 5 is_stmt 1
 475              	.LBB209:
 476              	.LBB210:
 171:src/../h/riscv.h **** }
 477              		.loc 2 171 5
 478 01c0 9307F0FF 		li	a5,-1
 479              	 #APP
 480              	# 171 "src/../h/riscv.h" 1
 481              		mv a0, a5
 482              	# 0 "" 2
 483              		.loc 2 172 1 is_stmt 0
 484              	 #NO_APP
 485 01c8 6FF09FF4 		j	.L5
 486              	.LVL27:
 487              	.L17:
 488              	.LBE210:
 489              	.LBE209:
 490              	.LBE201:
  57:src/riscv.cpp **** 		{
 491              		.loc 1 57 3 is_stmt 1
  58:src/riscv.cpp **** 			_thread::timeSliceCounter = 0;
 492              		.loc 1 58 3
  59:src/riscv.cpp **** 			if (_thread::running)
 493              		.loc 1 59 4
  59:src/riscv.cpp **** 			if (_thread::running)
 494              		.loc 1 59 30 is_stmt 0
GAS LISTING C:\msys64\tmp\cczdVx3K.s 			page 19


 495 01cc 97070000 		sd	zero,_ZN7_thread16timeSliceCounterE,a5
 495      23B00700 
  60:src/riscv.cpp **** 			{
 496              		.loc 1 60 4 is_stmt 1
  60:src/riscv.cpp **** 			{
 497              		.loc 1 60 17 is_stmt 0
 498 01d4 97070000 		ld	a5,_ZN7_thread7runningE
 498      83B70700 
  60:src/riscv.cpp **** 			{
 499              		.loc 1 60 4
 500 01dc 63800702 		beq	a5,zero,.L24
  62:src/riscv.cpp **** 				writeARegister(0, 0);
 501              		.loc 1 62 5 is_stmt 1
 502              	.LVL28:
 503              	.LBB211:
 504              	.LBB212:
 505              		.file 4 "src/../h/Thread.h"
   1:src/../h/Thread.h **** #ifndef PROJEKAT_THREAD_H
   2:src/../h/Thread.h **** #define PROJEKAT_THREAD_H
   3:src/../h/Thread.h **** 
   4:src/../h/Thread.h **** #include "../lib/hw.h"
   5:src/../h/Thread.h **** #include "MemoryAllocator.h"
   6:src/../h/Thread.h **** #include "Scheduler.h"
   7:src/../h/Thread.h **** 
   8:src/../h/Thread.h **** typedef unsigned long time_t;
   9:src/../h/Thread.h **** class _thread
  10:src/../h/Thread.h **** {
  11:src/../h/Thread.h **** public:
  12:src/../h/Thread.h **** 	void *operator new(size_t size)
  13:src/../h/Thread.h **** 	{
  14:src/../h/Thread.h **** 		void *ptr = MemoryAllocator::kmalloc(size);
  15:src/../h/Thread.h **** 		return ptr;
  16:src/../h/Thread.h **** 	}
  17:src/../h/Thread.h **** 	~_thread() { delete stack; };
  18:src/../h/Thread.h **** 	using Body = void (*)(void *);
  19:src/../h/Thread.h **** 
  20:src/../h/Thread.h **** 	static _thread *createThread(Body body, void *args, void *stack);
  21:src/../h/Thread.h **** 
  22:src/../h/Thread.h **** 	static _thread *running;
  23:src/../h/Thread.h **** 
  24:src/../h/Thread.h **** 	static void dispatch();
  25:src/../h/Thread.h **** 
  26:src/../h/Thread.h **** 	bool isFinished() { return finished; };
  27:src/../h/Thread.h **** 
  28:src/../h/Thread.h **** 	uint64 getTimeSlice() const
  29:src/../h/Thread.h **** 	{
  30:src/../h/Thread.h **** 		return timeSlice;
  31:src/../h/Thread.h **** 	}
  32:src/../h/Thread.h **** 	void setFinished(bool finished) { _thread::finished = finished; };
 506              		.loc 4 32 36
 507              		.loc 4 32 54 is_stmt 0
 508 01e0 13071000 		li	a4,1
 509              	.LVL29:
 510 01e4 A380E704 		sb	a4,65(a5)
 511              	.LVL30:
 512              	.LBE212:
 513              	.LBE211:
GAS LISTING C:\msys64\tmp\cczdVx3K.s 			page 20


  63:src/riscv.cpp **** 			}
 514              		.loc 1 63 5 is_stmt 1
 515              	.LBB213:
 516              	.LBB214:
 171:src/../h/riscv.h **** }
 517              		.loc 2 171 5
 518 01e8 93070000 		li	a5,0
 519              	 #APP
 520              	# 171 "src/../h/riscv.h" 1
 521              		mv a0, a5
 522              	# 0 "" 2
 523              	.LVL31:
 524              	 #NO_APP
 525              	.L25:
 526              	.LBE214:
 527              	.LBE213:
  70:src/riscv.cpp **** 			break;
 528              		.loc 1 70 4
  70:src/riscv.cpp **** 			break;
 529              		.loc 1 70 21 is_stmt 0
 530 01f0 97000000 		call	_ZN7_thread8dispatchEv
 530      E7800000 
 531              	.LVL32:
  71:src/riscv.cpp **** 		}
 532              		.loc 1 71 4 is_stmt 1
 533 01f8 6FF09FF1 		j	.L5
 534              	.LVL33:
 535              	.L24:
  67:src/riscv.cpp **** 			}
 536              		.loc 1 67 5
 537              	.LBB215:
 538              	.LBB216:
 171:src/../h/riscv.h **** }
 539              		.loc 2 171 5
 540 01fc 9307F0FF 		li	a5,-1
 541              	 #APP
 542              	# 171 "src/../h/riscv.h" 1
 543              		mv a0, a5
 544              	# 0 "" 2
 545              		.loc 2 172 1 is_stmt 0
 546              	 #NO_APP
 547 0204 6FF0DFFE 		j	.L25
 548              	.LVL34:
 549              	.L16:
 550              	.LBE216:
 551              	.LBE215:
  73:src/riscv.cpp **** 		{
 552              		.loc 1 73 3 is_stmt 1
  74:src/riscv.cpp **** 			_thread::timeSliceCounter = 0;
 553              		.loc 1 74 3
  75:src/riscv.cpp **** 			_thread::dispatch();
 554              		.loc 1 75 4
  75:src/riscv.cpp **** 			_thread::dispatch();
 555              		.loc 1 75 30 is_stmt 0
 556 0208 97070000 		sd	zero,_ZN7_thread16timeSliceCounterE,a5
 556      23B00700 
  76:src/riscv.cpp **** 			break;
GAS LISTING C:\msys64\tmp\cczdVx3K.s 			page 21


 557              		.loc 1 76 4 is_stmt 1
  76:src/riscv.cpp **** 			break;
 558              		.loc 1 76 21 is_stmt 0
 559 0210 97000000 		call	_ZN7_thread8dispatchEv
 559      E7800000 
 560              	.LVL35:
  77:src/riscv.cpp **** 		}
 561              		.loc 1 77 4 is_stmt 1
 562 0218 6FF09FEF 		j	.L5
 563              	.LVL36:
 564              	.L15:
  79:src/riscv.cpp **** 		{
 565              		.loc 1 79 3
  80:src/riscv.cpp **** 			_sem **handle = (_sem **)a1;
 566              		.loc 1 80 3
 567              	.LBB217:
  81:src/riscv.cpp **** 
 568              		.loc 1 81 4
  83:src/riscv.cpp **** 
 569              		.loc 1 83 4
 570              	.LBB218:
 571              	.LBB219:
 572              		.file 5 "src/../h/Semaphore.h"
   1:src/../h/Semaphore.h **** //
   2:src/../h/Semaphore.h **** // Created by os on 4/6/26.
   3:src/../h/Semaphore.h **** //
   4:src/../h/Semaphore.h **** 
   5:src/../h/Semaphore.h **** #ifndef PROJECT_BASE_V1_1_SEMAPHORE_H
   6:src/../h/Semaphore.h **** #define PROJECT_BASE_V1_1_SEMAPHORE_H
   7:src/../h/Semaphore.h **** #include "../h/MemoryAllocator.h"
   8:src/../h/Semaphore.h **** class _thread;
   9:src/../h/Semaphore.h **** 
  10:src/../h/Semaphore.h **** class _sem {
  11:src/../h/Semaphore.h **** public:
  12:src/../h/Semaphore.h **** 
  13:src/../h/Semaphore.h ****     void* operator new(size_t size){
  14:src/../h/Semaphore.h ****         void* ptr = MemoryAllocator::kmalloc(size);
 573              		.loc 5 14 9
 574              		.loc 5 14 45 is_stmt 0
 575 021c 13050002 		li	a0,32
 576 0220 97000000 		call	_ZN15MemoryAllocator7kmallocEm
 576      E7800000 
 577              	.LVL37:
 578              	.LEHE0:
 579 0228 93090500 		mv	s3,a0
 580              	.LVL38:
  15:src/../h/Semaphore.h ****         return ptr;
 581              		.loc 5 15 9 is_stmt 1
 582              	.LBE219:
 583              	.LBE218:
  83:src/riscv.cpp **** 
 584              		.loc 1 83 25 is_stmt 0
 585 022c 9B050900 		sext.w	a1,s2
 586              	.LEHB1:
 587 0230 97000000 		call	_ZN4_semC1Ei
 587      E7800000 
 588              	.LVL39:
GAS LISTING C:\msys64\tmp\cczdVx3K.s 			page 22


 589              	.LEHE1:
  83:src/riscv.cpp **** 
 590              		.loc 1 83 12 discriminator 2
 591 0238 23B03401 		sd	s3,0(s1)
  85:src/riscv.cpp **** 			{
 592              		.loc 1 85 4 is_stmt 1 discriminator 2
 593 023c 63880900 		beq	s3,zero,.L26
  87:src/riscv.cpp **** 			}
 594              		.loc 1 87 5
 595              	.LVL40:
 596              	.LBB220:
 597              	.LBB221:
 171:src/../h/riscv.h **** }
 598              		.loc 2 171 5
 599 0240 93070000 		li	a5,0
 600              	 #APP
 601              	# 171 "src/../h/riscv.h" 1
 602              		mv a0, a5
 603              	# 0 "" 2
 604              		.loc 2 172 1 is_stmt 0
 605              	 #NO_APP
 606 0248 6FF09FEC 		j	.L5
 607              	.LVL41:
 608              	.L26:
 609              	.LBE221:
 610              	.LBE220:
  90:src/riscv.cpp **** 			break;
 611              		.loc 1 90 5 is_stmt 1
 612              	.LBB222:
 613              	.LBB223:
 171:src/../h/riscv.h **** }
 614              		.loc 2 171 5
 615 024c 9307F0FF 		li	a5,-1
 616              	 #APP
 617              	# 171 "src/../h/riscv.h" 1
 618              		mv a0, a5
 619              	# 0 "" 2
 620              		.loc 2 172 1 is_stmt 0
 621              	 #NO_APP
 622 0254 6FF0DFEB 		j	.L5
 623              	.LVL42:
 624              	.L14:
 625              	.LBE223:
 626              	.LBE222:
 627              	.LBE217:
  93:src/riscv.cpp **** 		{
 628              		.loc 1 93 3 is_stmt 1
  94:src/riscv.cpp **** 			_sem *s = (_sem *)a1;
 629              		.loc 1 94 3
 630              	.LBB224:
  95:src/riscv.cpp **** 			if (s == nullptr)
 631              		.loc 1 95 4
  96:src/riscv.cpp **** 			{
 632              		.loc 1 96 4
 633 0258 63980400 		bne	s1,zero,.L27
  98:src/riscv.cpp **** 			}
 634              		.loc 1 98 5
GAS LISTING C:\msys64\tmp\cczdVx3K.s 			page 23


 635              	.LVL43:
 636              	.LBB225:
 637              	.LBB226:
 171:src/../h/riscv.h **** }
 638              		.loc 2 171 5
 639 025c 9307F0FF 		li	a5,-1
 640              	 #APP
 641              	# 171 "src/../h/riscv.h" 1
 642              		mv a0, a5
 643              	# 0 "" 2
 644              		.loc 2 172 1 is_stmt 0
 645              	 #NO_APP
 646 0264 6FF0DFEA 		j	.L5
 647              	.LVL44:
 648              	.L27:
 649              	.LBE226:
 650              	.LBE225:
 102:src/riscv.cpp **** 				delete s;
 651              		.loc 1 102 5 is_stmt 1
 102:src/riscv.cpp **** 				delete s;
 652              		.loc 1 102 31 is_stmt 0
 653 0268 13850400 		mv	a0,s1
 654              	.LEHB2:
 655 026c 97000000 		call	_ZN4_sem5closeEv
 655      E7800000 
 656              	.LVL45:
 657              	.LBB227:
 658              	.LBB228:
 171:src/../h/riscv.h **** }
 659              		.loc 2 171 5 is_stmt 1
 660              	 #APP
 661              	# 171 "src/../h/riscv.h" 1
 662              		mv a0, a0
 663              	# 0 "" 2
 664              	.LVL46:
 665              	 #NO_APP
 666              	.LBE228:
 667              	.LBE227:
 103:src/riscv.cpp **** 			}
 668              		.loc 1 103 5
 103:src/riscv.cpp **** 			}
 669              		.loc 1 103 12 is_stmt 0
 670 0278 13850400 		mv	a0,s1
 671 027c 97000000 		call	_ZdlPv
 671      E7800000 
 672              	.LVL47:
 673 0284 6FF0DFE8 		j	.L5
 674              	.LVL48:
 675              	.L13:
 676              	.LBE224:
 108:src/riscv.cpp **** 		{
 677              		.loc 1 108 3 is_stmt 1
 109:src/riscv.cpp **** 			_sem *s = (_sem *)a1;
 678              		.loc 1 109 3
 679              	.LBB229:
 110:src/riscv.cpp **** 			if (s == nullptr)
 680              		.loc 1 110 4
GAS LISTING C:\msys64\tmp\cczdVx3K.s 			page 24


 111:src/riscv.cpp **** 			{
 681              		.loc 1 111 4
 682 0288 63980400 		bne	s1,zero,.L28
 113:src/riscv.cpp **** 			}
 683              		.loc 1 113 5
 684              	.LVL49:
 685              	.LBB230:
 686              	.LBB231:
 171:src/../h/riscv.h **** }
 687              		.loc 2 171 5
 688 028c 9307F0FF 		li	a5,-1
 689              	 #APP
 690              	# 171 "src/../h/riscv.h" 1
 691              		mv a0, a5
 692              	# 0 "" 2
 693              		.loc 2 172 1 is_stmt 0
 694              	 #NO_APP
 695 0294 6FF0DFE7 		j	.L5
 696              	.LVL50:
 697              	.L28:
 698              	.LBE231:
 699              	.LBE230:
 117:src/riscv.cpp **** 			}
 700              		.loc 1 117 5 is_stmt 1
 117:src/riscv.cpp **** 			}
 701              		.loc 1 117 30 is_stmt 0
 702 0298 13850400 		mv	a0,s1
 703 029c 97000000 		call	_ZN4_sem4waitEv
 703      E7800000 
 704              	.LVL51:
 705              	.LBB232:
 706              	.LBB233:
 171:src/../h/riscv.h **** }
 707              		.loc 2 171 5 is_stmt 1
 708              	 #APP
 709              	# 171 "src/../h/riscv.h" 1
 710              		mv a0, a0
 711              	# 0 "" 2
 712              		.loc 2 172 1 is_stmt 0
 713              	 #NO_APP
 714 02a8 6FF09FE6 		j	.L5
 715              	.LVL52:
 716              	.L12:
 717              	.LBE233:
 718              	.LBE232:
 719              	.LBE229:
 122:src/riscv.cpp **** 		{
 720              		.loc 1 122 3 is_stmt 1
 123:src/riscv.cpp **** 			_sem *s = (_sem *)a1;
 721              		.loc 1 123 3
 722              	.LBB234:
 124:src/riscv.cpp **** 			if (s == nullptr)
 723              		.loc 1 124 4
 125:src/riscv.cpp **** 			{
 724              		.loc 1 125 4
 725 02ac 63980400 		bne	s1,zero,.L29
 127:src/riscv.cpp **** 			}
GAS LISTING C:\msys64\tmp\cczdVx3K.s 			page 25


 726              		.loc 1 127 5
 727              	.LVL53:
 728              	.LBB235:
 729              	.LBB236:
 171:src/../h/riscv.h **** }
 730              		.loc 2 171 5
 731 02b0 9307F0FF 		li	a5,-1
 732              	 #APP
 733              	# 171 "src/../h/riscv.h" 1
 734              		mv a0, a5
 735              	# 0 "" 2
 736              		.loc 2 172 1 is_stmt 0
 737              	 #NO_APP
 738 02b8 6FF09FE5 		j	.L5
 739              	.LVL54:
 740              	.L29:
 741              	.LBE236:
 742              	.LBE235:
 131:src/riscv.cpp **** 			}
 743              		.loc 1 131 5 is_stmt 1
 131:src/riscv.cpp **** 			}
 744              		.loc 1 131 32 is_stmt 0
 745 02bc 13850400 		mv	a0,s1
 746 02c0 97000000 		call	_ZN4_sem6signalEv
 746      E7800000 
 747              	.LVL55:
 748              	.LBB237:
 749              	.LBB238:
 171:src/../h/riscv.h **** }
 750              		.loc 2 171 5 is_stmt 1
 751              	 #APP
 752              	# 171 "src/../h/riscv.h" 1
 753              		mv a0, a0
 754              	# 0 "" 2
 755              		.loc 2 172 1 is_stmt 0
 756              	 #NO_APP
 757 02cc 6FF05FE4 		j	.L5
 758              	.LVL56:
 759              	.L11:
 760              	.LBE238:
 761              	.LBE237:
 762              	.LBE234:
 135:src/riscv.cpp **** 			_sem *s = (_sem *)a1;
 763              		.loc 1 135 3 is_stmt 1
 135:src/riscv.cpp **** 			_sem *s = (_sem *)a1;
 764              		.loc 1 135 13
 765              	.LBB239:
 136:src/riscv.cpp **** 			unsigned n = (unsigned)a2;
 766              		.loc 1 136 4
 137:src/riscv.cpp **** 			if (s == nullptr)
 767              		.loc 1 137 4
 137:src/riscv.cpp **** 			if (s == nullptr)
 768              		.loc 1 137 13 is_stmt 0
 769 02d0 9B050900 		sext.w	a1,s2
 770              	.LVL57:
 138:src/riscv.cpp **** 			{
 771              		.loc 1 138 4 is_stmt 1
GAS LISTING C:\msys64\tmp\cczdVx3K.s 			page 26


 772 02d4 63980400 		bne	s1,zero,.L30
 140:src/riscv.cpp **** 			}
 773              		.loc 1 140 5
 774              	.LVL58:
 775              	.LBB240:
 776              	.LBB241:
 171:src/../h/riscv.h **** }
 777              		.loc 2 171 5
 778 02d8 9307F0FF 		li	a5,-1
 779              	 #APP
 780              	# 171 "src/../h/riscv.h" 1
 781              		mv a0, a5
 782              	# 0 "" 2
 783              		.loc 2 172 1 is_stmt 0
 784              	 #NO_APP
 785 02e0 6FF01FE3 		j	.L5
 786              	.LVL59:
 787              	.L30:
 788              	.LBE241:
 789              	.LBE240:
 144:src/riscv.cpp **** 			}
 790              		.loc 1 144 5 is_stmt 1
 144:src/riscv.cpp **** 			}
 791              		.loc 1 144 32 is_stmt 0
 792 02e4 13850400 		mv	a0,s1
 793 02e8 97000000 		call	_ZN4_sem6wait_nEj
 793      E7800000 
 794              	.LVL60:
 795              	.LBB242:
 796              	.LBB243:
 171:src/../h/riscv.h **** }
 797              		.loc 2 171 5 is_stmt 1
 798              	 #APP
 799              	# 171 "src/../h/riscv.h" 1
 800              		mv a0, a0
 801              	# 0 "" 2
 802              		.loc 2 172 1 is_stmt 0
 803              	 #NO_APP
 804 02f4 6FF0DFE1 		j	.L5
 805              	.LVL61:
 806              	.L10:
 807              	.LBE243:
 808              	.LBE242:
 809              	.LBE239:
 148:src/riscv.cpp **** 			_sem *s = (_sem *)a1;
 810              		.loc 1 148 3 is_stmt 1
 148:src/riscv.cpp **** 			_sem *s = (_sem *)a1;
 811              		.loc 1 148 13
 812              	.LBB244:
 149:src/riscv.cpp **** 			unsigned n = (unsigned)a2;
 813              		.loc 1 149 4
 150:src/riscv.cpp **** 			if (s == nullptr)
 814              		.loc 1 150 4
 150:src/riscv.cpp **** 			if (s == nullptr)
 815              		.loc 1 150 13 is_stmt 0
 816 02f8 9B050900 		sext.w	a1,s2
 817              	.LVL62:
GAS LISTING C:\msys64\tmp\cczdVx3K.s 			page 27


 151:src/riscv.cpp **** 			{
 818              		.loc 1 151 4 is_stmt 1
 819 02fc 63980400 		bne	s1,zero,.L31
 153:src/riscv.cpp **** 			}
 820              		.loc 1 153 5
 821              	.LVL63:
 822              	.LBB245:
 823              	.LBB246:
 171:src/../h/riscv.h **** }
 824              		.loc 2 171 5
 825 0300 9307F0FF 		li	a5,-1
 826              	 #APP
 827              	# 171 "src/../h/riscv.h" 1
 828              		mv a0, a5
 829              	# 0 "" 2
 830              		.loc 2 172 1 is_stmt 0
 831              	 #NO_APP
 832 0308 6FF09FE0 		j	.L5
 833              	.LVL64:
 834              	.L31:
 835              	.LBE246:
 836              	.LBE245:
 157:src/riscv.cpp **** 			}
 837              		.loc 1 157 5 is_stmt 1
 157:src/riscv.cpp **** 			}
 838              		.loc 1 157 34 is_stmt 0
 839 030c 13850400 		mv	a0,s1
 840 0310 97000000 		call	_ZN4_sem8signal_nEj
 840      E7800000 
 841              	.LVL65:
 842              	.LBB247:
 843              	.LBB248:
 171:src/../h/riscv.h **** }
 844              		.loc 2 171 5 is_stmt 1
 845              	 #APP
 846              	# 171 "src/../h/riscv.h" 1
 847              		mv a0, a0
 848              	# 0 "" 2
 849              		.loc 2 172 1 is_stmt 0
 850              	 #NO_APP
 851 031c 6FF05FDF 		j	.L5
 852              	.LVL66:
 853              	.L9:
 854              	.LBE248:
 855              	.LBE247:
 856              	.LBE244:
 161:src/riscv.cpp **** 		{
 857              		.loc 1 161 3 is_stmt 1
 162:src/riscv.cpp **** 			if (_thread::running == nullptr)
 858              		.loc 1 162 3
 163:src/riscv.cpp **** 			{
 859              		.loc 1 163 4
 163:src/riscv.cpp **** 			{
 860              		.loc 1 163 25 is_stmt 0
 861 0320 17050000 		ld	a0,_ZN7_thread7runningE
 861      03350500 
 163:src/riscv.cpp **** 			{
GAS LISTING C:\msys64\tmp\cczdVx3K.s 			page 28


 862              		.loc 1 163 4
 863 0328 630E0500 		beq	a0,zero,.L51
 169:src/riscv.cpp **** 				writeARegister(0, 0);
 864              		.loc 1 169 5 is_stmt 1
 169:src/riscv.cpp **** 				writeARegister(0, 0);
 865              		.loc 1 169 33 is_stmt 0
 866 032c 93850400 		mv	a1,s1
 867              	.LVL67:
 868 0330 97000000 		call	_ZN7_thread10time_sleepEm
 868      E7800000 
 869              	.LVL68:
 170:src/riscv.cpp **** 			}
 870              		.loc 1 170 5 is_stmt 1
 871              	.LBB249:
 872              	.LBB250:
 171:src/../h/riscv.h **** }
 873              		.loc 2 171 5
 874 0338 93070000 		li	a5,0
 875              	 #APP
 876              	# 171 "src/../h/riscv.h" 1
 877              		mv a0, a5
 878              	# 0 "" 2
 879              		.loc 2 172 1 is_stmt 0
 880              	 #NO_APP
 881 0340 6FF01FDD 		j	.L5
 882              	.LVL69:
 883              	.L51:
 884              	.LBE250:
 885              	.LBE249:
 165:src/riscv.cpp **** 			}
 886              		.loc 1 165 5 is_stmt 1
 887              	.LBB251:
 888              	.LBB252:
 171:src/../h/riscv.h **** }
 889              		.loc 2 171 5
 890 0344 9307F0FF 		li	a5,-1
 891              	 #APP
 892              	# 171 "src/../h/riscv.h" 1
 893              		mv a0, a5
 894              	# 0 "" 2
 895              		.loc 2 172 1 is_stmt 0
 896              	 #NO_APP
 897 034c 6FF05FDC 		j	.L5
 898              	.LVL70:
 899              	.L8:
 900              	.LBE252:
 901              	.LBE251:
 175:src/riscv.cpp **** 		{
 902              		.loc 1 175 3 is_stmt 1
 176:src/riscv.cpp **** 			char c = _console::getc();
 903              		.loc 1 176 3
 904              	.LBB253:
 177:src/riscv.cpp **** 			writeARegister(0, (uint64)c);
 905              		.loc 1 177 4
 177:src/riscv.cpp **** 			writeARegister(0, (uint64)c);
 906              		.loc 1 177 27 is_stmt 0
 907 0350 97000000 		call	_ZN8_console4getcEv
GAS LISTING C:\msys64\tmp\cczdVx3K.s 			page 29


 907      E7800000 
 908              	.LVL71:
 178:src/riscv.cpp **** 			break;
 909              		.loc 1 178 4 is_stmt 1
 910              	.LBB254:
 911              	.LBB255:
 171:src/../h/riscv.h **** }
 912              		.loc 2 171 5
 913              	 #APP
 914              	# 171 "src/../h/riscv.h" 1
 915              		mv a0, a0
 916              	# 0 "" 2
 917              		.loc 2 172 1 is_stmt 0
 918              	 #NO_APP
 919 035c 6FF05FDB 		j	.L5
 920              	.LVL72:
 921              	.L6:
 922              	.LBE255:
 923              	.LBE254:
 924              	.LBE253:
 182:src/riscv.cpp **** 		{					   // putc
 925              		.loc 1 182 3 is_stmt 1
 183:src/riscv.cpp **** 			char c = (char)a1; // Karakter koji je korisnik prosledio
 926              		.loc 1 183 3
 927              	.LBB256:
 184:src/riscv.cpp **** 			_console::putc(c);
 928              		.loc 1 184 4
 185:src/riscv.cpp **** 			break;
 929              		.loc 1 185 4
 185:src/riscv.cpp **** 			break;
 930              		.loc 1 185 18 is_stmt 0
 931 0360 13F5F40F 		andi	a0,s1,0xff
 932 0364 97000000 		call	_ZN8_console4putcEc
 932      E7800000 
 933              	.LVL73:
 186:src/riscv.cpp **** 		}
 934              		.loc 1 186 4 is_stmt 1
 935 036c 6FF05FDA 		j	.L5
 936              	.LVL74:
 937              	.L50:
 938              	.LBE256:
 939              	.LBE262:
 940              	.LBE264:
 941              	.LBB265:
 942              	.LBB169:
 199:src/riscv.cpp **** 
 943              		.loc 1 199 3
 199:src/riscv.cpp **** 
 944              		.loc 1 199 23 is_stmt 0
 945 0370 97000000 		call	plic_claim
 945      E7800000 
 946              	.LVL75:
 947 0378 13090500 		mv	s2,a0
 948              	.LVL76:
 201:src/riscv.cpp **** 		{ // Proveravamo da li je prekid stigao baš sa konzole (obično 10)
 949              		.loc 1 201 3 is_stmt 1
 950              	.LBB170:
GAS LISTING C:\msys64\tmp\cczdVx3K.s 			page 30


 951 037c 9307A000 		li	a5,10
 952 0380 630AF500 		beq	a0,a5,.L37
 953              	.LVL77:
 954              	.L35:
 955              	.LBE170:
 221:src/riscv.cpp **** 	}
 956              		.loc 1 221 3
 221:src/riscv.cpp **** 	}
 957              		.loc 1 221 16 is_stmt 0
 958 0384 13050900 		mv	a0,s2
 959 0388 97000000 		call	plic_complete
 959      E7800000 
 960              	.LVL78:
 961              	.LBE169:
 962 0390 6FF01FD9 		j	.L3
 963              	.L37:
 964              	.LBB187:
 965              	.LBB186:
 966              	.LBB171:
 205:src/riscv.cpp **** 			{
 967              		.loc 1 205 4 is_stmt 1
 205:src/riscv.cpp **** 			{
 968              		.loc 1 205 56
 205:src/riscv.cpp **** 			{
 969              		.loc 1 205 12 is_stmt 0
 970 0394 97040000 		ld	s1,CONSOLE_STATUS
 970      83B40400 
 971 039c 83C70400 		lbu	a5,0(s1)
 205:src/riscv.cpp **** 			{
 972              		.loc 1 205 56
 973 03a0 93F71700 		andi	a5,a5,1
 974 03a4 63840706 		beq	a5,zero,.L38
 975              	.LBB172:
 976              	.LBB173:
 977              		.file 6 "src/../h/Console.h"
   1:src/../h/Console.h **** #ifndef PROJEKAT_CONSOLE_H
   2:src/../h/Console.h **** #define PROJEKAT_CONSOLE_H
   3:src/../h/Console.h **** 
   4:src/../h/Console.h **** #include "../h/Semaphore.h"
   5:src/../h/Console.h **** #include "../h/Buffer.h"
   6:src/../h/Console.h **** 
   7:src/../h/Console.h **** class _console
   8:src/../h/Console.h **** {
   9:src/../h/Console.h **** public:
  10:src/../h/Console.h ****     _console() = delete;
  11:src/../h/Console.h ****     _console(const _console &) = delete;
  12:src/../h/Console.h ****     _console &operator=(const _console &) = delete;
  13:src/../h/Console.h **** 
  14:src/../h/Console.h ****     static char getc();
  15:src/../h/Console.h ****     static void putc(char c);
  16:src/../h/Console.h **** 
  17:src/../h/Console.h ****     static kBuffer *getInBuff()
  18:src/../h/Console.h ****     {
  19:src/../h/Console.h ****         ensureInit();
 978              		.loc 6 19 9 is_stmt 1
 979              		.loc 6 19 19 is_stmt 0
 980 03a8 97000000 		call	_ZN8_console10ensureInitEv
GAS LISTING C:\msys64\tmp\cczdVx3K.s 			page 31


 980      E7800000 
 981              	.LVL79:
  20:src/../h/Console.h ****         return inbuff;
 982              		.loc 6 20 9 is_stmt 1
 983              	.LBE173:
 984              	.LBE172:
 205:src/riscv.cpp **** 			{
 985              		.loc 1 205 89 is_stmt 0
 986 03b0 17050000 		ld	a0,_ZN8_console6inbuffE
 986      03350500 
 987 03b8 97000000 		call	_ZN7kBuffer6isFullEv
 987      E7800000 
 988              	.LVL80:
 205:src/riscv.cpp **** 			{
 989              		.loc 1 205 56
 990 03c0 63160504 		bne	a0,zero,.L38
 991              	.LBB174:
 207:src/riscv.cpp **** 				_console::getInBuff()->put(c);
 992              		.loc 1 207 5 is_stmt 1
 207:src/riscv.cpp **** 				_console::getInBuff()->put(c);
 993              		.loc 1 207 14 is_stmt 0
 994 03c4 97070000 		ld	a5,CONSOLE_RX_DATA
 994      83B70700 
 207:src/riscv.cpp **** 				_console::getInBuff()->put(c);
 995              		.loc 1 207 49
 996 03cc 83C40700 		lbu	s1,0(a5)
 997 03d0 93F4F40F 		andi	s1,s1,0xff
 998              	.LVL81:
 208:src/riscv.cpp **** 				_console::getInSem()->signal();
 999              		.loc 1 208 5 is_stmt 1
 1000              	.LBB175:
 1001              	.LBB176:
  19:src/../h/Console.h ****         return inbuff;
 1002              		.loc 6 19 9
  19:src/../h/Console.h ****         return inbuff;
 1003              		.loc 6 19 19 is_stmt 0
 1004 03d4 97000000 		call	_ZN8_console10ensureInitEv
 1004      E7800000 
 1005              	.LVL82:
 1006              		.loc 6 20 9 is_stmt 1
 1007              	.LBE176:
 1008              	.LBE175:
 208:src/riscv.cpp **** 				_console::getInSem()->signal();
 1009              		.loc 1 208 31 is_stmt 0
 1010 03dc 93850400 		mv	a1,s1
 1011 03e0 17050000 		ld	a0,_ZN8_console6inbuffE
 1011      03350500 
 1012 03e8 97000000 		call	_ZN7kBuffer3putEc
 1012      E7800000 
 1013              	.LVL83:
 209:src/riscv.cpp **** 			}
 1014              		.loc 1 209 5 is_stmt 1
 1015              	.LBB177:
 1016              	.LBB178:
  21:src/../h/Console.h ****     }
  22:src/../h/Console.h ****     static kBuffer *getOutBuff()
  23:src/../h/Console.h ****     {
GAS LISTING C:\msys64\tmp\cczdVx3K.s 			page 32


  24:src/../h/Console.h ****         ensureInit();
  25:src/../h/Console.h ****         return outbuff;
  26:src/../h/Console.h ****     }
  27:src/../h/Console.h ****     static _sem *getInSem()
  28:src/../h/Console.h ****     {
  29:src/../h/Console.h ****         ensureInit();
 1017              		.loc 6 29 9
 1018              		.loc 6 29 19 is_stmt 0
 1019 03f0 97000000 		call	_ZN8_console10ensureInitEv
 1019      E7800000 
 1020              	.LVL84:
  30:src/../h/Console.h ****         return inSem;
 1021              		.loc 6 30 9 is_stmt 1
 1022              	.LBE178:
 1023              	.LBE177:
 209:src/riscv.cpp **** 			}
 1024              		.loc 1 209 33 is_stmt 0
 1025 03f8 17050000 		ld	a0,_ZN8_console5inSemE
 1025      03350500 
 1026 0400 97000000 		call	_ZN4_sem6signalEv
 1026      E7800000 
 1027              	.LVL85:
 1028              	.LBE174:
 205:src/riscv.cpp **** 			{
 1029              		.loc 1 205 4
 1030 0408 6FF0DFF8 		j	.L37
 1031              	.LVL86:
 1032              	.L38:
 213:src/riscv.cpp **** 			{
 1033              		.loc 1 213 4 is_stmt 1
 213:src/riscv.cpp **** 			{
 1034              		.loc 1 213 56
 213:src/riscv.cpp **** 			{
 1035              		.loc 1 213 12 is_stmt 0
 1036 040c 83C70400 		lbu	a5,0(s1)
 213:src/riscv.cpp **** 			{
 1037              		.loc 1 213 56
 1038 0410 93F70702 		andi	a5,a5,32
 1039 0414 E38807F6 		beq	a5,zero,.L35
 1040              	.LBB179:
 1041              	.LBB180:
  24:src/../h/Console.h ****         return outbuff;
 1042              		.loc 6 24 9 is_stmt 1
  24:src/../h/Console.h ****         return outbuff;
 1043              		.loc 6 24 19 is_stmt 0
 1044 0418 97000000 		call	_ZN8_console10ensureInitEv
 1044      E7800000 
 1045              	.LVL87:
  25:src/../h/Console.h ****     }
 1046              		.loc 6 25 9 is_stmt 1
 1047              	.LBE180:
 1048              	.LBE179:
 213:src/riscv.cpp **** 			{
 1049              		.loc 1 213 91 is_stmt 0
 1050 0420 17050000 		ld	a0,_ZN8_console7outbuffE
 1050      03350500 
 1051 0428 97000000 		call	_ZN7kBuffer7isEmptyEv
GAS LISTING C:\msys64\tmp\cczdVx3K.s 			page 33


 1051      E7800000 
 1052              	.LVL88:
 213:src/riscv.cpp **** 			{
 1053              		.loc 1 213 56
 1054 0430 E31A05F4 		bne	a0,zero,.L35
 1055              	.LBB181:
 215:src/riscv.cpp **** 				*((volatile uint8 *)CONSOLE_TX_DATA) = (uint8)c;
 1056              		.loc 1 215 5 is_stmt 1
 1057              	.LBB182:
 1058              	.LBB183:
  24:src/../h/Console.h ****         return outbuff;
 1059              		.loc 6 24 9
  24:src/../h/Console.h ****         return outbuff;
 1060              		.loc 6 24 19 is_stmt 0
 1061 0434 97000000 		call	_ZN8_console10ensureInitEv
 1061      E7800000 
 1062              	.LVL89:
  25:src/../h/Console.h ****     }
 1063              		.loc 6 25 9 is_stmt 1
 1064              	.LBE183:
 1065              	.LBE182:
 215:src/riscv.cpp **** 				*((volatile uint8 *)CONSOLE_TX_DATA) = (uint8)c;
 1066              		.loc 1 215 41 is_stmt 0
 1067 043c 17050000 		ld	a0,_ZN8_console7outbuffE
 1067      03350500 
 1068 0444 97000000 		call	_ZN7kBuffer3getEv
 1068      E7800000 
 1069              	.LVL90:
 216:src/riscv.cpp **** 				_console::getOutSem()->signal();
 1070              		.loc 1 216 5 is_stmt 1
 1071 044c 97070000 		ld	a5,CONSOLE_TX_DATA
 1071      83B70700 
 216:src/riscv.cpp **** 				_console::getOutSem()->signal();
 1072              		.loc 1 216 42 is_stmt 0
 1073 0454 2380A700 		sb	a0,0(a5)
 217:src/riscv.cpp **** 			}
 1074              		.loc 1 217 5 is_stmt 1
 1075              	.LBB184:
 1076              	.LBB185:
  31:src/../h/Console.h ****     }
  32:src/../h/Console.h ****     static _sem *getOutSem()
  33:src/../h/Console.h ****     {
  34:src/../h/Console.h ****         ensureInit();
 1077              		.loc 6 34 9
 1078              		.loc 6 34 19 is_stmt 0
 1079 0458 97000000 		call	_ZN8_console10ensureInitEv
 1079      E7800000 
 1080              	.LVL91:
  35:src/../h/Console.h ****         return outSem;
 1081              		.loc 6 35 9 is_stmt 1
 1082              	.LBE185:
 1083              	.LBE184:
 217:src/riscv.cpp **** 			}
 1084              		.loc 1 217 34 is_stmt 0
 1085 0460 17050000 		ld	a0,_ZN8_console6outSemE
 1085      03350500 
 1086 0468 97000000 		call	_ZN4_sem6signalEv
GAS LISTING C:\msys64\tmp\cczdVx3K.s 			page 34


 1086      E7800000 
 1087              	.LVL92:
 1088              	.LBE181:
 213:src/riscv.cpp **** 			{
 1089              		.loc 1 213 4
 1090 0470 6FF0DFF9 		j	.L38
 1091              	.LVL93:
 1092              	.L42:
 1093              	.LBE171:
 1094              	.LBE186:
 1095              	.LBE187:
 1096              	.LBB188:
 1097              	.LBB164:
 1098              	.LBB148:
 1099              	.LBB147:
 1100              	.LBB138:
 1101              	.LBB139:
 1102              	.LBB140:
  16:src/../h/Scheduler.h ****     }
 1103              		.loc 3 16 9 is_stmt 1
 1104              	.LBE140:
 1105              	.LBE139:
 241:src/riscv.cpp **** 			}
 1106              		.loc 1 241 30 is_stmt 0
 1107 0474 17050000 		lla	a0,_ZZN9Scheduler8instanceEvE8instance
 1107      13050500 
 1108 047c 97000000 		call	_ZN9Scheduler3putEP7_thread
 1108      E7800000 
 1109              	.LVL94:
 1110              	.L43:
 1111              	.LBE138:
 233:src/riscv.cpp **** 			{
 1112              		.loc 1 233 4 is_stmt 1
 233:src/riscv.cpp **** 			{
 1113              		.loc 1 233 33
 233:src/riscv.cpp **** 			{
 1114              		.loc 1 233 20 is_stmt 0
 1115 0484 97050000 		ld	a1,_ZN7_thread12sleepingHeadE
 1115      83B50500 
 233:src/riscv.cpp **** 			{
 1116              		.loc 1 233 33
 1117 048c 63880504 		beq	a1,zero,.L40
 233:src/riscv.cpp **** 			{
 1118              		.loc 1 233 59 discriminator 1
 1119 0490 83B70505 		ld	a5,80(a1)
 233:src/riscv.cpp **** 			{
 1120              		.loc 1 233 33 discriminator 1
 1121 0494 63940704 		bne	a5,zero,.L40
 1122              	.LBB146:
 235:src/riscv.cpp **** 
 1123              		.loc 1 235 5 is_stmt 1
 1124              	.LVL95:
 237:src/riscv.cpp **** 
 1125              		.loc 1 237 5
 237:src/riscv.cpp **** 
 1126              		.loc 1 237 32 is_stmt 0
 1127 0498 83B78500 		ld	a5,8(a1)
GAS LISTING C:\msys64\tmp\cczdVx3K.s 			page 35


 237:src/riscv.cpp **** 
 1128              		.loc 1 237 27
 1129 049c 17070000 		sd	a5,_ZN7_thread12sleepingHeadE,a4
 1129      2330F700 
 239:src/riscv.cpp **** 				t->isReady = true;
 1130              		.loc 1 239 5 is_stmt 1
 239:src/riscv.cpp **** 				t->isReady = true;
 1131              		.loc 1 239 17 is_stmt 0
 1132 04a4 23B40500 		sd	zero,8(a1)
 240:src/riscv.cpp **** 				Scheduler::instance().put(t);
 1133              		.loc 1 240 5 is_stmt 1
 240:src/riscv.cpp **** 				Scheduler::instance().put(t);
 1134              		.loc 1 240 16 is_stmt 0
 1135 04a8 93071000 		li	a5,1
 1136 04ac 2380F504 		sb	a5,64(a1)
 241:src/riscv.cpp **** 			}
 1137              		.loc 1 241 5 is_stmt 1
 1138              	.LBB145:
 1139              	.LBB144:
  15:src/../h/Scheduler.h ****         return instance;
 1140              		.loc 3 15 9
  15:src/../h/Scheduler.h ****         return instance;
 1141              		.loc 3 15 26 is_stmt 0
 1142 04b0 97070000 		lbu	a5,_ZGVZN9Scheduler8instanceEvE8instance
 1142      83C70700 
 1143 04b8 E39E07FA 		bne	a5,zero,.L42
 1144              	.LVL96:
 1145              	.LBB141:
 1146              	.LBB142:
 1147              	.LBB143:
 1148              		.loc 3 27 46
 1149 04bc 97070000 		lla	a5,_ZZN9Scheduler8instanceEvE8instance
 1149      93870700 
 1150 04c4 23B00700 		sd	zero,0(a5)
 1151 04c8 23B40700 		sd	zero,8(a5)
 1152              	.LVL97:
 1153              	.LBE143:
 1154              	.LBE142:
 1155              	.LBE141:
  15:src/../h/Scheduler.h ****         return instance;
 1156              		.loc 3 15 26
 1157 04cc 93071000 		li	a5,1
 1158 04d0 17070000 		sb	a5,_ZGVZN9Scheduler8instanceEvE8instance,a4
 1158      2300F700 
 1159 04d8 6FF0DFF9 		j	.L42
 1160              	.LVL98:
 1161              	.L40:
 1162              	.LBE144:
 1163              	.LBE145:
 1164              	.LBE146:
 1165              	.LBE147:
 1166              	.LBE148:
 244:src/riscv.cpp **** 		{
 1167              		.loc 1 244 3 is_stmt 1
 1168              	.LBB149:
 244:src/riscv.cpp **** 		{
 1169              		.loc 1 244 66 is_stmt 0
GAS LISTING C:\msys64\tmp\cczdVx3K.s 			page 36


 1170 04dc 97070000 		ld	a5,_ZN7_thread7runningE
 1170      83B70700 
 1171              	.LVL99:
 1172              	.LBB150:
 1173              	.LBB151:
  30:src/../h/Thread.h **** 	}
 1174              		.loc 4 30 3 is_stmt 1
  30:src/../h/Thread.h **** 	}
 1175              		.loc 4 30 10 is_stmt 0
 1176 04e4 83B78703 		ld	a5,56(a5)
 1177              	.LVL100:
 1178              	.LBE151:
 1179              	.LBE150:
 244:src/riscv.cpp **** 		{
 1180              		.loc 1 244 33
 1181 04e8 17070000 		ld	a4,_ZN7_thread16timeSliceCounterE
 1181      03370700 
 244:src/riscv.cpp **** 		{
 1182              		.loc 1 244 3
 1183 04f0 6378F700 		bgeu	a4,a5,.L52
 1184              	.L44:
 1185              	.LBE149:
 253:src/riscv.cpp **** 	}else{
 1186              		.loc 1 253 3 is_stmt 1
 1187              	.LVL101:
 1188              	.LBB161:
 1189              	.LBB162:
 125:src/../h/riscv.h **** }
 1190              		.loc 2 125 5
 1191 04f4 93072000 		li	a5,2
 1192              	 #APP
 1193              	# 125 "src/../h/riscv.h" 1
 126:src/../h/riscv.h **** 
 1194              		csrc sip, a5
 1195              	# 0 "" 2
 1196              		.loc 2 126 1 is_stmt 0
 1197              	 #NO_APP
 1198 04fc 6FF05FC2 		j	.L3
 1199              	.LVL102:
 1200              	.L52:
 1201              	.LBE162:
 1202              	.LBE161:
 1203              	.LBB163:
 1204              	.LBB152:
 246:src/riscv.cpp **** 			uint64 volatile sstatus = r_sstatus();
 1205              		.loc 1 246 4 is_stmt 1
 1206              	.LBB153:
 1207              	.LBB154:
  84:src/../h/riscv.h ****     __asm__ volatile("csrr %[sepc], sepc" : [sepc] "=r"(sepc));
 1208              		.loc 2 84 5
  85:src/../h/riscv.h ****     return sepc;
 1209              		.loc 2 85 5
 1210              	 #APP
 1211              	# 85 "src/../h/riscv.h" 1
 1212              		csrr a5, sepc
 1213              	# 0 "" 2
 1214              	 #NO_APP
GAS LISTING C:\msys64\tmp\cczdVx3K.s 			page 37


 1215 0504 2334F4FC 		sd	a5,-56(s0)
  86:src/../h/riscv.h **** }
 1216              		.loc 2 86 5
  86:src/../h/riscv.h **** }
 1217              		.loc 2 86 12 is_stmt 0
 1218 0508 833784FC 		ld	a5,-56(s0)
 1219              	.LBE154:
 1220              	.LBE153:
 246:src/riscv.cpp **** 			uint64 volatile sstatus = r_sstatus();
 1221              		.loc 1 246 34
 1222 050c 233CF4F8 		sd	a5,-104(s0)
 247:src/riscv.cpp **** 			_thread::timeSliceCounter = 0;
 1223              		.loc 1 247 4 is_stmt 1
 1224              	.LBB155:
 1225              	.LBB156:
 152:src/../h/riscv.h ****     __asm__ volatile("csrr %[sstatus], sstatus" : [sstatus] "=r"(sstatus));
 1226              		.loc 2 152 5
 153:src/../h/riscv.h ****     return sstatus;
 1227              		.loc 2 153 5
 1228              	 #APP
 1229              	# 153 "src/../h/riscv.h" 1
 1230              		csrr a5, sstatus
 1231              	# 0 "" 2
 1232              	 #NO_APP
 1233 0514 2330F4FC 		sd	a5,-64(s0)
 154:src/../h/riscv.h **** }
 1234              		.loc 2 154 5
 154:src/../h/riscv.h **** }
 1235              		.loc 2 154 12 is_stmt 0
 1236 0518 833704FC 		ld	a5,-64(s0)
 1237              	.LBE156:
 1238              	.LBE155:
 247:src/riscv.cpp **** 			_thread::timeSliceCounter = 0;
 1239              		.loc 1 247 40
 1240 051c 2330F4FA 		sd	a5,-96(s0)
 248:src/riscv.cpp **** 			_thread::dispatch();
 1241              		.loc 1 248 4 is_stmt 1
 248:src/riscv.cpp **** 			_thread::dispatch();
 1242              		.loc 1 248 30 is_stmt 0
 1243 0520 97070000 		sd	zero,_ZN7_thread16timeSliceCounterE,a5
 1243      23B00700 
 249:src/riscv.cpp **** 			w_sstatus(sstatus);
 1244              		.loc 1 249 4 is_stmt 1
 249:src/riscv.cpp **** 			w_sstatus(sstatus);
 1245              		.loc 1 249 21 is_stmt 0
 1246 0528 97000000 		call	_ZN7_thread8dispatchEv
 1246      E7800000 
 1247              	.LVL103:
 250:src/riscv.cpp **** 			w_sepc(sepc);
 1248              		.loc 1 250 4 is_stmt 1
 250:src/riscv.cpp **** 			w_sepc(sepc);
 1249              		.loc 1 250 13 is_stmt 0
 1250 0530 833704FA 		ld	a5,-96(s0)
 1251              	.LVL104:
 1252              	.LBB157:
 1253              	.LBB158:
 159:src/../h/riscv.h **** }
GAS LISTING C:\msys64\tmp\cczdVx3K.s 			page 38


 1254              		.loc 2 159 5 is_stmt 1
 1255              	 #APP
 1256              	# 159 "src/../h/riscv.h" 1
 1257              		csrw sstatus, a5
 1258              	# 0 "" 2
 1259              	.LVL105:
 1260              	 #NO_APP
 1261              	.LBE158:
 1262              	.LBE157:
 251:src/riscv.cpp **** 		}
 1263              		.loc 1 251 4
 251:src/riscv.cpp **** 		}
 1264              		.loc 1 251 10 is_stmt 0
 1265 0538 833784F9 		ld	a5,-104(s0)
 1266              	.LVL106:
 1267              	.LBB159:
 1268              	.LBB160:
  91:src/../h/riscv.h **** }
 1269              		.loc 2 91 5 is_stmt 1
 1270              	 #APP
 1271              	# 91 "src/../h/riscv.h" 1
  92:src/../h/riscv.h **** 
 1272              		csrw sepc, a5
 1273              	# 0 "" 2
 1274              		.loc 2 92 1 is_stmt 0
 1275              	 #NO_APP
 1276 0540 6FF05FFB 		j	.L44
 1277              	.LVL107:
 1278              	.L39:
 1279              	.LBE160:
 1280              	.LBE159:
 1281              	.LBE152:
 1282              	.LBE163:
 1283              	.LBE164:
 255:src/riscv.cpp ****         _printInteger(r_sepc(), 16);
 1284              		.loc 1 255 3 is_stmt 1
 255:src/riscv.cpp ****         _printInteger(r_sepc(), 16);
 1285              		.loc 1 255 15 is_stmt 0
 1286 0544 17050000 		lla	a0,.LC0
 1286      13050500 
 1287              	.LVL108:
 1288 054c 97000000 		call	_Z12_printStringPKc
 1288      E7800000 
 1289              	.LVL109:
 256:src/riscv.cpp ****         _printString(", SCAUSE = ");
 1290              		.loc 1 256 9 is_stmt 1
 1291              	.LBB165:
 1292              	.LBB166:
  84:src/../h/riscv.h ****     __asm__ volatile("csrr %[sepc], sepc" : [sepc] "=r"(sepc));
 1293              		.loc 2 84 5
  85:src/../h/riscv.h ****     return sepc;
 1294              		.loc 2 85 5
 1295              	 #APP
 1296              	# 85 "src/../h/riscv.h" 1
 1297              		csrr a5, sepc
 1298              	# 0 "" 2
 1299              	 #NO_APP
GAS LISTING C:\msys64\tmp\cczdVx3K.s 			page 39


 1300 0558 2334F4FC 		sd	a5,-56(s0)
  86:src/../h/riscv.h **** }
 1301              		.loc 2 86 5
  86:src/../h/riscv.h **** }
 1302              		.loc 2 86 12 is_stmt 0
 1303 055c 033584FC 		ld	a0,-56(s0)
 1304              	.LBE166:
 1305              	.LBE165:
 256:src/riscv.cpp ****         _printString(", SCAUSE = ");
 1306              		.loc 1 256 22
 1307 0560 13061000 		li	a2,1
 1308 0564 93050001 		li	a1,16
 1309 0568 97000000 		call	_Z13_printIntegermmb
 1309      E7800000 
 1310              	.LVL110:
 257:src/riscv.cpp ****         _printInteger(r_scause());
 1311              		.loc 1 257 9 is_stmt 1
 257:src/riscv.cpp ****         _printInteger(r_scause());
 1312              		.loc 1 257 21 is_stmt 0
 1313 0570 17050000 		lla	a0,.LC1
 1313      13050500 
 1314 0578 97000000 		call	_Z12_printStringPKc
 1314      E7800000 
 1315              	.LVL111:
 258:src/riscv.cpp ****         _printString("\n");
 1316              		.loc 1 258 9 is_stmt 1
 1317              	.LBB167:
 1318              	.LBB168:
  72:src/../h/riscv.h ****     __asm__ volatile("csrr %[scause], scause" : [scause] "=r"(scause));
 1319              		.loc 2 72 5
  73:src/../h/riscv.h ****     return scause;
 1320              		.loc 2 73 5
 1321              	 #APP
 1322              	# 73 "src/../h/riscv.h" 1
 1323              		csrr a5, scause
 1324              	# 0 "" 2
 1325              	 #NO_APP
 1326 0584 2330F4FC 		sd	a5,-64(s0)
  74:src/../h/riscv.h **** }
 1327              		.loc 2 74 5
  74:src/../h/riscv.h **** }
 1328              		.loc 2 74 12 is_stmt 0
 1329 0588 033504FC 		ld	a0,-64(s0)
 1330              	.LBE168:
 1331              	.LBE167:
 258:src/riscv.cpp ****         _printString("\n");
 1332              		.loc 1 258 22
 1333 058c 13061000 		li	a2,1
 1334 0590 9305A000 		li	a1,10
 1335 0594 97000000 		call	_Z13_printIntegermmb
 1335      E7800000 
 1336              	.LVL112:
 259:src/riscv.cpp **** 
 1337              		.loc 1 259 9 is_stmt 1
 259:src/riscv.cpp **** 
 1338              		.loc 1 259 21 is_stmt 0
 1339 059c 17050000 		lla	a0,.LC2
GAS LISTING C:\msys64\tmp\cczdVx3K.s 			page 40


 1339      13050500 
 1340 05a4 97000000 		call	_Z12_printStringPKc
 1340      E7800000 
 1341              	.LVL113:
 1342              	.L45:
 261:src/riscv.cpp **** 	}
 1343              		.loc 1 261 9 is_stmt 1 discriminator 1
 261:src/riscv.cpp **** 	}
 1344              		.loc 1 261 9 discriminator 1
 1345 05ac 6F000000 		j	.L45
 1346              	.LVL114:
 1347              	.L47:
 1348              	.LBE188:
 1349              	.LBE265:
 1350              	.LBB266:
 1351              	.LBB263:
 1352              	.LBB257:
  83:src/riscv.cpp **** 
 1353              		.loc 1 83 25 is_stmt 0
 1354 05b0 93040500 		mv	s1,a0
 1355              	.LVL115:
 1356 05b4 13850900 		mv	a0,s3
 1357 05b8 97000000 		call	_ZdlPv
 1357      E7800000 
 1358              	.LVL116:
 1359 05c0 13850400 		mv	a0,s1
 1360 05c4 97000000 		call	_Unwind_Resume
 1360      E7800000 
 1361              	.LVL117:
 1362              	.LEHE2:
 1363              	.LBE257:
 1364              	.LBE263:
 1365              	.LBE266:
 1366              	.LBE269:
 1367              		.cfi_endproc
 1368              	.LFE35:
 1369              		.globl	__gxx_personality_v0
 1370              		.section	.gcc_except_table,"aw",@progbits
 1371              	.LLSDA35:
 1372 0000 FF       		.byte	0xff
 1373 0001 FF       		.byte	0xff
 1374 0002 03       		.byte	0x3
 1375 0003 27       		.byte	0x27
 1376 0004 00000000 		.4byte	.LEHB0-.LFB35
 1377 0008 00000000 		.4byte	.LEHE0-.LEHB0
 1378 000c 00000000 		.4byte	0
 1379 0010 00       		.byte	0
 1380 0011 00000000 		.4byte	.LEHB1-.LFB35
 1381 0015 00000000 		.4byte	.LEHE1-.LEHB1
 1382 0019 00000000 		.4byte	.L47-.LFB35
 1383 001d 00       		.byte	0
 1384 001e 00000000 		.4byte	.LEHB2-.LFB35
 1385 0022 00000000 		.4byte	.LEHE2-.LEHB2
 1386 0026 00000000 		.4byte	0
 1387 002a 00       		.byte	0
 1388              		.text
 1390              		.weak	_ZGVZN9Scheduler8instanceEvE8instance
GAS LISTING C:\msys64\tmp\cczdVx3K.s 			page 41


 1391              		.section	.sbss._ZGVZN9Scheduler8instanceEvE8instance,"awG",@nobits,_ZGVZN9Scheduler8instanceEvE8in
 1392              		.align	3
 1395              	_ZGVZN9Scheduler8instanceEvE8instance:
 1396 0000 00000000 		.zero	8
 1396      00000000 
 1397              		.weak	_ZZN9Scheduler8instanceEvE8instance
 1398              		.section	.bss._ZZN9Scheduler8instanceEvE8instance,"awG",@nobits,_ZZN9Scheduler8instanceEvE8instanc
 1399              		.align	3
 1402              	_ZZN9Scheduler8instanceEvE8instance:
 1403 0000 00000000 		.zero	16
 1403      00000000 
 1403      00000000 
 1403      00000000 
 1404              		.text
 1405              	.Letext0:
 1406              		.file 7 "src/../h/../lib/hw.h"
 1407              		.file 8 "src/../h/MemoryAllocator.h"
 1408              		.file 9 "src/../h/../h/Buffer.h"
 1409              		.file 10 "src/../h/print.hpp"
 7570              		.align	3
 7573              	DW.ref.__gxx_personality_v0:
 7574 0000 00000000 		.dword	__gxx_personality_v0
 7574      00000000 
 7575              		.ident	"GCC: (GNU) 10.1.0"
GAS LISTING C:\msys64\tmp\cczdVx3K.s 			page 42


DEFINED SYMBOLS
                            *ABS*:0000000000000000 riscv.cpp
C:\msys64\tmp\cczdVx3K.s:12     .text:0000000000000000 _ZN5Riscv10popSppSpieEv
C:\msys64\tmp\cczdVx3K.s:16     .text:0000000000000000 .L0 
C:\msys64\tmp\cczdVx3K.s:17     .text:0000000000000000 .L0 
C:\msys64\tmp\cczdVx3K.s:18     .text:0000000000000004 .L0 
C:\msys64\tmp\cczdVx3K.s:20     .text:0000000000000008 .L0 
C:\msys64\tmp\cczdVx3K.s:22     .text:000000000000000c .L0 
       src/riscv.cpp:10     .text:000000000000000c .L0 
C:\msys64\tmp\cczdVx3K.s:34     .text:0000000000000010 .L0 
C:\msys64\tmp\cczdVx3K.s:35     .text:0000000000000010 .L0 
       src/riscv.cpp:12     .text:0000000000000018 .L0 
C:\msys64\tmp\cczdVx3K.s:51     .text:000000000000001c .L0 
C:\msys64\tmp\cczdVx3K.s:52     .text:0000000000000020 .L0 
C:\msys64\tmp\cczdVx3K.s:53     .text:0000000000000020 .L0 
C:\msys64\tmp\cczdVx3K.s:55     .text:0000000000000024 .L0 
C:\msys64\tmp\cczdVx3K.s:57     .text:0000000000000028 .L0 
C:\msys64\tmp\cczdVx3K.s:74     .text:0000000000000028 _ZN5Riscv20handleSupervisorTrapEmmmmmmmm
C:\msys64\tmp\cczdVx3K.s:77     .text:0000000000000028 .L0 
C:\msys64\tmp\cczdVx3K.s:7573   .sdata.DW.ref.__gxx_personality_v0:0000000000000000 DW.ref.__gxx_personality_v0
C:\msys64\tmp\cczdVx3K.s:81     .text:0000000000000028 .L0 
C:\msys64\tmp\cczdVx3K.s:82     .text:000000000000002c .L0 
C:\msys64\tmp\cczdVx3K.s:88     .text:0000000000000040 .L0 
C:\msys64\tmp\cczdVx3K.s:89     .text:0000000000000040 .L0 
C:\msys64\tmp\cczdVx3K.s:90     .text:0000000000000040 .L0 
C:\msys64\tmp\cczdVx3K.s:91     .text:0000000000000040 .L0 
C:\msys64\tmp\cczdVx3K.s:92     .text:0000000000000040 .L0 
C:\msys64\tmp\cczdVx3K.s:94     .text:0000000000000044 .L0 
C:\msys64\tmp\cczdVx3K.s:100    .text:000000000000004c .L0 
C:\msys64\tmp\cczdVx3K.s:101    .text:000000000000004c .L0 
    src/../h/riscv.h:73     .text:000000000000004c .L0 
C:\msys64\tmp\cczdVx3K.s:110    .text:0000000000000054 .L0 
C:\msys64\tmp\cczdVx3K.s:111    .text:0000000000000054 .L0 
C:\msys64\tmp\cczdVx3K.s:117    .text:0000000000000058 .L0 
C:\msys64\tmp\cczdVx3K.s:118    .text:0000000000000058 .L0 
C:\msys64\tmp\cczdVx3K.s:121    .text:000000000000005c .L0 
C:\msys64\tmp\cczdVx3K.s:127    .text:0000000000000064 .L0 
C:\msys64\tmp\cczdVx3K.s:137    .text:0000000000000074 .L0 
C:\msys64\tmp\cczdVx3K.s:143    .text:0000000000000084 .L0 
C:\msys64\tmp\cczdVx3K.s:144    .text:0000000000000084 .L0 
C:\msys64\tmp\cczdVx3K.s:151    .text:0000000000000098 .L0 
C:\msys64\tmp\cczdVx3K.s:152    .text:0000000000000098 .L0 
C:\msys64\tmp\cczdVx3K.s:154    .text:00000000000000a0 .L0 
C:\msys64\tmp\cczdVx3K.s:157    .text:00000000000000a4 .L0 
C:\msys64\tmp\cczdVx3K.s:158    .text:00000000000000a4 .L0 
C:\msys64\tmp\cczdVx3K.s:160    .text:00000000000000a8 .L0 
C:\msys64\tmp\cczdVx3K.s:162    .text:00000000000000ac .L0 
C:\msys64\tmp\cczdVx3K.s:163    .text:00000000000000ac .L0 
C:\msys64\tmp\cczdVx3K.s:175    .text:00000000000000b8 .L0 
C:\msys64\tmp\cczdVx3K.s:178    .text:00000000000000b8 .L0 
C:\msys64\tmp\cczdVx3K.s:179    .text:00000000000000b8 .L0 
    src/../h/riscv.h:85     .text:00000000000000b8 .L0 
C:\msys64\tmp\cczdVx3K.s:187    .text:00000000000000c0 .L0 
C:\msys64\tmp\cczdVx3K.s:188    .text:00000000000000c0 .L0 
C:\msys64\tmp\cczdVx3K.s:192    .text:00000000000000c4 .L0 
C:\msys64\tmp\cczdVx3K.s:194    .text:00000000000000c8 .L0 
C:\msys64\tmp\cczdVx3K.s:198    .text:00000000000000cc .L0 
GAS LISTING C:\msys64\tmp\cczdVx3K.s 			page 43


C:\msys64\tmp\cczdVx3K.s:199    .text:00000000000000cc .L0 
    src/../h/riscv.h:153    .text:00000000000000cc .L0 
C:\msys64\tmp\cczdVx3K.s:207    .text:00000000000000d4 .L0 
C:\msys64\tmp\cczdVx3K.s:208    .text:00000000000000d4 .L0 
C:\msys64\tmp\cczdVx3K.s:212    .text:00000000000000d8 .L0 
C:\msys64\tmp\cczdVx3K.s:214    .text:00000000000000dc .L0 
C:\msys64\tmp\cczdVx3K.s:299    .text:0000000000000100 .L0 
C:\msys64\tmp\cczdVx3K.s:301    .text:0000000000000100 .L0 
C:\msys64\tmp\cczdVx3K.s:303    .text:0000000000000100 .L0 
C:\msys64\tmp\cczdVx3K.s:304    .text:0000000000000100 .L0 
C:\msys64\tmp\cczdVx3K.s:305    .text:0000000000000100 .L0 
    src/../h/riscv.h:171    .text:000000000000010c .L0 
C:\msys64\tmp\cczdVx3K.s:325    .text:0000000000000110 .L0 
C:\msys64\tmp\cczdVx3K.s:326    .text:0000000000000110 .L0 
    src/../h/riscv.h:159    .text:0000000000000114 .L0 
C:\msys64\tmp\cczdVx3K.s:340    .text:0000000000000118 .L0 
C:\msys64\tmp\cczdVx3K.s:341    .text:0000000000000118 .L0 
    src/../h/riscv.h:91     .text:000000000000011c .L0 
C:\msys64\tmp\cczdVx3K.s:358    .text:0000000000000120 .L0 
C:\msys64\tmp\cczdVx3K.s:359    .text:0000000000000124 .L0 
C:\msys64\tmp\cczdVx3K.s:360    .text:0000000000000124 .L0 
C:\msys64\tmp\cczdVx3K.s:362    .text:0000000000000128 .L0 
C:\msys64\tmp\cczdVx3K.s:363    .text:0000000000000128 .L0 
C:\msys64\tmp\cczdVx3K.s:365    .text:000000000000012c .L0 
C:\msys64\tmp\cczdVx3K.s:367    .text:0000000000000130 .L0 
C:\msys64\tmp\cczdVx3K.s:369    .text:0000000000000134 .L0 
C:\msys64\tmp\cczdVx3K.s:371    .text:0000000000000138 .L0 
C:\msys64\tmp\cczdVx3K.s:375    .text:000000000000013c .L0 
C:\msys64\tmp\cczdVx3K.s:380    .text:000000000000013c .L0 
C:\msys64\tmp\cczdVx3K.s:381    .text:000000000000013c .L0 
C:\msys64\tmp\cczdVx3K.s:382    .text:000000000000013c .L0 
C:\msys64\tmp\cczdVx3K.s:383    .text:000000000000013c .L0 
    src/../h/riscv.h:171    .text:0000000000000148 .L0 
C:\msys64\tmp\cczdVx3K.s:395    .text:000000000000014c .L0 
C:\msys64\tmp\cczdVx3K.s:401    .text:0000000000000150 .L0 
C:\msys64\tmp\cczdVx3K.s:403    .text:0000000000000150 .L0 
C:\msys64\tmp\cczdVx3K.s:404    .text:0000000000000150 .L0 
C:\msys64\tmp\cczdVx3K.s:405    .text:0000000000000150 .L0 
C:\msys64\tmp\cczdVx3K.s:406    .text:0000000000000150 .L0 
C:\msys64\tmp\cczdVx3K.s:407    .text:0000000000000150 .L0 
C:\msys64\tmp\cczdVx3K.s:409    .text:0000000000000154 .L0 
C:\msys64\tmp\cczdVx3K.s:410    .text:0000000000000154 .L0 
C:\msys64\tmp\cczdVx3K.s:412    .text:0000000000000158 .L0 
C:\msys64\tmp\cczdVx3K.s:413    .text:0000000000000158 .L0 
C:\msys64\tmp\cczdVx3K.s:420    .text:000000000000016c .L0 
C:\msys64\tmp\cczdVx3K.s:422    .text:0000000000000170 .L0 
C:\msys64\tmp\cczdVx3K.s:424    .text:0000000000000174 .L0 
C:\msys64\tmp\cczdVx3K.s:429    .text:0000000000000178 .L0 
C:\msys64\tmp\cczdVx3K.s:430    .text:0000000000000178 .L0 
C:\msys64\tmp\cczdVx3K.s:1395   .sbss._ZGVZN9Scheduler8instanceEvE8instance:0000000000000000 _ZGVZN9Scheduler8instanceEvE8instance
C:\msys64\tmp\cczdVx3K.s:431    .text:0000000000000178 .L0 
C:\msys64\tmp\cczdVx3K.s:1402   .bss._ZZN9Scheduler8instanceEvE8instance:0000000000000000 _ZZN9Scheduler8instanceEvE8instance
C:\msys64\tmp\cczdVx3K.s:438    .text:0000000000000184 .L0 
C:\msys64\tmp\cczdVx3K.s:446    .text:0000000000000194 .L0 
C:\msys64\tmp\cczdVx3K.s:452    .text:00000000000001a0 .L0 
C:\msys64\tmp\cczdVx3K.s:453    .text:00000000000001a0 .L0 
C:\msys64\tmp\cczdVx3K.s:461    .text:00000000000001b4 .L0 
GAS LISTING C:\msys64\tmp\cczdVx3K.s 			page 44


C:\msys64\tmp\cczdVx3K.s:462    .text:00000000000001b4 .L0 
C:\msys64\tmp\cczdVx3K.s:469    .text:00000000000001bc .L0 
C:\msys64\tmp\cczdVx3K.s:477    .text:00000000000001c0 .L0 
C:\msys64\tmp\cczdVx3K.s:478    .text:00000000000001c0 .L0 
C:\msys64\tmp\cczdVx3K.s:485    .text:00000000000001c8 .L0 
C:\msys64\tmp\cczdVx3K.s:492    .text:00000000000001cc .L0 
C:\msys64\tmp\cczdVx3K.s:493    .text:00000000000001cc .L0 
C:\msys64\tmp\cczdVx3K.s:494    .text:00000000000001cc .L0 
C:\msys64\tmp\cczdVx3K.s:495    .text:00000000000001cc .L0 
C:\msys64\tmp\cczdVx3K.s:497    .text:00000000000001d4 .L0 
C:\msys64\tmp\cczdVx3K.s:498    .text:00000000000001d4 .L0 
C:\msys64\tmp\cczdVx3K.s:500    .text:00000000000001dc .L0 
C:\msys64\tmp\cczdVx3K.s:506    .text:00000000000001e0 .L0 
C:\msys64\tmp\cczdVx3K.s:507    .text:00000000000001e0 .L0 
C:\msys64\tmp\cczdVx3K.s:508    .text:00000000000001e0 .L0 
C:\msys64\tmp\cczdVx3K.s:517    .text:00000000000001e8 .L0 
C:\msys64\tmp\cczdVx3K.s:518    .text:00000000000001e8 .L0 
C:\msys64\tmp\cczdVx3K.s:529    .text:00000000000001f0 .L0 
C:\msys64\tmp\cczdVx3K.s:530    .text:00000000000001f0 .L0 
C:\msys64\tmp\cczdVx3K.s:533    .text:00000000000001f8 .L0 
C:\msys64\tmp\cczdVx3K.s:539    .text:00000000000001fc .L0 
C:\msys64\tmp\cczdVx3K.s:540    .text:00000000000001fc .L0 
C:\msys64\tmp\cczdVx3K.s:547    .text:0000000000000204 .L0 
C:\msys64\tmp\cczdVx3K.s:553    .text:0000000000000208 .L0 
C:\msys64\tmp\cczdVx3K.s:554    .text:0000000000000208 .L0 
C:\msys64\tmp\cczdVx3K.s:555    .text:0000000000000208 .L0 
C:\msys64\tmp\cczdVx3K.s:556    .text:0000000000000208 .L0 
C:\msys64\tmp\cczdVx3K.s:558    .text:0000000000000210 .L0 
C:\msys64\tmp\cczdVx3K.s:559    .text:0000000000000210 .L0 
C:\msys64\tmp\cczdVx3K.s:562    .text:0000000000000218 .L0 
C:\msys64\tmp\cczdVx3K.s:566    .text:000000000000021c .L0 
C:\msys64\tmp\cczdVx3K.s:568    .text:000000000000021c .L0 
C:\msys64\tmp\cczdVx3K.s:569    .text:000000000000021c .L0 
C:\msys64\tmp\cczdVx3K.s:573    .text:000000000000021c .L0 
C:\msys64\tmp\cczdVx3K.s:574    .text:000000000000021c .L0 
C:\msys64\tmp\cczdVx3K.s:575    .text:000000000000021c .L0 
C:\msys64\tmp\cczdVx3K.s:584    .text:000000000000022c .L0 
C:\msys64\tmp\cczdVx3K.s:585    .text:000000000000022c .L0 
C:\msys64\tmp\cczdVx3K.s:591    .text:0000000000000238 .L0 
C:\msys64\tmp\cczdVx3K.s:593    .text:000000000000023c .L0 
C:\msys64\tmp\cczdVx3K.s:598    .text:0000000000000240 .L0 
C:\msys64\tmp\cczdVx3K.s:599    .text:0000000000000240 .L0 
C:\msys64\tmp\cczdVx3K.s:606    .text:0000000000000248 .L0 
C:\msys64\tmp\cczdVx3K.s:614    .text:000000000000024c .L0 
C:\msys64\tmp\cczdVx3K.s:615    .text:000000000000024c .L0 
C:\msys64\tmp\cczdVx3K.s:622    .text:0000000000000254 .L0 
C:\msys64\tmp\cczdVx3K.s:629    .text:0000000000000258 .L0 
C:\msys64\tmp\cczdVx3K.s:631    .text:0000000000000258 .L0 
C:\msys64\tmp\cczdVx3K.s:632    .text:0000000000000258 .L0 
C:\msys64\tmp\cczdVx3K.s:633    .text:0000000000000258 .L0 
C:\msys64\tmp\cczdVx3K.s:638    .text:000000000000025c .L0 
C:\msys64\tmp\cczdVx3K.s:639    .text:000000000000025c .L0 
C:\msys64\tmp\cczdVx3K.s:646    .text:0000000000000264 .L0 
C:\msys64\tmp\cczdVx3K.s:652    .text:0000000000000268 .L0 
C:\msys64\tmp\cczdVx3K.s:653    .text:0000000000000268 .L0 
    src/../h/riscv.h:171    .text:0000000000000274 .L0 
C:\msys64\tmp\cczdVx3K.s:669    .text:0000000000000278 .L0 
GAS LISTING C:\msys64\tmp\cczdVx3K.s 			page 45


C:\msys64\tmp\cczdVx3K.s:670    .text:0000000000000278 .L0 
C:\msys64\tmp\cczdVx3K.s:678    .text:0000000000000288 .L0 
C:\msys64\tmp\cczdVx3K.s:680    .text:0000000000000288 .L0 
C:\msys64\tmp\cczdVx3K.s:681    .text:0000000000000288 .L0 
C:\msys64\tmp\cczdVx3K.s:682    .text:0000000000000288 .L0 
C:\msys64\tmp\cczdVx3K.s:687    .text:000000000000028c .L0 
C:\msys64\tmp\cczdVx3K.s:688    .text:000000000000028c .L0 
C:\msys64\tmp\cczdVx3K.s:695    .text:0000000000000294 .L0 
C:\msys64\tmp\cczdVx3K.s:701    .text:0000000000000298 .L0 
C:\msys64\tmp\cczdVx3K.s:702    .text:0000000000000298 .L0 
    src/../h/riscv.h:171    .text:00000000000002a4 .L0 
C:\msys64\tmp\cczdVx3K.s:714    .text:00000000000002a8 .L0 
C:\msys64\tmp\cczdVx3K.s:721    .text:00000000000002ac .L0 
C:\msys64\tmp\cczdVx3K.s:723    .text:00000000000002ac .L0 
C:\msys64\tmp\cczdVx3K.s:724    .text:00000000000002ac .L0 
C:\msys64\tmp\cczdVx3K.s:725    .text:00000000000002ac .L0 
C:\msys64\tmp\cczdVx3K.s:730    .text:00000000000002b0 .L0 
C:\msys64\tmp\cczdVx3K.s:731    .text:00000000000002b0 .L0 
C:\msys64\tmp\cczdVx3K.s:738    .text:00000000000002b8 .L0 
C:\msys64\tmp\cczdVx3K.s:744    .text:00000000000002bc .L0 
C:\msys64\tmp\cczdVx3K.s:745    .text:00000000000002bc .L0 
    src/../h/riscv.h:171    .text:00000000000002c8 .L0 
C:\msys64\tmp\cczdVx3K.s:757    .text:00000000000002cc .L0 
C:\msys64\tmp\cczdVx3K.s:764    .text:00000000000002d0 .L0 
C:\msys64\tmp\cczdVx3K.s:766    .text:00000000000002d0 .L0 
C:\msys64\tmp\cczdVx3K.s:767    .text:00000000000002d0 .L0 
C:\msys64\tmp\cczdVx3K.s:768    .text:00000000000002d0 .L0 
C:\msys64\tmp\cczdVx3K.s:769    .text:00000000000002d0 .L0 
C:\msys64\tmp\cczdVx3K.s:772    .text:00000000000002d4 .L0 
C:\msys64\tmp\cczdVx3K.s:777    .text:00000000000002d8 .L0 
C:\msys64\tmp\cczdVx3K.s:778    .text:00000000000002d8 .L0 
C:\msys64\tmp\cczdVx3K.s:785    .text:00000000000002e0 .L0 
C:\msys64\tmp\cczdVx3K.s:791    .text:00000000000002e4 .L0 
C:\msys64\tmp\cczdVx3K.s:792    .text:00000000000002e4 .L0 
    src/../h/riscv.h:171    .text:00000000000002f0 .L0 
C:\msys64\tmp\cczdVx3K.s:804    .text:00000000000002f4 .L0 
C:\msys64\tmp\cczdVx3K.s:811    .text:00000000000002f8 .L0 
C:\msys64\tmp\cczdVx3K.s:813    .text:00000000000002f8 .L0 
C:\msys64\tmp\cczdVx3K.s:814    .text:00000000000002f8 .L0 
C:\msys64\tmp\cczdVx3K.s:815    .text:00000000000002f8 .L0 
C:\msys64\tmp\cczdVx3K.s:816    .text:00000000000002f8 .L0 
C:\msys64\tmp\cczdVx3K.s:819    .text:00000000000002fc .L0 
C:\msys64\tmp\cczdVx3K.s:824    .text:0000000000000300 .L0 
C:\msys64\tmp\cczdVx3K.s:825    .text:0000000000000300 .L0 
C:\msys64\tmp\cczdVx3K.s:832    .text:0000000000000308 .L0 
C:\msys64\tmp\cczdVx3K.s:838    .text:000000000000030c .L0 
C:\msys64\tmp\cczdVx3K.s:839    .text:000000000000030c .L0 
    src/../h/riscv.h:171    .text:0000000000000318 .L0 
C:\msys64\tmp\cczdVx3K.s:851    .text:000000000000031c .L0 
C:\msys64\tmp\cczdVx3K.s:858    .text:0000000000000320 .L0 
C:\msys64\tmp\cczdVx3K.s:859    .text:0000000000000320 .L0 
C:\msys64\tmp\cczdVx3K.s:860    .text:0000000000000320 .L0 
C:\msys64\tmp\cczdVx3K.s:861    .text:0000000000000320 .L0 
C:\msys64\tmp\cczdVx3K.s:863    .text:0000000000000328 .L0 
C:\msys64\tmp\cczdVx3K.s:865    .text:000000000000032c .L0 
C:\msys64\tmp\cczdVx3K.s:866    .text:000000000000032c .L0 
C:\msys64\tmp\cczdVx3K.s:873    .text:0000000000000338 .L0 
GAS LISTING C:\msys64\tmp\cczdVx3K.s 			page 46


C:\msys64\tmp\cczdVx3K.s:874    .text:0000000000000338 .L0 
C:\msys64\tmp\cczdVx3K.s:881    .text:0000000000000340 .L0 
C:\msys64\tmp\cczdVx3K.s:889    .text:0000000000000344 .L0 
C:\msys64\tmp\cczdVx3K.s:890    .text:0000000000000344 .L0 
C:\msys64\tmp\cczdVx3K.s:897    .text:000000000000034c .L0 
C:\msys64\tmp\cczdVx3K.s:903    .text:0000000000000350 .L0 
C:\msys64\tmp\cczdVx3K.s:905    .text:0000000000000350 .L0 
C:\msys64\tmp\cczdVx3K.s:906    .text:0000000000000350 .L0 
C:\msys64\tmp\cczdVx3K.s:907    .text:0000000000000350 .L0 
C:\msys64\tmp\cczdVx3K.s:912    .text:0000000000000358 .L0 
    src/../h/riscv.h:171    .text:0000000000000358 .L0 
C:\msys64\tmp\cczdVx3K.s:919    .text:000000000000035c .L0 
C:\msys64\tmp\cczdVx3K.s:926    .text:0000000000000360 .L0 
C:\msys64\tmp\cczdVx3K.s:928    .text:0000000000000360 .L0 
C:\msys64\tmp\cczdVx3K.s:929    .text:0000000000000360 .L0 
C:\msys64\tmp\cczdVx3K.s:930    .text:0000000000000360 .L0 
C:\msys64\tmp\cczdVx3K.s:931    .text:0000000000000360 .L0 
C:\msys64\tmp\cczdVx3K.s:935    .text:000000000000036c .L0 
C:\msys64\tmp\cczdVx3K.s:944    .text:0000000000000370 .L0 
C:\msys64\tmp\cczdVx3K.s:945    .text:0000000000000370 .L0 
C:\msys64\tmp\cczdVx3K.s:951    .text:000000000000037c .L0 
C:\msys64\tmp\cczdVx3K.s:957    .text:0000000000000384 .L0 
C:\msys64\tmp\cczdVx3K.s:958    .text:0000000000000384 .L0 
C:\msys64\tmp\cczdVx3K.s:968    .text:0000000000000394 .L0 
C:\msys64\tmp\cczdVx3K.s:969    .text:0000000000000394 .L0 
C:\msys64\tmp\cczdVx3K.s:970    .text:0000000000000394 .L0 
C:\msys64\tmp\cczdVx3K.s:973    .text:00000000000003a0 .L0 
C:\msys64\tmp\cczdVx3K.s:979    .text:00000000000003a8 .L0 
C:\msys64\tmp\cczdVx3K.s:980    .text:00000000000003a8 .L0 
C:\msys64\tmp\cczdVx3K.s:985    .text:00000000000003b0 .L0 
C:\msys64\tmp\cczdVx3K.s:986    .text:00000000000003b0 .L0 
C:\msys64\tmp\cczdVx3K.s:990    .text:00000000000003c0 .L0 
C:\msys64\tmp\cczdVx3K.s:993    .text:00000000000003c4 .L0 
C:\msys64\tmp\cczdVx3K.s:994    .text:00000000000003c4 .L0 
C:\msys64\tmp\cczdVx3K.s:996    .text:00000000000003cc .L0 
C:\msys64\tmp\cczdVx3K.s:1002   .text:00000000000003d4 .L0 
C:\msys64\tmp\cczdVx3K.s:1003   .text:00000000000003d4 .L0 
C:\msys64\tmp\cczdVx3K.s:1004   .text:00000000000003d4 .L0 
C:\msys64\tmp\cczdVx3K.s:1009   .text:00000000000003dc .L0 
C:\msys64\tmp\cczdVx3K.s:1010   .text:00000000000003dc .L0 
C:\msys64\tmp\cczdVx3K.s:1017   .text:00000000000003f0 .L0 
C:\msys64\tmp\cczdVx3K.s:1018   .text:00000000000003f0 .L0 
C:\msys64\tmp\cczdVx3K.s:1019   .text:00000000000003f0 .L0 
C:\msys64\tmp\cczdVx3K.s:1024   .text:00000000000003f8 .L0 
C:\msys64\tmp\cczdVx3K.s:1025   .text:00000000000003f8 .L0 
C:\msys64\tmp\cczdVx3K.s:1030   .text:0000000000000408 .L0 
C:\msys64\tmp\cczdVx3K.s:1034   .text:000000000000040c .L0 
C:\msys64\tmp\cczdVx3K.s:1035   .text:000000000000040c .L0 
C:\msys64\tmp\cczdVx3K.s:1036   .text:000000000000040c .L0 
C:\msys64\tmp\cczdVx3K.s:1038   .text:0000000000000410 .L0 
C:\msys64\tmp\cczdVx3K.s:1043   .text:0000000000000418 .L0 
C:\msys64\tmp\cczdVx3K.s:1044   .text:0000000000000418 .L0 
C:\msys64\tmp\cczdVx3K.s:1049   .text:0000000000000420 .L0 
C:\msys64\tmp\cczdVx3K.s:1050   .text:0000000000000420 .L0 
C:\msys64\tmp\cczdVx3K.s:1054   .text:0000000000000430 .L0 
C:\msys64\tmp\cczdVx3K.s:1059   .text:0000000000000434 .L0 
C:\msys64\tmp\cczdVx3K.s:1060   .text:0000000000000434 .L0 
GAS LISTING C:\msys64\tmp\cczdVx3K.s 			page 47


C:\msys64\tmp\cczdVx3K.s:1061   .text:0000000000000434 .L0 
C:\msys64\tmp\cczdVx3K.s:1066   .text:000000000000043c .L0 
C:\msys64\tmp\cczdVx3K.s:1067   .text:000000000000043c .L0 
C:\msys64\tmp\cczdVx3K.s:1071   .text:000000000000044c .L0 
C:\msys64\tmp\cczdVx3K.s:1073   .text:0000000000000454 .L0 
C:\msys64\tmp\cczdVx3K.s:1077   .text:0000000000000458 .L0 
C:\msys64\tmp\cczdVx3K.s:1078   .text:0000000000000458 .L0 
C:\msys64\tmp\cczdVx3K.s:1079   .text:0000000000000458 .L0 
C:\msys64\tmp\cczdVx3K.s:1084   .text:0000000000000460 .L0 
C:\msys64\tmp\cczdVx3K.s:1085   .text:0000000000000460 .L0 
C:\msys64\tmp\cczdVx3K.s:1090   .text:0000000000000470 .L0 
C:\msys64\tmp\cczdVx3K.s:1106   .text:0000000000000474 .L0 
C:\msys64\tmp\cczdVx3K.s:1107   .text:0000000000000474 .L0 
C:\msys64\tmp\cczdVx3K.s:1113   .text:0000000000000484 .L0 
C:\msys64\tmp\cczdVx3K.s:1114   .text:0000000000000484 .L0 
C:\msys64\tmp\cczdVx3K.s:1115   .text:0000000000000484 .L0 
C:\msys64\tmp\cczdVx3K.s:1117   .text:000000000000048c .L0 
C:\msys64\tmp\cczdVx3K.s:1119   .text:0000000000000490 .L0 
C:\msys64\tmp\cczdVx3K.s:1121   .text:0000000000000494 .L0 
C:\msys64\tmp\cczdVx3K.s:1125   .text:0000000000000498 .L0 
C:\msys64\tmp\cczdVx3K.s:1126   .text:0000000000000498 .L0 
C:\msys64\tmp\cczdVx3K.s:1127   .text:0000000000000498 .L0 
C:\msys64\tmp\cczdVx3K.s:1129   .text:000000000000049c .L0 
C:\msys64\tmp\cczdVx3K.s:1131   .text:00000000000004a4 .L0 
C:\msys64\tmp\cczdVx3K.s:1132   .text:00000000000004a4 .L0 
C:\msys64\tmp\cczdVx3K.s:1134   .text:00000000000004a8 .L0 
C:\msys64\tmp\cczdVx3K.s:1135   .text:00000000000004a8 .L0 
C:\msys64\tmp\cczdVx3K.s:1140   .text:00000000000004b0 .L0 
C:\msys64\tmp\cczdVx3K.s:1141   .text:00000000000004b0 .L0 
C:\msys64\tmp\cczdVx3K.s:1142   .text:00000000000004b0 .L0 
C:\msys64\tmp\cczdVx3K.s:1149   .text:00000000000004bc .L0 
C:\msys64\tmp\cczdVx3K.s:1157   .text:00000000000004cc .L0 
C:\msys64\tmp\cczdVx3K.s:1169   .text:00000000000004dc .L0 
C:\msys64\tmp\cczdVx3K.s:1170   .text:00000000000004dc .L0 
C:\msys64\tmp\cczdVx3K.s:1175   .text:00000000000004e4 .L0 
C:\msys64\tmp\cczdVx3K.s:1176   .text:00000000000004e4 .L0 
C:\msys64\tmp\cczdVx3K.s:1181   .text:00000000000004e8 .L0 
C:\msys64\tmp\cczdVx3K.s:1183   .text:00000000000004f0 .L0 
C:\msys64\tmp\cczdVx3K.s:1190   .text:00000000000004f4 .L0 
C:\msys64\tmp\cczdVx3K.s:1191   .text:00000000000004f4 .L0 
C:\msys64\tmp\cczdVx3K.s:1198   .text:00000000000004fc .L0 
C:\msys64\tmp\cczdVx3K.s:1208   .text:0000000000000500 .L0 
C:\msys64\tmp\cczdVx3K.s:1209   .text:0000000000000500 .L0 
    src/../h/riscv.h:85     .text:0000000000000500 .L0 
C:\msys64\tmp\cczdVx3K.s:1217   .text:0000000000000508 .L0 
C:\msys64\tmp\cczdVx3K.s:1218   .text:0000000000000508 .L0 
C:\msys64\tmp\cczdVx3K.s:1222   .text:000000000000050c .L0 
C:\msys64\tmp\cczdVx3K.s:1226   .text:0000000000000510 .L0 
C:\msys64\tmp\cczdVx3K.s:1227   .text:0000000000000510 .L0 
    src/../h/riscv.h:153    .text:0000000000000510 .L0 
C:\msys64\tmp\cczdVx3K.s:1235   .text:0000000000000518 .L0 
C:\msys64\tmp\cczdVx3K.s:1236   .text:0000000000000518 .L0 
C:\msys64\tmp\cczdVx3K.s:1240   .text:000000000000051c .L0 
C:\msys64\tmp\cczdVx3K.s:1242   .text:0000000000000520 .L0 
C:\msys64\tmp\cczdVx3K.s:1243   .text:0000000000000520 .L0 
C:\msys64\tmp\cczdVx3K.s:1245   .text:0000000000000528 .L0 
C:\msys64\tmp\cczdVx3K.s:1246   .text:0000000000000528 .L0 
GAS LISTING C:\msys64\tmp\cczdVx3K.s 			page 48


C:\msys64\tmp\cczdVx3K.s:1249   .text:0000000000000530 .L0 
C:\msys64\tmp\cczdVx3K.s:1250   .text:0000000000000530 .L0 
    src/../h/riscv.h:159    .text:0000000000000534 .L0 
C:\msys64\tmp\cczdVx3K.s:1264   .text:0000000000000538 .L0 
C:\msys64\tmp\cczdVx3K.s:1265   .text:0000000000000538 .L0 
    src/../h/riscv.h:91     .text:000000000000053c .L0 
C:\msys64\tmp\cczdVx3K.s:1276   .text:0000000000000540 .L0 
C:\msys64\tmp\cczdVx3K.s:1285   .text:0000000000000544 .L0 
C:\msys64\tmp\cczdVx3K.s:1286   .text:0000000000000544 .L0 
C:\msys64\tmp\cczdVx3K.s:1293   .text:0000000000000554 .L0 
C:\msys64\tmp\cczdVx3K.s:1294   .text:0000000000000554 .L0 
    src/../h/riscv.h:85     .text:0000000000000554 .L0 
C:\msys64\tmp\cczdVx3K.s:1302   .text:000000000000055c .L0 
C:\msys64\tmp\cczdVx3K.s:1303   .text:000000000000055c .L0 
C:\msys64\tmp\cczdVx3K.s:1307   .text:0000000000000560 .L0 
C:\msys64\tmp\cczdVx3K.s:1312   .text:0000000000000570 .L0 
C:\msys64\tmp\cczdVx3K.s:1313   .text:0000000000000570 .L0 
C:\msys64\tmp\cczdVx3K.s:1319   .text:0000000000000580 .L0 
C:\msys64\tmp\cczdVx3K.s:1320   .text:0000000000000580 .L0 
    src/../h/riscv.h:73     .text:0000000000000580 .L0 
C:\msys64\tmp\cczdVx3K.s:1328   .text:0000000000000588 .L0 
C:\msys64\tmp\cczdVx3K.s:1329   .text:0000000000000588 .L0 
C:\msys64\tmp\cczdVx3K.s:1333   .text:000000000000058c .L0 
C:\msys64\tmp\cczdVx3K.s:1338   .text:000000000000059c .L0 
C:\msys64\tmp\cczdVx3K.s:1339   .text:000000000000059c .L0 
C:\msys64\tmp\cczdVx3K.s:1344   .text:00000000000005ac .L0 
C:\msys64\tmp\cczdVx3K.s:1345   .text:00000000000005ac .L0 
C:\msys64\tmp\cczdVx3K.s:1354   .text:00000000000005b0 .L0 
C:\msys64\tmp\cczdVx3K.s:1367   .text:00000000000005cc .L0 
C:\msys64\tmp\cczdVx3K.s:1410   .text:00000000000005cc .L0 
C:\msys64\tmp\cczdVx3K.s:144    .text:0000000000000084 .L0 
C:\msys64\tmp\cczdVx3K.s:152    .text:0000000000000098 .L0 
C:\msys64\tmp\cczdVx3K.s:227    .rodata:0000000000000000 .L7
C:\msys64\tmp\cczdVx3K.s:218    .text:00000000000000e8 .L0 
C:\msys64\tmp\cczdVx3K.s:431    .text:0000000000000178 .L0 
C:\msys64\tmp\cczdVx3K.s:438    .text:0000000000000184 .L0 
C:\msys64\tmp\cczdVx3K.s:447    .text:0000000000000198 .L0 
C:\msys64\tmp\cczdVx3K.s:454    .text:00000000000001a4 .L0 
C:\msys64\tmp\cczdVx3K.s:495    .text:00000000000001cc .L0 
C:\msys64\tmp\cczdVx3K.s:498    .text:00000000000001d4 .L0 
C:\msys64\tmp\cczdVx3K.s:556    .text:0000000000000208 .L0 
C:\msys64\tmp\cczdVx3K.s:861    .text:0000000000000320 .L0 
C:\msys64\tmp\cczdVx3K.s:970    .text:0000000000000394 .L0 
C:\msys64\tmp\cczdVx3K.s:986    .text:00000000000003b0 .L0 
C:\msys64\tmp\cczdVx3K.s:994    .text:00000000000003c4 .L0 
C:\msys64\tmp\cczdVx3K.s:1011   .text:00000000000003e0 .L0 
C:\msys64\tmp\cczdVx3K.s:1025   .text:00000000000003f8 .L0 
C:\msys64\tmp\cczdVx3K.s:1050   .text:0000000000000420 .L0 
C:\msys64\tmp\cczdVx3K.s:1067   .text:000000000000043c .L0 
C:\msys64\tmp\cczdVx3K.s:1071   .text:000000000000044c .L0 
C:\msys64\tmp\cczdVx3K.s:1085   .text:0000000000000460 .L0 
C:\msys64\tmp\cczdVx3K.s:1107   .text:0000000000000474 .L0 
C:\msys64\tmp\cczdVx3K.s:1115   .text:0000000000000484 .L0 
C:\msys64\tmp\cczdVx3K.s:1129   .text:000000000000049c .L0 
C:\msys64\tmp\cczdVx3K.s:1142   .text:00000000000004b0 .L0 
C:\msys64\tmp\cczdVx3K.s:1149   .text:00000000000004bc .L0 
C:\msys64\tmp\cczdVx3K.s:1158   .text:00000000000004d0 .L0 
GAS LISTING C:\msys64\tmp\cczdVx3K.s 			page 49


C:\msys64\tmp\cczdVx3K.s:1170   .text:00000000000004dc .L0 
C:\msys64\tmp\cczdVx3K.s:1181   .text:00000000000004e8 .L0 
C:\msys64\tmp\cczdVx3K.s:1243   .text:0000000000000520 .L0 
C:\msys64\tmp\cczdVx3K.s:62     .rodata.str1.8:0000000000000000 .LC0
C:\msys64\tmp\cczdVx3K.s:1286   .text:0000000000000544 .L0 
C:\msys64\tmp\cczdVx3K.s:65     .rodata.str1.8:0000000000000020 .LC1
C:\msys64\tmp\cczdVx3K.s:1313   .text:0000000000000570 .L0 
C:\msys64\tmp\cczdVx3K.s:68     .rodata.str1.8:0000000000000030 .LC2
C:\msys64\tmp\cczdVx3K.s:1339   .text:000000000000059c .L0 
C:\msys64\tmp\cczdVx3K.s:167    .text:00000000000000b8 .L49
C:\msys64\tmp\cczdVx3K.s:937    .text:0000000000000370 .L50
C:\msys64\tmp\cczdVx3K.s:1278   .text:0000000000000544 .L39
C:\msys64\tmp\cczdVx3K.s:1161   .text:00000000000004dc .L40
C:\msys64\tmp\cczdVx3K.s:1110   .text:0000000000000484 .L43
C:\msys64\tmp\cczdVx3K.s:319    .text:0000000000000110 .L5
C:\msys64\tmp\cczdVx3K.s:471    .text:00000000000001c0 .L21
C:\msys64\tmp\cczdVx3K.s:457    .text:00000000000001b4 .L22
C:\msys64\tmp\cczdVx3K.s:448    .text:00000000000001a0 .L23
C:\msys64\tmp\cczdVx3K.s:535    .text:00000000000001fc .L24
C:\msys64\tmp\cczdVx3K.s:525    .text:00000000000001f0 .L25
C:\msys64\tmp\cczdVx3K.s:608    .text:000000000000024c .L26
C:\msys64\tmp\cczdVx3K.s:648    .text:0000000000000268 .L27
C:\msys64\tmp\cczdVx3K.s:697    .text:0000000000000298 .L28
C:\msys64\tmp\cczdVx3K.s:740    .text:00000000000002bc .L29
C:\msys64\tmp\cczdVx3K.s:787    .text:00000000000002e4 .L30
C:\msys64\tmp\cczdVx3K.s:834    .text:000000000000030c .L31
C:\msys64\tmp\cczdVx3K.s:883    .text:0000000000000344 .L51
C:\msys64\tmp\cczdVx3K.s:963    .text:0000000000000394 .L37
C:\msys64\tmp\cczdVx3K.s:352    .text:0000000000000120 .L3
C:\msys64\tmp\cczdVx3K.s:1032   .text:000000000000040c .L38
C:\msys64\tmp\cczdVx3K.s:954    .text:0000000000000384 .L35
C:\msys64\tmp\cczdVx3K.s:1092   .text:0000000000000474 .L42
C:\msys64\tmp\cczdVx3K.s:1200   .text:0000000000000500 .L52
C:\msys64\tmp\cczdVx3K.s:1184   .text:00000000000004f4 .L44
C:\msys64\tmp\cczdVx3K.s:1342   .text:00000000000005ac .L45
C:\msys64\tmp\cczdVx3K.s:296    .text:0000000000000100 .L20
C:\msys64\tmp\cczdVx3K.s:374    .text:000000000000013c .L19
C:\msys64\tmp\cczdVx3K.s:397    .text:0000000000000150 .L18
C:\msys64\tmp\cczdVx3K.s:487    .text:00000000000001cc .L17
C:\msys64\tmp\cczdVx3K.s:549    .text:0000000000000208 .L16
C:\msys64\tmp\cczdVx3K.s:564    .text:000000000000021c .L15
C:\msys64\tmp\cczdVx3K.s:624    .text:0000000000000258 .L14
C:\msys64\tmp\cczdVx3K.s:675    .text:0000000000000288 .L13
C:\msys64\tmp\cczdVx3K.s:716    .text:00000000000002ac .L12
C:\msys64\tmp\cczdVx3K.s:759    .text:00000000000002d0 .L11
C:\msys64\tmp\cczdVx3K.s:806    .text:00000000000002f8 .L10
C:\msys64\tmp\cczdVx3K.s:853    .text:0000000000000320 .L9
C:\msys64\tmp\cczdVx3K.s:899    .text:0000000000000350 .L8
C:\msys64\tmp\cczdVx3K.s:921    .text:0000000000000360 .L6
C:\msys64\tmp\cczdVx3K.s:307    .text:0000000000000104 .LEHB0
C:\msys64\tmp\cczdVx3K.s:75     .text:0000000000000028 .LFB35
C:\msys64\tmp\cczdVx3K.s:578    .text:0000000000000228 .LEHE0
C:\msys64\tmp\cczdVx3K.s:586    .text:0000000000000230 .LEHB1
C:\msys64\tmp\cczdVx3K.s:589    .text:0000000000000238 .LEHE1
C:\msys64\tmp\cczdVx3K.s:1347   .text:00000000000005b0 .L47
C:\msys64\tmp\cczdVx3K.s:654    .text:000000000000026c .LEHB2
C:\msys64\tmp\cczdVx3K.s:1362   .text:00000000000005cc .LEHE2
GAS LISTING C:\msys64\tmp\cczdVx3K.s 			page 50


C:\msys64\tmp\cczdVx3K.s:4304   .debug_abbrev:0000000000000000 .Ldebug_abbrev0
C:\msys64\tmp\cczdVx3K.s:7519   .debug_str:0000000000000aad .LASF202
C:\msys64\tmp\cczdVx3K.s:7527   .debug_str:0000000000000ba2 .LASF203
C:\msys64\tmp\cczdVx3K.s:7541   .debug_str:0000000000000c02 .LASF204
C:\msys64\tmp\cczdVx3K.s:8      .text:0000000000000000 .Ltext0
C:\msys64\tmp\cczdVx3K.s:1405   .text:00000000000005cc .Letext0
C:\msys64\tmp\cczdVx3K.s:7143   .debug_line:0000000000000000 .Ldebug_line0
C:\msys64\tmp\cczdVx3K.s:7271   .debug_str:0000000000000394 .LASF0
C:\msys64\tmp\cczdVx3K.s:7305   .debug_str:000000000000049a .LASF1
C:\msys64\tmp\cczdVx3K.s:7407   .debug_str:00000000000007bf .LASF2
C:\msys64\tmp\cczdVx3K.s:7229   .debug_str:0000000000000284 .LASF3
C:\msys64\tmp\cczdVx3K.s:7415   .debug_str:0000000000000804 .LASF4
C:\msys64\tmp\cczdVx3K.s:7283   .debug_str:00000000000003e6 .LASF5
C:\msys64\tmp\cczdVx3K.s:7157   .debug_str:0000000000000045 .LASF6
C:\msys64\tmp\cczdVx3K.s:7375   .debug_str:00000000000006dc .LASF7
C:\msys64\tmp\cczdVx3K.s:7367   .debug_str:000000000000069f .LASF8
C:\msys64\tmp\cczdVx3K.s:7295   .debug_str:0000000000000450 .LASF9
C:\msys64\tmp\cczdVx3K.s:7191   .debug_str:000000000000013a .LASF10
C:\msys64\tmp\cczdVx3K.s:7235   .debug_str:00000000000002aa .LASF11
C:\msys64\tmp\cczdVx3K.s:7201   .debug_str:0000000000000178 .LASF12
C:\msys64\tmp\cczdVx3K.s:7189   .debug_str:000000000000012a .LASF13
C:\msys64\tmp\cczdVx3K.s:7451   .debug_str:0000000000000909 .LASF14
C:\msys64\tmp\cczdVx3K.s:7227   .debug_str:000000000000026e .LASF15
C:\msys64\tmp\cczdVx3K.s:7435   .debug_str:0000000000000878 .LASF16
C:\msys64\tmp\cczdVx3K.s:7509   .debug_str:0000000000000a77 .LASF63
C:\msys64\tmp\cczdVx3K.s:7387   .debug_str:000000000000072d .LASF20
C:\msys64\tmp\cczdVx3K.s:7307   .debug_str:00000000000004ad .LASF17
C:\msys64\tmp\cczdVx3K.s:7161   .debug_str:0000000000000057 .LASF18
C:\msys64\tmp\cczdVx3K.s:7531   .debug_str:0000000000000bba .LASF19
C:\msys64\tmp\cczdVx3K.s:7499   .debug_str:0000000000000a35 .LASF21
C:\msys64\tmp\cczdVx3K.s:7231   .debug_str:000000000000028a .LASF22
C:\msys64\tmp\cczdVx3K.s:7471   .debug_str:000000000000096e .LASF23
C:\msys64\tmp\cczdVx3K.s:7207   .debug_str:00000000000001b9 .LASF24
C:\msys64\tmp\cczdVx3K.s:7261   .debug_str:0000000000000347 .LASF59
C:\msys64\tmp\cczdVx3K.s:7269   .debug_str:000000000000037c .LASF61
C:\msys64\tmp\cczdVx3K.s:7491   .debug_str:00000000000009f9 .LASF25
C:\msys64\tmp\cczdVx3K.s:7485   .debug_str:00000000000009d9 .LASF27
C:\msys64\tmp\cczdVx3K.s:7401   .debug_str:0000000000000790 .LASF29
C:\msys64\tmp\cczdVx3K.s:7357   .debug_str:0000000000000645 .LASF31
C:\msys64\tmp\cczdVx3K.s:7379   .debug_str:00000000000006ee .LASF26
C:\msys64\tmp\cczdVx3K.s:7381   .debug_str:00000000000006f5 .LASF28
C:\msys64\tmp\cczdVx3K.s:7353   .debug_str:000000000000062a .LASF30
C:\msys64\tmp\cczdVx3K.s:7297   .debug_str:0000000000000463 .LASF32
C:\msys64\tmp\cczdVx3K.s:7525   .debug_str:0000000000000b9a .LASF33
C:\msys64\tmp\cczdVx3K.s:7475   .debug_str:0000000000000980 .LASF34
C:\msys64\tmp\cczdVx3K.s:7347   .debug_str:0000000000000614 .LASF35
C:\msys64\tmp\cczdVx3K.s:7355   .debug_str:0000000000000631 .LASF36
C:\msys64\tmp\cczdVx3K.s:7309   .debug_str:00000000000004b6 .LASF37
C:\msys64\tmp\cczdVx3K.s:7385   .debug_str:0000000000000719 .LASF38
C:\msys64\tmp\cczdVx3K.s:7559   .debug_str:0000000000000cb0 .LASF39
C:\msys64\tmp\cczdVx3K.s:7279   .debug_str:00000000000003c0 .LASF40
C:\msys64\tmp\cczdVx3K.s:7447   .debug_str:00000000000008f5 .LASF41
C:\msys64\tmp\cczdVx3K.s:7419   .debug_str:0000000000000815 .LASF42
C:\msys64\tmp\cczdVx3K.s:7421   .debug_str:0000000000000828 .LASF43
C:\msys64\tmp\cczdVx3K.s:7195   .debug_str:000000000000014e .LASF44
C:\msys64\tmp\cczdVx3K.s:7221   .debug_str:0000000000000233 .LASF45
C:\msys64\tmp\cczdVx3K.s:7267   .debug_str:000000000000036a .LASF46
GAS LISTING C:\msys64\tmp\cczdVx3K.s 			page 51


C:\msys64\tmp\cczdVx3K.s:7277   .debug_str:00000000000003ba .LASF47
C:\msys64\tmp\cczdVx3K.s:7211   .debug_str:00000000000001dd .LASF48
C:\msys64\tmp\cczdVx3K.s:7159   .debug_str:000000000000004c .LASF49
C:\msys64\tmp\cczdVx3K.s:7411   .debug_str:00000000000007d7 .LASF50
C:\msys64\tmp\cczdVx3K.s:7405   .debug_str:00000000000007b4 .LASF51
C:\msys64\tmp\cczdVx3K.s:7553   .debug_str:0000000000000c73 .LASF52
C:\msys64\tmp\cczdVx3K.s:7511   .debug_str:0000000000000a7d .LASF53
C:\msys64\tmp\cczdVx3K.s:7535   .debug_str:0000000000000bca .LASF54
C:\msys64\tmp\cczdVx3K.s:7505   .debug_str:0000000000000a66 .LASF55
C:\msys64\tmp\cczdVx3K.s:7325   .debug_str:0000000000000553 .LASF56
C:\msys64\tmp\cczdVx3K.s:7293   .debug_str:0000000000000442 .LASF69
C:\msys64\tmp\cczdVx3K.s:7259   .debug_str:000000000000032c .LASF71
C:\msys64\tmp\cczdVx3K.s:7399   .debug_str:0000000000000781 .LASF57
C:\msys64\tmp\cczdVx3K.s:7155   .debug_str:0000000000000028 .LASF58
C:\msys64\tmp\cczdVx3K.s:7523   .debug_str:0000000000000b8b .LASF60
C:\msys64\tmp\cczdVx3K.s:7251   .debug_str:00000000000002f2 .LASF62
C:\msys64\tmp\cczdVx3K.s:7371   .debug_str:00000000000006b9 .LASF77
C:\msys64\tmp\cczdVx3K.s:7223   .debug_str:0000000000000239 .LASF79
C:\msys64\tmp\cczdVx3K.s:7365   .debug_str:000000000000068f .LASF64
C:\msys64\tmp\cczdVx3K.s:7197   .debug_str:0000000000000161 .LASF92
C:\msys64\tmp\cczdVx3K.s:7193   .debug_str:0000000000000149 .LASF65
C:\msys64\tmp\cczdVx3K.s:7303   .debug_str:0000000000000495 .LASF66
C:\msys64\tmp\cczdVx3K.s:7165   .debug_str:0000000000000066 .LASF67
C:\msys64\tmp\cczdVx3K.s:7287   .debug_str:0000000000000401 .LASF68
C:\msys64\tmp\cczdVx3K.s:7409   .debug_str:00000000000007cd .LASF86
C:\msys64\tmp\cczdVx3K.s:7495   .debug_str:0000000000000a0a .LASF87
C:\msys64\tmp\cczdVx3K.s:7237   .debug_str:00000000000002b9 .LASF70
C:\msys64\tmp\cczdVx3K.s:7323   .debug_str:0000000000000534 .LASF72
C:\msys64\tmp\cczdVx3K.s:7241   .debug_str:00000000000002c6 .LASF73
C:\msys64\tmp\cczdVx3K.s:7359   .debug_str:000000000000065a .LASF74
C:\msys64\tmp\cczdVx3K.s:7171   .debug_str:0000000000000098 .LASF111
C:\msys64\tmp\cczdVx3K.s:7479   .debug_str:000000000000099e .LASF113
C:\msys64\tmp\cczdVx3K.s:7445   .debug_str:00000000000008f0 .LASF75
C:\msys64\tmp\cczdVx3K.s:7459   .debug_str:000000000000092d .LASF76
C:\msys64\tmp\cczdVx3K.s:7285   .debug_str:00000000000003f8 .LASF78
C:\msys64\tmp\cczdVx3K.s:7437   .debug_str:000000000000088e .LASF80
C:\msys64\tmp\cczdVx3K.s:7317   .debug_str:000000000000050e .LASF81
C:\msys64\tmp\cczdVx3K.s:7245   .debug_str:00000000000002d5 .LASF82
C:\msys64\tmp\cczdVx3K.s:7199   .debug_str:000000000000016f .LASF83
C:\msys64\tmp\cczdVx3K.s:7219   .debug_str:000000000000021a .LASF84
C:\msys64\tmp\cczdVx3K.s:7187   .debug_str:0000000000000115 .LASF85
C:\msys64\tmp\cczdVx3K.s:7413   .debug_str:00000000000007ef .LASF88
C:\msys64\tmp\cczdVx3K.s:7291   .debug_str:0000000000000426 .LASF141
C:\msys64\tmp\cczdVx3K.s:7545   .debug_str:0000000000000c41 .LASF147
C:\msys64\tmp\cczdVx3K.s:7539   .debug_str:0000000000000bf0 .LASF89
C:\msys64\tmp\cczdVx3K.s:7349   .debug_str:000000000000061c .LASF90
C:\msys64\tmp\cczdVx3K.s:7167   .debug_str:000000000000007f .LASF91
C:\msys64\tmp\cczdVx3K.s:7457   .debug_str:0000000000000925 .LASF93
C:\msys64\tmp\cczdVx3K.s:7555   .debug_str:0000000000000c8b .LASF94
C:\msys64\tmp\cczdVx3K.s:7393   .debug_str:000000000000075e .LASF95
C:\msys64\tmp\cczdVx3K.s:7453   .debug_str:0000000000000915 .LASF96
C:\msys64\tmp\cczdVx3K.s:7299   .debug_str:0000000000000476 .LASF97
C:\msys64\tmp\cczdVx3K.s:7449   .debug_str:00000000000008fc .LASF98
C:\msys64\tmp\cczdVx3K.s:7331   .debug_str:000000000000058d .LASF99
C:\msys64\tmp\cczdVx3K.s:7361   .debug_str:0000000000000678 .LASF205
C:\msys64\tmp\cczdVx3K.s:7469   .debug_str:0000000000000966 .LASF154
C:\msys64\tmp\cczdVx3K.s:7215   .debug_str:000000000000020c .LASF100
GAS LISTING C:\msys64\tmp\cczdVx3K.s 			page 52


C:\msys64\tmp\cczdVx3K.s:7205   .debug_str:00000000000001a2 .LASF101
C:\msys64\tmp\cczdVx3K.s:7257   .debug_str:0000000000000321 .LASF102
C:\msys64\tmp\cczdVx3K.s:7203   .debug_str:0000000000000188 .LASF103
C:\msys64\tmp\cczdVx3K.s:7321   .debug_str:0000000000000527 .LASF104
C:\msys64\tmp\cczdVx3K.s:7213   .debug_str:00000000000001ef .LASF105
C:\msys64\tmp\cczdVx3K.s:7175   .debug_str:00000000000000c1 .LASF106
C:\msys64\tmp\cczdVx3K.s:7501   .debug_str:0000000000000a44 .LASF107
C:\msys64\tmp\cczdVx3K.s:7395   .debug_str:000000000000076e .LASF108
C:\msys64\tmp\cczdVx3K.s:7177   .debug_str:00000000000000cd .LASF109
C:\msys64\tmp\cczdVx3K.s:7561   .debug_str:0000000000000cb8 .LASF110
C:\msys64\tmp\cczdVx3K.s:7179   .debug_str:00000000000000e7 .LASF112
C:\msys64\tmp\cczdVx3K.s:7389   .debug_str:0000000000000738 .LASF114
C:\msys64\tmp\cczdVx3K.s:7255   .debug_str:0000000000000313 .LASF206
C:\msys64\tmp\cczdVx3K.s:7311   .debug_str:00000000000004be .LASF207
C:\msys64\tmp\cczdVx3K.s:7351   .debug_str:0000000000000621 .LASF115
C:\msys64\tmp\cczdVx3K.s:7151   .debug_str:0000000000000016 .LASF116
C:\msys64\tmp\cczdVx3K.s:7551   .debug_str:0000000000000c6e .LASF117
C:\msys64\tmp\cczdVx3K.s:7431   .debug_str:0000000000000869 .LASF118
C:\msys64\tmp\cczdVx3K.s:7483   .debug_str:00000000000009d1 .LASF119
C:\msys64\tmp\cczdVx3K.s:7477   .debug_str:0000000000000994 .LASF120
C:\msys64\tmp\cczdVx3K.s:7493   .debug_str:0000000000000a02 .LASF121
C:\msys64\tmp\cczdVx3K.s:7433   .debug_str:000000000000086f .LASF122
C:\msys64\tmp\cczdVx3K.s:7343   .debug_str:00000000000005f5 .LASF123
C:\msys64\tmp\cczdVx3K.s:7521   .debug_str:0000000000000b80 .LASF124
C:\msys64\tmp\cczdVx3K.s:7153   .debug_str:000000000000001b .LASF125
C:\msys64\tmp\cczdVx3K.s:7423   .debug_str:000000000000082f .LASF126
C:\msys64\tmp\cczdVx3K.s:7547   .debug_str:0000000000000c55 .LASF127
C:\msys64\tmp\cczdVx3K.s:7461   .debug_str:0000000000000934 .LASF128
C:\msys64\tmp\cczdVx3K.s:7563   .debug_str:0000000000000cd4 .LASF129
C:\msys64\tmp\cczdVx3K.s:7181   .debug_str:00000000000000f5 .LASF130
C:\msys64\tmp\cczdVx3K.s:7217   .debug_str:0000000000000215 .LASF131
C:\msys64\tmp\cczdVx3K.s:7537   .debug_str:0000000000000be0 .LASF132
C:\msys64\tmp\cczdVx3K.s:7455   .debug_str:000000000000091e .LASF133
C:\msys64\tmp\cczdVx3K.s:7439   .debug_str:00000000000008c1 .LASF134
C:\msys64\tmp\cczdVx3K.s:7163   .debug_str:0000000000000060 .LASF135
C:\msys64\tmp\cczdVx3K.s:7169   .debug_str:0000000000000087 .LASF136
C:\msys64\tmp\cczdVx3K.s:7369   .debug_str:00000000000006b2 .LASF137
C:\msys64\tmp\cczdVx3K.s:7363   .debug_str:000000000000067d .LASF138
C:\msys64\tmp\cczdVx3K.s:7243   .debug_str:00000000000002cc .LASF139
C:\msys64\tmp\cczdVx3K.s:7273   .debug_str:00000000000003a1 .LASF140
C:\msys64\tmp\cczdVx3K.s:7481   .debug_str:00000000000009ba .LASF208
C:\msys64\tmp\cczdVx3K.s:7301   .debug_str:0000000000000486 .LASF142
C:\msys64\tmp\cczdVx3K.s:7507   .debug_str:0000000000000a70 .LASF143
C:\msys64\tmp\cczdVx3K.s:7337   .debug_str:00000000000005cd .LASF144
C:\msys64\tmp\cczdVx3K.s:7327   .debug_str:0000000000000569 .LASF145
C:\msys64\tmp\cczdVx3K.s:7281   .debug_str:00000000000003d4 .LASF146
C:\msys64\tmp\cczdVx3K.s:7335   .debug_str:00000000000005bb .LASF148
C:\msys64\tmp\cczdVx3K.s:7149   .debug_str:000000000000000f .LASF149
C:\msys64\tmp\cczdVx3K.s:7339   .debug_str:00000000000005d5 .LASF150
C:\msys64\tmp\cczdVx3K.s:7397   .debug_str:0000000000000779 .LASF151
C:\msys64\tmp\cczdVx3K.s:7441   .debug_str:00000000000008d3 .LASF152
C:\msys64\tmp\cczdVx3K.s:7145   .debug_str:0000000000000000 .LASF153
C:\msys64\tmp\cczdVx3K.s:7147   .debug_str:0000000000000006 .LASF155
C:\msys64\tmp\cczdVx3K.s:7429   .debug_str:0000000000000862 .LASF156
C:\msys64\tmp\cczdVx3K.s:7463   .debug_str:0000000000000939 .LASF157
C:\msys64\tmp\cczdVx3K.s:7289   .debug_str:000000000000041d .LASF158
C:\msys64\tmp\cczdVx3K.s:7383   .debug_str:0000000000000708 .LASF159
GAS LISTING C:\msys64\tmp\cczdVx3K.s 			page 53


C:\msys64\tmp\cczdVx3K.s:7319   .debug_str:0000000000000513 .LASF160
C:\msys64\tmp\cczdVx3K.s:7329   .debug_str:0000000000000579 .LASF161
C:\msys64\tmp\cczdVx3K.s:7275   .debug_str:00000000000003b5 .LASF162
C:\msys64\tmp\cczdVx3K.s:7465   .debug_str:000000000000093e .LASF163
C:\msys64\tmp\cczdVx3K.s:7513   .debug_str:0000000000000a87 .LASF164
C:\msys64\tmp\cczdVx3K.s:7467   .debug_str:0000000000000952 .LASF165
C:\msys64\tmp\cczdVx3K.s:7417   .debug_str:000000000000080b .LASF166
C:\msys64\tmp\cczdVx3K.s:7313   .debug_str:00000000000004ea .LASF167
C:\msys64\tmp\cczdVx3K.s:7185   .debug_str:000000000000010a .LASF168
C:\msys64\tmp\cczdVx3K.s:7425   .debug_str:0000000000000840 .LASF169
C:\msys64\tmp\cczdVx3K.s:7391   .debug_str:0000000000000755 .LASF170
C:\msys64\tmp\cczdVx3K.s:7557   .debug_str:0000000000000c98 .LASF171
C:\msys64\tmp\cczdVx3K.s:7529   .debug_str:0000000000000bb0 .LASF172
C:\msys64\tmp\cczdVx3K.s:7517   .debug_str:0000000000000a94 .LASF173
C:\msys64\tmp\cczdVx3K.s:7427   .debug_str:000000000000085b .LASF174
C:\msys64\tmp\cczdVx3K.s:7183   .debug_str:0000000000000102 .LASF175
C:\msys64\tmp\cczdVx3K.s:7487   .debug_str:00000000000009ee .LASF176
C:\msys64\tmp\cczdVx3K.s:7333   .debug_str:00000000000005b4 .LASF177
C:\msys64\tmp\cczdVx3K.s:7225   .debug_str:0000000000000262 .LASF178
C:\msys64\tmp\cczdVx3K.s:7377   .debug_str:00000000000006e3 .LASF179
C:\msys64\tmp\cczdVx3K.s:7403   .debug_str:0000000000000799 .LASF180
C:\msys64\tmp\cczdVx3K.s:1368   .text:00000000000005cc .LFE35
C:\msys64\tmp\cczdVx3K.s:5556   .debug_loc:0000000000000000 .LLST1
C:\msys64\tmp\cczdVx3K.s:5592   .debug_loc:000000000000008b .LLST2
C:\msys64\tmp\cczdVx3K.s:5632   .debug_loc:0000000000000129 .LLST3
C:\msys64\tmp\cczdVx3K.s:5665   .debug_loc:00000000000001b1 .LLST4
C:\msys64\tmp\cczdVx3K.s:5844   .debug_loc:0000000000000451 .LLST5
C:\msys64\tmp\cczdVx3K.s:6032   .debug_loc:0000000000000719 .LLST6
C:\msys64\tmp\cczdVx3K.s:6046   .debug_loc:0000000000000752 .LLST7
C:\msys64\tmp\cczdVx3K.s:6225   .debug_loc:00000000000009f2 .LLST8
C:\msys64\tmp\cczdVx3K.s:7443   .debug_str:00000000000008e9 .LASF181
C:\msys64\tmp\cczdVx3K.s:6404   .debug_loc:0000000000000c92 .LLST9
C:\msys64\tmp\cczdVx3K.s:7109   .debug_ranges:0000000000000000 .Ldebug_ranges0
C:\msys64\tmp\cczdVx3K.s:7489   .debug_str:00000000000009f4 .LASF182
C:\msys64\tmp\cczdVx3K.s:6503   .debug_loc:0000000000000e01 .LLST19
C:\msys64\tmp\cczdVx3K.s:7473   .debug_str:000000000000097b .LASF183
C:\msys64\tmp\cczdVx3K.s:7515   .debug_str:0000000000000a8c .LASF184
C:\msys64\tmp\cczdVx3K.s:300    .text:0000000000000100 .LBB196
C:\msys64\tmp\cczdVx3K.s:322    .text:0000000000000110 .LBE196
C:\msys64\tmp\cczdVx3K.s:7247   .debug_str:00000000000002df .LASF185
C:\msys64\tmp\cczdVx3K.s:6531   .debug_loc:0000000000000e66 .LLST20
C:\msys64\tmp\cczdVx3K.s:310    .text:000000000000010c .LBB197
C:\msys64\tmp\cczdVx3K.s:321    .text:0000000000000110 .LBE197
C:\msys64\tmp\cczdVx3K.s:6554   .debug_loc:0000000000000eb7 .LLST21
C:\msys64\tmp\cczdVx3K.s:6561   .debug_loc:0000000000000eda .LLST22
C:\msys64\tmp\cczdVx3K.s:309    .text:000000000000010c .LVL12
C:\msys64\tmp\cczdVx3K.s:402    .text:0000000000000150 .LBB201
C:\msys64\tmp\cczdVx3K.s:490    .text:00000000000001cc .LBE201
C:\msys64\tmp\cczdVx3K.s:7533   .debug_str:0000000000000bc3 .LASF186
C:\msys64\tmp\cczdVx3K.s:6569   .debug_loc:0000000000000efe .LLST25
C:\msys64\tmp\cczdVx3K.s:6576   .debug_loc:0000000000000f21 .LLST26
C:\msys64\tmp\cczdVx3K.s:7549   .debug_str:0000000000000c62 .LASF187
C:\msys64\tmp\cczdVx3K.s:426    .text:0000000000000178 .LBB202
C:\msys64\tmp\cczdVx3K.s:451    .text:00000000000001a0 .LBE202
C:\msys64\tmp\cczdVx3K.s:434    .text:0000000000000184 .LBB204
C:\msys64\tmp\cczdVx3K.s:444    .text:0000000000000194 .LBE204
C:\msys64\tmp\cczdVx3K.s:6583   .debug_loc:0000000000000f44 .LLST27
GAS LISTING C:\msys64\tmp\cczdVx3K.s 			page 54


C:\msys64\tmp\cczdVx3K.s:459    .text:00000000000001b4 .LBB207
C:\msys64\tmp\cczdVx3K.s:473    .text:00000000000001c0 .LBE207
C:\msys64\tmp\cczdVx3K.s:6592   .debug_loc:0000000000000f70 .LLST28
C:\msys64\tmp\cczdVx3K.s:475    .text:00000000000001c0 .LBB209
C:\msys64\tmp\cczdVx3K.s:489    .text:00000000000001cc .LBE209
C:\msys64\tmp\cczdVx3K.s:6600   .debug_loc:0000000000000f94 .LLST30
C:\msys64\tmp\cczdVx3K.s:6609   .debug_loc:0000000000000fb9 .LLST31
C:\msys64\tmp\cczdVx3K.s:418    .text:000000000000016c .LVL22
C:\msys64\tmp\cczdVx3K.s:456    .text:00000000000001b4 .LVL25
C:\msys64\tmp\cczdVx3K.s:6617   .debug_loc:0000000000000fdd .LLST38
C:\msys64\tmp\cczdVx3K.s:570    .text:000000000000021c .LBB218
C:\msys64\tmp\cczdVx3K.s:583    .text:000000000000022c .LBE218
C:\msys64\tmp\cczdVx3K.s:6635   .debug_loc:0000000000001029 .LLST39
C:\msys64\tmp\cczdVx3K.s:6644   .debug_loc:000000000000104e .LLST40
C:\msys64\tmp\cczdVx3K.s:577    .text:0000000000000228 .LVL37
C:\msys64\tmp\cczdVx3K.s:596    .text:0000000000000240 .LBB220
C:\msys64\tmp\cczdVx3K.s:610    .text:000000000000024c .LBE220
C:\msys64\tmp\cczdVx3K.s:6659   .debug_loc:0000000000001097 .LLST41
C:\msys64\tmp\cczdVx3K.s:612    .text:000000000000024c .LBB222
C:\msys64\tmp\cczdVx3K.s:626    .text:0000000000000258 .LBE222
C:\msys64\tmp\cczdVx3K.s:6667   .debug_loc:00000000000010bb .LLST43
C:\msys64\tmp\cczdVx3K.s:6676   .debug_loc:00000000000010e0 .LLST44
C:\msys64\tmp\cczdVx3K.s:588    .text:0000000000000238 .LVL39
C:\msys64\tmp\cczdVx3K.s:1358   .text:00000000000005c0 .LVL116
C:\msys64\tmp\cczdVx3K.s:630    .text:0000000000000258 .LBB224
C:\msys64\tmp\cczdVx3K.s:676    .text:0000000000000288 .LBE224
C:\msys64\tmp\cczdVx3K.s:6684   .debug_loc:0000000000001104 .LLST45
C:\msys64\tmp\cczdVx3K.s:636    .text:000000000000025c .LBB225
C:\msys64\tmp\cczdVx3K.s:650    .text:0000000000000268 .LBE225
C:\msys64\tmp\cczdVx3K.s:6691   .debug_loc:0000000000001127 .LLST46
C:\msys64\tmp\cczdVx3K.s:6700   .debug_loc:000000000000114c .LLST47
C:\msys64\tmp\cczdVx3K.s:657    .text:0000000000000274 .LBB227
C:\msys64\tmp\cczdVx3K.s:667    .text:0000000000000278 .LBE227
C:\msys64\tmp\cczdVx3K.s:6708   .debug_loc:0000000000001170 .LLST48
C:\msys64\tmp\cczdVx3K.s:6715   .debug_loc:0000000000001193 .LLST49
C:\msys64\tmp\cczdVx3K.s:656    .text:0000000000000274 .LVL45
C:\msys64\tmp\cczdVx3K.s:672    .text:0000000000000284 .LVL47
C:\msys64\tmp\cczdVx3K.s:679    .text:0000000000000288 .LBB229
C:\msys64\tmp\cczdVx3K.s:719    .text:00000000000002ac .LBE229
C:\msys64\tmp\cczdVx3K.s:6723   .debug_loc:00000000000011b7 .LLST50
C:\msys64\tmp\cczdVx3K.s:685    .text:000000000000028c .LBB230
C:\msys64\tmp\cczdVx3K.s:699    .text:0000000000000298 .LBE230
C:\msys64\tmp\cczdVx3K.s:6730   .debug_loc:00000000000011da .LLST51
C:\msys64\tmp\cczdVx3K.s:6739   .debug_loc:00000000000011ff .LLST52
C:\msys64\tmp\cczdVx3K.s:705    .text:00000000000002a4 .LBB232
C:\msys64\tmp\cczdVx3K.s:718    .text:00000000000002ac .LBE232
C:\msys64\tmp\cczdVx3K.s:6747   .debug_loc:0000000000001223 .LLST53
C:\msys64\tmp\cczdVx3K.s:6754   .debug_loc:0000000000001246 .LLST54
C:\msys64\tmp\cczdVx3K.s:704    .text:00000000000002a4 .LVL51
C:\msys64\tmp\cczdVx3K.s:722    .text:00000000000002ac .LBB234
C:\msys64\tmp\cczdVx3K.s:762    .text:00000000000002d0 .LBE234
C:\msys64\tmp\cczdVx3K.s:6762   .debug_loc:000000000000126a .LLST55
C:\msys64\tmp\cczdVx3K.s:728    .text:00000000000002b0 .LBB235
C:\msys64\tmp\cczdVx3K.s:742    .text:00000000000002bc .LBE235
C:\msys64\tmp\cczdVx3K.s:6769   .debug_loc:000000000000128d .LLST56
C:\msys64\tmp\cczdVx3K.s:6778   .debug_loc:00000000000012b2 .LLST57
C:\msys64\tmp\cczdVx3K.s:748    .text:00000000000002c8 .LBB237
GAS LISTING C:\msys64\tmp\cczdVx3K.s 			page 55


C:\msys64\tmp\cczdVx3K.s:761    .text:00000000000002d0 .LBE237
C:\msys64\tmp\cczdVx3K.s:6786   .debug_loc:00000000000012d6 .LLST58
C:\msys64\tmp\cczdVx3K.s:6793   .debug_loc:00000000000012f9 .LLST59
C:\msys64\tmp\cczdVx3K.s:747    .text:00000000000002c8 .LVL55
C:\msys64\tmp\cczdVx3K.s:765    .text:00000000000002d0 .LBB239
C:\msys64\tmp\cczdVx3K.s:809    .text:00000000000002f8 .LBE239
C:\msys64\tmp\cczdVx3K.s:6801   .debug_loc:000000000000131d .LLST60
C:\msys64\tmp\cczdVx3K.s:6808   .debug_loc:0000000000001340 .LLST61
C:\msys64\tmp\cczdVx3K.s:775    .text:00000000000002d8 .LBB240
C:\msys64\tmp\cczdVx3K.s:789    .text:00000000000002e4 .LBE240
C:\msys64\tmp\cczdVx3K.s:6819   .debug_loc:0000000000001376 .LLST62
C:\msys64\tmp\cczdVx3K.s:6828   .debug_loc:000000000000139b .LLST63
C:\msys64\tmp\cczdVx3K.s:795    .text:00000000000002f0 .LBB242
C:\msys64\tmp\cczdVx3K.s:808    .text:00000000000002f8 .LBE242
C:\msys64\tmp\cczdVx3K.s:6836   .debug_loc:00000000000013bf .LLST64
C:\msys64\tmp\cczdVx3K.s:6843   .debug_loc:00000000000013e2 .LLST65
C:\msys64\tmp\cczdVx3K.s:794    .text:00000000000002f0 .LVL60
C:\msys64\tmp\cczdVx3K.s:812    .text:00000000000002f8 .LBB244
C:\msys64\tmp\cczdVx3K.s:856    .text:0000000000000320 .LBE244
C:\msys64\tmp\cczdVx3K.s:6851   .debug_loc:0000000000001406 .LLST66
C:\msys64\tmp\cczdVx3K.s:6858   .debug_loc:0000000000001429 .LLST67
C:\msys64\tmp\cczdVx3K.s:822    .text:0000000000000300 .LBB245
C:\msys64\tmp\cczdVx3K.s:836    .text:000000000000030c .LBE245
C:\msys64\tmp\cczdVx3K.s:6869   .debug_loc:000000000000145f .LLST68
C:\msys64\tmp\cczdVx3K.s:6878   .debug_loc:0000000000001484 .LLST69
C:\msys64\tmp\cczdVx3K.s:842    .text:0000000000000318 .LBB247
C:\msys64\tmp\cczdVx3K.s:855    .text:0000000000000320 .LBE247
C:\msys64\tmp\cczdVx3K.s:6886   .debug_loc:00000000000014a8 .LLST70
C:\msys64\tmp\cczdVx3K.s:6893   .debug_loc:00000000000014cb .LLST71
C:\msys64\tmp\cczdVx3K.s:841    .text:0000000000000318 .LVL65
C:\msys64\tmp\cczdVx3K.s:904    .text:0000000000000350 .LBB253
C:\msys64\tmp\cczdVx3K.s:924    .text:0000000000000360 .LBE253
C:\msys64\tmp\cczdVx3K.s:6901   .debug_loc:00000000000014ef .LLST76
C:\msys64\tmp\cczdVx3K.s:910    .text:0000000000000358 .LBB254
C:\msys64\tmp\cczdVx3K.s:923    .text:0000000000000360 .LBE254
C:\msys64\tmp\cczdVx3K.s:6908   .debug_loc:0000000000001512 .LLST78
C:\msys64\tmp\cczdVx3K.s:908    .text:0000000000000358 .LVL71
C:\msys64\tmp\cczdVx3K.s:927    .text:0000000000000360 .LBB256
C:\msys64\tmp\cczdVx3K.s:938    .text:0000000000000370 .LBE256
C:\msys64\tmp\cczdVx3K.s:6916   .debug_loc:0000000000001536 .LLST79
C:\msys64\tmp\cczdVx3K.s:933    .text:000000000000036c .LVL73
C:\msys64\tmp\cczdVx3K.s:176    .text:00000000000000b8 .LBB191
C:\msys64\tmp\cczdVx3K.s:190    .text:00000000000000c4 .LBE191
C:\msys64\tmp\cczdVx3K.s:196    .text:00000000000000cc .LBB193
C:\msys64\tmp\cczdVx3K.s:210    .text:00000000000000d8 .LBE193
C:\msys64\tmp\cczdVx3K.s:386    .text:0000000000000148 .LBB199
C:\msys64\tmp\cczdVx3K.s:399    .text:0000000000000150 .LBE199
C:\msys64\tmp\cczdVx3K.s:6923   .debug_loc:0000000000001559 .LLST23
C:\msys64\tmp\cczdVx3K.s:6930   .debug_loc:000000000000157c .LLST24
C:\msys64\tmp\cczdVx3K.s:503    .text:00000000000001e0 .LBB211
C:\msys64\tmp\cczdVx3K.s:513    .text:00000000000001e8 .LBE211
C:\msys64\tmp\cczdVx3K.s:6938   .debug_loc:00000000000015a0 .LLST32
C:\msys64\tmp\cczdVx3K.s:6946   .debug_loc:00000000000015c4 .LLST33
C:\msys64\tmp\cczdVx3K.s:515    .text:00000000000001e8 .LBB213
C:\msys64\tmp\cczdVx3K.s:527    .text:00000000000001f0 .LBE213
C:\msys64\tmp\cczdVx3K.s:6953   .debug_loc:00000000000015e7 .LLST34
C:\msys64\tmp\cczdVx3K.s:537    .text:00000000000001fc .LBB215
GAS LISTING C:\msys64\tmp\cczdVx3K.s 			page 56


C:\msys64\tmp\cczdVx3K.s:551    .text:0000000000000208 .LBE215
C:\msys64\tmp\cczdVx3K.s:6961   .debug_loc:000000000000160b .LLST36
C:\msys64\tmp\cczdVx3K.s:6970   .debug_loc:0000000000001630 .LLST37
C:\msys64\tmp\cczdVx3K.s:871    .text:0000000000000338 .LBB249
C:\msys64\tmp\cczdVx3K.s:885    .text:0000000000000344 .LBE249
C:\msys64\tmp\cczdVx3K.s:6978   .debug_loc:0000000000001654 .LLST72
C:\msys64\tmp\cczdVx3K.s:887    .text:0000000000000344 .LBB251
C:\msys64\tmp\cczdVx3K.s:901    .text:0000000000000350 .LBE251
C:\msys64\tmp\cczdVx3K.s:6986   .debug_loc:0000000000001678 .LLST74
C:\msys64\tmp\cczdVx3K.s:6995   .debug_loc:000000000000169d .LLST75
C:\msys64\tmp\cczdVx3K.s:328    .text:0000000000000114 .LBB258
C:\msys64\tmp\cczdVx3K.s:338    .text:0000000000000118 .LBE258
C:\msys64\tmp\cczdVx3K.s:7003   .debug_loc:00000000000016c1 .LLST80
C:\msys64\tmp\cczdVx3K.s:343    .text:000000000000011c .LBB260
C:\msys64\tmp\cczdVx3K.s:354    .text:0000000000000120 .LBE260
C:\msys64\tmp\cczdVx3K.s:7010   .debug_loc:00000000000016e4 .LLST81
C:\msys64\tmp\cczdVx3K.s:385    .text:0000000000000148 .LVL19
C:\msys64\tmp\cczdVx3K.s:531    .text:00000000000001f8 .LVL32
C:\msys64\tmp\cczdVx3K.s:560    .text:0000000000000218 .LVL35
C:\msys64\tmp\cczdVx3K.s:869    .text:0000000000000338 .LVL68
C:\msys64\tmp\cczdVx3K.s:7017   .debug_loc:0000000000001707 .LLST16
C:\msys64\tmp\cczdVx3K.s:991    .text:00000000000003c4 .LBB174
C:\msys64\tmp\cczdVx3K.s:1028   .text:0000000000000408 .LBE174
C:\msys64\tmp\cczdVx3K.s:7024   .debug_loc:000000000000172a .LLST17
C:\msys64\tmp\cczdVx3K.s:1000   .text:00000000000003d4 .LBB175
C:\msys64\tmp\cczdVx3K.s:1008   .text:00000000000003dc .LBE175
C:\msys64\tmp\cczdVx3K.s:1005   .text:00000000000003dc .LVL82
C:\msys64\tmp\cczdVx3K.s:1015   .text:00000000000003f0 .LBB177
C:\msys64\tmp\cczdVx3K.s:1023   .text:00000000000003f8 .LBE177
C:\msys64\tmp\cczdVx3K.s:1020   .text:00000000000003f8 .LVL84
C:\msys64\tmp\cczdVx3K.s:1013   .text:00000000000003f0 .LVL83
C:\msys64\tmp\cczdVx3K.s:1027   .text:0000000000000408 .LVL85
C:\msys64\tmp\cczdVx3K.s:1055   .text:0000000000000434 .LBB181
C:\msys64\tmp\cczdVx3K.s:1088   .text:0000000000000470 .LBE181
C:\msys64\tmp\cczdVx3K.s:7031   .debug_loc:000000000000174d .LLST18
C:\msys64\tmp\cczdVx3K.s:1057   .text:0000000000000434 .LBB182
C:\msys64\tmp\cczdVx3K.s:1065   .text:000000000000043c .LBE182
C:\msys64\tmp\cczdVx3K.s:1062   .text:000000000000043c .LVL89
C:\msys64\tmp\cczdVx3K.s:1075   .text:0000000000000458 .LBB184
C:\msys64\tmp\cczdVx3K.s:1083   .text:0000000000000460 .LBE184
C:\msys64\tmp\cczdVx3K.s:1080   .text:0000000000000460 .LVL91
C:\msys64\tmp\cczdVx3K.s:1069   .text:000000000000044c .LVL90
C:\msys64\tmp\cczdVx3K.s:1087   .text:0000000000000470 .LVL92
C:\msys64\tmp\cczdVx3K.s:975    .text:00000000000003a8 .LBB172
C:\msys64\tmp\cczdVx3K.s:984    .text:00000000000003b0 .LBE172
C:\msys64\tmp\cczdVx3K.s:981    .text:00000000000003b0 .LVL79
C:\msys64\tmp\cczdVx3K.s:1040   .text:0000000000000418 .LBB179
C:\msys64\tmp\cczdVx3K.s:1048   .text:0000000000000420 .LBE179
C:\msys64\tmp\cczdVx3K.s:1045   .text:0000000000000420 .LVL87
C:\msys64\tmp\cczdVx3K.s:946    .text:0000000000000378 .LVL75
C:\msys64\tmp\cczdVx3K.s:960    .text:0000000000000390 .LVL78
C:\msys64\tmp\cczdVx3K.s:988    .text:00000000000003c0 .LVL80
C:\msys64\tmp\cczdVx3K.s:1052   .text:0000000000000430 .LVL88
C:\msys64\tmp\cczdVx3K.s:7038   .debug_loc:0000000000001770 .LLST10
C:\msys64\tmp\cczdVx3K.s:1101   .text:0000000000000474 .LBB139
C:\msys64\tmp\cczdVx3K.s:1145   .text:00000000000004bc .LBB141
C:\msys64\tmp\cczdVx3K.s:1155   .text:00000000000004cc .LBE141
GAS LISTING C:\msys64\tmp\cczdVx3K.s 			page 57


C:\msys64\tmp\cczdVx3K.s:7049   .debug_loc:00000000000017a6 .LLST11
C:\msys64\tmp\cczdVx3K.s:1109   .text:0000000000000484 .LVL94
C:\msys64\tmp\cczdVx3K.s:1204   .text:0000000000000500 .LBB152
C:\msys64\tmp\cczdVx3K.s:1281   .text:0000000000000544 .LBE152
C:\msys64\tmp\cczdVx3K.s:1206   .text:0000000000000500 .LBB153
C:\msys64\tmp\cczdVx3K.s:1220   .text:000000000000050c .LBE153
C:\msys64\tmp\cczdVx3K.s:1224   .text:0000000000000510 .LBB155
C:\msys64\tmp\cczdVx3K.s:1238   .text:000000000000051c .LBE155
C:\msys64\tmp\cczdVx3K.s:1252   .text:0000000000000534 .LBB157
C:\msys64\tmp\cczdVx3K.s:1262   .text:0000000000000538 .LBE157
C:\msys64\tmp\cczdVx3K.s:7058   .debug_loc:00000000000017d2 .LLST13
C:\msys64\tmp\cczdVx3K.s:1267   .text:000000000000053c .LBB159
C:\msys64\tmp\cczdVx3K.s:1280   .text:0000000000000544 .LBE159
C:\msys64\tmp\cczdVx3K.s:7065   .debug_loc:00000000000017f5 .LLST14
C:\msys64\tmp\cczdVx3K.s:1247   .text:0000000000000530 .LVL103
C:\msys64\tmp\cczdVx3K.s:98     .text:000000000000004c .LBB130
C:\msys64\tmp\cczdVx3K.s:114    .text:0000000000000058 .LBE130
C:\msys64\tmp\cczdVx3K.s:1172   .text:00000000000004e4 .LBB150
C:\msys64\tmp\cczdVx3K.s:1179   .text:00000000000004e8 .LBE150
C:\msys64\tmp\cczdVx3K.s:7072   .debug_loc:0000000000001818 .LLST12
C:\msys64\tmp\cczdVx3K.s:1188   .text:00000000000004f4 .LBB161
C:\msys64\tmp\cczdVx3K.s:1202   .text:0000000000000500 .LBE161
C:\msys64\tmp\cczdVx3K.s:7079   .debug_loc:000000000000183b .LLST15
C:\msys64\tmp\cczdVx3K.s:1291   .text:0000000000000554 .LBB165
C:\msys64\tmp\cczdVx3K.s:1305   .text:0000000000000560 .LBE165
C:\msys64\tmp\cczdVx3K.s:1317   .text:0000000000000580 .LBB167
C:\msys64\tmp\cczdVx3K.s:1331   .text:000000000000058c .LBE167
C:\msys64\tmp\cczdVx3K.s:1289   .text:0000000000000554 .LVL109
C:\msys64\tmp\cczdVx3K.s:1310   .text:0000000000000570 .LVL110
C:\msys64\tmp\cczdVx3K.s:1315   .text:0000000000000580 .LVL111
C:\msys64\tmp\cczdVx3K.s:1336   .text:000000000000059c .LVL112
C:\msys64\tmp\cczdVx3K.s:1341   .text:00000000000005ac .LVL113
C:\msys64\tmp\cczdVx3K.s:1361   .text:00000000000005cc .LVL117
C:\msys64\tmp\cczdVx3K.s:13     .text:0000000000000000 .LFB34
C:\msys64\tmp\cczdVx3K.s:58     .text:0000000000000028 .LFE34
C:\msys64\tmp\cczdVx3K.s:31     .text:0000000000000010 .LBB128
C:\msys64\tmp\cczdVx3K.s:43     .text:0000000000000018 .LBE128
C:\msys64\tmp\cczdVx3K.s:7087   .debug_loc:000000000000185f .LLST0
C:\msys64\tmp\cczdVx3K.s:7239   .debug_str:00000000000002c1 .LASF188
C:\msys64\tmp\cczdVx3K.s:7263   .debug_str:0000000000000352 .LASF209
C:\msys64\tmp\cczdVx3K.s:7173   .debug_str:000000000000009d .LASF210
C:\msys64\tmp\cczdVx3K.s:7341   .debug_str:00000000000005ea .LASF189
C:\msys64\tmp\cczdVx3K.s:7265   .debug_str:0000000000000364 .LASF190
C:\msys64\tmp\cczdVx3K.s:7253   .debug_str:000000000000030e .LASF191
C:\msys64\tmp\cczdVx3K.s:7503   .debug_str:0000000000000a5f .LASF198
C:\msys64\tmp\cczdVx3K.s:7543   .debug_str:0000000000000c31 .LASF200
C:\msys64\tmp\cczdVx3K.s:7315   .debug_str:0000000000000503 .LASF192
C:\msys64\tmp\cczdVx3K.s:7373   .debug_str:00000000000006ce .LASF193
C:\msys64\tmp\cczdVx3K.s:7233   .debug_str:0000000000000296 .LASF194
C:\msys64\tmp\cczdVx3K.s:7249   .debug_str:00000000000002e5 .LASF195
C:\msys64\tmp\cczdVx3K.s:7345   .debug_str:00000000000005ff .LASF196
C:\msys64\tmp\cczdVx3K.s:7565   .debug_str:0000000000000ce1 .LASF197
C:\msys64\tmp\cczdVx3K.s:7497   .debug_str:0000000000000a26 .LASF199
C:\msys64\tmp\cczdVx3K.s:7209   .debug_str:00000000000001c5 .LASF201
C:\msys64\tmp\cczdVx3K.s:80     .text:0000000000000028 .LVL2
C:\msys64\tmp\cczdVx3K.s:217    .text:00000000000000e8 .LVL8
C:\msys64\tmp\cczdVx3K.s:936    .text:0000000000000370 .LVL74
GAS LISTING C:\msys64\tmp\cczdVx3K.s 			page 58


C:\msys64\tmp\cczdVx3K.s:1277   .text:0000000000000544 .LVL107
C:\msys64\tmp\cczdVx3K.s:1287   .text:000000000000054c .LVL108
C:\msys64\tmp\cczdVx3K.s:119    .text:000000000000005c .LVL5
C:\msys64\tmp\cczdVx3K.s:350    .text:0000000000000120 .LVL17
C:\msys64\tmp\cczdVx3K.s:373    .text:000000000000013c .LVL18
C:\msys64\tmp\cczdVx3K.s:953    .text:0000000000000384 .LVL77
C:\msys64\tmp\cczdVx3K.s:1091   .text:0000000000000474 .LVL93
C:\msys64\tmp\cczdVx3K.s:1355   .text:00000000000005b4 .LVL115
C:\msys64\tmp\cczdVx3K.s:112    .text:0000000000000058 .LVL4
C:\msys64\tmp\cczdVx3K.s:948    .text:000000000000037c .LVL76
C:\msys64\tmp\cczdVx3K.s:396    .text:0000000000000150 .LVL20
C:\msys64\tmp\cczdVx3K.s:486    .text:00000000000001cc .LVL27
C:\msys64\tmp\cczdVx3K.s:534    .text:00000000000001fc .LVL33
C:\msys64\tmp\cczdVx3K.s:563    .text:000000000000021c .LVL36
C:\msys64\tmp\cczdVx3K.s:623    .text:0000000000000258 .LVL42
C:\msys64\tmp\cczdVx3K.s:674    .text:0000000000000288 .LVL48
C:\msys64\tmp\cczdVx3K.s:715    .text:00000000000002ac .LVL52
C:\msys64\tmp\cczdVx3K.s:758    .text:00000000000002d0 .LVL56
C:\msys64\tmp\cczdVx3K.s:805    .text:00000000000002f8 .LVL61
C:\msys64\tmp\cczdVx3K.s:852    .text:0000000000000320 .LVL66
C:\msys64\tmp\cczdVx3K.s:882    .text:0000000000000344 .LVL69
C:\msys64\tmp\cczdVx3K.s:920    .text:0000000000000360 .LVL72
C:\msys64\tmp\cczdVx3K.s:145    .text:000000000000008c .LVL6
C:\msys64\tmp\cczdVx3K.s:166    .text:00000000000000b8 .LVL7
C:\msys64\tmp\cczdVx3K.s:509    .text:00000000000001e4 .LVL29
C:\msys64\tmp\cczdVx3K.s:106    .text:0000000000000050 .LVL3
C:\msys64\tmp\cczdVx3K.s:219    .text:00000000000000f0 .LVL9
C:\msys64\tmp\cczdVx3K.s:414    .text:000000000000015c .LVL21
C:\msys64\tmp\cczdVx3K.s:770    .text:00000000000002d4 .LVL57
C:\msys64\tmp\cczdVx3K.s:817    .text:00000000000002fc .LVL62
C:\msys64\tmp\cczdVx3K.s:867    .text:0000000000000330 .LVL67
C:\msys64\tmp\cczdVx3K.s:1346   .text:00000000000005b0 .LVL114
C:\msys64\tmp\cczdVx3K.s:302    .text:0000000000000100 .LVL10
C:\msys64\tmp\cczdVx3K.s:306    .text:0000000000000104 .LVL11
C:\msys64\tmp\cczdVx3K.s:317    .text:0000000000000110 .LVL13
C:\msys64\tmp\cczdVx3K.s:433    .text:0000000000000184 .LVL23
C:\msys64\tmp\cczdVx3K.s:441    .text:0000000000000194 .LVL24
C:\msys64\tmp\cczdVx3K.s:470    .text:00000000000001c0 .LVL26
C:\msys64\tmp\cczdVx3K.s:580    .text:000000000000022c .LVL38
C:\msys64\tmp\cczdVx3K.s:595    .text:0000000000000240 .LVL40
C:\msys64\tmp\cczdVx3K.s:607    .text:000000000000024c .LVL41
C:\msys64\tmp\cczdVx3K.s:635    .text:000000000000025c .LVL43
C:\msys64\tmp\cczdVx3K.s:647    .text:0000000000000268 .LVL44
C:\msys64\tmp\cczdVx3K.s:664    .text:0000000000000278 .LVL46
C:\msys64\tmp\cczdVx3K.s:684    .text:000000000000028c .LVL49
C:\msys64\tmp\cczdVx3K.s:696    .text:0000000000000298 .LVL50
C:\msys64\tmp\cczdVx3K.s:727    .text:00000000000002b0 .LVL53
C:\msys64\tmp\cczdVx3K.s:739    .text:00000000000002bc .LVL54
C:\msys64\tmp\cczdVx3K.s:774    .text:00000000000002d8 .LVL58
C:\msys64\tmp\cczdVx3K.s:786    .text:00000000000002e4 .LVL59
C:\msys64\tmp\cczdVx3K.s:821    .text:0000000000000300 .LVL63
C:\msys64\tmp\cczdVx3K.s:833    .text:000000000000030c .LVL64
C:\msys64\tmp\cczdVx3K.s:502    .text:00000000000001e0 .LVL28
C:\msys64\tmp\cczdVx3K.s:511    .text:00000000000001e8 .LVL30
C:\msys64\tmp\cczdVx3K.s:523    .text:00000000000001f0 .LVL31
C:\msys64\tmp\cczdVx3K.s:548    .text:0000000000000208 .LVL34
C:\msys64\tmp\cczdVx3K.s:898    .text:0000000000000350 .LVL70
GAS LISTING C:\msys64\tmp\cczdVx3K.s 			page 59


C:\msys64\tmp\cczdVx3K.s:327    .text:0000000000000114 .LVL14
C:\msys64\tmp\cczdVx3K.s:335    .text:0000000000000118 .LVL15
C:\msys64\tmp\cczdVx3K.s:342    .text:000000000000011c .LVL16
C:\msys64\tmp\cczdVx3K.s:998    .text:00000000000003d4 .LVL81
C:\msys64\tmp\cczdVx3K.s:1031   .text:000000000000040c .LVL86
C:\msys64\tmp\cczdVx3K.s:1124   .text:0000000000000498 .LVL95
C:\msys64\tmp\cczdVx3K.s:1160   .text:00000000000004dc .LVL98
C:\msys64\tmp\cczdVx3K.s:1144   .text:00000000000004bc .LVL96
C:\msys64\tmp\cczdVx3K.s:1152   .text:00000000000004cc .LVL97
C:\msys64\tmp\cczdVx3K.s:1251   .text:0000000000000534 .LVL104
C:\msys64\tmp\cczdVx3K.s:1259   .text:0000000000000538 .LVL105
C:\msys64\tmp\cczdVx3K.s:1266   .text:000000000000053c .LVL106
C:\msys64\tmp\cczdVx3K.s:1171   .text:00000000000004e4 .LVL99
C:\msys64\tmp\cczdVx3K.s:1177   .text:00000000000004e8 .LVL100
C:\msys64\tmp\cczdVx3K.s:1187   .text:00000000000004f4 .LVL101
C:\msys64\tmp\cczdVx3K.s:1199   .text:0000000000000500 .LVL102
C:\msys64\tmp\cczdVx3K.s:29     .text:0000000000000010 .LVL0
C:\msys64\tmp\cczdVx3K.s:40     .text:0000000000000018 .LVL1
C:\msys64\tmp\cczdVx3K.s:1411   .debug_info:0000000000000000 .Ldebug_info0
C:\msys64\tmp\cczdVx3K.s:1100   .text:0000000000000474 .LBB138
C:\msys64\tmp\cczdVx3K.s:1111   .text:0000000000000484 .LBE138
C:\msys64\tmp\cczdVx3K.s:1122   .text:0000000000000498 .LBB146
C:\msys64\tmp\cczdVx3K.s:1164   .text:00000000000004dc .LBE146
C:\msys64\tmp\cczdVx3K.s:1105   .text:0000000000000474 .LBE139
C:\msys64\tmp\cczdVx3K.s:1138   .text:00000000000004b0 .LBB145
C:\msys64\tmp\cczdVx3K.s:1163   .text:00000000000004dc .LBE145
C:\msys64\tmp\cczdVx3K.s:942    .text:0000000000000370 .LBB169
C:\msys64\tmp\cczdVx3K.s:961    .text:0000000000000390 .LBE169
C:\msys64\tmp\cczdVx3K.s:964    .text:0000000000000394 .LBB187
C:\msys64\tmp\cczdVx3K.s:1095   .text:0000000000000474 .LBE187
C:\msys64\tmp\cczdVx3K.s:173    .text:00000000000000b8 .LBB190
C:\msys64\tmp\cczdVx3K.s:355    .text:0000000000000120 .LBE190
C:\msys64\tmp\cczdVx3K.s:377    .text:000000000000013c .LBB264
C:\msys64\tmp\cczdVx3K.s:940    .text:0000000000000370 .LBE264
C:\msys64\tmp\cczdVx3K.s:1350   .text:00000000000005b0 .LBB266
C:\msys64\tmp\cczdVx3K.s:1365   .text:00000000000005cc .LBE266
C:\msys64\tmp\cczdVx3K.s:567    .text:000000000000021c .LBB217
C:\msys64\tmp\cczdVx3K.s:627    .text:0000000000000258 .LBE217
C:\msys64\tmp\cczdVx3K.s:1352   .text:00000000000005b0 .LBB257
C:\msys64\tmp\cczdVx3K.s:1363   .text:00000000000005cc .LBE257
C:\msys64\tmp\cczdVx3K.s:1371   .gcc_except_table:0000000000000000 .LLSDA35

UNDEFINED SYMBOLS
_ZN7_thread16timeSliceCounterE
_ZN7_thread12sleepingHeadE
_ZN15MemoryAllocator7kmallocEm
_ZN15MemoryAllocator5kfreeEPv
_ZN7_thread12createThreadEPFvPvES0_S0_
_ZN9Scheduler3putEP7_thread
_ZN7_thread7runningE
_ZN7_thread8dispatchEv
_ZN4_semC1Ei
_ZN4_sem5closeEv
_ZdlPv
_ZN4_sem4waitEv
_ZN4_sem6signalEv
_ZN4_sem6wait_nEj
GAS LISTING C:\msys64\tmp\cczdVx3K.s 			page 60


_ZN4_sem8signal_nEj
_ZN7_thread10time_sleepEm
_ZN8_console4getcEv
_ZN8_console4putcEc
plic_claim
plic_complete
CONSOLE_STATUS
_ZN8_console10ensureInitEv
_ZN8_console6inbuffE
_ZN7kBuffer6isFullEv
CONSOLE_RX_DATA
_ZN7kBuffer3putEc
_ZN8_console5inSemE
_ZN8_console7outbuffE
_ZN7kBuffer7isEmptyEv
_ZN7kBuffer3getEv
CONSOLE_TX_DATA
_ZN8_console6outSemE
_Z12_printStringPKc
_Z13_printIntegermmb
_Unwind_Resume
__gxx_personality_v0
