GAS LISTING C:\msys64\tmp\ccJBuPX0.s 			page 1


   1              		.file	"riscv.cpp"
   2              		.option nopic
   3              		.option norelax
   4              		.attribute arch, "rv64i2p0_m2p0_a2p0"
   5              		.attribute unaligned_access, 0
   6              		.attribute stack_align, 16
   7              		.text
   8              	.Ltext0:
   9              		.align	2
  10              		.globl	_ZN5Riscv10popSppSpieEv
  12              	_ZN5Riscv10popSppSpieEv:
  13              	.LFB34:
  14              		.file 1 "src/riscv.cpp"
   1:src/riscv.cpp **** #include "../h/riscv.h"
   2:src/riscv.cpp **** #include "../lib/console.h"
   3:src/riscv.cpp **** #include "../h/MemoryAllocator.h"
   4:src/riscv.cpp **** #include "../h/Thread.h"
   5:src/riscv.cpp **** #include  "../h/Semaphore.h"
   6:src/riscv.cpp **** #include "../h/Console.h"
   7:src/riscv.cpp **** void Riscv::popSppSpie()
   8:src/riscv.cpp **** {
  15              		.loc 1 8 1
  16              		.cfi_startproc
  17 0000 130101FF 		addi	sp,sp,-16
  18              		.cfi_def_cfa_offset 16
  19 0004 23348100 		sd	s0,8(sp)
  20              		.cfi_offset 8, -8
  21 0008 13040101 		addi	s0,sp,16
  22              		.cfi_def_cfa 8, 0
   9:src/riscv.cpp **** 	__asm__ volatile("csrw sepc, ra");
  23              		.loc 1 9 2
  24              	 #APP
  25              	# 9 "src/riscv.cpp" 1
  10              		__asm__ volatile("sret");
  26              		csrw sepc, ra
  27              	# 0 "" 2
  28              		.loc 1 10 2
  29              	# 10 "src/riscv.cpp" 1
  11              	}
  30              		sret
  31              	# 0 "" 2
  32              		.loc 1 11 1 is_stmt 0
  33              	 #NO_APP
  34 0014 03348100 		ld	s0,8(sp)
  35              		.cfi_restore 8
  36              		.cfi_def_cfa 2, 16
  37 0018 13010101 		addi	sp,sp,16
  38              		.cfi_def_cfa_offset 0
  39 001c 67800000 		jr	ra
  40              		.cfi_endproc
  41              	.LFE34:
  43              		.align	2
  44              		.globl	_ZN5Riscv20handleSupervisorTrapEmmmmmmmm
  46              	_ZN5Riscv20handleSupervisorTrapEmmmmmmmm:
  47              	.LFB35:
  12:src/riscv.cpp **** void Riscv::handleSupervisorTrap(uint64 a0, uint64 a1, uint64 a2, uint64 a3, uint64 a4, uint64 a5, 
  48              		.loc 1 12 121 is_stmt 1
GAS LISTING C:\msys64\tmp\ccJBuPX0.s 			page 2


  49              		.cfi_startproc
  50              		.cfi_personality 0x9b,DW.ref.__gxx_personality_v0
  51              		.cfi_lsda 0x1b,.LLSDA35
  52              	.LVL0:
  53 0020 130101F7 		addi	sp,sp,-144
  54              		.cfi_def_cfa_offset 144
  55 0024 23341108 		sd	ra,136(sp)
  56 0028 23308108 		sd	s0,128(sp)
  57 002c 233C9106 		sd	s1,120(sp)
  58 0030 23382107 		sd	s2,112(sp)
  59 0034 23343107 		sd	s3,104(sp)
  60              		.cfi_offset 1, -8
  61              		.cfi_offset 8, -16
  62              		.cfi_offset 9, -24
  63              		.cfi_offset 18, -32
  64              		.cfi_offset 19, -40
  65 0038 13040109 		addi	s0,sp,144
  66              		.cfi_def_cfa 8, 0
  67 003c 93840500 		mv	s1,a1
  68 0040 13090600 		mv	s2,a2
  13:src/riscv.cpp **** 
  14:src/riscv.cpp **** 	uint64 scause = r_scause();
  69              		.loc 1 14 2
  70              	.LBB112:
  71              	.LBB113:
  72              		.file 2 "src/../h/riscv.h"
   1:src/../h/riscv.h ****     //
   2:src/../h/riscv.h ****     // Created by os on 3/31/26.
   3:src/../h/riscv.h ****     //
   4:src/../h/riscv.h **** 
   5:src/../h/riscv.h ****     #ifndef PROJECT_BASE_RISCB_H
   6:src/../h/riscv.h ****     #define PROJECT_BASE_RISCB_H
   7:src/../h/riscv.h ****     #include "../lib/hw.h"
   8:src/../h/riscv.h **** 
   9:src/../h/riscv.h ****     class Riscv {
  10:src/../h/riscv.h ****     public:
  11:src/../h/riscv.h **** 	
  12:src/../h/riscv.h **** 	static void popSppSpie();
  13:src/../h/riscv.h **** 	
  14:src/../h/riscv.h **** 	
  15:src/../h/riscv.h ****         static uint64 r_scause();
  16:src/../h/riscv.h **** 
  17:src/../h/riscv.h ****         static void w_scause(uint64 scause);
  18:src/../h/riscv.h **** 
  19:src/../h/riscv.h ****         static uint64 r_sepc();
  20:src/../h/riscv.h **** 
  21:src/../h/riscv.h ****         static void w_sepc(uint64 sepc);
  22:src/../h/riscv.h **** 
  23:src/../h/riscv.h ****         static uint64 r_stvec();
  24:src/../h/riscv.h **** 
  25:src/../h/riscv.h ****         static void w_stvec(uint64 stvec);
  26:src/../h/riscv.h **** 
  27:src/../h/riscv.h ****         static uint64 r_stval();
  28:src/../h/riscv.h **** 
  29:src/../h/riscv.h ****         static void w_stval(uint64 stval);
  30:src/../h/riscv.h **** 
  31:src/../h/riscv.h ****         enum BitMaskSip {
GAS LISTING C:\msys64\tmp\ccJBuPX0.s 			page 3


  32:src/../h/riscv.h ****             SIP_SSIP = (1 << 1),
  33:src/../h/riscv.h ****             SIP_STIP = (1 << 5),
  34:src/../h/riscv.h ****             SIP_SEIP = (1 << 9),
  35:src/../h/riscv.h ****         };
  36:src/../h/riscv.h **** 
  37:src/../h/riscv.h ****         static void ms_sip(uint64 mask);
  38:src/../h/riscv.h **** 
  39:src/../h/riscv.h ****         static void mc_sip(uint64 mask);
  40:src/../h/riscv.h **** 
  41:src/../h/riscv.h ****         static uint64 r_sip();
  42:src/../h/riscv.h **** 
  43:src/../h/riscv.h ****         static void w_sip(uint64 sip);
  44:src/../h/riscv.h **** 
  45:src/../h/riscv.h ****         enum BitMaskSstatus {
  46:src/../h/riscv.h ****             SSTATUS_SIE = (1 << 1),
  47:src/../h/riscv.h ****             SSTATUS_SPIE = (1 << 5),
  48:src/../h/riscv.h ****             SSTATUS_SPP = (1 <<8),
  49:src/../h/riscv.h ****         };
  50:src/../h/riscv.h **** 
  51:src/../h/riscv.h ****         static void ms_sstatus(uint64 mask);
  52:src/../h/riscv.h **** 
  53:src/../h/riscv.h ****         static void mc_sstatus(uint64 mask);
  54:src/../h/riscv.h **** 
  55:src/../h/riscv.h ****         static uint64 r_sstatus();
  56:src/../h/riscv.h **** 
  57:src/../h/riscv.h ****         static void w_sstatus(uint64 sstatus);
  58:src/../h/riscv.h **** 
  59:src/../h/riscv.h ****         static uint64 readARegister(int reg_number);
  60:src/../h/riscv.h **** 
  61:src/../h/riscv.h ****         static void writeARegister(int reg_number, uint64 value);
  62:src/../h/riscv.h **** 
  63:src/../h/riscv.h **** 
  64:src/../h/riscv.h ****         static void supervisorTrap();
  65:src/../h/riscv.h ****     private:
  66:src/../h/riscv.h ****         static void handleSupervisorTrap(uint64 a0, uint64 a1, uint64 a2, uint64 a3, uint64 a4, uin
  67:src/../h/riscv.h **** 
  68:src/../h/riscv.h ****     };
  69:src/../h/riscv.h **** 
  70:src/../h/riscv.h ****     inline uint64 Riscv::r_scause()
  71:src/../h/riscv.h ****     {
  72:src/../h/riscv.h ****         uint64 volatile scause;
  73              		.loc 2 72 9
  73:src/../h/riscv.h ****         __asm__ volatile ("csrr %[scause], scause" : [scause] "=r"(scause));
  74              		.loc 2 73 9
  75              	 #APP
  76              	# 73 "src/../h/riscv.h" 1
  74              	        return scause;
  77              		csrr a5, scause
  78              	# 0 "" 2
  79              	.LVL1:
  80              	 #NO_APP
  81 0048 2334F4FA 		sd	a5,-88(s0)
  82              		.loc 2 74 9
  83              		.loc 2 74 16 is_stmt 0
  84 004c 033684FA 		ld	a2,-88(s0)
  85              	.LVL2:
  86              	.LBE113:
GAS LISTING C:\msys64\tmp\ccJBuPX0.s 			page 4


  87              	.LBE112:
  15:src/riscv.cpp **** 
  16:src/riscv.cpp **** 	if (scause == 0x0000000000000008UL || scause == 0x0000000000000009UL) {
  88              		.loc 1 16 2 is_stmt 1
  89              	.LBB114:
  90              		.loc 1 16 37 is_stmt 0
  91 0050 930586FF 		addi	a1,a2,-8
  92              	.LVL3:
  93              		.loc 1 16 2
  94 0054 93071000 		li	a5,1
  95 0058 63FCB704 		bleu	a1,a5,.L43
  96              	.LBE114:
  17:src/riscv.cpp **** 		uint64 call = a0;
  18:src/riscv.cpp **** 		uint64 volatile sepc = r_sepc() + 4;
  19:src/riscv.cpp **** 		uint64 volatile sstatus = r_sstatus();
  20:src/riscv.cpp **** 
  21:src/riscv.cpp **** 		switch(call) {
  22:src/riscv.cpp **** 			case 0x01: {
  23:src/riscv.cpp **** 				size_t bytes = a1 * MEM_BLOCK_SIZE;
  24:src/riscv.cpp **** 				writeARegister(0, (uint64)MemoryAllocator::kmalloc(bytes));
  25:src/riscv.cpp **** 				break;
  26:src/riscv.cpp **** 			}
  27:src/riscv.cpp **** 			case 0x02: {
  28:src/riscv.cpp **** 				writeARegister(0, (uint64)MemoryAllocator::kfree((void*)a1));
  29:src/riscv.cpp **** 				break;
  30:src/riscv.cpp **** 			}
  31:src/riscv.cpp **** 			case 0x11: {
  32:src/riscv.cpp **** 				_thread** handle = (_thread**) a1;
  33:src/riscv.cpp **** 				_thread::Body body =(_thread::Body) a2;
  34:src/riscv.cpp **** 				void* volatile arg = (void*) a3;
  35:src/riscv.cpp **** 				void* volatile stack_space = (void*) a4;
  36:src/riscv.cpp **** 
  37:src/riscv.cpp **** 				*handle =  _thread::createThread(body, arg, stack_space);
  38:src/riscv.cpp **** 
  39:src/riscv.cpp **** 				if(*handle) {
  40:src/riscv.cpp **** 					if (body!=nullptr) Scheduler::instance().put(*handle);
  41:src/riscv.cpp **** 					writeARegister(0, 0);
  42:src/riscv.cpp **** 				} else
  43:src/riscv.cpp **** 					writeARegister(0, -1);
  44:src/riscv.cpp **** 				break;
  45:src/riscv.cpp **** 			}
  46:src/riscv.cpp **** 			case 0x12: {
  47:src/riscv.cpp **** 				_thread::timeSliceCounter = 0;
  48:src/riscv.cpp **** 				if (_thread::running) {
  49:src/riscv.cpp **** 					_thread::running -> setFinished(true);		//possible need to notify if someone is wating for thi
  50:src/riscv.cpp **** 					writeARegister(0, 0);
  51:src/riscv.cpp **** 				}else {
  52:src/riscv.cpp **** 					writeARegister(0, -1);
  53:src/riscv.cpp **** 				}
  54:src/riscv.cpp **** 
  55:src/riscv.cpp **** 
  56:src/riscv.cpp **** 				_thread::dispatch();
  57:src/riscv.cpp **** 				break;
  58:src/riscv.cpp **** 			}
  59:src/riscv.cpp **** 			case 0x13: {
  60:src/riscv.cpp **** 				_thread::timeSliceCounter = 0;
  61:src/riscv.cpp **** 				_thread::dispatch();
GAS LISTING C:\msys64\tmp\ccJBuPX0.s 			page 5


  62:src/riscv.cpp **** 				break;
  63:src/riscv.cpp **** 			}
  64:src/riscv.cpp **** 			case 0x21: {
  65:src/riscv.cpp **** 				_sem** handle = (_sem**) a1;
  66:src/riscv.cpp **** 
  67:src/riscv.cpp **** 
  68:src/riscv.cpp **** 				*handle = new _sem(a2);
  69:src/riscv.cpp **** 
  70:src/riscv.cpp **** 				if(*handle) {
  71:src/riscv.cpp **** 					writeARegister(0, 0);
  72:src/riscv.cpp **** 				} else
  73:src/riscv.cpp **** 					writeARegister(0, -1);
  74:src/riscv.cpp **** 				break;
  75:src/riscv.cpp **** 			}
  76:src/riscv.cpp **** 			case 0x22: {
  77:src/riscv.cpp **** 				_sem* s = (_sem*)a1;
  78:src/riscv.cpp **** 				if (s == nullptr) {
  79:src/riscv.cpp **** 					writeARegister(0, -1);
  80:src/riscv.cpp **** 				}else {
  81:src/riscv.cpp **** 					writeARegister(0, s->close());
  82:src/riscv.cpp **** 					delete s;
  83:src/riscv.cpp **** 				}
  84:src/riscv.cpp **** 
  85:src/riscv.cpp **** 				break;
  86:src/riscv.cpp **** 			}
  87:src/riscv.cpp **** 			case 0x23: {
  88:src/riscv.cpp **** 				_sem* s = (_sem*)a1;
  89:src/riscv.cpp **** 				if (s == nullptr) {
  90:src/riscv.cpp **** 					writeARegister(0, -1);
  91:src/riscv.cpp **** 				}else {
  92:src/riscv.cpp **** 					writeARegister(0, s->wait());
  93:src/riscv.cpp **** 				}
  94:src/riscv.cpp **** 
  95:src/riscv.cpp **** 				break;
  96:src/riscv.cpp **** 			}
  97:src/riscv.cpp **** 			case 0x24: {
  98:src/riscv.cpp **** 				_sem* s = (_sem*)a1;
  99:src/riscv.cpp **** 				if (s == nullptr) {
 100:src/riscv.cpp **** 					writeARegister(0, -1);
 101:src/riscv.cpp **** 				}else {
 102:src/riscv.cpp **** 					writeARegister(0, s->signal());
 103:src/riscv.cpp **** 				}
 104:src/riscv.cpp **** 				break;
 105:src/riscv.cpp **** 			}
 106:src/riscv.cpp **** 			case 0x31: {
 107:src/riscv.cpp **** 				if (_thread::running == nullptr) {
 108:src/riscv.cpp **** 					writeARegister(0, -1);
 109:src/riscv.cpp **** 				}else {
 110:src/riscv.cpp **** 					_thread::running -> time_sleep(a1);
 111:src/riscv.cpp **** 					writeARegister(0, 0);
 112:src/riscv.cpp **** 				}
 113:src/riscv.cpp **** 
 114:src/riscv.cpp **** 				break;
 115:src/riscv.cpp **** 			}
 116:src/riscv.cpp **** 			case 0x41: {
 117:src/riscv.cpp **** 				char c = _console::getc();
 118:src/riscv.cpp **** 				writeARegister(0, (uint64)c);
GAS LISTING C:\msys64\tmp\ccJBuPX0.s 			page 6


 119:src/riscv.cpp **** 				break;
 120:src/riscv.cpp **** 			}
 121:src/riscv.cpp **** 
 122:src/riscv.cpp **** 			case 0x42: { // putc
 123:src/riscv.cpp **** 				char c = (char)a1; // Karakter koji je korisnik prosledio
 124:src/riscv.cpp **** 				_console::putc(c);
 125:src/riscv.cpp **** 				break;
 126:src/riscv.cpp **** 			}
 127:src/riscv.cpp **** 			default: {
 128:src/riscv.cpp **** 				break;
 129:src/riscv.cpp **** 			}
 130:src/riscv.cpp **** 		}
 131:src/riscv.cpp **** 
 132:src/riscv.cpp **** 		w_sstatus(sstatus);
 133:src/riscv.cpp **** 		w_sepc(sepc);
 134:src/riscv.cpp **** 
 135:src/riscv.cpp ****     } else if (scause == 0x8000000000000009UL) {
  97              		.loc 1 135 12 is_stmt 1
  98              	.LBB238:
  99              	.LBB115:
 100 005c 9307F0FF 		li	a5,-1
 101 0060 9397F703 		slli	a5,a5,63
 102 0064 93879700 		addi	a5,a5,9
 103 0068 6308F62A 		beq	a2,a5,.L44
 104              	.LBE115:
 105              	.LBE238:
 136:src/riscv.cpp ****     	int irq = plic_claim(); // Potvrđujemo prekid PLIC kontroleru
 137:src/riscv.cpp **** 
 138:src/riscv.cpp ****     	if (irq == CONSOLE_IRQ) { // Proveravamo da li je prekid stigao baš sa konzole (obično 10)
 139:src/riscv.cpp **** 
 140:src/riscv.cpp ****     		// RX deo: Čitamo sve dok hardver ima podataka I dok imamo gde da ih smestimo
 141:src/riscv.cpp ****     	while ((*((volatile uint8*)CONSOLE_STATUS) & 0x01) && !_console::getInBuff()->isFull()) {
 142:src/riscv.cpp ****     		char c = *((volatile uint8*)CONSOLE_RX_DATA);
 143:src/riscv.cpp ****     		_console::getInBuff()->put(c);
 144:src/riscv.cpp ****     		_console::getInSem()->signal();
 145:src/riscv.cpp ****     	}
 146:src/riscv.cpp **** 
 147:src/riscv.cpp ****     	// TX deo: Šaljemo sve dok je hardver spreman I dok imamo šta da pošaljemo
 148:src/riscv.cpp ****     	while ((*((volatile uint8*)CONSOLE_STATUS) & 0x20) && !_console::getOutBuff()->isEmpty()) {
 149:src/riscv.cpp ****     		char c = _console::getOutBuff()->get();
 150:src/riscv.cpp ****     		*((volatile uint8*)CONSOLE_TX_DATA) = (uint8)c;
 151:src/riscv.cpp ****     		_console::getOutSem()->signal();
 152:src/riscv.cpp ****     	}
 153:src/riscv.cpp ****     	}
 154:src/riscv.cpp **** 
 155:src/riscv.cpp ****     	plic_complete(irq); // Obaveštavamo PLIC da je obrada završena
 156:src/riscv.cpp ****     } else if (scause == 0x8000000000000001UL) {
 106              		.loc 1 156 12
 107              	.LBB239:
 108              	.LBB169:
 109              	.LBB116:
 110 006c 9307F0FF 		li	a5,-1
 111 0070 9397F703 		slli	a5,a5,63
 112 0074 93871700 		addi	a5,a5,1
 113 0078 6310F60A 		bne	a2,a5,.L3
 114              	.LBB117:
 157:src/riscv.cpp ****     	_thread::timeSliceCounter++;
GAS LISTING C:\msys64\tmp\ccJBuPX0.s 			page 7


 115              		.loc 1 157 6
 116              		.loc 1 157 31 is_stmt 0
 117 007c 17070000 		lla	a4,_ZN7_thread16timeSliceCounterE
 117      13070700 
 118              	.LVL4:
 119 0084 83370700 		ld	a5,0(a4)
 120 0088 93871700 		addi	a5,a5,1
 121 008c 2330F700 		sd	a5,0(a4)
 158:src/riscv.cpp ****     	if (_thread::sleepingHead) {
 122              		.loc 1 158 6 is_stmt 1
 123              	.LBB118:
 124              		.loc 1 158 19 is_stmt 0
 125 0090 97070000 		ld	a5,_ZN7_thread12sleepingHeadE
 125      83B70700 
 126              		.loc 1 158 6
 127 0098 6384073E 		beq	a5,zero,.L35
 128              	.LBB119:
 159:src/riscv.cpp ****     		if (_thread::sleepingHead->timeSleeping > 0) {
 129              		.loc 1 159 7 is_stmt 1
 130              		.loc 1 159 34 is_stmt 0
 131 009c 03B78704 		ld	a4,72(a5)
 132              		.loc 1 159 7
 133 00a0 63040738 		beq	a4,zero,.L38
 160:src/riscv.cpp ****     			_thread::sleepingHead->timeSleeping--;
 134              		.loc 1 160 8 is_stmt 1
 135              		.loc 1 160 43 is_stmt 0
 136 00a4 1307F7FF 		addi	a4,a4,-1
 137 00a8 23B4E704 		sd	a4,72(a5)
 138 00ac 6F00C037 		j	.L38
 139              	.LVL5:
 140              	.L43:
 141              	.LBE119:
 142              	.LBE118:
 143              	.LBE117:
 144              	.LBE116:
 145              	.LBE169:
 146              	.LBB170:
  17:src/riscv.cpp **** 		uint64 volatile sepc = r_sepc() + 4;
 147              		.loc 1 17 3 is_stmt 1
  18:src/riscv.cpp **** 		uint64 volatile sstatus = r_sstatus();
 148              		.loc 1 18 3
 149              	.LBB171:
 150              	.LBB172:
  75:src/../h/riscv.h ****     }
  76:src/../h/riscv.h **** 
  77:src/../h/riscv.h ****     inline void Riscv::w_scause(uint64 scause)
  78:src/../h/riscv.h ****     {
  79:src/../h/riscv.h ****         __asm__ volatile ("csrw scause, %[scause]" : : [scause] "r"(scause));
  80:src/../h/riscv.h ****     }
  81:src/../h/riscv.h **** 
  82:src/../h/riscv.h ****     inline uint64 Riscv::r_sepc()
  83:src/../h/riscv.h ****     {
  84:src/../h/riscv.h ****         uint64 volatile sepc;
 151              		.loc 2 84 9
  85:src/../h/riscv.h ****         __asm__ volatile ("csrr %[sepc], sepc" : [sepc] "=r"(sepc));
 152              		.loc 2 85 9
 153              	 #APP
GAS LISTING C:\msys64\tmp\ccJBuPX0.s 			page 8


 154              	# 85 "src/../h/riscv.h" 1
  86              	        return sepc;
 155              		csrr a5, sepc
 156              	# 0 "" 2
 157              	 #NO_APP
 158 00b4 233CF4FA 		sd	a5,-72(s0)
 159              		.loc 2 86 9
 160              		.loc 2 86 16 is_stmt 0
 161 00b8 833784FB 		ld	a5,-72(s0)
 162              	.LBE172:
 163              	.LBE171:
  18:src/riscv.cpp **** 		uint64 volatile sstatus = r_sstatus();
 164              		.loc 1 18 35
 165 00bc 93874700 		addi	a5,a5,4
  18:src/riscv.cpp **** 		uint64 volatile sstatus = r_sstatus();
 166              		.loc 1 18 37
 167 00c0 233CF4F6 		sd	a5,-136(s0)
  19:src/riscv.cpp **** 
 168              		.loc 1 19 3 is_stmt 1
 169              	.LBB173:
 170              	.LBB174:
  87:src/../h/riscv.h ****     }
  88:src/../h/riscv.h **** 
  89:src/../h/riscv.h ****     inline void Riscv::w_sepc(uint64 sepc)
  90:src/../h/riscv.h ****     {
  91:src/../h/riscv.h ****         __asm__ volatile ("csrw sepc, %[sepc]" : : [sepc] "r"(sepc));
  92:src/../h/riscv.h ****     }
  93:src/../h/riscv.h **** 
  94:src/../h/riscv.h ****     inline uint64 Riscv::r_stvec()
  95:src/../h/riscv.h ****     {
  96:src/../h/riscv.h ****         uint64 volatile stvec;
  97:src/../h/riscv.h ****         __asm__ volatile ("csrr %[stvec], stvec" : [stvec] "=r"(stvec));
  98:src/../h/riscv.h ****         return stvec;
  99:src/../h/riscv.h ****     }
 100:src/../h/riscv.h **** 
 101:src/../h/riscv.h ****     inline void Riscv::w_stvec(uint64 stvec)
 102:src/../h/riscv.h ****     {
 103:src/../h/riscv.h ****         __asm__ volatile ("csrw stvec, %[stvec]" : : [stvec] "r"(stvec));
 104:src/../h/riscv.h ****     }
 105:src/../h/riscv.h **** 
 106:src/../h/riscv.h ****     inline uint64 Riscv::r_stval()
 107:src/../h/riscv.h ****     {
 108:src/../h/riscv.h ****         uint64 volatile stval;
 109:src/../h/riscv.h ****         __asm__ volatile ("csrr %[stval], stval" : [stval] "=r"(stval));
 110:src/../h/riscv.h ****         return stval;
 111:src/../h/riscv.h ****     }
 112:src/../h/riscv.h **** 
 113:src/../h/riscv.h ****     inline void Riscv::w_stval(uint64 stval)
 114:src/../h/riscv.h ****     {
 115:src/../h/riscv.h ****         __asm__ volatile ("csrw stval, %[stval]" : : [stval] "r"(stval));
 116:src/../h/riscv.h ****     }
 117:src/../h/riscv.h **** 
 118:src/../h/riscv.h ****     inline void Riscv::ms_sip(uint64 mask)
 119:src/../h/riscv.h ****     {
 120:src/../h/riscv.h ****         __asm__ volatile ("csrs sip, %[mask]" : : [mask] "r"(mask));
 121:src/../h/riscv.h ****     }
 122:src/../h/riscv.h **** 
GAS LISTING C:\msys64\tmp\ccJBuPX0.s 			page 9


 123:src/../h/riscv.h ****     inline void Riscv::mc_sip(uint64 mask)
 124:src/../h/riscv.h ****     {
 125:src/../h/riscv.h ****         __asm__ volatile ("csrc sip, %[mask]" : : [mask] "r"(mask));
 126:src/../h/riscv.h ****     }
 127:src/../h/riscv.h **** 
 128:src/../h/riscv.h ****     inline uint64 Riscv::r_sip()
 129:src/../h/riscv.h ****     {
 130:src/../h/riscv.h ****         uint64 volatile sip;
 131:src/../h/riscv.h ****         __asm__ volatile ("csrr %[sip], sip" : [sip] "=r"(sip));
 132:src/../h/riscv.h ****         return sip;
 133:src/../h/riscv.h ****     }
 134:src/../h/riscv.h **** 
 135:src/../h/riscv.h ****     inline void Riscv::w_sip(uint64 sip)
 136:src/../h/riscv.h ****     {
 137:src/../h/riscv.h ****         __asm__ volatile ("csrw sip, %[sip]" : : [sip] "r"(sip));
 138:src/../h/riscv.h ****     }
 139:src/../h/riscv.h **** 
 140:src/../h/riscv.h ****     inline void Riscv::ms_sstatus(uint64 mask)
 141:src/../h/riscv.h ****     {
 142:src/../h/riscv.h ****         __asm__ volatile ("csrs sstatus, %[mask]" : : [mask] "r"(mask));
 143:src/../h/riscv.h ****     }
 144:src/../h/riscv.h **** 
 145:src/../h/riscv.h ****     inline void Riscv::mc_sstatus(uint64 mask)
 146:src/../h/riscv.h ****     {
 147:src/../h/riscv.h ****         __asm__ volatile ("csrc sstatus, %[mask]" : : [mask] "r"(mask));
 148:src/../h/riscv.h ****     }
 149:src/../h/riscv.h **** 
 150:src/../h/riscv.h ****     inline uint64 Riscv::r_sstatus()
 151:src/../h/riscv.h ****     {
 152:src/../h/riscv.h ****         uint64 volatile sstatus;
 171              		.loc 2 152 9
 153:src/../h/riscv.h ****         __asm__ volatile ("csrr %[sstatus], sstatus" : [sstatus] "=r"(sstatus));
 172              		.loc 2 153 9
 173              	 #APP
 174              	# 153 "src/../h/riscv.h" 1
 154              	        return sstatus;
 175              		csrr a5, sstatus
 176              	# 0 "" 2
 177              	 #NO_APP
 178 00c8 2338F4FA 		sd	a5,-80(s0)
 179              		.loc 2 154 9
 180              		.loc 2 154 16 is_stmt 0
 181 00cc 833704FB 		ld	a5,-80(s0)
 182              	.LBE174:
 183              	.LBE173:
  19:src/riscv.cpp **** 
 184              		.loc 1 19 39
 185 00d0 2330F4F8 		sd	a5,-128(s0)
  21:src/riscv.cpp **** 			case 0x01: {
 186              		.loc 1 21 3 is_stmt 1
 187 00d4 93072004 		li	a5,66
 188 00d8 63E8A702 		bgtu	a0,a5,.L5
 189 00dc 13152500 		slli	a0,a0,2
 190              	.LVL6:
 191 00e0 17060000 		lla	a2,.L7
 191      13060600 
 192              	.LVL7:
GAS LISTING C:\msys64\tmp\ccJBuPX0.s 			page 10


 193 00e8 3305C500 		add	a0,a0,a2
 194 00ec 83270500 		lw	a5,0(a0)
 195 00f0 B387C700 		add	a5,a5,a2
 196 00f4 67800700 		jr	a5
 197              		.section	.rodata
 198              		.align	2
 199              		.align	2
 200              	.L7:
 201 0000 00000000 		.word	.L5-.L7
 202 0004 00000000 		.word	.L18-.L7
 203 0008 00000000 		.word	.L17-.L7
 204 000c 00000000 		.word	.L5-.L7
 205 0010 00000000 		.word	.L5-.L7
 206 0014 00000000 		.word	.L5-.L7
 207 0018 00000000 		.word	.L5-.L7
 208 001c 00000000 		.word	.L5-.L7
 209 0020 00000000 		.word	.L5-.L7
 210 0024 00000000 		.word	.L5-.L7
 211 0028 00000000 		.word	.L5-.L7
 212 002c 00000000 		.word	.L5-.L7
 213 0030 00000000 		.word	.L5-.L7
 214 0034 00000000 		.word	.L5-.L7
 215 0038 00000000 		.word	.L5-.L7
 216 003c 00000000 		.word	.L5-.L7
 217 0040 00000000 		.word	.L5-.L7
 218 0044 00000000 		.word	.L16-.L7
 219 0048 00000000 		.word	.L15-.L7
 220 004c 00000000 		.word	.L14-.L7
 221 0050 00000000 		.word	.L5-.L7
 222 0054 00000000 		.word	.L5-.L7
 223 0058 00000000 		.word	.L5-.L7
 224 005c 00000000 		.word	.L5-.L7
 225 0060 00000000 		.word	.L5-.L7
 226 0064 00000000 		.word	.L5-.L7
 227 0068 00000000 		.word	.L5-.L7
 228 006c 00000000 		.word	.L5-.L7
 229 0070 00000000 		.word	.L5-.L7
 230 0074 00000000 		.word	.L5-.L7
 231 0078 00000000 		.word	.L5-.L7
 232 007c 00000000 		.word	.L5-.L7
 233 0080 00000000 		.word	.L5-.L7
 234 0084 00000000 		.word	.L13-.L7
 235 0088 00000000 		.word	.L12-.L7
 236 008c 00000000 		.word	.L11-.L7
 237 0090 00000000 		.word	.L10-.L7
 238 0094 00000000 		.word	.L5-.L7
 239 0098 00000000 		.word	.L5-.L7
 240 009c 00000000 		.word	.L5-.L7
 241 00a0 00000000 		.word	.L5-.L7
 242 00a4 00000000 		.word	.L5-.L7
 243 00a8 00000000 		.word	.L5-.L7
 244 00ac 00000000 		.word	.L5-.L7
 245 00b0 00000000 		.word	.L5-.L7
 246 00b4 00000000 		.word	.L5-.L7
 247 00b8 00000000 		.word	.L5-.L7
 248 00bc 00000000 		.word	.L5-.L7
 249 00c0 00000000 		.word	.L5-.L7
GAS LISTING C:\msys64\tmp\ccJBuPX0.s 			page 11


 250 00c4 00000000 		.word	.L9-.L7
 251 00c8 00000000 		.word	.L5-.L7
 252 00cc 00000000 		.word	.L5-.L7
 253 00d0 00000000 		.word	.L5-.L7
 254 00d4 00000000 		.word	.L5-.L7
 255 00d8 00000000 		.word	.L5-.L7
 256 00dc 00000000 		.word	.L5-.L7
 257 00e0 00000000 		.word	.L5-.L7
 258 00e4 00000000 		.word	.L5-.L7
 259 00e8 00000000 		.word	.L5-.L7
 260 00ec 00000000 		.word	.L5-.L7
 261 00f0 00000000 		.word	.L5-.L7
 262 00f4 00000000 		.word	.L5-.L7
 263 00f8 00000000 		.word	.L5-.L7
 264 00fc 00000000 		.word	.L5-.L7
 265 0100 00000000 		.word	.L5-.L7
 266 0104 00000000 		.word	.L8-.L7
 267 0108 00000000 		.word	.L6-.L7
 268              		.text
 269              	.L18:
 270              	.LBB175:
  22:src/riscv.cpp **** 				size_t bytes = a1 * MEM_BLOCK_SIZE;
 271              		.loc 1 22 4
  22:src/riscv.cpp **** 				size_t bytes = a1 * MEM_BLOCK_SIZE;
 272              		.loc 1 22 15
 273              	.LBB176:
  23:src/riscv.cpp **** 				writeARegister(0, (uint64)MemoryAllocator::kmalloc(bytes));
 274              		.loc 1 23 5
 275              	.LVL8:
  24:src/riscv.cpp **** 				break;
 276              		.loc 1 24 5
  24:src/riscv.cpp **** 				break;
 277              		.loc 1 24 55 is_stmt 0
 278 00f8 13956400 		slli	a0,s1,6
 279              	.LVL9:
 280              	.LEHB0:
 281 00fc 97000000 		call	_ZN15MemoryAllocator7kmallocEm
 281      E7800000 
 282              	.LVL10:
 283              	.LBB177:
 284              	.LBB178:
 155:src/../h/riscv.h ****     }
 156:src/../h/riscv.h **** 
 157:src/../h/riscv.h ****     inline void Riscv::w_sstatus(uint64 sstatus)
 158:src/../h/riscv.h ****     {
 159:src/../h/riscv.h ****         __asm__ volatile ("csrw sstatus, %[sstatus]" : : [sstatus] "r"(sstatus));
 160:src/../h/riscv.h ****     }
 161:src/../h/riscv.h **** 
 162:src/../h/riscv.h **** inline uint64 Riscv::readARegister(int reg_number) {
 163:src/../h/riscv.h ****         uint64 value;
 164:src/../h/riscv.h ****         __asm__ volatile("mv %[val], a%[reg]" : [val] "=r" (value) : [reg] "i" (reg_number));
 165:src/../h/riscv.h ****         return value;
 166:src/../h/riscv.h ****     }
 167:src/../h/riscv.h **** 
 168:src/../h/riscv.h **** 
 169:src/../h/riscv.h **** inline void Riscv::writeARegister( int reg_number, uint64 value) {
 170:src/../h/riscv.h ****         __asm__ volatile("mv a%[reg], %[val]" :: [reg] "i" (reg_number), [val] "r" (value));
GAS LISTING C:\msys64\tmp\ccJBuPX0.s 			page 12


 285              		.loc 2 170 9 is_stmt 1
 286              	 #APP
 287              	# 170 "src/../h/riscv.h" 1
 171              	    }
 288              		mv a0, a0
 289              	# 0 "" 2
 290              	.LVL11:
 291              	 #NO_APP
 292              	.L5:
 293              	.LBE178:
 294              	.LBE177:
 295              	.LBE176:
 296              	.LBE175:
 132:src/riscv.cpp **** 		w_sepc(sepc);
 297              		.loc 1 132 3
 132:src/riscv.cpp **** 		w_sepc(sepc);
 298              		.loc 1 132 12 is_stmt 0
 299 0108 833704F8 		ld	a5,-128(s0)
 300              	.LVL12:
 301              	.LBB228:
 302              	.LBB229:
 159:src/../h/riscv.h ****     }
 303              		.loc 2 159 9 is_stmt 1
 304              	 #APP
 305              	# 159 "src/../h/riscv.h" 1
 306              		csrw sstatus, a5
 307              	# 0 "" 2
 308              	.LVL13:
 309              	 #NO_APP
 310              	.LBE229:
 311              	.LBE228:
 133:src/riscv.cpp **** 
 312              		.loc 1 133 3
 133:src/riscv.cpp **** 
 313              		.loc 1 133 9 is_stmt 0
 314 0110 833784F7 		ld	a5,-136(s0)
 315              	.LVL14:
 316              	.LBB230:
 317              	.LBB231:
  91:src/../h/riscv.h ****     }
 318              		.loc 2 91 9 is_stmt 1
 319              	 #APP
 320              	# 91 "src/../h/riscv.h" 1
 321              		csrw sepc, a5
 322              	# 0 "" 2
 323              	.LVL15:
 324              	 #NO_APP
 325              	.L3:
 326              	.LBE231:
 327              	.LBE230:
 328              	.LBE170:
 329              	.LBE239:
 161:src/riscv.cpp ****     		}
 162:src/riscv.cpp **** 
 163:src/riscv.cpp ****     		while (_thread::sleepingHead && _thread::sleepingHead -> timeSleeping == 0) {
 164:src/riscv.cpp ****     			_thread* t = _thread::sleepingHead;
 165:src/riscv.cpp **** 
GAS LISTING C:\msys64\tmp\ccJBuPX0.s 			page 13


 166:src/riscv.cpp ****     			_thread::sleepingHead = t->waitnext;
 167:src/riscv.cpp **** 
 168:src/riscv.cpp ****     			t->waitnext = nullptr;
 169:src/riscv.cpp ****     			t->isReady = true;
 170:src/riscv.cpp ****     			Scheduler::instance().put(t);
 171:src/riscv.cpp ****     		}
 172:src/riscv.cpp **** 
 173:src/riscv.cpp ****     	}
 174:src/riscv.cpp ****     if(_thread::timeSliceCounter >= _thread::running -> getTimeSlice())
 175:src/riscv.cpp ****     {
 176:src/riscv.cpp ****     	uint64 volatile sepc = r_sepc();
 177:src/riscv.cpp ****     	uint64 volatile sstatus = r_sstatus();
 178:src/riscv.cpp ****     	_thread::timeSliceCounter = 0;
 179:src/riscv.cpp ****     	_thread::dispatch();
 180:src/riscv.cpp ****     	w_sstatus(sstatus);
 181:src/riscv.cpp ****     	w_sepc(sepc);
 182:src/riscv.cpp ****     	
 183:src/riscv.cpp ****     }
 184:src/riscv.cpp ****         mc_sip(SIP_SSIP);
 185:src/riscv.cpp ****     }
 186:src/riscv.cpp **** }
 330              		.loc 1 186 1 is_stmt 0
 331 0118 83308108 		ld	ra,136(sp)
 332              		.cfi_remember_state
 333              		.cfi_restore 1
 334 011c 03340108 		ld	s0,128(sp)
 335              		.cfi_restore 8
 336              		.cfi_def_cfa 2, 144
 337 0120 83348107 		ld	s1,120(sp)
 338              		.cfi_restore 9
 339 0124 03390107 		ld	s2,112(sp)
 340              		.cfi_restore 18
 341 0128 83398106 		ld	s3,104(sp)
 342              		.cfi_restore 19
 343 012c 13010109 		addi	sp,sp,144
 344              		.cfi_def_cfa_offset 0
 345 0130 67800000 		jr	ra
 346              	.LVL16:
 347              	.L17:
 348              		.cfi_restore_state
 349              	.LBB240:
 350              	.LBB234:
 351              	.LBB232:
  27:src/riscv.cpp **** 				writeARegister(0, (uint64)MemoryAllocator::kfree((void*)a1));
 352              		.loc 1 27 4 is_stmt 1
  27:src/riscv.cpp **** 				writeARegister(0, (uint64)MemoryAllocator::kfree((void*)a1));
 353              		.loc 1 27 15
  28:src/riscv.cpp **** 				break;
 354              		.loc 1 28 5
  28:src/riscv.cpp **** 				break;
 355              		.loc 1 28 53 is_stmt 0
 356 0134 13850400 		mv	a0,s1
 357 0138 97000000 		call	_ZN15MemoryAllocator5kfreeEPv
 357      E7800000 
 358              	.LVL17:
 359              	.LBB179:
 360              	.LBB180:
GAS LISTING C:\msys64\tmp\ccJBuPX0.s 			page 14


 170:src/../h/riscv.h ****     }
 361              		.loc 2 170 9 is_stmt 1
 362              	 #APP
 363              	# 170 "src/../h/riscv.h" 1
 364              		mv a0, a0
 365              	# 0 "" 2
 366              		.loc 2 171 5 is_stmt 0
 367              	 #NO_APP
 368 0144 6FF05FFC 		j	.L5
 369              	.LVL18:
 370              	.L16:
 371              	.LBE180:
 372              	.LBE179:
  31:src/riscv.cpp **** 				_thread** handle = (_thread**) a1;
 373              		.loc 1 31 4 is_stmt 1
  31:src/riscv.cpp **** 				_thread** handle = (_thread**) a1;
 374              		.loc 1 31 15
 375              	.LBB181:
  32:src/riscv.cpp **** 				_thread::Body body =(_thread::Body) a2;
 376              		.loc 1 32 5
  33:src/riscv.cpp **** 				void* volatile arg = (void*) a3;
 377              		.loc 1 33 5
  34:src/riscv.cpp **** 				void* volatile stack_space = (void*) a4;
 378              		.loc 1 34 5
  34:src/riscv.cpp **** 				void* volatile stack_space = (void*) a4;
 379              		.loc 1 34 20 is_stmt 0
 380 0148 2334D4F8 		sd	a3,-120(s0)
  35:src/riscv.cpp **** 
 381              		.loc 1 35 5 is_stmt 1
  35:src/riscv.cpp **** 
 382              		.loc 1 35 20 is_stmt 0
 383 014c 2338E4F8 		sd	a4,-112(s0)
  37:src/riscv.cpp **** 
 384              		.loc 1 37 5 is_stmt 1
  37:src/riscv.cpp **** 
 385              		.loc 1 37 37 is_stmt 0
 386 0150 833584F8 		ld	a1,-120(s0)
 387              	.LVL19:
 388 0154 033604F9 		ld	a2,-112(s0)
 389 0158 13050900 		mv	a0,s2
 390 015c 97000000 		call	_ZN7_thread12createThreadEPFvPvES0_S0_
 390      E7800000 
 391              	.LVL20:
  37:src/riscv.cpp **** 
 392              		.loc 1 37 13
 393 0164 23B0A400 		sd	a0,0(s1)
  39:src/riscv.cpp **** 					if (body!=nullptr) Scheduler::instance().put(*handle);
 394              		.loc 1 39 5 is_stmt 1
 395 0168 63080504 		beq	a0,zero,.L19
  40:src/riscv.cpp **** 					writeARegister(0, 0);
 396              		.loc 1 40 6
 397 016c 63000904 		beq	s2,zero,.L20
  40:src/riscv.cpp **** 					writeARegister(0, 0);
 398              		.loc 1 40 25
 399              	.LBB182:
 400              	.LBB183:
 401              		.file 3 "src/../h/Scheduler.h"
GAS LISTING C:\msys64\tmp\ccJBuPX0.s 			page 15


   1:src/../h/Scheduler.h **** //
   2:src/../h/Scheduler.h **** // Created by os on 4/1/26.
   3:src/../h/Scheduler.h **** //
   4:src/../h/Scheduler.h **** 
   5:src/../h/Scheduler.h **** #ifndef PROJEKAT_SCHEDULER_H
   6:src/../h/Scheduler.h **** #define PROJEKAT_SCHEDULER_H
   7:src/../h/Scheduler.h **** 
   8:src/../h/Scheduler.h **** class _thread;
   9:src/../h/Scheduler.h **** 
  10:src/../h/Scheduler.h **** class Scheduler {
  11:src/../h/Scheduler.h **** public:
  12:src/../h/Scheduler.h ****     static Scheduler& instance(){static Scheduler instance; return instance;}
 402              		.loc 3 12 34
 403              		.loc 3 12 51 is_stmt 0
 404 0170 97070000 		lbu	a5,_ZGVZN9Scheduler8instanceEvE8instance
 404      83C70700 
 405 0178 63900702 		bne	a5,zero,.L21
 406              	.LVL21:
 407              	.LBB184:
 408              	.LBB185:
 409              	.LBB186:
  13:src/../h/Scheduler.h **** 
  14:src/../h/Scheduler.h ****     Scheduler(const Scheduler&) = delete;
  15:src/../h/Scheduler.h ****     Scheduler& operator=(const Scheduler&) = delete;
  16:src/../h/Scheduler.h **** 
  17:src/../h/Scheduler.h **** 
  18:src/../h/Scheduler.h ****     void put(_thread* t);
  19:src/../h/Scheduler.h **** 
  20:src/../h/Scheduler.h ****     _thread* get();
  21:src/../h/Scheduler.h **** private:
  22:src/../h/Scheduler.h ****     Scheduler():head(nullptr), tail(nullptr){};
 410              		.loc 3 22 44
 411 017c 97070000 		lla	a5,_ZZN9Scheduler8instanceEvE8instance
 411      93870700 
 412 0184 23B00700 		sd	zero,0(a5)
 413 0188 23B40700 		sd	zero,8(a5)
 414              	.LVL22:
 415              	.LBE186:
 416              	.LBE185:
 417              	.LBE184:
  12:src/../h/Scheduler.h **** 
 418              		.loc 3 12 51
 419 018c 93071000 		li	a5,1
 420 0190 17070000 		sb	a5,_ZGVZN9Scheduler8instanceEvE8instance,a4
 420      2300F700 
 421              	.L21:
  12:src/../h/Scheduler.h **** 
 422              		.loc 3 12 61 is_stmt 1
 423              	.LBE183:
 424              	.LBE182:
  40:src/riscv.cpp **** 					writeARegister(0, 0);
 425              		.loc 1 40 50 is_stmt 0
 426 0198 83B50400 		ld	a1,0(s1)
 427 019c 17050000 		lla	a0,_ZZN9Scheduler8instanceEvE8instance
 427      13050500 
 428 01a4 97000000 		call	_ZN9Scheduler3putEP7_thread
 428      E7800000 
GAS LISTING C:\msys64\tmp\ccJBuPX0.s 			page 16


 429              	.LVL23:
 430              	.L20:
  41:src/riscv.cpp **** 				} else
 431              		.loc 1 41 6 is_stmt 1
 432              	.LBB187:
 433              	.LBB188:
 170:src/../h/riscv.h ****     }
 434              		.loc 2 170 9
 435 01ac 93070000 		li	a5,0
 436              	 #APP
 437              	# 170 "src/../h/riscv.h" 1
 438              		mv a0, a5
 439              	# 0 "" 2
 440              		.loc 2 171 5 is_stmt 0
 441              	 #NO_APP
 442 01b4 6FF05FF5 		j	.L5
 443              	.LVL24:
 444              	.L19:
 445              	.LBE188:
 446              	.LBE187:
  43:src/riscv.cpp **** 				break;
 447              		.loc 1 43 6 is_stmt 1
 448              	.LBB189:
 449              	.LBB190:
 170:src/../h/riscv.h ****     }
 450              		.loc 2 170 9
 451 01b8 9307F0FF 		li	a5,-1
 452              	 #APP
 453              	# 170 "src/../h/riscv.h" 1
 454              		mv a0, a5
 455              	# 0 "" 2
 456              		.loc 2 171 5 is_stmt 0
 457              	 #NO_APP
 458 01c0 6FF09FF4 		j	.L5
 459              	.LVL25:
 460              	.L15:
 461              	.LBE190:
 462              	.LBE189:
 463              	.LBE181:
  46:src/riscv.cpp **** 				_thread::timeSliceCounter = 0;
 464              		.loc 1 46 4 is_stmt 1
  46:src/riscv.cpp **** 				_thread::timeSliceCounter = 0;
 465              		.loc 1 46 15
  47:src/riscv.cpp **** 				if (_thread::running) {
 466              		.loc 1 47 5
  47:src/riscv.cpp **** 				if (_thread::running) {
 467              		.loc 1 47 31 is_stmt 0
 468 01c4 97070000 		sd	zero,_ZN7_thread16timeSliceCounterE,a5
 468      23B00700 
  48:src/riscv.cpp **** 					_thread::running -> setFinished(true);		//possible need to notify if someone is wating for thi
 469              		.loc 1 48 5 is_stmt 1
  48:src/riscv.cpp **** 					_thread::running -> setFinished(true);		//possible need to notify if someone is wating for thi
 470              		.loc 1 48 18 is_stmt 0
 471 01cc 97070000 		ld	a5,_ZN7_thread7runningE
 471      83B70700 
  48:src/riscv.cpp **** 					_thread::running -> setFinished(true);		//possible need to notify if someone is wating for thi
 472              		.loc 1 48 5
GAS LISTING C:\msys64\tmp\ccJBuPX0.s 			page 17


 473 01d4 63800702 		beq	a5,zero,.L22
  49:src/riscv.cpp **** 					writeARegister(0, 0);
 474              		.loc 1 49 6 is_stmt 1
 475              	.LVL26:
 476              	.LBB191:
 477              	.LBB192:
 478              		.file 4 "src/../h/Thread.h"
   1:src/../h/Thread.h ****  #ifndef PROJEKAT_THREAD_H
   2:src/../h/Thread.h **** #define PROJEKAT_THREAD_H
   3:src/../h/Thread.h **** 
   4:src/../h/Thread.h **** #include "../lib/hw.h"
   5:src/../h/Thread.h **** #include "MemoryAllocator.h"
   6:src/../h/Thread.h **** #include "Scheduler.h"
   7:src/../h/Thread.h **** 
   8:src/../h/Thread.h **** typedef unsigned long time_t;
   9:src/../h/Thread.h **** class _thread {
  10:src/../h/Thread.h **** public:
  11:src/../h/Thread.h **** 
  12:src/../h/Thread.h **** 	void* operator new(size_t size){
  13:src/../h/Thread.h **** 		void* ptr = MemoryAllocator::kmalloc(size);
  14:src/../h/Thread.h **** 		return ptr;
  15:src/../h/Thread.h **** 	}
  16:src/../h/Thread.h ****     ~_thread() {delete stack;};
  17:src/../h/Thread.h ****     using Body = void (*)(void*);
  18:src/../h/Thread.h **** 
  19:src/../h/Thread.h ****     static _thread* createThread(Body body, void* args, void* stack);
  20:src/../h/Thread.h ****     
  21:src/../h/Thread.h ****     static _thread* running;
  22:src/../h/Thread.h **** 
  23:src/../h/Thread.h **** 
  24:src/../h/Thread.h **** 
  25:src/../h/Thread.h ****     static void dispatch();
  26:src/../h/Thread.h **** 
  27:src/../h/Thread.h ****     bool isFinished(){return finished;};
  28:src/../h/Thread.h **** 	
  29:src/../h/Thread.h **** 	uint64 getTimeSlice() const {
  30:src/../h/Thread.h **** 		return timeSlice;
  31:src/../h/Thread.h **** 	}
  32:src/../h/Thread.h ****     void setFinished(bool finished){_thread::finished = finished;};
 479              		.loc 4 32 37
 480              		.loc 4 32 55 is_stmt 0
 481 01d8 13071000 		li	a4,1
 482              	.LVL27:
 483 01dc A380E704 		sb	a4,65(a5)
 484              	.LVL28:
 485              	.LBE192:
 486              	.LBE191:
  50:src/riscv.cpp **** 				}else {
 487              		.loc 1 50 6 is_stmt 1
 488              	.LBB193:
 489              	.LBB194:
 170:src/../h/riscv.h ****     }
 490              		.loc 2 170 9
 491 01e0 93070000 		li	a5,0
 492              	 #APP
 493              	# 170 "src/../h/riscv.h" 1
 494              		mv a0, a5
GAS LISTING C:\msys64\tmp\ccJBuPX0.s 			page 18


 495              	# 0 "" 2
 496              	.LVL29:
 497              	 #NO_APP
 498              	.L23:
 499              	.LBE194:
 500              	.LBE193:
  56:src/riscv.cpp **** 				break;
 501              		.loc 1 56 5
  56:src/riscv.cpp **** 				break;
 502              		.loc 1 56 22 is_stmt 0
 503 01e8 97000000 		call	_ZN7_thread8dispatchEv
 503      E7800000 
 504              	.LVL30:
  57:src/riscv.cpp **** 			}
 505              		.loc 1 57 5 is_stmt 1
 506 01f0 6FF09FF1 		j	.L5
 507              	.LVL31:
 508              	.L22:
  52:src/riscv.cpp **** 				}
 509              		.loc 1 52 6
 510              	.LBB195:
 511              	.LBB196:
 170:src/../h/riscv.h ****     }
 512              		.loc 2 170 9
 513 01f4 9307F0FF 		li	a5,-1
 514              	 #APP
 515              	# 170 "src/../h/riscv.h" 1
 516              		mv a0, a5
 517              	# 0 "" 2
 518              		.loc 2 171 5 is_stmt 0
 519              	 #NO_APP
 520 01fc 6FF0DFFE 		j	.L23
 521              	.LVL32:
 522              	.L14:
 523              	.LBE196:
 524              	.LBE195:
  59:src/riscv.cpp **** 				_thread::timeSliceCounter = 0;
 525              		.loc 1 59 4 is_stmt 1
  59:src/riscv.cpp **** 				_thread::timeSliceCounter = 0;
 526              		.loc 1 59 15
  60:src/riscv.cpp **** 				_thread::dispatch();
 527              		.loc 1 60 5
  60:src/riscv.cpp **** 				_thread::dispatch();
 528              		.loc 1 60 31 is_stmt 0
 529 0200 97070000 		sd	zero,_ZN7_thread16timeSliceCounterE,a5
 529      23B00700 
  61:src/riscv.cpp **** 				break;
 530              		.loc 1 61 5 is_stmt 1
  61:src/riscv.cpp **** 				break;
 531              		.loc 1 61 22 is_stmt 0
 532 0208 97000000 		call	_ZN7_thread8dispatchEv
 532      E7800000 
 533              	.LVL33:
  62:src/riscv.cpp **** 			}
 534              		.loc 1 62 5 is_stmt 1
 535 0210 6FF09FEF 		j	.L5
 536              	.LVL34:
GAS LISTING C:\msys64\tmp\ccJBuPX0.s 			page 19


 537              	.L13:
  64:src/riscv.cpp **** 				_sem** handle = (_sem**) a1;
 538              		.loc 1 64 4
  64:src/riscv.cpp **** 				_sem** handle = (_sem**) a1;
 539              		.loc 1 64 15
 540              	.LBB197:
  65:src/riscv.cpp **** 
 541              		.loc 1 65 5
  68:src/riscv.cpp **** 
 542              		.loc 1 68 5
 543              	.LBB198:
 544              	.LBB199:
 545              		.file 5 "src/../h/Semaphore.h"
   1:src/../h/Semaphore.h **** //
   2:src/../h/Semaphore.h **** // Created by os on 4/6/26.
   3:src/../h/Semaphore.h **** //
   4:src/../h/Semaphore.h **** 
   5:src/../h/Semaphore.h **** #ifndef PROJECT_BASE_V1_1_SEMAPHORE_H
   6:src/../h/Semaphore.h **** #define PROJECT_BASE_V1_1_SEMAPHORE_H
   7:src/../h/Semaphore.h **** #include "../lib/hw.h"
   8:src/../h/Semaphore.h **** #include "../h/MemoryAllocator.h"
   9:src/../h/Semaphore.h **** class _thread;
  10:src/../h/Semaphore.h **** 
  11:src/../h/Semaphore.h **** class _sem {
  12:src/../h/Semaphore.h **** public:
  13:src/../h/Semaphore.h **** 
  14:src/../h/Semaphore.h ****     void* operator new(size_t size){
  15:src/../h/Semaphore.h ****         void* ptr = MemoryAllocator::kmalloc(size);
 546              		.loc 5 15 9
 547              		.loc 5 15 45 is_stmt 0
 548 0214 13050002 		li	a0,32
 549 0218 97000000 		call	_ZN15MemoryAllocator7kmallocEm
 549      E7800000 
 550              	.LVL35:
 551              	.LEHE0:
 552 0220 93090500 		mv	s3,a0
 553              	.LVL36:
  16:src/../h/Semaphore.h ****         return ptr;
 554              		.loc 5 16 9 is_stmt 1
 555              	.LBE199:
 556              	.LBE198:
  68:src/riscv.cpp **** 
 557              		.loc 1 68 26 is_stmt 0
 558 0224 9B050900 		sext.w	a1,s2
 559              	.LEHB1:
 560 0228 97000000 		call	_ZN4_semC1Ei
 560      E7800000 
 561              	.LVL37:
 562              	.LEHE1:
  68:src/riscv.cpp **** 
 563              		.loc 1 68 13 discriminator 2
 564 0230 23B03401 		sd	s3,0(s1)
  70:src/riscv.cpp **** 					writeARegister(0, 0);
 565              		.loc 1 70 5 is_stmt 1 discriminator 2
 566 0234 63880900 		beq	s3,zero,.L24
  71:src/riscv.cpp **** 				} else
 567              		.loc 1 71 6
GAS LISTING C:\msys64\tmp\ccJBuPX0.s 			page 20


 568              	.LVL38:
 569              	.LBB200:
 570              	.LBB201:
 170:src/../h/riscv.h ****     }
 571              		.loc 2 170 9
 572 0238 93070000 		li	a5,0
 573              	 #APP
 574              	# 170 "src/../h/riscv.h" 1
 575              		mv a0, a5
 576              	# 0 "" 2
 577              		.loc 2 171 5 is_stmt 0
 578              	 #NO_APP
 579 0240 6FF09FEC 		j	.L5
 580              	.LVL39:
 581              	.L24:
 582              	.LBE201:
 583              	.LBE200:
  73:src/riscv.cpp **** 				break;
 584              		.loc 1 73 6 is_stmt 1
 585              	.LBB202:
 586              	.LBB203:
 170:src/../h/riscv.h ****     }
 587              		.loc 2 170 9
 588 0244 9307F0FF 		li	a5,-1
 589              	 #APP
 590              	# 170 "src/../h/riscv.h" 1
 591              		mv a0, a5
 592              	# 0 "" 2
 593              		.loc 2 171 5 is_stmt 0
 594              	 #NO_APP
 595 024c 6FF0DFEB 		j	.L5
 596              	.LVL40:
 597              	.L12:
 598              	.LBE203:
 599              	.LBE202:
 600              	.LBE197:
  76:src/riscv.cpp **** 				_sem* s = (_sem*)a1;
 601              		.loc 1 76 4 is_stmt 1
  76:src/riscv.cpp **** 				_sem* s = (_sem*)a1;
 602              		.loc 1 76 15
 603              	.LBB204:
  77:src/riscv.cpp **** 				if (s == nullptr) {
 604              		.loc 1 77 5
  78:src/riscv.cpp **** 					writeARegister(0, -1);
 605              		.loc 1 78 5
 606 0250 63980400 		bne	s1,zero,.L25
  79:src/riscv.cpp **** 				}else {
 607              		.loc 1 79 6
 608              	.LVL41:
 609              	.LBB205:
 610              	.LBB206:
 170:src/../h/riscv.h ****     }
 611              		.loc 2 170 9
 612 0254 9307F0FF 		li	a5,-1
 613              	 #APP
 614              	# 170 "src/../h/riscv.h" 1
 615              		mv a0, a5
GAS LISTING C:\msys64\tmp\ccJBuPX0.s 			page 21


 616              	# 0 "" 2
 617              		.loc 2 171 5 is_stmt 0
 618              	 #NO_APP
 619 025c 6FF0DFEA 		j	.L5
 620              	.LVL42:
 621              	.L25:
 622              	.LBE206:
 623              	.LBE205:
  81:src/riscv.cpp **** 					delete s;
 624              		.loc 1 81 6 is_stmt 1
  81:src/riscv.cpp **** 					delete s;
 625              		.loc 1 81 32 is_stmt 0
 626 0260 13850400 		mv	a0,s1
 627              	.LEHB2:
 628 0264 97000000 		call	_ZN4_sem5closeEv
 628      E7800000 
 629              	.LVL43:
 630              	.LBB207:
 631              	.LBB208:
 170:src/../h/riscv.h ****     }
 632              		.loc 2 170 9 is_stmt 1
 633              	 #APP
 634              	# 170 "src/../h/riscv.h" 1
 635              		mv a0, a0
 636              	# 0 "" 2
 637              	.LVL44:
 638              	 #NO_APP
 639              	.LBE208:
 640              	.LBE207:
  82:src/riscv.cpp **** 				}
 641              		.loc 1 82 6
  82:src/riscv.cpp **** 				}
 642              		.loc 1 82 13 is_stmt 0
 643 0270 13850400 		mv	a0,s1
 644 0274 97000000 		call	_ZdlPv
 644      E7800000 
 645              	.LVL45:
 646 027c 6FF0DFE8 		j	.L5
 647              	.LVL46:
 648              	.L11:
 649              	.LBE204:
  87:src/riscv.cpp **** 				_sem* s = (_sem*)a1;
 650              		.loc 1 87 4 is_stmt 1
  87:src/riscv.cpp **** 				_sem* s = (_sem*)a1;
 651              		.loc 1 87 15
 652              	.LBB209:
  88:src/riscv.cpp **** 				if (s == nullptr) {
 653              		.loc 1 88 5
  89:src/riscv.cpp **** 					writeARegister(0, -1);
 654              		.loc 1 89 5
 655 0280 63980400 		bne	s1,zero,.L26
  90:src/riscv.cpp **** 				}else {
 656              		.loc 1 90 6
 657              	.LVL47:
 658              	.LBB210:
 659              	.LBB211:
 170:src/../h/riscv.h ****     }
GAS LISTING C:\msys64\tmp\ccJBuPX0.s 			page 22


 660              		.loc 2 170 9
 661 0284 9307F0FF 		li	a5,-1
 662              	 #APP
 663              	# 170 "src/../h/riscv.h" 1
 664              		mv a0, a5
 665              	# 0 "" 2
 666              		.loc 2 171 5 is_stmt 0
 667              	 #NO_APP
 668 028c 6FF0DFE7 		j	.L5
 669              	.LVL48:
 670              	.L26:
 671              	.LBE211:
 672              	.LBE210:
  92:src/riscv.cpp **** 				}
 673              		.loc 1 92 6 is_stmt 1
  92:src/riscv.cpp **** 				}
 674              		.loc 1 92 31 is_stmt 0
 675 0290 13850400 		mv	a0,s1
 676 0294 97000000 		call	_ZN4_sem4waitEv
 676      E7800000 
 677              	.LVL49:
 678              	.LBB212:
 679              	.LBB213:
 170:src/../h/riscv.h ****     }
 680              		.loc 2 170 9 is_stmt 1
 681              	 #APP
 682              	# 170 "src/../h/riscv.h" 1
 683              		mv a0, a0
 684              	# 0 "" 2
 685              		.loc 2 171 5 is_stmt 0
 686              	 #NO_APP
 687 02a0 6FF09FE6 		j	.L5
 688              	.LVL50:
 689              	.L10:
 690              	.LBE213:
 691              	.LBE212:
 692              	.LBE209:
  97:src/riscv.cpp **** 				_sem* s = (_sem*)a1;
 693              		.loc 1 97 4 is_stmt 1
  97:src/riscv.cpp **** 				_sem* s = (_sem*)a1;
 694              		.loc 1 97 15
 695              	.LBB214:
  98:src/riscv.cpp **** 				if (s == nullptr) {
 696              		.loc 1 98 5
  99:src/riscv.cpp **** 					writeARegister(0, -1);
 697              		.loc 1 99 5
 698 02a4 63980400 		bne	s1,zero,.L27
 100:src/riscv.cpp **** 				}else {
 699              		.loc 1 100 6
 700              	.LVL51:
 701              	.LBB215:
 702              	.LBB216:
 170:src/../h/riscv.h ****     }
 703              		.loc 2 170 9
 704 02a8 9307F0FF 		li	a5,-1
 705              	 #APP
 706              	# 170 "src/../h/riscv.h" 1
GAS LISTING C:\msys64\tmp\ccJBuPX0.s 			page 23


 707              		mv a0, a5
 708              	# 0 "" 2
 709              		.loc 2 171 5 is_stmt 0
 710              	 #NO_APP
 711 02b0 6FF09FE5 		j	.L5
 712              	.LVL52:
 713              	.L27:
 714              	.LBE216:
 715              	.LBE215:
 102:src/riscv.cpp **** 				}
 716              		.loc 1 102 6 is_stmt 1
 102:src/riscv.cpp **** 				}
 717              		.loc 1 102 33 is_stmt 0
 718 02b4 13850400 		mv	a0,s1
 719 02b8 97000000 		call	_ZN4_sem6signalEv
 719      E7800000 
 720              	.LVL53:
 721              	.LBB217:
 722              	.LBB218:
 170:src/../h/riscv.h ****     }
 723              		.loc 2 170 9 is_stmt 1
 724              	 #APP
 725              	# 170 "src/../h/riscv.h" 1
 726              		mv a0, a0
 727              	# 0 "" 2
 728              		.loc 2 171 5 is_stmt 0
 729              	 #NO_APP
 730 02c4 6FF05FE4 		j	.L5
 731              	.LVL54:
 732              	.L9:
 733              	.LBE218:
 734              	.LBE217:
 735              	.LBE214:
 106:src/riscv.cpp **** 				if (_thread::running == nullptr) {
 736              		.loc 1 106 4 is_stmt 1
 106:src/riscv.cpp **** 				if (_thread::running == nullptr) {
 737              		.loc 1 106 15
 107:src/riscv.cpp **** 					writeARegister(0, -1);
 738              		.loc 1 107 5
 107:src/riscv.cpp **** 					writeARegister(0, -1);
 739              		.loc 1 107 26 is_stmt 0
 740 02c8 17050000 		ld	a0,_ZN7_thread7runningE
 740      03350500 
 107:src/riscv.cpp **** 					writeARegister(0, -1);
 741              		.loc 1 107 5
 742 02d0 630E0500 		beq	a0,zero,.L45
 110:src/riscv.cpp **** 					writeARegister(0, 0);
 743              		.loc 1 110 6 is_stmt 1
 110:src/riscv.cpp **** 					writeARegister(0, 0);
 744              		.loc 1 110 36 is_stmt 0
 745 02d4 93850400 		mv	a1,s1
 746              	.LVL55:
 747 02d8 97000000 		call	_ZN7_thread10time_sleepEm
 747      E7800000 
 748              	.LVL56:
 111:src/riscv.cpp **** 				}
 749              		.loc 1 111 6 is_stmt 1
GAS LISTING C:\msys64\tmp\ccJBuPX0.s 			page 24


 750              	.LBB219:
 751              	.LBB220:
 170:src/../h/riscv.h ****     }
 752              		.loc 2 170 9
 753 02e0 93070000 		li	a5,0
 754              	 #APP
 755              	# 170 "src/../h/riscv.h" 1
 756              		mv a0, a5
 757              	# 0 "" 2
 758              		.loc 2 171 5 is_stmt 0
 759              	 #NO_APP
 760 02e8 6FF01FE2 		j	.L5
 761              	.LVL57:
 762              	.L45:
 763              	.LBE220:
 764              	.LBE219:
 108:src/riscv.cpp **** 				}else {
 765              		.loc 1 108 6 is_stmt 1
 766              	.LBB221:
 767              	.LBB222:
 170:src/../h/riscv.h ****     }
 768              		.loc 2 170 9
 769 02ec 9307F0FF 		li	a5,-1
 770              	 #APP
 771              	# 170 "src/../h/riscv.h" 1
 772              		mv a0, a5
 773              	# 0 "" 2
 774              		.loc 2 171 5 is_stmt 0
 775              	 #NO_APP
 776 02f4 6FF05FE1 		j	.L5
 777              	.LVL58:
 778              	.L8:
 779              	.LBE222:
 780              	.LBE221:
 116:src/riscv.cpp **** 				char c = _console::getc();
 781              		.loc 1 116 4 is_stmt 1
 116:src/riscv.cpp **** 				char c = _console::getc();
 782              		.loc 1 116 15
 783              	.LBB223:
 117:src/riscv.cpp **** 				writeARegister(0, (uint64)c);
 784              		.loc 1 117 5
 117:src/riscv.cpp **** 				writeARegister(0, (uint64)c);
 785              		.loc 1 117 28 is_stmt 0
 786 02f8 97000000 		call	_ZN8_console4getcEv
 786      E7800000 
 787              	.LVL59:
 118:src/riscv.cpp **** 				break;
 788              		.loc 1 118 5 is_stmt 1
 789              	.LBB224:
 790              	.LBB225:
 170:src/../h/riscv.h ****     }
 791              		.loc 2 170 9
 792              	 #APP
 793              	# 170 "src/../h/riscv.h" 1
 794              		mv a0, a0
 795              	# 0 "" 2
 796              		.loc 2 171 5 is_stmt 0
GAS LISTING C:\msys64\tmp\ccJBuPX0.s 			page 25


 797              	 #NO_APP
 798 0304 6FF05FE0 		j	.L5
 799              	.LVL60:
 800              	.L6:
 801              	.LBE225:
 802              	.LBE224:
 803              	.LBE223:
 122:src/riscv.cpp **** 				char c = (char)a1; // Karakter koji je korisnik prosledio
 804              		.loc 1 122 4 is_stmt 1
 122:src/riscv.cpp **** 				char c = (char)a1; // Karakter koji je korisnik prosledio
 805              		.loc 1 122 15
 806              	.LBB226:
 123:src/riscv.cpp **** 				_console::putc(c);
 807              		.loc 1 123 5
 124:src/riscv.cpp **** 				break;
 808              		.loc 1 124 5
 124:src/riscv.cpp **** 				break;
 809              		.loc 1 124 19 is_stmt 0
 810 0308 13F5F40F 		andi	a0,s1,0xff
 811 030c 97000000 		call	_ZN8_console4putcEc
 811      E7800000 
 812              	.LVL61:
 125:src/riscv.cpp **** 			}
 813              		.loc 1 125 5 is_stmt 1
 814 0314 6FF05FDF 		j	.L5
 815              	.LVL62:
 816              	.L44:
 817              	.LBE226:
 818              	.LBE232:
 819              	.LBE234:
 820              	.LBB235:
 821              	.LBB148:
 136:src/riscv.cpp **** 
 822              		.loc 1 136 6
 136:src/riscv.cpp **** 
 823              		.loc 1 136 26 is_stmt 0
 824 0318 97000000 		call	plic_claim
 824      E7800000 
 825              	.LVL63:
 826 0320 13090500 		mv	s2,a0
 827              	.LVL64:
 138:src/riscv.cpp **** 
 828              		.loc 1 138 6 is_stmt 1
 829              	.LBB149:
 830 0324 9307A000 		li	a5,10
 831 0328 630CF504 		beq	a0,a5,.L33
 832              	.LVL65:
 833              	.L31:
 834              	.LBE149:
 155:src/riscv.cpp ****     } else if (scause == 0x8000000000000001UL) {
 835              		.loc 1 155 6
 155:src/riscv.cpp ****     } else if (scause == 0x8000000000000001UL) {
 836              		.loc 1 155 19 is_stmt 0
 837 032c 13050900 		mv	a0,s2
 838 0330 97000000 		call	plic_complete
 838      E7800000 
 839              	.LVL66:
GAS LISTING C:\msys64\tmp\ccJBuPX0.s 			page 26


 840              	.LBE148:
 841 0338 6FF01FDE 		j	.L3
 842              	.L46:
 843              	.LBB166:
 844              	.LBB165:
 845              	.LBB150:
 846              	.LBB151:
 142:src/riscv.cpp ****     		_console::getInBuff()->put(c);
 847              		.loc 1 142 7 is_stmt 1
 142:src/riscv.cpp ****     		_console::getInBuff()->put(c);
 848              		.loc 1 142 16 is_stmt 0
 849 033c 97070000 		ld	a5,CONSOLE_RX_DATA
 849      83B70700 
 142:src/riscv.cpp ****     		_console::getInBuff()->put(c);
 850              		.loc 1 142 50
 851 0344 83C40700 		lbu	s1,0(a5)
 852 0348 93F4F40F 		andi	s1,s1,0xff
 853              	.LVL67:
 143:src/riscv.cpp ****     		_console::getInSem()->signal();
 854              		.loc 1 143 7 is_stmt 1
 855              	.LBB152:
 856              	.LBB153:
 857              		.file 6 "src/../h/Console.h"
   1:src/../h/Console.h **** #ifndef PROJEKAT_CONSOLE_H
   2:src/../h/Console.h **** #define PROJEKAT_CONSOLE_H
   3:src/../h/Console.h **** 
   4:src/../h/Console.h **** #include "../h/Semaphore.h"
   5:src/../h/Console.h **** #include "../h/Buffer.h"
   6:src/../h/Console.h **** 
   7:src/../h/Console.h **** class _console {
   8:src/../h/Console.h **** public:
   9:src/../h/Console.h ****     // Zabrana pravljenja objekata klase Console
  10:src/../h/Console.h ****     _console() = delete;
  11:src/../h/Console.h ****     _console(const _console&) = delete;
  12:src/../h/Console.h ****     _console& operator=(const _console&) = delete;
  13:src/../h/Console.h **** 
  14:src/../h/Console.h **** 
  15:src/../h/Console.h ****     // Sistemski pozivi (0x41 i 0x42)
  16:src/../h/Console.h ****     static char getc();
  17:src/../h/Console.h ****     static void putc(char c);
  18:src/../h/Console.h **** 
  19:src/../h/Console.h ****     // Geteri za prekidnu rutinu (console_handler)
  20:src/../h/Console.h ****     static Buffer* getInBuff() { ensureInit(); return inbuff; }
 858              		.loc 6 20 34
 859              		.loc 6 20 44 is_stmt 0
 860 034c 97000000 		call	_ZN8_console10ensureInitEv
 860      E7800000 
 861              	.LVL68:
 862              		.loc 6 20 48 is_stmt 1
 863              	.LBE153:
 864              	.LBE152:
 143:src/riscv.cpp ****     		_console::getInSem()->signal();
 865              		.loc 1 143 33 is_stmt 0
 866 0354 93850400 		mv	a1,s1
 867 0358 17050000 		ld	a0,_ZN8_console6inbuffE
 867      03350500 
 868 0360 97000000 		call	_ZN6Buffer3putEc
GAS LISTING C:\msys64\tmp\ccJBuPX0.s 			page 27


 868      E7800000 
 869              	.LVL69:
 144:src/riscv.cpp ****     	}
 870              		.loc 1 144 7 is_stmt 1
 871              	.LBB154:
 872              	.LBB155:
  21:src/../h/Console.h ****     static Buffer* getOutBuff() { ensureInit(); return outbuff; }
  22:src/../h/Console.h ****     static _sem* getInSem() { ensureInit(); return inSem; }
 873              		.loc 6 22 31
 874              		.loc 6 22 41 is_stmt 0
 875 0368 97000000 		call	_ZN8_console10ensureInitEv
 875      E7800000 
 876              	.LVL70:
 877              		.loc 6 22 45 is_stmt 1
 878              	.LBE155:
 879              	.LBE154:
 144:src/riscv.cpp ****     	}
 880              		.loc 1 144 35 is_stmt 0
 881 0370 17050000 		ld	a0,_ZN8_console5inSemE
 881      03350500 
 882 0378 97000000 		call	_ZN4_sem6signalEv
 882      E7800000 
 883              	.LVL71:
 884              	.L33:
 885              	.LBE151:
 141:src/riscv.cpp ****     		char c = *((volatile uint8*)CONSOLE_RX_DATA);
 886              		.loc 1 141 6 is_stmt 1
 141:src/riscv.cpp ****     		char c = *((volatile uint8*)CONSOLE_RX_DATA);
 887              		.loc 1 141 57
 141:src/riscv.cpp ****     		char c = *((volatile uint8*)CONSOLE_RX_DATA);
 888              		.loc 1 141 14 is_stmt 0
 889 0380 97040000 		ld	s1,CONSOLE_STATUS
 889      83B40400 
 890 0388 83C70400 		lbu	a5,0(s1)
 141:src/riscv.cpp ****     		char c = *((volatile uint8*)CONSOLE_RX_DATA);
 891              		.loc 1 141 57
 892 038c 93F71700 		andi	a5,a5,1
 893 0390 63800702 		beq	a5,zero,.L34
 894              	.LBB156:
 895              	.LBB157:
  20:src/../h/Console.h ****     static Buffer* getOutBuff() { ensureInit(); return outbuff; }
 896              		.loc 6 20 34 is_stmt 1
  20:src/../h/Console.h ****     static Buffer* getOutBuff() { ensureInit(); return outbuff; }
 897              		.loc 6 20 44 is_stmt 0
 898 0394 97000000 		call	_ZN8_console10ensureInitEv
 898      E7800000 
 899              	.LVL72:
  20:src/../h/Console.h ****     static Buffer* getOutBuff() { ensureInit(); return outbuff; }
 900              		.loc 6 20 48 is_stmt 1
 901              	.LBE157:
 902              	.LBE156:
 141:src/riscv.cpp ****     		char c = *((volatile uint8*)CONSOLE_RX_DATA);
 903              		.loc 1 141 90 is_stmt 0
 904 039c 17050000 		ld	a0,_ZN8_console6inbuffE
 904      03350500 
 905 03a4 97000000 		call	_ZN6Buffer6isFullEv
 905      E7800000 
GAS LISTING C:\msys64\tmp\ccJBuPX0.s 			page 28


 906              	.LVL73:
 141:src/riscv.cpp ****     		char c = *((volatile uint8*)CONSOLE_RX_DATA);
 907              		.loc 1 141 57
 908 03ac E30805F8 		beq	a0,zero,.L46
 909              	.L34:
 148:src/riscv.cpp ****     		char c = _console::getOutBuff()->get();
 910              		.loc 1 148 6 is_stmt 1
 148:src/riscv.cpp ****     		char c = _console::getOutBuff()->get();
 911              		.loc 1 148 57
 148:src/riscv.cpp ****     		char c = _console::getOutBuff()->get();
 912              		.loc 1 148 14 is_stmt 0
 913 03b0 83C70400 		lbu	a5,0(s1)
 148:src/riscv.cpp ****     		char c = _console::getOutBuff()->get();
 914              		.loc 1 148 57
 915 03b4 93F70702 		andi	a5,a5,32
 916 03b8 E38A07F6 		beq	a5,zero,.L31
 917              	.LBB158:
 918              	.LBB159:
  21:src/../h/Console.h ****     static _sem* getInSem() { ensureInit(); return inSem; }
 919              		.loc 6 21 35 is_stmt 1
  21:src/../h/Console.h ****     static _sem* getInSem() { ensureInit(); return inSem; }
 920              		.loc 6 21 45 is_stmt 0
 921 03bc 97000000 		call	_ZN8_console10ensureInitEv
 921      E7800000 
 922              	.LVL74:
  21:src/../h/Console.h ****     static _sem* getInSem() { ensureInit(); return inSem; }
 923              		.loc 6 21 49 is_stmt 1
 924              	.LBE159:
 925              	.LBE158:
 148:src/riscv.cpp ****     		char c = _console::getOutBuff()->get();
 926              		.loc 1 148 92 is_stmt 0
 927 03c4 17050000 		ld	a0,_ZN8_console7outbuffE
 927      03350500 
 928 03cc 97000000 		call	_ZN6Buffer7isEmptyEv
 928      E7800000 
 929              	.LVL75:
 148:src/riscv.cpp ****     		char c = _console::getOutBuff()->get();
 930              		.loc 1 148 57
 931 03d4 E31C05F4 		bne	a0,zero,.L31
 932              	.LBB160:
 149:src/riscv.cpp ****     		*((volatile uint8*)CONSOLE_TX_DATA) = (uint8)c;
 933              		.loc 1 149 7 is_stmt 1
 934              	.LBB161:
 935              	.LBB162:
  21:src/../h/Console.h ****     static _sem* getInSem() { ensureInit(); return inSem; }
 936              		.loc 6 21 35
  21:src/../h/Console.h ****     static _sem* getInSem() { ensureInit(); return inSem; }
 937              		.loc 6 21 45 is_stmt 0
 938 03d8 97000000 		call	_ZN8_console10ensureInitEv
 938      E7800000 
 939              	.LVL76:
  21:src/../h/Console.h ****     static _sem* getInSem() { ensureInit(); return inSem; }
 940              		.loc 6 21 49 is_stmt 1
 941              	.LBE162:
 942              	.LBE161:
 149:src/riscv.cpp ****     		*((volatile uint8*)CONSOLE_TX_DATA) = (uint8)c;
 943              		.loc 1 149 43 is_stmt 0
GAS LISTING C:\msys64\tmp\ccJBuPX0.s 			page 29


 944 03e0 17050000 		ld	a0,_ZN8_console7outbuffE
 944      03350500 
 945 03e8 97000000 		call	_ZN6Buffer3getEv
 945      E7800000 
 946              	.LVL77:
 150:src/riscv.cpp ****     		_console::getOutSem()->signal();
 947              		.loc 1 150 7 is_stmt 1
 948 03f0 97070000 		ld	a5,CONSOLE_TX_DATA
 948      83B70700 
 150:src/riscv.cpp ****     		_console::getOutSem()->signal();
 949              		.loc 1 150 43 is_stmt 0
 950 03f8 2380A700 		sb	a0,0(a5)
 151:src/riscv.cpp ****     	}
 951              		.loc 1 151 7 is_stmt 1
 952              	.LBB163:
 953              	.LBB164:
  23:src/../h/Console.h ****     static _sem* getOutSem() { ensureInit(); return outSem; }
 954              		.loc 6 23 32
 955              		.loc 6 23 42 is_stmt 0
 956 03fc 97000000 		call	_ZN8_console10ensureInitEv
 956      E7800000 
 957              	.LVL78:
 958              		.loc 6 23 46 is_stmt 1
 959              	.LBE164:
 960              	.LBE163:
 151:src/riscv.cpp ****     	}
 961              		.loc 1 151 36 is_stmt 0
 962 0404 17050000 		ld	a0,_ZN8_console6outSemE
 962      03350500 
 963 040c 97000000 		call	_ZN4_sem6signalEv
 963      E7800000 
 964              	.LVL79:
 965              	.LBE160:
 148:src/riscv.cpp ****     		char c = _console::getOutBuff()->get();
 966              		.loc 1 148 6
 967 0414 6FF0DFF9 		j	.L34
 968              	.LVL80:
 969              	.L37:
 970              	.LBE150:
 971              	.LBE165:
 972              	.LBE166:
 973              	.LBB167:
 974              	.LBB146:
 975              	.LBB130:
 976              	.LBB129:
 977              	.LBB120:
 978              	.LBB121:
 979              	.LBB122:
  12:src/../h/Scheduler.h **** 
 980              		.loc 3 12 61 is_stmt 1
 981              	.LBE122:
 982              	.LBE121:
 170:src/riscv.cpp ****     		}
 983              		.loc 1 170 33 is_stmt 0
 984 0418 17050000 		lla	a0,_ZZN9Scheduler8instanceEvE8instance
 984      13050500 
 985 0420 97000000 		call	_ZN9Scheduler3putEP7_thread
GAS LISTING C:\msys64\tmp\ccJBuPX0.s 			page 30


 985      E7800000 
 986              	.LVL81:
 987              	.L38:
 988              	.LBE120:
 163:src/riscv.cpp ****     			_thread* t = _thread::sleepingHead;
 989              		.loc 1 163 7 is_stmt 1
 163:src/riscv.cpp ****     			_thread* t = _thread::sleepingHead;
 990              		.loc 1 163 36
 163:src/riscv.cpp ****     			_thread* t = _thread::sleepingHead;
 991              		.loc 1 163 23 is_stmt 0
 992 0428 97050000 		ld	a1,_ZN7_thread12sleepingHeadE
 992      83B50500 
 163:src/riscv.cpp ****     			_thread* t = _thread::sleepingHead;
 993              		.loc 1 163 36
 994 0430 63880504 		beq	a1,zero,.L35
 163:src/riscv.cpp ****     			_thread* t = _thread::sleepingHead;
 995              		.loc 1 163 64 discriminator 1
 996 0434 83B78504 		ld	a5,72(a1)
 163:src/riscv.cpp ****     			_thread* t = _thread::sleepingHead;
 997              		.loc 1 163 36 discriminator 1
 998 0438 63940704 		bne	a5,zero,.L35
 999              	.LBB128:
 164:src/riscv.cpp **** 
 1000              		.loc 1 164 8 is_stmt 1
 1001              	.LVL82:
 166:src/riscv.cpp **** 
 1002              		.loc 1 166 8
 166:src/riscv.cpp **** 
 1003              		.loc 1 166 35 is_stmt 0
 1004 043c 83B78500 		ld	a5,8(a1)
 166:src/riscv.cpp **** 
 1005              		.loc 1 166 30
 1006 0440 17070000 		sd	a5,_ZN7_thread12sleepingHeadE,a4
 1006      2330F700 
 168:src/riscv.cpp ****     			t->isReady = true;
 1007              		.loc 1 168 8 is_stmt 1
 168:src/riscv.cpp ****     			t->isReady = true;
 1008              		.loc 1 168 20 is_stmt 0
 1009 0448 23B40500 		sd	zero,8(a1)
 169:src/riscv.cpp ****     			Scheduler::instance().put(t);
 1010              		.loc 1 169 8 is_stmt 1
 169:src/riscv.cpp ****     			Scheduler::instance().put(t);
 1011              		.loc 1 169 19 is_stmt 0
 1012 044c 93071000 		li	a5,1
 1013 0450 2380F504 		sb	a5,64(a1)
 170:src/riscv.cpp ****     		}
 1014              		.loc 1 170 8 is_stmt 1
 1015              	.LBB127:
 1016              	.LBB126:
  12:src/../h/Scheduler.h **** 
 1017              		.loc 3 12 34
  12:src/../h/Scheduler.h **** 
 1018              		.loc 3 12 51 is_stmt 0
 1019 0454 97070000 		lbu	a5,_ZGVZN9Scheduler8instanceEvE8instance
 1019      83C70700 
 1020 045c E39E07FA 		bne	a5,zero,.L37
 1021              	.LVL83:
GAS LISTING C:\msys64\tmp\ccJBuPX0.s 			page 31


 1022              	.LBB123:
 1023              	.LBB124:
 1024              	.LBB125:
 1025              		.loc 3 22 44
 1026 0460 97070000 		lla	a5,_ZZN9Scheduler8instanceEvE8instance
 1026      93870700 
 1027 0468 23B00700 		sd	zero,0(a5)
 1028 046c 23B40700 		sd	zero,8(a5)
 1029              	.LVL84:
 1030              	.LBE125:
 1031              	.LBE124:
 1032              	.LBE123:
  12:src/../h/Scheduler.h **** 
 1033              		.loc 3 12 51
 1034 0470 93071000 		li	a5,1
 1035 0474 17070000 		sb	a5,_ZGVZN9Scheduler8instanceEvE8instance,a4
 1035      2300F700 
 1036 047c 6FF0DFF9 		j	.L37
 1037              	.LVL85:
 1038              	.L35:
 1039              	.LBE126:
 1040              	.LBE127:
 1041              	.LBE128:
 1042              	.LBE129:
 1043              	.LBE130:
 174:src/riscv.cpp ****     {
 1044              		.loc 1 174 5 is_stmt 1
 1045              	.LBB131:
 174:src/riscv.cpp ****     {
 1046              		.loc 1 174 69 is_stmt 0
 1047 0480 97070000 		ld	a5,_ZN7_thread7runningE
 1047      83B70700 
 1048              	.LVL86:
 1049              	.LBB132:
 1050              	.LBB133:
  30:src/../h/Thread.h **** 	}
 1051              		.loc 4 30 3 is_stmt 1
  30:src/../h/Thread.h **** 	}
 1052              		.loc 4 30 10 is_stmt 0
 1053 0488 83B78703 		ld	a5,56(a5)
 1054              	.LVL87:
 1055              	.LBE133:
 1056              	.LBE132:
 174:src/riscv.cpp ****     {
 1057              		.loc 1 174 34
 1058 048c 17070000 		ld	a4,_ZN7_thread16timeSliceCounterE
 1058      03370700 
 174:src/riscv.cpp ****     {
 1059              		.loc 1 174 5
 1060 0494 6378F700 		bgeu	a4,a5,.L47
 1061              	.L39:
 1062              	.LBE131:
 184:src/riscv.cpp ****     }
 1063              		.loc 1 184 9 is_stmt 1
 1064              	.LVL88:
 1065              	.LBB143:
 1066              	.LBB144:
GAS LISTING C:\msys64\tmp\ccJBuPX0.s 			page 32


 125:src/../h/riscv.h ****     }
 1067              		.loc 2 125 9
 1068 0498 93072000 		li	a5,2
 1069              	 #APP
 1070              	# 125 "src/../h/riscv.h" 1
 1071              		csrc sip, a5
 1072              	# 0 "" 2
 1073              	.LVL89:
 1074              	 #NO_APP
 1075              	.LBE144:
 1076              	.LBE143:
 1077              	.LBE146:
 1078              	.LBE167:
 1079              	.LBE235:
 1080              	.LBE240:
 1081              		.loc 1 186 1 is_stmt 0
 1082 04a0 6FF09FC7 		j	.L3
 1083              	.L47:
 1084              	.LBB241:
 1085              	.LBB236:
 1086              	.LBB168:
 1087              	.LBB147:
 1088              	.LBB145:
 1089              	.LBB134:
 176:src/riscv.cpp ****     	uint64 volatile sstatus = r_sstatus();
 1090              		.loc 1 176 6 is_stmt 1
 1091              	.LBB135:
 1092              	.LBB136:
  84:src/../h/riscv.h ****         __asm__ volatile ("csrr %[sepc], sepc" : [sepc] "=r"(sepc));
 1093              		.loc 2 84 9
  85:src/../h/riscv.h ****         return sepc;
 1094              		.loc 2 85 9
 1095              	 #APP
 1096              	# 85 "src/../h/riscv.h" 1
 1097              		csrr a5, sepc
 1098              	# 0 "" 2
 1099              	 #NO_APP
 1100 04a8 2334F4FC 		sd	a5,-56(s0)
  86:src/../h/riscv.h ****     }
 1101              		.loc 2 86 9
  86:src/../h/riscv.h ****     }
 1102              		.loc 2 86 16 is_stmt 0
 1103 04ac 833784FC 		ld	a5,-56(s0)
 1104              	.LBE136:
 1105              	.LBE135:
 176:src/riscv.cpp ****     	uint64 volatile sstatus = r_sstatus();
 1106              		.loc 1 176 36
 1107 04b0 233CF4F8 		sd	a5,-104(s0)
 177:src/riscv.cpp ****     	_thread::timeSliceCounter = 0;
 1108              		.loc 1 177 6 is_stmt 1
 1109              	.LBB137:
 1110              	.LBB138:
 152:src/../h/riscv.h ****         __asm__ volatile ("csrr %[sstatus], sstatus" : [sstatus] "=r"(sstatus));
 1111              		.loc 2 152 9
 153:src/../h/riscv.h ****         return sstatus;
 1112              		.loc 2 153 9
 1113              	 #APP
GAS LISTING C:\msys64\tmp\ccJBuPX0.s 			page 33


 1114              	# 153 "src/../h/riscv.h" 1
 1115              		csrr a5, sstatus
 1116              	# 0 "" 2
 1117              	 #NO_APP
 1118 04b8 2330F4FC 		sd	a5,-64(s0)
 154:src/../h/riscv.h ****     }
 1119              		.loc 2 154 9
 154:src/../h/riscv.h ****     }
 1120              		.loc 2 154 16 is_stmt 0
 1121 04bc 833704FC 		ld	a5,-64(s0)
 1122              	.LBE138:
 1123              	.LBE137:
 177:src/riscv.cpp ****     	_thread::timeSliceCounter = 0;
 1124              		.loc 1 177 42
 1125 04c0 2330F4FA 		sd	a5,-96(s0)
 178:src/riscv.cpp ****     	_thread::dispatch();
 1126              		.loc 1 178 6 is_stmt 1
 178:src/riscv.cpp ****     	_thread::dispatch();
 1127              		.loc 1 178 32 is_stmt 0
 1128 04c4 97070000 		sd	zero,_ZN7_thread16timeSliceCounterE,a5
 1128      23B00700 
 179:src/riscv.cpp ****     	w_sstatus(sstatus);
 1129              		.loc 1 179 6 is_stmt 1
 179:src/riscv.cpp ****     	w_sstatus(sstatus);
 1130              		.loc 1 179 23 is_stmt 0
 1131 04cc 97000000 		call	_ZN7_thread8dispatchEv
 1131      E7800000 
 1132              	.LVL90:
 180:src/riscv.cpp ****     	w_sepc(sepc);
 1133              		.loc 1 180 6 is_stmt 1
 180:src/riscv.cpp ****     	w_sepc(sepc);
 1134              		.loc 1 180 15 is_stmt 0
 1135 04d4 833704FA 		ld	a5,-96(s0)
 1136              	.LVL91:
 1137              	.LBB139:
 1138              	.LBB140:
 159:src/../h/riscv.h ****     }
 1139              		.loc 2 159 9 is_stmt 1
 1140              	 #APP
 1141              	# 159 "src/../h/riscv.h" 1
 1142              		csrw sstatus, a5
 1143              	# 0 "" 2
 1144              	.LVL92:
 1145              	 #NO_APP
 1146              	.LBE140:
 1147              	.LBE139:
 181:src/riscv.cpp ****     	
 1148              		.loc 1 181 6
 181:src/riscv.cpp ****     	
 1149              		.loc 1 181 12 is_stmt 0
 1150 04dc 833784F9 		ld	a5,-104(s0)
 1151              	.LVL93:
 1152              	.LBB141:
 1153              	.LBB142:
  91:src/../h/riscv.h ****     }
 1154              		.loc 2 91 9 is_stmt 1
 1155              	 #APP
GAS LISTING C:\msys64\tmp\ccJBuPX0.s 			page 34


 1156              	# 91 "src/../h/riscv.h" 1
  92:src/../h/riscv.h **** 
 1157              		csrw sepc, a5
 1158              	# 0 "" 2
 1159              		.loc 2 92 5 is_stmt 0
 1160              	 #NO_APP
 1161 04e4 6FF05FFB 		j	.L39
 1162              	.LVL94:
 1163              	.L41:
 1164              	.LBE142:
 1165              	.LBE141:
 1166              	.LBE134:
 1167              	.LBE145:
 1168              	.LBE147:
 1169              	.LBE168:
 1170              	.LBE236:
 1171              	.LBB237:
 1172              	.LBB233:
 1173              	.LBB227:
  68:src/riscv.cpp **** 
 1174              		.loc 1 68 26
 1175 04e8 93040500 		mv	s1,a0
 1176              	.LVL95:
 1177 04ec 13850900 		mv	a0,s3
 1178 04f0 97000000 		call	_ZdlPv
 1178      E7800000 
 1179              	.LVL96:
 1180 04f8 13850400 		mv	a0,s1
 1181 04fc 97000000 		call	_Unwind_Resume
 1181      E7800000 
 1182              	.LVL97:
 1183              	.LEHE2:
 1184              	.LBE227:
 1185              	.LBE233:
 1186              	.LBE237:
 1187              	.LBE241:
 1188              		.cfi_endproc
 1189              	.LFE35:
 1190              		.globl	__gxx_personality_v0
 1191              		.section	.gcc_except_table,"aw",@progbits
 1192              	.LLSDA35:
 1193 0000 FF       		.byte	0xff
 1194 0001 FF       		.byte	0xff
 1195 0002 03       		.byte	0x3
 1196 0003 27       		.byte	0x27
 1197 0004 00000000 		.4byte	.LEHB0-.LFB35
 1198 0008 00000000 		.4byte	.LEHE0-.LEHB0
 1199 000c 00000000 		.4byte	0
 1200 0010 00       		.byte	0
 1201 0011 00000000 		.4byte	.LEHB1-.LFB35
 1202 0015 00000000 		.4byte	.LEHE1-.LEHB1
 1203 0019 00000000 		.4byte	.L41-.LFB35
 1204 001d 00       		.byte	0
 1205 001e 00000000 		.4byte	.LEHB2-.LFB35
 1206 0022 00000000 		.4byte	.LEHE2-.LEHB2
 1207 0026 00000000 		.4byte	0
 1208 002a 00       		.byte	0
GAS LISTING C:\msys64\tmp\ccJBuPX0.s 			page 35


 1209              		.text
 1211              		.weak	_ZGVZN9Scheduler8instanceEvE8instance
 1212              		.section	.sbss._ZGVZN9Scheduler8instanceEvE8instance,"awG",@nobits,_ZGVZN9Scheduler8instanceEvE8in
 1213              		.align	3
 1216              	_ZGVZN9Scheduler8instanceEvE8instance:
 1217 0000 00000000 		.zero	8
 1217      00000000 
 1218              		.weak	_ZZN9Scheduler8instanceEvE8instance
 1219              		.section	.bss._ZZN9Scheduler8instanceEvE8instance,"awG",@nobits,_ZZN9Scheduler8instanceEvE8instanc
 1220              		.align	3
 1223              	_ZZN9Scheduler8instanceEvE8instance:
 1224 0000 00000000 		.zero	16
 1224      00000000 
 1224      00000000 
 1224      00000000 
 1225              		.text
 1226              	.Letext0:
 1227              		.file 7 "src/../h/../lib/hw.h"
 1228              		.file 8 "src/../h/MemoryAllocator.h"
 1229              		.file 9 "src/../h/../h/Buffer.h"
 6794              		.align	3
 6797              	DW.ref.__gxx_personality_v0:
 6798 0000 00000000 		.dword	__gxx_personality_v0
 6798      00000000 
 6799              		.ident	"GCC: (GNU) 10.1.0"
GAS LISTING C:\msys64\tmp\ccJBuPX0.s 			page 36


DEFINED SYMBOLS
                            *ABS*:0000000000000000 riscv.cpp
C:\msys64\tmp\ccJBuPX0.s:12     .text:0000000000000000 _ZN5Riscv10popSppSpieEv
C:\msys64\tmp\ccJBuPX0.s:16     .text:0000000000000000 .L0 
C:\msys64\tmp\ccJBuPX0.s:17     .text:0000000000000000 .L0 
C:\msys64\tmp\ccJBuPX0.s:18     .text:0000000000000004 .L0 
C:\msys64\tmp\ccJBuPX0.s:20     .text:0000000000000008 .L0 
C:\msys64\tmp\ccJBuPX0.s:22     .text:000000000000000c .L0 
       src/riscv.cpp:9      .text:000000000000000c .L0 
       src/riscv.cpp:10     .text:0000000000000010 .L0 
C:\msys64\tmp\ccJBuPX0.s:34     .text:0000000000000014 .L0 
C:\msys64\tmp\ccJBuPX0.s:35     .text:0000000000000018 .L0 
C:\msys64\tmp\ccJBuPX0.s:36     .text:0000000000000018 .L0 
C:\msys64\tmp\ccJBuPX0.s:38     .text:000000000000001c .L0 
C:\msys64\tmp\ccJBuPX0.s:40     .text:0000000000000020 .L0 
C:\msys64\tmp\ccJBuPX0.s:46     .text:0000000000000020 _ZN5Riscv20handleSupervisorTrapEmmmmmmmm
C:\msys64\tmp\ccJBuPX0.s:49     .text:0000000000000020 .L0 
C:\msys64\tmp\ccJBuPX0.s:6797   .sdata.DW.ref.__gxx_personality_v0:0000000000000000 DW.ref.__gxx_personality_v0
C:\msys64\tmp\ccJBuPX0.s:53     .text:0000000000000020 .L0 
C:\msys64\tmp\ccJBuPX0.s:54     .text:0000000000000024 .L0 
C:\msys64\tmp\ccJBuPX0.s:60     .text:0000000000000038 .L0 
C:\msys64\tmp\ccJBuPX0.s:61     .text:0000000000000038 .L0 
C:\msys64\tmp\ccJBuPX0.s:62     .text:0000000000000038 .L0 
C:\msys64\tmp\ccJBuPX0.s:63     .text:0000000000000038 .L0 
C:\msys64\tmp\ccJBuPX0.s:64     .text:0000000000000038 .L0 
C:\msys64\tmp\ccJBuPX0.s:66     .text:000000000000003c .L0 
C:\msys64\tmp\ccJBuPX0.s:73     .text:0000000000000044 .L0 
C:\msys64\tmp\ccJBuPX0.s:74     .text:0000000000000044 .L0 
    src/../h/riscv.h:73     .text:0000000000000044 .L0 
C:\msys64\tmp\ccJBuPX0.s:83     .text:000000000000004c .L0 
C:\msys64\tmp\ccJBuPX0.s:84     .text:000000000000004c .L0 
C:\msys64\tmp\ccJBuPX0.s:90     .text:0000000000000050 .L0 
C:\msys64\tmp\ccJBuPX0.s:91     .text:0000000000000050 .L0 
C:\msys64\tmp\ccJBuPX0.s:94     .text:0000000000000054 .L0 
C:\msys64\tmp\ccJBuPX0.s:100    .text:000000000000005c .L0 
C:\msys64\tmp\ccJBuPX0.s:110    .text:000000000000006c .L0 
C:\msys64\tmp\ccJBuPX0.s:116    .text:000000000000007c .L0 
C:\msys64\tmp\ccJBuPX0.s:117    .text:000000000000007c .L0 
C:\msys64\tmp\ccJBuPX0.s:124    .text:0000000000000090 .L0 
C:\msys64\tmp\ccJBuPX0.s:125    .text:0000000000000090 .L0 
C:\msys64\tmp\ccJBuPX0.s:127    .text:0000000000000098 .L0 
C:\msys64\tmp\ccJBuPX0.s:130    .text:000000000000009c .L0 
C:\msys64\tmp\ccJBuPX0.s:131    .text:000000000000009c .L0 
C:\msys64\tmp\ccJBuPX0.s:133    .text:00000000000000a0 .L0 
C:\msys64\tmp\ccJBuPX0.s:135    .text:00000000000000a4 .L0 
C:\msys64\tmp\ccJBuPX0.s:136    .text:00000000000000a4 .L0 
C:\msys64\tmp\ccJBuPX0.s:148    .text:00000000000000b0 .L0 
C:\msys64\tmp\ccJBuPX0.s:151    .text:00000000000000b0 .L0 
C:\msys64\tmp\ccJBuPX0.s:152    .text:00000000000000b0 .L0 
    src/../h/riscv.h:85     .text:00000000000000b0 .L0 
C:\msys64\tmp\ccJBuPX0.s:160    .text:00000000000000b8 .L0 
C:\msys64\tmp\ccJBuPX0.s:161    .text:00000000000000b8 .L0 
C:\msys64\tmp\ccJBuPX0.s:165    .text:00000000000000bc .L0 
C:\msys64\tmp\ccJBuPX0.s:167    .text:00000000000000c0 .L0 
C:\msys64\tmp\ccJBuPX0.s:171    .text:00000000000000c4 .L0 
C:\msys64\tmp\ccJBuPX0.s:172    .text:00000000000000c4 .L0 
    src/../h/riscv.h:153    .text:00000000000000c4 .L0 
GAS LISTING C:\msys64\tmp\ccJBuPX0.s 			page 37


C:\msys64\tmp\ccJBuPX0.s:180    .text:00000000000000cc .L0 
C:\msys64\tmp\ccJBuPX0.s:181    .text:00000000000000cc .L0 
C:\msys64\tmp\ccJBuPX0.s:185    .text:00000000000000d0 .L0 
C:\msys64\tmp\ccJBuPX0.s:187    .text:00000000000000d4 .L0 
C:\msys64\tmp\ccJBuPX0.s:272    .text:00000000000000f8 .L0 
C:\msys64\tmp\ccJBuPX0.s:274    .text:00000000000000f8 .L0 
C:\msys64\tmp\ccJBuPX0.s:276    .text:00000000000000f8 .L0 
C:\msys64\tmp\ccJBuPX0.s:277    .text:00000000000000f8 .L0 
C:\msys64\tmp\ccJBuPX0.s:278    .text:00000000000000f8 .L0 
    src/../h/riscv.h:170    .text:0000000000000104 .L0 
C:\msys64\tmp\ccJBuPX0.s:298    .text:0000000000000108 .L0 
C:\msys64\tmp\ccJBuPX0.s:299    .text:0000000000000108 .L0 
    src/../h/riscv.h:159    .text:000000000000010c .L0 
C:\msys64\tmp\ccJBuPX0.s:313    .text:0000000000000110 .L0 
C:\msys64\tmp\ccJBuPX0.s:314    .text:0000000000000110 .L0 
    src/../h/riscv.h:91     .text:0000000000000114 .L0 
C:\msys64\tmp\ccJBuPX0.s:331    .text:0000000000000118 .L0 
C:\msys64\tmp\ccJBuPX0.s:332    .text:000000000000011c .L0 
C:\msys64\tmp\ccJBuPX0.s:333    .text:000000000000011c .L0 
C:\msys64\tmp\ccJBuPX0.s:335    .text:0000000000000120 .L0 
C:\msys64\tmp\ccJBuPX0.s:336    .text:0000000000000120 .L0 
C:\msys64\tmp\ccJBuPX0.s:338    .text:0000000000000124 .L0 
C:\msys64\tmp\ccJBuPX0.s:340    .text:0000000000000128 .L0 
C:\msys64\tmp\ccJBuPX0.s:342    .text:000000000000012c .L0 
C:\msys64\tmp\ccJBuPX0.s:344    .text:0000000000000130 .L0 
C:\msys64\tmp\ccJBuPX0.s:348    .text:0000000000000134 .L0 
C:\msys64\tmp\ccJBuPX0.s:353    .text:0000000000000134 .L0 
C:\msys64\tmp\ccJBuPX0.s:354    .text:0000000000000134 .L0 
C:\msys64\tmp\ccJBuPX0.s:355    .text:0000000000000134 .L0 
C:\msys64\tmp\ccJBuPX0.s:356    .text:0000000000000134 .L0 
    src/../h/riscv.h:170    .text:0000000000000140 .L0 
C:\msys64\tmp\ccJBuPX0.s:368    .text:0000000000000144 .L0 
C:\msys64\tmp\ccJBuPX0.s:374    .text:0000000000000148 .L0 
C:\msys64\tmp\ccJBuPX0.s:376    .text:0000000000000148 .L0 
C:\msys64\tmp\ccJBuPX0.s:377    .text:0000000000000148 .L0 
C:\msys64\tmp\ccJBuPX0.s:378    .text:0000000000000148 .L0 
C:\msys64\tmp\ccJBuPX0.s:379    .text:0000000000000148 .L0 
C:\msys64\tmp\ccJBuPX0.s:380    .text:0000000000000148 .L0 
C:\msys64\tmp\ccJBuPX0.s:382    .text:000000000000014c .L0 
C:\msys64\tmp\ccJBuPX0.s:383    .text:000000000000014c .L0 
C:\msys64\tmp\ccJBuPX0.s:385    .text:0000000000000150 .L0 
C:\msys64\tmp\ccJBuPX0.s:386    .text:0000000000000150 .L0 
C:\msys64\tmp\ccJBuPX0.s:393    .text:0000000000000164 .L0 
C:\msys64\tmp\ccJBuPX0.s:395    .text:0000000000000168 .L0 
C:\msys64\tmp\ccJBuPX0.s:397    .text:000000000000016c .L0 
C:\msys64\tmp\ccJBuPX0.s:402    .text:0000000000000170 .L0 
C:\msys64\tmp\ccJBuPX0.s:403    .text:0000000000000170 .L0 
C:\msys64\tmp\ccJBuPX0.s:1216   .sbss._ZGVZN9Scheduler8instanceEvE8instance:0000000000000000 _ZGVZN9Scheduler8instanceEvE8instance
C:\msys64\tmp\ccJBuPX0.s:404    .text:0000000000000170 .L0 
C:\msys64\tmp\ccJBuPX0.s:1223   .bss._ZZN9Scheduler8instanceEvE8instance:0000000000000000 _ZZN9Scheduler8instanceEvE8instance
C:\msys64\tmp\ccJBuPX0.s:411    .text:000000000000017c .L0 
C:\msys64\tmp\ccJBuPX0.s:419    .text:000000000000018c .L0 
C:\msys64\tmp\ccJBuPX0.s:425    .text:0000000000000198 .L0 
C:\msys64\tmp\ccJBuPX0.s:426    .text:0000000000000198 .L0 
C:\msys64\tmp\ccJBuPX0.s:434    .text:00000000000001ac .L0 
C:\msys64\tmp\ccJBuPX0.s:435    .text:00000000000001ac .L0 
C:\msys64\tmp\ccJBuPX0.s:442    .text:00000000000001b4 .L0 
GAS LISTING C:\msys64\tmp\ccJBuPX0.s 			page 38


C:\msys64\tmp\ccJBuPX0.s:450    .text:00000000000001b8 .L0 
C:\msys64\tmp\ccJBuPX0.s:451    .text:00000000000001b8 .L0 
C:\msys64\tmp\ccJBuPX0.s:458    .text:00000000000001c0 .L0 
C:\msys64\tmp\ccJBuPX0.s:465    .text:00000000000001c4 .L0 
C:\msys64\tmp\ccJBuPX0.s:466    .text:00000000000001c4 .L0 
C:\msys64\tmp\ccJBuPX0.s:467    .text:00000000000001c4 .L0 
C:\msys64\tmp\ccJBuPX0.s:468    .text:00000000000001c4 .L0 
C:\msys64\tmp\ccJBuPX0.s:470    .text:00000000000001cc .L0 
C:\msys64\tmp\ccJBuPX0.s:471    .text:00000000000001cc .L0 
C:\msys64\tmp\ccJBuPX0.s:473    .text:00000000000001d4 .L0 
C:\msys64\tmp\ccJBuPX0.s:479    .text:00000000000001d8 .L0 
C:\msys64\tmp\ccJBuPX0.s:480    .text:00000000000001d8 .L0 
C:\msys64\tmp\ccJBuPX0.s:481    .text:00000000000001d8 .L0 
C:\msys64\tmp\ccJBuPX0.s:490    .text:00000000000001e0 .L0 
C:\msys64\tmp\ccJBuPX0.s:491    .text:00000000000001e0 .L0 
C:\msys64\tmp\ccJBuPX0.s:502    .text:00000000000001e8 .L0 
C:\msys64\tmp\ccJBuPX0.s:503    .text:00000000000001e8 .L0 
C:\msys64\tmp\ccJBuPX0.s:506    .text:00000000000001f0 .L0 
C:\msys64\tmp\ccJBuPX0.s:512    .text:00000000000001f4 .L0 
C:\msys64\tmp\ccJBuPX0.s:513    .text:00000000000001f4 .L0 
C:\msys64\tmp\ccJBuPX0.s:520    .text:00000000000001fc .L0 
C:\msys64\tmp\ccJBuPX0.s:526    .text:0000000000000200 .L0 
C:\msys64\tmp\ccJBuPX0.s:527    .text:0000000000000200 .L0 
C:\msys64\tmp\ccJBuPX0.s:528    .text:0000000000000200 .L0 
C:\msys64\tmp\ccJBuPX0.s:529    .text:0000000000000200 .L0 
C:\msys64\tmp\ccJBuPX0.s:531    .text:0000000000000208 .L0 
C:\msys64\tmp\ccJBuPX0.s:532    .text:0000000000000208 .L0 
C:\msys64\tmp\ccJBuPX0.s:535    .text:0000000000000210 .L0 
C:\msys64\tmp\ccJBuPX0.s:539    .text:0000000000000214 .L0 
C:\msys64\tmp\ccJBuPX0.s:541    .text:0000000000000214 .L0 
C:\msys64\tmp\ccJBuPX0.s:542    .text:0000000000000214 .L0 
C:\msys64\tmp\ccJBuPX0.s:546    .text:0000000000000214 .L0 
C:\msys64\tmp\ccJBuPX0.s:547    .text:0000000000000214 .L0 
C:\msys64\tmp\ccJBuPX0.s:548    .text:0000000000000214 .L0 
C:\msys64\tmp\ccJBuPX0.s:557    .text:0000000000000224 .L0 
C:\msys64\tmp\ccJBuPX0.s:558    .text:0000000000000224 .L0 
C:\msys64\tmp\ccJBuPX0.s:564    .text:0000000000000230 .L0 
C:\msys64\tmp\ccJBuPX0.s:566    .text:0000000000000234 .L0 
C:\msys64\tmp\ccJBuPX0.s:571    .text:0000000000000238 .L0 
C:\msys64\tmp\ccJBuPX0.s:572    .text:0000000000000238 .L0 
C:\msys64\tmp\ccJBuPX0.s:579    .text:0000000000000240 .L0 
C:\msys64\tmp\ccJBuPX0.s:587    .text:0000000000000244 .L0 
C:\msys64\tmp\ccJBuPX0.s:588    .text:0000000000000244 .L0 
C:\msys64\tmp\ccJBuPX0.s:595    .text:000000000000024c .L0 
C:\msys64\tmp\ccJBuPX0.s:602    .text:0000000000000250 .L0 
C:\msys64\tmp\ccJBuPX0.s:604    .text:0000000000000250 .L0 
C:\msys64\tmp\ccJBuPX0.s:605    .text:0000000000000250 .L0 
C:\msys64\tmp\ccJBuPX0.s:606    .text:0000000000000250 .L0 
C:\msys64\tmp\ccJBuPX0.s:611    .text:0000000000000254 .L0 
C:\msys64\tmp\ccJBuPX0.s:612    .text:0000000000000254 .L0 
C:\msys64\tmp\ccJBuPX0.s:619    .text:000000000000025c .L0 
C:\msys64\tmp\ccJBuPX0.s:625    .text:0000000000000260 .L0 
C:\msys64\tmp\ccJBuPX0.s:626    .text:0000000000000260 .L0 
    src/../h/riscv.h:170    .text:000000000000026c .L0 
C:\msys64\tmp\ccJBuPX0.s:642    .text:0000000000000270 .L0 
C:\msys64\tmp\ccJBuPX0.s:643    .text:0000000000000270 .L0 
C:\msys64\tmp\ccJBuPX0.s:651    .text:0000000000000280 .L0 
GAS LISTING C:\msys64\tmp\ccJBuPX0.s 			page 39


C:\msys64\tmp\ccJBuPX0.s:653    .text:0000000000000280 .L0 
C:\msys64\tmp\ccJBuPX0.s:654    .text:0000000000000280 .L0 
C:\msys64\tmp\ccJBuPX0.s:655    .text:0000000000000280 .L0 
C:\msys64\tmp\ccJBuPX0.s:660    .text:0000000000000284 .L0 
C:\msys64\tmp\ccJBuPX0.s:661    .text:0000000000000284 .L0 
C:\msys64\tmp\ccJBuPX0.s:668    .text:000000000000028c .L0 
C:\msys64\tmp\ccJBuPX0.s:674    .text:0000000000000290 .L0 
C:\msys64\tmp\ccJBuPX0.s:675    .text:0000000000000290 .L0 
    src/../h/riscv.h:170    .text:000000000000029c .L0 
C:\msys64\tmp\ccJBuPX0.s:687    .text:00000000000002a0 .L0 
C:\msys64\tmp\ccJBuPX0.s:694    .text:00000000000002a4 .L0 
C:\msys64\tmp\ccJBuPX0.s:696    .text:00000000000002a4 .L0 
C:\msys64\tmp\ccJBuPX0.s:697    .text:00000000000002a4 .L0 
C:\msys64\tmp\ccJBuPX0.s:698    .text:00000000000002a4 .L0 
C:\msys64\tmp\ccJBuPX0.s:703    .text:00000000000002a8 .L0 
C:\msys64\tmp\ccJBuPX0.s:704    .text:00000000000002a8 .L0 
C:\msys64\tmp\ccJBuPX0.s:711    .text:00000000000002b0 .L0 
C:\msys64\tmp\ccJBuPX0.s:717    .text:00000000000002b4 .L0 
C:\msys64\tmp\ccJBuPX0.s:718    .text:00000000000002b4 .L0 
    src/../h/riscv.h:170    .text:00000000000002c0 .L0 
C:\msys64\tmp\ccJBuPX0.s:730    .text:00000000000002c4 .L0 
C:\msys64\tmp\ccJBuPX0.s:737    .text:00000000000002c8 .L0 
C:\msys64\tmp\ccJBuPX0.s:738    .text:00000000000002c8 .L0 
C:\msys64\tmp\ccJBuPX0.s:739    .text:00000000000002c8 .L0 
C:\msys64\tmp\ccJBuPX0.s:740    .text:00000000000002c8 .L0 
C:\msys64\tmp\ccJBuPX0.s:742    .text:00000000000002d0 .L0 
C:\msys64\tmp\ccJBuPX0.s:744    .text:00000000000002d4 .L0 
C:\msys64\tmp\ccJBuPX0.s:745    .text:00000000000002d4 .L0 
C:\msys64\tmp\ccJBuPX0.s:752    .text:00000000000002e0 .L0 
C:\msys64\tmp\ccJBuPX0.s:753    .text:00000000000002e0 .L0 
C:\msys64\tmp\ccJBuPX0.s:760    .text:00000000000002e8 .L0 
C:\msys64\tmp\ccJBuPX0.s:768    .text:00000000000002ec .L0 
C:\msys64\tmp\ccJBuPX0.s:769    .text:00000000000002ec .L0 
C:\msys64\tmp\ccJBuPX0.s:776    .text:00000000000002f4 .L0 
C:\msys64\tmp\ccJBuPX0.s:782    .text:00000000000002f8 .L0 
C:\msys64\tmp\ccJBuPX0.s:784    .text:00000000000002f8 .L0 
C:\msys64\tmp\ccJBuPX0.s:785    .text:00000000000002f8 .L0 
C:\msys64\tmp\ccJBuPX0.s:786    .text:00000000000002f8 .L0 
C:\msys64\tmp\ccJBuPX0.s:791    .text:0000000000000300 .L0 
    src/../h/riscv.h:170    .text:0000000000000300 .L0 
C:\msys64\tmp\ccJBuPX0.s:798    .text:0000000000000304 .L0 
C:\msys64\tmp\ccJBuPX0.s:805    .text:0000000000000308 .L0 
C:\msys64\tmp\ccJBuPX0.s:807    .text:0000000000000308 .L0 
C:\msys64\tmp\ccJBuPX0.s:808    .text:0000000000000308 .L0 
C:\msys64\tmp\ccJBuPX0.s:809    .text:0000000000000308 .L0 
C:\msys64\tmp\ccJBuPX0.s:810    .text:0000000000000308 .L0 
C:\msys64\tmp\ccJBuPX0.s:814    .text:0000000000000314 .L0 
C:\msys64\tmp\ccJBuPX0.s:823    .text:0000000000000318 .L0 
C:\msys64\tmp\ccJBuPX0.s:824    .text:0000000000000318 .L0 
C:\msys64\tmp\ccJBuPX0.s:830    .text:0000000000000324 .L0 
C:\msys64\tmp\ccJBuPX0.s:836    .text:000000000000032c .L0 
C:\msys64\tmp\ccJBuPX0.s:837    .text:000000000000032c .L0 
C:\msys64\tmp\ccJBuPX0.s:848    .text:000000000000033c .L0 
C:\msys64\tmp\ccJBuPX0.s:849    .text:000000000000033c .L0 
C:\msys64\tmp\ccJBuPX0.s:851    .text:0000000000000344 .L0 
C:\msys64\tmp\ccJBuPX0.s:858    .text:000000000000034c .L0 
C:\msys64\tmp\ccJBuPX0.s:859    .text:000000000000034c .L0 
GAS LISTING C:\msys64\tmp\ccJBuPX0.s 			page 40


C:\msys64\tmp\ccJBuPX0.s:860    .text:000000000000034c .L0 
C:\msys64\tmp\ccJBuPX0.s:865    .text:0000000000000354 .L0 
C:\msys64\tmp\ccJBuPX0.s:866    .text:0000000000000354 .L0 
C:\msys64\tmp\ccJBuPX0.s:873    .text:0000000000000368 .L0 
C:\msys64\tmp\ccJBuPX0.s:874    .text:0000000000000368 .L0 
C:\msys64\tmp\ccJBuPX0.s:875    .text:0000000000000368 .L0 
C:\msys64\tmp\ccJBuPX0.s:880    .text:0000000000000370 .L0 
C:\msys64\tmp\ccJBuPX0.s:881    .text:0000000000000370 .L0 
C:\msys64\tmp\ccJBuPX0.s:887    .text:0000000000000380 .L0 
C:\msys64\tmp\ccJBuPX0.s:888    .text:0000000000000380 .L0 
C:\msys64\tmp\ccJBuPX0.s:889    .text:0000000000000380 .L0 
C:\msys64\tmp\ccJBuPX0.s:892    .text:000000000000038c .L0 
C:\msys64\tmp\ccJBuPX0.s:897    .text:0000000000000394 .L0 
C:\msys64\tmp\ccJBuPX0.s:898    .text:0000000000000394 .L0 
C:\msys64\tmp\ccJBuPX0.s:903    .text:000000000000039c .L0 
C:\msys64\tmp\ccJBuPX0.s:904    .text:000000000000039c .L0 
C:\msys64\tmp\ccJBuPX0.s:908    .text:00000000000003ac .L0 
C:\msys64\tmp\ccJBuPX0.s:911    .text:00000000000003b0 .L0 
C:\msys64\tmp\ccJBuPX0.s:912    .text:00000000000003b0 .L0 
C:\msys64\tmp\ccJBuPX0.s:913    .text:00000000000003b0 .L0 
C:\msys64\tmp\ccJBuPX0.s:915    .text:00000000000003b4 .L0 
C:\msys64\tmp\ccJBuPX0.s:920    .text:00000000000003bc .L0 
C:\msys64\tmp\ccJBuPX0.s:921    .text:00000000000003bc .L0 
C:\msys64\tmp\ccJBuPX0.s:926    .text:00000000000003c4 .L0 
C:\msys64\tmp\ccJBuPX0.s:927    .text:00000000000003c4 .L0 
C:\msys64\tmp\ccJBuPX0.s:931    .text:00000000000003d4 .L0 
C:\msys64\tmp\ccJBuPX0.s:936    .text:00000000000003d8 .L0 
C:\msys64\tmp\ccJBuPX0.s:937    .text:00000000000003d8 .L0 
C:\msys64\tmp\ccJBuPX0.s:938    .text:00000000000003d8 .L0 
C:\msys64\tmp\ccJBuPX0.s:943    .text:00000000000003e0 .L0 
C:\msys64\tmp\ccJBuPX0.s:944    .text:00000000000003e0 .L0 
C:\msys64\tmp\ccJBuPX0.s:948    .text:00000000000003f0 .L0 
C:\msys64\tmp\ccJBuPX0.s:950    .text:00000000000003f8 .L0 
C:\msys64\tmp\ccJBuPX0.s:954    .text:00000000000003fc .L0 
C:\msys64\tmp\ccJBuPX0.s:955    .text:00000000000003fc .L0 
C:\msys64\tmp\ccJBuPX0.s:956    .text:00000000000003fc .L0 
C:\msys64\tmp\ccJBuPX0.s:961    .text:0000000000000404 .L0 
C:\msys64\tmp\ccJBuPX0.s:962    .text:0000000000000404 .L0 
C:\msys64\tmp\ccJBuPX0.s:967    .text:0000000000000414 .L0 
C:\msys64\tmp\ccJBuPX0.s:983    .text:0000000000000418 .L0 
C:\msys64\tmp\ccJBuPX0.s:984    .text:0000000000000418 .L0 
C:\msys64\tmp\ccJBuPX0.s:990    .text:0000000000000428 .L0 
C:\msys64\tmp\ccJBuPX0.s:991    .text:0000000000000428 .L0 
C:\msys64\tmp\ccJBuPX0.s:992    .text:0000000000000428 .L0 
C:\msys64\tmp\ccJBuPX0.s:994    .text:0000000000000430 .L0 
C:\msys64\tmp\ccJBuPX0.s:996    .text:0000000000000434 .L0 
C:\msys64\tmp\ccJBuPX0.s:998    .text:0000000000000438 .L0 
C:\msys64\tmp\ccJBuPX0.s:1002   .text:000000000000043c .L0 
C:\msys64\tmp\ccJBuPX0.s:1003   .text:000000000000043c .L0 
C:\msys64\tmp\ccJBuPX0.s:1004   .text:000000000000043c .L0 
C:\msys64\tmp\ccJBuPX0.s:1006   .text:0000000000000440 .L0 
C:\msys64\tmp\ccJBuPX0.s:1008   .text:0000000000000448 .L0 
C:\msys64\tmp\ccJBuPX0.s:1009   .text:0000000000000448 .L0 
C:\msys64\tmp\ccJBuPX0.s:1011   .text:000000000000044c .L0 
C:\msys64\tmp\ccJBuPX0.s:1012   .text:000000000000044c .L0 
C:\msys64\tmp\ccJBuPX0.s:1017   .text:0000000000000454 .L0 
C:\msys64\tmp\ccJBuPX0.s:1018   .text:0000000000000454 .L0 
GAS LISTING C:\msys64\tmp\ccJBuPX0.s 			page 41


C:\msys64\tmp\ccJBuPX0.s:1019   .text:0000000000000454 .L0 
C:\msys64\tmp\ccJBuPX0.s:1026   .text:0000000000000460 .L0 
C:\msys64\tmp\ccJBuPX0.s:1034   .text:0000000000000470 .L0 
C:\msys64\tmp\ccJBuPX0.s:1046   .text:0000000000000480 .L0 
C:\msys64\tmp\ccJBuPX0.s:1047   .text:0000000000000480 .L0 
C:\msys64\tmp\ccJBuPX0.s:1052   .text:0000000000000488 .L0 
C:\msys64\tmp\ccJBuPX0.s:1053   .text:0000000000000488 .L0 
C:\msys64\tmp\ccJBuPX0.s:1058   .text:000000000000048c .L0 
C:\msys64\tmp\ccJBuPX0.s:1060   .text:0000000000000494 .L0 
C:\msys64\tmp\ccJBuPX0.s:1067   .text:0000000000000498 .L0 
C:\msys64\tmp\ccJBuPX0.s:1068   .text:0000000000000498 .L0 
C:\msys64\tmp\ccJBuPX0.s:1082   .text:00000000000004a0 .L0 
C:\msys64\tmp\ccJBuPX0.s:1093   .text:00000000000004a4 .L0 
C:\msys64\tmp\ccJBuPX0.s:1094   .text:00000000000004a4 .L0 
    src/../h/riscv.h:85     .text:00000000000004a4 .L0 
C:\msys64\tmp\ccJBuPX0.s:1102   .text:00000000000004ac .L0 
C:\msys64\tmp\ccJBuPX0.s:1103   .text:00000000000004ac .L0 
C:\msys64\tmp\ccJBuPX0.s:1107   .text:00000000000004b0 .L0 
C:\msys64\tmp\ccJBuPX0.s:1111   .text:00000000000004b4 .L0 
C:\msys64\tmp\ccJBuPX0.s:1112   .text:00000000000004b4 .L0 
    src/../h/riscv.h:153    .text:00000000000004b4 .L0 
C:\msys64\tmp\ccJBuPX0.s:1120   .text:00000000000004bc .L0 
C:\msys64\tmp\ccJBuPX0.s:1121   .text:00000000000004bc .L0 
C:\msys64\tmp\ccJBuPX0.s:1125   .text:00000000000004c0 .L0 
C:\msys64\tmp\ccJBuPX0.s:1127   .text:00000000000004c4 .L0 
C:\msys64\tmp\ccJBuPX0.s:1128   .text:00000000000004c4 .L0 
C:\msys64\tmp\ccJBuPX0.s:1130   .text:00000000000004cc .L0 
C:\msys64\tmp\ccJBuPX0.s:1131   .text:00000000000004cc .L0 
C:\msys64\tmp\ccJBuPX0.s:1134   .text:00000000000004d4 .L0 
C:\msys64\tmp\ccJBuPX0.s:1135   .text:00000000000004d4 .L0 
    src/../h/riscv.h:159    .text:00000000000004d8 .L0 
C:\msys64\tmp\ccJBuPX0.s:1149   .text:00000000000004dc .L0 
C:\msys64\tmp\ccJBuPX0.s:1150   .text:00000000000004dc .L0 
    src/../h/riscv.h:91     .text:00000000000004e0 .L0 
C:\msys64\tmp\ccJBuPX0.s:1161   .text:00000000000004e4 .L0 
C:\msys64\tmp\ccJBuPX0.s:1175   .text:00000000000004e8 .L0 
C:\msys64\tmp\ccJBuPX0.s:1188   .text:0000000000000504 .L0 
C:\msys64\tmp\ccJBuPX0.s:1230   .text:0000000000000504 .L0 
C:\msys64\tmp\ccJBuPX0.s:117    .text:000000000000007c .L0 
C:\msys64\tmp\ccJBuPX0.s:125    .text:0000000000000090 .L0 
C:\msys64\tmp\ccJBuPX0.s:200    .rodata:0000000000000000 .L7
C:\msys64\tmp\ccJBuPX0.s:191    .text:00000000000000e0 .L0 
C:\msys64\tmp\ccJBuPX0.s:404    .text:0000000000000170 .L0 
C:\msys64\tmp\ccJBuPX0.s:411    .text:000000000000017c .L0 
C:\msys64\tmp\ccJBuPX0.s:420    .text:0000000000000190 .L0 
C:\msys64\tmp\ccJBuPX0.s:427    .text:000000000000019c .L0 
C:\msys64\tmp\ccJBuPX0.s:468    .text:00000000000001c4 .L0 
C:\msys64\tmp\ccJBuPX0.s:471    .text:00000000000001cc .L0 
C:\msys64\tmp\ccJBuPX0.s:529    .text:0000000000000200 .L0 
C:\msys64\tmp\ccJBuPX0.s:740    .text:00000000000002c8 .L0 
C:\msys64\tmp\ccJBuPX0.s:849    .text:000000000000033c .L0 
C:\msys64\tmp\ccJBuPX0.s:867    .text:0000000000000358 .L0 
C:\msys64\tmp\ccJBuPX0.s:881    .text:0000000000000370 .L0 
C:\msys64\tmp\ccJBuPX0.s:889    .text:0000000000000380 .L0 
C:\msys64\tmp\ccJBuPX0.s:904    .text:000000000000039c .L0 
C:\msys64\tmp\ccJBuPX0.s:927    .text:00000000000003c4 .L0 
C:\msys64\tmp\ccJBuPX0.s:944    .text:00000000000003e0 .L0 
GAS LISTING C:\msys64\tmp\ccJBuPX0.s 			page 42


C:\msys64\tmp\ccJBuPX0.s:948    .text:00000000000003f0 .L0 
C:\msys64\tmp\ccJBuPX0.s:962    .text:0000000000000404 .L0 
C:\msys64\tmp\ccJBuPX0.s:984    .text:0000000000000418 .L0 
C:\msys64\tmp\ccJBuPX0.s:992    .text:0000000000000428 .L0 
C:\msys64\tmp\ccJBuPX0.s:1006   .text:0000000000000440 .L0 
C:\msys64\tmp\ccJBuPX0.s:1019   .text:0000000000000454 .L0 
C:\msys64\tmp\ccJBuPX0.s:1026   .text:0000000000000460 .L0 
C:\msys64\tmp\ccJBuPX0.s:1035   .text:0000000000000474 .L0 
C:\msys64\tmp\ccJBuPX0.s:1047   .text:0000000000000480 .L0 
C:\msys64\tmp\ccJBuPX0.s:1058   .text:000000000000048c .L0 
C:\msys64\tmp\ccJBuPX0.s:1128   .text:00000000000004c4 .L0 
C:\msys64\tmp\ccJBuPX0.s:140    .text:00000000000000b0 .L43
C:\msys64\tmp\ccJBuPX0.s:816    .text:0000000000000318 .L44
C:\msys64\tmp\ccJBuPX0.s:325    .text:0000000000000118 .L3
C:\msys64\tmp\ccJBuPX0.s:1038   .text:0000000000000480 .L35
C:\msys64\tmp\ccJBuPX0.s:987    .text:0000000000000428 .L38
C:\msys64\tmp\ccJBuPX0.s:292    .text:0000000000000108 .L5
C:\msys64\tmp\ccJBuPX0.s:444    .text:00000000000001b8 .L19
C:\msys64\tmp\ccJBuPX0.s:430    .text:00000000000001ac .L20
C:\msys64\tmp\ccJBuPX0.s:421    .text:0000000000000198 .L21
C:\msys64\tmp\ccJBuPX0.s:508    .text:00000000000001f4 .L22
C:\msys64\tmp\ccJBuPX0.s:498    .text:00000000000001e8 .L23
C:\msys64\tmp\ccJBuPX0.s:581    .text:0000000000000244 .L24
C:\msys64\tmp\ccJBuPX0.s:621    .text:0000000000000260 .L25
C:\msys64\tmp\ccJBuPX0.s:670    .text:0000000000000290 .L26
C:\msys64\tmp\ccJBuPX0.s:713    .text:00000000000002b4 .L27
C:\msys64\tmp\ccJBuPX0.s:762    .text:00000000000002ec .L45
C:\msys64\tmp\ccJBuPX0.s:884    .text:0000000000000380 .L33
C:\msys64\tmp\ccJBuPX0.s:909    .text:00000000000003b0 .L34
C:\msys64\tmp\ccJBuPX0.s:842    .text:000000000000033c .L46
C:\msys64\tmp\ccJBuPX0.s:833    .text:000000000000032c .L31
C:\msys64\tmp\ccJBuPX0.s:969    .text:0000000000000418 .L37
C:\msys64\tmp\ccJBuPX0.s:1083   .text:00000000000004a4 .L47
C:\msys64\tmp\ccJBuPX0.s:1061   .text:0000000000000498 .L39
C:\msys64\tmp\ccJBuPX0.s:269    .text:00000000000000f8 .L18
C:\msys64\tmp\ccJBuPX0.s:347    .text:0000000000000134 .L17
C:\msys64\tmp\ccJBuPX0.s:370    .text:0000000000000148 .L16
C:\msys64\tmp\ccJBuPX0.s:460    .text:00000000000001c4 .L15
C:\msys64\tmp\ccJBuPX0.s:522    .text:0000000000000200 .L14
C:\msys64\tmp\ccJBuPX0.s:537    .text:0000000000000214 .L13
C:\msys64\tmp\ccJBuPX0.s:597    .text:0000000000000250 .L12
C:\msys64\tmp\ccJBuPX0.s:648    .text:0000000000000280 .L11
C:\msys64\tmp\ccJBuPX0.s:689    .text:00000000000002a4 .L10
C:\msys64\tmp\ccJBuPX0.s:732    .text:00000000000002c8 .L9
C:\msys64\tmp\ccJBuPX0.s:778    .text:00000000000002f8 .L8
C:\msys64\tmp\ccJBuPX0.s:800    .text:0000000000000308 .L6
C:\msys64\tmp\ccJBuPX0.s:280    .text:00000000000000fc .LEHB0
C:\msys64\tmp\ccJBuPX0.s:47     .text:0000000000000020 .LFB35
C:\msys64\tmp\ccJBuPX0.s:551    .text:0000000000000220 .LEHE0
C:\msys64\tmp\ccJBuPX0.s:559    .text:0000000000000228 .LEHB1
C:\msys64\tmp\ccJBuPX0.s:562    .text:0000000000000230 .LEHE1
C:\msys64\tmp\ccJBuPX0.s:1163   .text:00000000000004e8 .L41
C:\msys64\tmp\ccJBuPX0.s:627    .text:0000000000000264 .LEHB2
C:\msys64\tmp\ccJBuPX0.s:1183   .text:0000000000000504 .LEHE2
C:\msys64\tmp\ccJBuPX0.s:3820   .debug_abbrev:0000000000000000 .Ldebug_abbrev0
C:\msys64\tmp\ccJBuPX0.s:6743   .debug_str:00000000000009e8 .LASF188
C:\msys64\tmp\ccJBuPX0.s:6749   .debug_str:0000000000000ad2 .LASF189
GAS LISTING C:\msys64\tmp\ccJBuPX0.s 			page 43


C:\msys64\tmp\ccJBuPX0.s:6763   .debug_str:0000000000000b32 .LASF190
C:\msys64\tmp\ccJBuPX0.s:8      .text:0000000000000000 .Ltext0
C:\msys64\tmp\ccJBuPX0.s:1226   .text:0000000000000504 .Letext0
C:\msys64\tmp\ccJBuPX0.s:6393   .debug_line:0000000000000000 .Ldebug_line0
C:\msys64\tmp\ccJBuPX0.s:6513   .debug_str:000000000000035a .LASF0
C:\msys64\tmp\ccJBuPX0.s:6549   .debug_str:0000000000000466 .LASF1
C:\msys64\tmp\ccJBuPX0.s:6637   .debug_str:0000000000000727 .LASF2
C:\msys64\tmp\ccJBuPX0.s:6477   .debug_str:0000000000000278 .LASF3
C:\msys64\tmp\ccJBuPX0.s:6645   .debug_str:000000000000076c .LASF4
C:\msys64\tmp\ccJBuPX0.s:6527   .debug_str:00000000000003b2 .LASF5
C:\msys64\tmp\ccJBuPX0.s:6407   .debug_str:0000000000000045 .LASF6
C:\msys64\tmp\ccJBuPX0.s:6609   .debug_str:000000000000065d .LASF7
C:\msys64\tmp\ccJBuPX0.s:6601   .debug_str:0000000000000616 .LASF8
C:\msys64\tmp\ccJBuPX0.s:6539   .debug_str:000000000000041c .LASF9
C:\msys64\tmp\ccJBuPX0.s:6441   .debug_str:000000000000013a .LASF10
C:\msys64\tmp\ccJBuPX0.s:6479   .debug_str:000000000000027e .LASF11
C:\msys64\tmp\ccJBuPX0.s:6451   .debug_str:0000000000000178 .LASF12
C:\msys64\tmp\ccJBuPX0.s:6439   .debug_str:000000000000012a .LASF13
C:\msys64\tmp\ccJBuPX0.s:6679   .debug_str:000000000000085b .LASF14
C:\msys64\tmp\ccJBuPX0.s:6475   .debug_str:0000000000000262 .LASF15
C:\msys64\tmp\ccJBuPX0.s:6665   .debug_str:00000000000007e0 .LASF16
C:\msys64\tmp\ccJBuPX0.s:6733   .debug_str:00000000000009a5 .LASF58
C:\msys64\tmp\ccJBuPX0.s:6619   .debug_str:000000000000069d .LASF191
C:\msys64\tmp\ccJBuPX0.s:6551   .debug_str:0000000000000479 .LASF17
C:\msys64\tmp\ccJBuPX0.s:6411   .debug_str:0000000000000057 .LASF18
C:\msys64\tmp\ccJBuPX0.s:6753   .debug_str:0000000000000aea .LASF19
C:\msys64\tmp\ccJBuPX0.s:6503   .debug_str:000000000000030d .LASF54
C:\msys64\tmp\ccJBuPX0.s:6511   .debug_str:0000000000000342 .LASF56
C:\msys64\tmp\ccJBuPX0.s:6717   .debug_str:000000000000093e .LASF20
C:\msys64\tmp\ccJBuPX0.s:6711   .debug_str:000000000000091e .LASF22
C:\msys64\tmp\ccJBuPX0.s:6631   .debug_str:00000000000006f8 .LASF24
C:\msys64\tmp\ccJBuPX0.s:6591   .debug_str:00000000000005bd .LASF26
C:\msys64\tmp\ccJBuPX0.s:6613   .debug_str:000000000000066f .LASF21
C:\msys64\tmp\ccJBuPX0.s:6615   .debug_str:0000000000000676 .LASF23
C:\msys64\tmp\ccJBuPX0.s:6587   .debug_str:00000000000005a2 .LASF25
C:\msys64\tmp\ccJBuPX0.s:6541   .debug_str:000000000000042f .LASF27
C:\msys64\tmp\ccJBuPX0.s:6747   .debug_str:0000000000000aca .LASF28
C:\msys64\tmp\ccJBuPX0.s:6701   .debug_str:00000000000008c5 .LASF29
C:\msys64\tmp\ccJBuPX0.s:6581   .debug_str:000000000000058c .LASF30
C:\msys64\tmp\ccJBuPX0.s:6589   .debug_str:00000000000005a9 .LASF31
C:\msys64\tmp\ccJBuPX0.s:6553   .debug_str:0000000000000482 .LASF32
C:\msys64\tmp\ccJBuPX0.s:6617   .debug_str:0000000000000689 .LASF33
C:\msys64\tmp\ccJBuPX0.s:6785   .debug_str:0000000000000bff .LASF34
C:\msys64\tmp\ccJBuPX0.s:6523   .debug_str:0000000000000396 .LASF35
C:\msys64\tmp\ccJBuPX0.s:6675   .debug_str:0000000000000847 .LASF36
C:\msys64\tmp\ccJBuPX0.s:6649   .debug_str:000000000000077d .LASF37
C:\msys64\tmp\ccJBuPX0.s:6651   .debug_str:0000000000000790 .LASF38
C:\msys64\tmp\ccJBuPX0.s:6445   .debug_str:000000000000014e .LASF39
C:\msys64\tmp\ccJBuPX0.s:6469   .debug_str:0000000000000227 .LASF40
C:\msys64\tmp\ccJBuPX0.s:6509   .debug_str:0000000000000330 .LASF41
C:\msys64\tmp\ccJBuPX0.s:6521   .debug_str:0000000000000390 .LASF42
C:\msys64\tmp\ccJBuPX0.s:6459   .debug_str:00000000000001d1 .LASF43
C:\msys64\tmp\ccJBuPX0.s:6409   .debug_str:000000000000004c .LASF44
C:\msys64\tmp\ccJBuPX0.s:6641   .debug_str:000000000000073f .LASF45
C:\msys64\tmp\ccJBuPX0.s:6635   .debug_str:000000000000071c .LASF46
C:\msys64\tmp\ccJBuPX0.s:6777   .debug_str:0000000000000bb1 .LASF47
C:\msys64\tmp\ccJBuPX0.s:6735   .debug_str:00000000000009ab .LASF48
GAS LISTING C:\msys64\tmp\ccJBuPX0.s 			page 44


C:\msys64\tmp\ccJBuPX0.s:6757   .debug_str:0000000000000afa .LASF49
C:\msys64\tmp\ccJBuPX0.s:6729   .debug_str:0000000000000994 .LASF50
C:\msys64\tmp\ccJBuPX0.s:6569   .debug_str:000000000000051f .LASF51
C:\msys64\tmp\ccJBuPX0.s:6537   .debug_str:000000000000040e .LASF64
C:\msys64\tmp\ccJBuPX0.s:6499   .debug_str:00000000000002ea .LASF66
C:\msys64\tmp\ccJBuPX0.s:6629   .debug_str:00000000000006e9 .LASF52
C:\msys64\tmp\ccJBuPX0.s:6405   .debug_str:0000000000000028 .LASF53
C:\msys64\tmp\ccJBuPX0.s:6745   .debug_str:0000000000000abb .LASF55
C:\msys64\tmp\ccJBuPX0.s:6491   .debug_str:00000000000002b0 .LASF57
C:\msys64\tmp\ccJBuPX0.s:6605   .debug_str:000000000000063a .LASF72
C:\msys64\tmp\ccJBuPX0.s:6471   .debug_str:000000000000022d .LASF74
C:\msys64\tmp\ccJBuPX0.s:6599   .debug_str:0000000000000606 .LASF59
C:\msys64\tmp\ccJBuPX0.s:6447   .debug_str:0000000000000161 .LASF87
C:\msys64\tmp\ccJBuPX0.s:6443   .debug_str:0000000000000149 .LASF60
C:\msys64\tmp\ccJBuPX0.s:6547   .debug_str:0000000000000461 .LASF61
C:\msys64\tmp\ccJBuPX0.s:6415   .debug_str:0000000000000066 .LASF62
C:\msys64\tmp\ccJBuPX0.s:6531   .debug_str:00000000000003cd .LASF63
C:\msys64\tmp\ccJBuPX0.s:6639   .debug_str:0000000000000735 .LASF81
C:\msys64\tmp\ccJBuPX0.s:6721   .debug_str:000000000000094f .LASF82
C:\msys64\tmp\ccJBuPX0.s:6481   .debug_str:000000000000028d .LASF65
C:\msys64\tmp\ccJBuPX0.s:6567   .debug_str:0000000000000500 .LASF67
C:\msys64\tmp\ccJBuPX0.s:6485   .debug_str:000000000000029a .LASF68
C:\msys64\tmp\ccJBuPX0.s:6595   .debug_str:00000000000005e3 .LASF69
C:\msys64\tmp\ccJBuPX0.s:6421   .debug_str:0000000000000098 .LASF106
C:\msys64\tmp\ccJBuPX0.s:6705   .debug_str:00000000000008e3 .LASF108
C:\msys64\tmp\ccJBuPX0.s:6673   .debug_str:0000000000000842 .LASF70
C:\msys64\tmp\ccJBuPX0.s:6687   .debug_str:000000000000087f .LASF71
C:\msys64\tmp\ccJBuPX0.s:6529   .debug_str:00000000000003c4 .LASF73
C:\msys64\tmp\ccJBuPX0.s:6667   .debug_str:00000000000007f6 .LASF75
C:\msys64\tmp\ccJBuPX0.s:6561   .debug_str:00000000000004da .LASF76
C:\msys64\tmp\ccJBuPX0.s:6487   .debug_str:00000000000002a0 .LASF77
C:\msys64\tmp\ccJBuPX0.s:6449   .debug_str:000000000000016f .LASF78
C:\msys64\tmp\ccJBuPX0.s:6467   .debug_str:000000000000020e .LASF79
C:\msys64\tmp\ccJBuPX0.s:6437   .debug_str:0000000000000115 .LASF80
C:\msys64\tmp\ccJBuPX0.s:6643   .debug_str:0000000000000757 .LASF83
C:\msys64\tmp\ccJBuPX0.s:6535   .debug_str:00000000000003f2 .LASF131
C:\msys64\tmp\ccJBuPX0.s:6769   .debug_str:0000000000000b7f .LASF137
C:\msys64\tmp\ccJBuPX0.s:6761   .debug_str:0000000000000b20 .LASF84
C:\msys64\tmp\ccJBuPX0.s:6583   .debug_str:0000000000000594 .LASF85
C:\msys64\tmp\ccJBuPX0.s:6417   .debug_str:000000000000007f .LASF86
C:\msys64\tmp\ccJBuPX0.s:6685   .debug_str:0000000000000877 .LASF88
C:\msys64\tmp\ccJBuPX0.s:6779   .debug_str:0000000000000bc9 .LASF89
C:\msys64\tmp\ccJBuPX0.s:6625   .debug_str:00000000000006ce .LASF90
C:\msys64\tmp\ccJBuPX0.s:6681   .debug_str:0000000000000867 .LASF91
C:\msys64\tmp\ccJBuPX0.s:6543   .debug_str:0000000000000442 .LASF92
C:\msys64\tmp\ccJBuPX0.s:6677   .debug_str:000000000000084e .LASF93
C:\msys64\tmp\ccJBuPX0.s:6573   .debug_str:0000000000000549 .LASF94
C:\msys64\tmp\ccJBuPX0.s:6597   .debug_str:0000000000000601 .LASF192
C:\msys64\tmp\ccJBuPX0.s:6697   .debug_str:00000000000008b8 .LASF144
C:\msys64\tmp\ccJBuPX0.s:6463   .debug_str:0000000000000200 .LASF95
C:\msys64\tmp\ccJBuPX0.s:6455   .debug_str:00000000000001a2 .LASF96
C:\msys64\tmp\ccJBuPX0.s:6497   .debug_str:00000000000002df .LASF97
C:\msys64\tmp\ccJBuPX0.s:6453   .debug_str:0000000000000188 .LASF98
C:\msys64\tmp\ccJBuPX0.s:6565   .debug_str:00000000000004f3 .LASF99
C:\msys64\tmp\ccJBuPX0.s:6461   .debug_str:00000000000001e3 .LASF100
C:\msys64\tmp\ccJBuPX0.s:6425   .debug_str:00000000000000c1 .LASF101
C:\msys64\tmp\ccJBuPX0.s:6723   .debug_str:000000000000096b .LASF102
GAS LISTING C:\msys64\tmp\ccJBuPX0.s 			page 45


C:\msys64\tmp\ccJBuPX0.s:6627   .debug_str:00000000000006de .LASF103
C:\msys64\tmp\ccJBuPX0.s:6427   .debug_str:00000000000000cd .LASF104
C:\msys64\tmp\ccJBuPX0.s:6787   .debug_str:0000000000000c07 .LASF105
C:\msys64\tmp\ccJBuPX0.s:6429   .debug_str:00000000000000e7 .LASF107
C:\msys64\tmp\ccJBuPX0.s:6621   .debug_str:00000000000006a8 .LASF109
C:\msys64\tmp\ccJBuPX0.s:6495   .debug_str:00000000000002d1 .LASF193
C:\msys64\tmp\ccJBuPX0.s:6555   .debug_str:000000000000048a .LASF194
C:\msys64\tmp\ccJBuPX0.s:6585   .debug_str:0000000000000599 .LASF110
C:\msys64\tmp\ccJBuPX0.s:6401   .debug_str:0000000000000016 .LASF111
C:\msys64\tmp\ccJBuPX0.s:6775   .debug_str:0000000000000bac .LASF112
C:\msys64\tmp\ccJBuPX0.s:6661   .debug_str:00000000000007d1 .LASF113
C:\msys64\tmp\ccJBuPX0.s:6709   .debug_str:0000000000000916 .LASF114
C:\msys64\tmp\ccJBuPX0.s:6703   .debug_str:00000000000008d9 .LASF115
C:\msys64\tmp\ccJBuPX0.s:6719   .debug_str:0000000000000947 .LASF116
C:\msys64\tmp\ccJBuPX0.s:6663   .debug_str:00000000000007d7 .LASF117
C:\msys64\tmp\ccJBuPX0.s:6579   .debug_str:0000000000000582 .LASF118
C:\msys64\tmp\ccJBuPX0.s:6403   .debug_str:000000000000001b .LASF119
C:\msys64\tmp\ccJBuPX0.s:6653   .debug_str:0000000000000797 .LASF120
C:\msys64\tmp\ccJBuPX0.s:6771   .debug_str:0000000000000b93 .LASF121
C:\msys64\tmp\ccJBuPX0.s:6689   .debug_str:0000000000000886 .LASF122
C:\msys64\tmp\ccJBuPX0.s:6789   .debug_str:0000000000000c23 .LASF123
C:\msys64\tmp\ccJBuPX0.s:6431   .debug_str:00000000000000f5 .LASF124
C:\msys64\tmp\ccJBuPX0.s:6465   .debug_str:0000000000000209 .LASF125
C:\msys64\tmp\ccJBuPX0.s:6759   .debug_str:0000000000000b10 .LASF126
C:\msys64\tmp\ccJBuPX0.s:6683   .debug_str:0000000000000870 .LASF127
C:\msys64\tmp\ccJBuPX0.s:6669   .debug_str:0000000000000829 .LASF128
C:\msys64\tmp\ccJBuPX0.s:6413   .debug_str:0000000000000060 .LASF129
C:\msys64\tmp\ccJBuPX0.s:6419   .debug_str:0000000000000087 .LASF130
C:\msys64\tmp\ccJBuPX0.s:6707   .debug_str:00000000000008ff .LASF195
C:\msys64\tmp\ccJBuPX0.s:6545   .debug_str:0000000000000452 .LASF132
C:\msys64\tmp\ccJBuPX0.s:6731   .debug_str:000000000000099e .LASF133
C:\msys64\tmp\ccJBuPX0.s:6725   .debug_str:0000000000000986 .LASF134
C:\msys64\tmp\ccJBuPX0.s:6765   .debug_str:0000000000000b61 .LASF135
C:\msys64\tmp\ccJBuPX0.s:6593   .debug_str:00000000000005d2 .LASF136
C:\msys64\tmp\ccJBuPX0.s:6783   .debug_str:0000000000000bee .LASF138
C:\msys64\tmp\ccJBuPX0.s:6399   .debug_str:000000000000000f .LASF139
C:\msys64\tmp\ccJBuPX0.s:6517   .debug_str:0000000000000377 .LASF140
C:\msys64\tmp\ccJBuPX0.s:6525   .debug_str:00000000000003aa .LASF141
C:\msys64\tmp\ccJBuPX0.s:6739   .debug_str:00000000000009ba .LASF142
C:\msys64\tmp\ccJBuPX0.s:6395   .debug_str:0000000000000000 .LASF143
C:\msys64\tmp\ccJBuPX0.s:6397   .debug_str:0000000000000006 .LASF145
C:\msys64\tmp\ccJBuPX0.s:6659   .debug_str:00000000000007ca .LASF146
C:\msys64\tmp\ccJBuPX0.s:6691   .debug_str:000000000000088b .LASF147
C:\msys64\tmp\ccJBuPX0.s:6533   .debug_str:00000000000003e9 .LASF148
C:\msys64\tmp\ccJBuPX0.s:6603   .debug_str:0000000000000629 .LASF149
C:\msys64\tmp\ccJBuPX0.s:6563   .debug_str:00000000000004df .LASF150
C:\msys64\tmp\ccJBuPX0.s:6571   .debug_str:0000000000000535 .LASF151
C:\msys64\tmp\ccJBuPX0.s:6519   .debug_str:000000000000038b .LASF152
C:\msys64\tmp\ccJBuPX0.s:6693   .debug_str:0000000000000890 .LASF153
C:\msys64\tmp\ccJBuPX0.s:6737   .debug_str:00000000000009b5 .LASF154
C:\msys64\tmp\ccJBuPX0.s:6695   .debug_str:00000000000008a4 .LASF155
C:\msys64\tmp\ccJBuPX0.s:6647   .debug_str:0000000000000773 .LASF156
C:\msys64\tmp\ccJBuPX0.s:6557   .debug_str:00000000000004b6 .LASF157
C:\msys64\tmp\ccJBuPX0.s:6435   .debug_str:000000000000010a .LASF158
C:\msys64\tmp\ccJBuPX0.s:6655   .debug_str:00000000000007a8 .LASF159
C:\msys64\tmp\ccJBuPX0.s:6623   .debug_str:00000000000006c5 .LASF160
C:\msys64\tmp\ccJBuPX0.s:6781   .debug_str:0000000000000bd6 .LASF161
GAS LISTING C:\msys64\tmp\ccJBuPX0.s 			page 46


C:\msys64\tmp\ccJBuPX0.s:6751   .debug_str:0000000000000ae0 .LASF162
C:\msys64\tmp\ccJBuPX0.s:6741   .debug_str:00000000000009cf .LASF163
C:\msys64\tmp\ccJBuPX0.s:6657   .debug_str:00000000000007c3 .LASF164
C:\msys64\tmp\ccJBuPX0.s:6433   .debug_str:0000000000000102 .LASF165
C:\msys64\tmp\ccJBuPX0.s:6713   .debug_str:0000000000000933 .LASF166
C:\msys64\tmp\ccJBuPX0.s:6575   .debug_str:0000000000000570 .LASF167
C:\msys64\tmp\ccJBuPX0.s:6473   .debug_str:0000000000000256 .LASF168
C:\msys64\tmp\ccJBuPX0.s:6611   .debug_str:0000000000000664 .LASF169
C:\msys64\tmp\ccJBuPX0.s:6633   .debug_str:0000000000000701 .LASF170
C:\msys64\tmp\ccJBuPX0.s:1189   .text:0000000000000504 .LFE35
C:\msys64\tmp\ccJBuPX0.s:5074   .debug_loc:0000000000000000 .LLST0
C:\msys64\tmp\ccJBuPX0.s:5099   .debug_loc:0000000000000062 .LLST1
C:\msys64\tmp\ccJBuPX0.s:5139   .debug_loc:0000000000000100 .LLST2
C:\msys64\tmp\ccJBuPX0.s:5172   .debug_loc:0000000000000188 .LLST3
C:\msys64\tmp\ccJBuPX0.s:5318   .debug_loc:00000000000003ad .LLST4
C:\msys64\tmp\ccJBuPX0.s:5473   .debug_loc:00000000000005fa .LLST5
C:\msys64\tmp\ccJBuPX0.s:5487   .debug_loc:0000000000000633 .LLST6
C:\msys64\tmp\ccJBuPX0.s:5633   .debug_loc:0000000000000858 .LLST7
C:\msys64\tmp\ccJBuPX0.s:6671   .debug_str:000000000000083b .LASF171
C:\msys64\tmp\ccJBuPX0.s:5779   .debug_loc:0000000000000a7d .LLST8
C:\msys64\tmp\ccJBuPX0.s:6359   .debug_ranges:0000000000000000 .Ldebug_ranges0
C:\msys64\tmp\ccJBuPX0.s:6715   .debug_str:0000000000000939 .LASF172
C:\msys64\tmp\ccJBuPX0.s:5862   .debug_loc:0000000000000baf .LLST18
C:\msys64\tmp\ccJBuPX0.s:6699   .debug_str:00000000000008c0 .LASF173
C:\msys64\tmp\ccJBuPX0.s:6501   .debug_str:0000000000000305 .LASF174
C:\msys64\tmp\ccJBuPX0.s:273    .text:00000000000000f8 .LBB176
C:\msys64\tmp\ccJBuPX0.s:295    .text:0000000000000108 .LBE176
C:\msys64\tmp\ccJBuPX0.s:6489   .debug_str:00000000000002aa .LASF175
C:\msys64\tmp\ccJBuPX0.s:5890   .debug_loc:0000000000000c14 .LLST19
C:\msys64\tmp\ccJBuPX0.s:283    .text:0000000000000104 .LBB177
C:\msys64\tmp\ccJBuPX0.s:294    .text:0000000000000108 .LBE177
C:\msys64\tmp\ccJBuPX0.s:5913   .debug_loc:0000000000000c65 .LLST20
C:\msys64\tmp\ccJBuPX0.s:5920   .debug_loc:0000000000000c88 .LLST21
C:\msys64\tmp\ccJBuPX0.s:282    .text:0000000000000104 .LVL10
C:\msys64\tmp\ccJBuPX0.s:375    .text:0000000000000148 .LBB181
C:\msys64\tmp\ccJBuPX0.s:463    .text:00000000000001c4 .LBE181
C:\msys64\tmp\ccJBuPX0.s:6755   .debug_str:0000000000000af3 .LASF176
C:\msys64\tmp\ccJBuPX0.s:5928   .debug_loc:0000000000000cac .LLST24
C:\msys64\tmp\ccJBuPX0.s:5935   .debug_loc:0000000000000ccf .LLST25
C:\msys64\tmp\ccJBuPX0.s:6773   .debug_str:0000000000000ba0 .LASF177
C:\msys64\tmp\ccJBuPX0.s:399    .text:0000000000000170 .LBB182
C:\msys64\tmp\ccJBuPX0.s:424    .text:0000000000000198 .LBE182
C:\msys64\tmp\ccJBuPX0.s:407    .text:000000000000017c .LBB184
C:\msys64\tmp\ccJBuPX0.s:417    .text:000000000000018c .LBE184
C:\msys64\tmp\ccJBuPX0.s:5942   .debug_loc:0000000000000cf2 .LLST26
C:\msys64\tmp\ccJBuPX0.s:432    .text:00000000000001ac .LBB187
C:\msys64\tmp\ccJBuPX0.s:446    .text:00000000000001b8 .LBE187
C:\msys64\tmp\ccJBuPX0.s:5951   .debug_loc:0000000000000d1e .LLST27
C:\msys64\tmp\ccJBuPX0.s:448    .text:00000000000001b8 .LBB189
C:\msys64\tmp\ccJBuPX0.s:462    .text:00000000000001c4 .LBE189
C:\msys64\tmp\ccJBuPX0.s:5959   .debug_loc:0000000000000d42 .LLST29
C:\msys64\tmp\ccJBuPX0.s:5968   .debug_loc:0000000000000d67 .LLST30
C:\msys64\tmp\ccJBuPX0.s:391    .text:0000000000000164 .LVL20
C:\msys64\tmp\ccJBuPX0.s:429    .text:00000000000001ac .LVL23
C:\msys64\tmp\ccJBuPX0.s:5976   .debug_loc:0000000000000d8b .LLST37
C:\msys64\tmp\ccJBuPX0.s:543    .text:0000000000000214 .LBB198
C:\msys64\tmp\ccJBuPX0.s:556    .text:0000000000000224 .LBE198
GAS LISTING C:\msys64\tmp\ccJBuPX0.s 			page 47


C:\msys64\tmp\ccJBuPX0.s:5994   .debug_loc:0000000000000dd7 .LLST38
C:\msys64\tmp\ccJBuPX0.s:6003   .debug_loc:0000000000000dfc .LLST39
C:\msys64\tmp\ccJBuPX0.s:550    .text:0000000000000220 .LVL35
C:\msys64\tmp\ccJBuPX0.s:569    .text:0000000000000238 .LBB200
C:\msys64\tmp\ccJBuPX0.s:583    .text:0000000000000244 .LBE200
C:\msys64\tmp\ccJBuPX0.s:6018   .debug_loc:0000000000000e45 .LLST40
C:\msys64\tmp\ccJBuPX0.s:585    .text:0000000000000244 .LBB202
C:\msys64\tmp\ccJBuPX0.s:599    .text:0000000000000250 .LBE202
C:\msys64\tmp\ccJBuPX0.s:6026   .debug_loc:0000000000000e69 .LLST42
C:\msys64\tmp\ccJBuPX0.s:6035   .debug_loc:0000000000000e8e .LLST43
C:\msys64\tmp\ccJBuPX0.s:561    .text:0000000000000230 .LVL37
C:\msys64\tmp\ccJBuPX0.s:1179   .text:00000000000004f8 .LVL96
C:\msys64\tmp\ccJBuPX0.s:603    .text:0000000000000250 .LBB204
C:\msys64\tmp\ccJBuPX0.s:649    .text:0000000000000280 .LBE204
C:\msys64\tmp\ccJBuPX0.s:6043   .debug_loc:0000000000000eb2 .LLST44
C:\msys64\tmp\ccJBuPX0.s:609    .text:0000000000000254 .LBB205
C:\msys64\tmp\ccJBuPX0.s:623    .text:0000000000000260 .LBE205
C:\msys64\tmp\ccJBuPX0.s:6050   .debug_loc:0000000000000ed5 .LLST45
C:\msys64\tmp\ccJBuPX0.s:6059   .debug_loc:0000000000000efa .LLST46
C:\msys64\tmp\ccJBuPX0.s:630    .text:000000000000026c .LBB207
C:\msys64\tmp\ccJBuPX0.s:640    .text:0000000000000270 .LBE207
C:\msys64\tmp\ccJBuPX0.s:6067   .debug_loc:0000000000000f1e .LLST47
C:\msys64\tmp\ccJBuPX0.s:6074   .debug_loc:0000000000000f41 .LLST48
C:\msys64\tmp\ccJBuPX0.s:629    .text:000000000000026c .LVL43
C:\msys64\tmp\ccJBuPX0.s:645    .text:000000000000027c .LVL45
C:\msys64\tmp\ccJBuPX0.s:652    .text:0000000000000280 .LBB209
C:\msys64\tmp\ccJBuPX0.s:692    .text:00000000000002a4 .LBE209
C:\msys64\tmp\ccJBuPX0.s:6082   .debug_loc:0000000000000f65 .LLST49
C:\msys64\tmp\ccJBuPX0.s:658    .text:0000000000000284 .LBB210
C:\msys64\tmp\ccJBuPX0.s:672    .text:0000000000000290 .LBE210
C:\msys64\tmp\ccJBuPX0.s:6089   .debug_loc:0000000000000f88 .LLST50
C:\msys64\tmp\ccJBuPX0.s:6098   .debug_loc:0000000000000fad .LLST51
C:\msys64\tmp\ccJBuPX0.s:678    .text:000000000000029c .LBB212
C:\msys64\tmp\ccJBuPX0.s:691    .text:00000000000002a4 .LBE212
C:\msys64\tmp\ccJBuPX0.s:6106   .debug_loc:0000000000000fd1 .LLST52
C:\msys64\tmp\ccJBuPX0.s:6113   .debug_loc:0000000000000ff4 .LLST53
C:\msys64\tmp\ccJBuPX0.s:677    .text:000000000000029c .LVL49
C:\msys64\tmp\ccJBuPX0.s:695    .text:00000000000002a4 .LBB214
C:\msys64\tmp\ccJBuPX0.s:735    .text:00000000000002c8 .LBE214
C:\msys64\tmp\ccJBuPX0.s:6121   .debug_loc:0000000000001018 .LLST54
C:\msys64\tmp\ccJBuPX0.s:701    .text:00000000000002a8 .LBB215
C:\msys64\tmp\ccJBuPX0.s:715    .text:00000000000002b4 .LBE215
C:\msys64\tmp\ccJBuPX0.s:6128   .debug_loc:000000000000103b .LLST55
C:\msys64\tmp\ccJBuPX0.s:6137   .debug_loc:0000000000001060 .LLST56
C:\msys64\tmp\ccJBuPX0.s:721    .text:00000000000002c0 .LBB217
C:\msys64\tmp\ccJBuPX0.s:734    .text:00000000000002c8 .LBE217
C:\msys64\tmp\ccJBuPX0.s:6145   .debug_loc:0000000000001084 .LLST57
C:\msys64\tmp\ccJBuPX0.s:6152   .debug_loc:00000000000010a7 .LLST58
C:\msys64\tmp\ccJBuPX0.s:720    .text:00000000000002c0 .LVL53
C:\msys64\tmp\ccJBuPX0.s:783    .text:00000000000002f8 .LBB223
C:\msys64\tmp\ccJBuPX0.s:803    .text:0000000000000308 .LBE223
C:\msys64\tmp\ccJBuPX0.s:6160   .debug_loc:00000000000010cb .LLST63
C:\msys64\tmp\ccJBuPX0.s:789    .text:0000000000000300 .LBB224
C:\msys64\tmp\ccJBuPX0.s:802    .text:0000000000000308 .LBE224
C:\msys64\tmp\ccJBuPX0.s:6167   .debug_loc:00000000000010ee .LLST65
C:\msys64\tmp\ccJBuPX0.s:787    .text:0000000000000300 .LVL59
C:\msys64\tmp\ccJBuPX0.s:806    .text:0000000000000308 .LBB226
GAS LISTING C:\msys64\tmp\ccJBuPX0.s 			page 48


C:\msys64\tmp\ccJBuPX0.s:817    .text:0000000000000318 .LBE226
C:\msys64\tmp\ccJBuPX0.s:6175   .debug_loc:0000000000001112 .LLST66
C:\msys64\tmp\ccJBuPX0.s:812    .text:0000000000000314 .LVL61
C:\msys64\tmp\ccJBuPX0.s:149    .text:00000000000000b0 .LBB171
C:\msys64\tmp\ccJBuPX0.s:163    .text:00000000000000bc .LBE171
C:\msys64\tmp\ccJBuPX0.s:169    .text:00000000000000c4 .LBB173
C:\msys64\tmp\ccJBuPX0.s:183    .text:00000000000000d0 .LBE173
C:\msys64\tmp\ccJBuPX0.s:359    .text:0000000000000140 .LBB179
C:\msys64\tmp\ccJBuPX0.s:372    .text:0000000000000148 .LBE179
C:\msys64\tmp\ccJBuPX0.s:6182   .debug_loc:0000000000001135 .LLST22
C:\msys64\tmp\ccJBuPX0.s:6189   .debug_loc:0000000000001158 .LLST23
C:\msys64\tmp\ccJBuPX0.s:476    .text:00000000000001d8 .LBB191
C:\msys64\tmp\ccJBuPX0.s:486    .text:00000000000001e0 .LBE191
C:\msys64\tmp\ccJBuPX0.s:6197   .debug_loc:000000000000117c .LLST31
C:\msys64\tmp\ccJBuPX0.s:6205   .debug_loc:00000000000011a0 .LLST32
C:\msys64\tmp\ccJBuPX0.s:488    .text:00000000000001e0 .LBB193
C:\msys64\tmp\ccJBuPX0.s:500    .text:00000000000001e8 .LBE193
C:\msys64\tmp\ccJBuPX0.s:6212   .debug_loc:00000000000011c3 .LLST33
C:\msys64\tmp\ccJBuPX0.s:510    .text:00000000000001f4 .LBB195
C:\msys64\tmp\ccJBuPX0.s:524    .text:0000000000000200 .LBE195
C:\msys64\tmp\ccJBuPX0.s:6220   .debug_loc:00000000000011e7 .LLST35
C:\msys64\tmp\ccJBuPX0.s:6229   .debug_loc:000000000000120c .LLST36
C:\msys64\tmp\ccJBuPX0.s:750    .text:00000000000002e0 .LBB219
C:\msys64\tmp\ccJBuPX0.s:764    .text:00000000000002ec .LBE219
C:\msys64\tmp\ccJBuPX0.s:6237   .debug_loc:0000000000001230 .LLST59
C:\msys64\tmp\ccJBuPX0.s:766    .text:00000000000002ec .LBB221
C:\msys64\tmp\ccJBuPX0.s:780    .text:00000000000002f8 .LBE221
C:\msys64\tmp\ccJBuPX0.s:6245   .debug_loc:0000000000001254 .LLST61
C:\msys64\tmp\ccJBuPX0.s:6254   .debug_loc:0000000000001279 .LLST62
C:\msys64\tmp\ccJBuPX0.s:301    .text:000000000000010c .LBB228
C:\msys64\tmp\ccJBuPX0.s:311    .text:0000000000000110 .LBE228
C:\msys64\tmp\ccJBuPX0.s:6262   .debug_loc:000000000000129d .LLST67
C:\msys64\tmp\ccJBuPX0.s:316    .text:0000000000000114 .LBB230
C:\msys64\tmp\ccJBuPX0.s:327    .text:0000000000000118 .LBE230
C:\msys64\tmp\ccJBuPX0.s:6269   .debug_loc:00000000000012c0 .LLST68
C:\msys64\tmp\ccJBuPX0.s:358    .text:0000000000000140 .LVL17
C:\msys64\tmp\ccJBuPX0.s:504    .text:00000000000001f0 .LVL30
C:\msys64\tmp\ccJBuPX0.s:533    .text:0000000000000210 .LVL33
C:\msys64\tmp\ccJBuPX0.s:748    .text:00000000000002e0 .LVL56
C:\msys64\tmp\ccJBuPX0.s:6276   .debug_loc:00000000000012e3 .LLST15
C:\msys64\tmp\ccJBuPX0.s:846    .text:000000000000033c .LBB151
C:\msys64\tmp\ccJBuPX0.s:885    .text:0000000000000380 .LBE151
C:\msys64\tmp\ccJBuPX0.s:6283   .debug_loc:0000000000001306 .LLST16
C:\msys64\tmp\ccJBuPX0.s:855    .text:000000000000034c .LBB152
C:\msys64\tmp\ccJBuPX0.s:864    .text:0000000000000354 .LBE152
C:\msys64\tmp\ccJBuPX0.s:861    .text:0000000000000354 .LVL68
C:\msys64\tmp\ccJBuPX0.s:871    .text:0000000000000368 .LBB154
C:\msys64\tmp\ccJBuPX0.s:879    .text:0000000000000370 .LBE154
C:\msys64\tmp\ccJBuPX0.s:876    .text:0000000000000370 .LVL70
C:\msys64\tmp\ccJBuPX0.s:869    .text:0000000000000368 .LVL69
C:\msys64\tmp\ccJBuPX0.s:883    .text:0000000000000380 .LVL71
C:\msys64\tmp\ccJBuPX0.s:932    .text:00000000000003d8 .LBB160
C:\msys64\tmp\ccJBuPX0.s:965    .text:0000000000000414 .LBE160
C:\msys64\tmp\ccJBuPX0.s:6290   .debug_loc:0000000000001329 .LLST17
C:\msys64\tmp\ccJBuPX0.s:934    .text:00000000000003d8 .LBB161
C:\msys64\tmp\ccJBuPX0.s:942    .text:00000000000003e0 .LBE161
C:\msys64\tmp\ccJBuPX0.s:939    .text:00000000000003e0 .LVL76
GAS LISTING C:\msys64\tmp\ccJBuPX0.s 			page 49


C:\msys64\tmp\ccJBuPX0.s:952    .text:00000000000003fc .LBB163
C:\msys64\tmp\ccJBuPX0.s:960    .text:0000000000000404 .LBE163
C:\msys64\tmp\ccJBuPX0.s:957    .text:0000000000000404 .LVL78
C:\msys64\tmp\ccJBuPX0.s:946    .text:00000000000003f0 .LVL77
C:\msys64\tmp\ccJBuPX0.s:964    .text:0000000000000414 .LVL79
C:\msys64\tmp\ccJBuPX0.s:894    .text:0000000000000394 .LBB156
C:\msys64\tmp\ccJBuPX0.s:902    .text:000000000000039c .LBE156
C:\msys64\tmp\ccJBuPX0.s:899    .text:000000000000039c .LVL72
C:\msys64\tmp\ccJBuPX0.s:917    .text:00000000000003bc .LBB158
C:\msys64\tmp\ccJBuPX0.s:925    .text:00000000000003c4 .LBE158
C:\msys64\tmp\ccJBuPX0.s:922    .text:00000000000003c4 .LVL74
C:\msys64\tmp\ccJBuPX0.s:825    .text:0000000000000320 .LVL63
C:\msys64\tmp\ccJBuPX0.s:839    .text:0000000000000338 .LVL66
C:\msys64\tmp\ccJBuPX0.s:906    .text:00000000000003ac .LVL73
C:\msys64\tmp\ccJBuPX0.s:929    .text:00000000000003d4 .LVL75
C:\msys64\tmp\ccJBuPX0.s:6297   .debug_loc:000000000000134c .LLST9
C:\msys64\tmp\ccJBuPX0.s:978    .text:0000000000000418 .LBB121
C:\msys64\tmp\ccJBuPX0.s:1022   .text:0000000000000460 .LBB123
C:\msys64\tmp\ccJBuPX0.s:1032   .text:0000000000000470 .LBE123
C:\msys64\tmp\ccJBuPX0.s:6308   .debug_loc:0000000000001382 .LLST10
C:\msys64\tmp\ccJBuPX0.s:986    .text:0000000000000428 .LVL81
C:\msys64\tmp\ccJBuPX0.s:1089   .text:00000000000004a4 .LBB134
C:\msys64\tmp\ccJBuPX0.s:1166   .text:00000000000004e8 .LBE134
C:\msys64\tmp\ccJBuPX0.s:1091   .text:00000000000004a4 .LBB135
C:\msys64\tmp\ccJBuPX0.s:1105   .text:00000000000004b0 .LBE135
C:\msys64\tmp\ccJBuPX0.s:1109   .text:00000000000004b4 .LBB137
C:\msys64\tmp\ccJBuPX0.s:1123   .text:00000000000004c0 .LBE137
C:\msys64\tmp\ccJBuPX0.s:1137   .text:00000000000004d8 .LBB139
C:\msys64\tmp\ccJBuPX0.s:1147   .text:00000000000004dc .LBE139
C:\msys64\tmp\ccJBuPX0.s:6317   .debug_loc:00000000000013ae .LLST12
C:\msys64\tmp\ccJBuPX0.s:1152   .text:00000000000004e0 .LBB141
C:\msys64\tmp\ccJBuPX0.s:1165   .text:00000000000004e8 .LBE141
C:\msys64\tmp\ccJBuPX0.s:6324   .debug_loc:00000000000013d1 .LLST13
C:\msys64\tmp\ccJBuPX0.s:1132   .text:00000000000004d4 .LVL90
C:\msys64\tmp\ccJBuPX0.s:70     .text:0000000000000044 .LBB112
C:\msys64\tmp\ccJBuPX0.s:87     .text:0000000000000050 .LBE112
C:\msys64\tmp\ccJBuPX0.s:1049   .text:0000000000000488 .LBB132
C:\msys64\tmp\ccJBuPX0.s:1056   .text:000000000000048c .LBE132
C:\msys64\tmp\ccJBuPX0.s:6331   .debug_loc:00000000000013f4 .LLST11
C:\msys64\tmp\ccJBuPX0.s:1065   .text:0000000000000498 .LBB143
C:\msys64\tmp\ccJBuPX0.s:1076   .text:00000000000004a0 .LBE143
C:\msys64\tmp\ccJBuPX0.s:6338   .debug_loc:0000000000001417 .LLST14
C:\msys64\tmp\ccJBuPX0.s:1182   .text:0000000000000504 .LVL97
C:\msys64\tmp\ccJBuPX0.s:13     .text:0000000000000000 .LFB34
C:\msys64\tmp\ccJBuPX0.s:41     .text:0000000000000020 .LFE34
C:\msys64\tmp\ccJBuPX0.s:6483   .debug_str:0000000000000295 .LASF178
C:\msys64\tmp\ccJBuPX0.s:6505   .debug_str:0000000000000318 .LASF196
C:\msys64\tmp\ccJBuPX0.s:6423   .debug_str:000000000000009d .LASF197
C:\msys64\tmp\ccJBuPX0.s:6577   .debug_str:0000000000000577 .LASF179
C:\msys64\tmp\ccJBuPX0.s:6507   .debug_str:000000000000032a .LASF180
C:\msys64\tmp\ccJBuPX0.s:6493   .debug_str:00000000000002cc .LASF181
C:\msys64\tmp\ccJBuPX0.s:6727   .debug_str:000000000000098d .LASF184
C:\msys64\tmp\ccJBuPX0.s:6515   .debug_str:0000000000000367 .LASF186
C:\msys64\tmp\ccJBuPX0.s:6559   .debug_str:00000000000004cf .LASF182
C:\msys64\tmp\ccJBuPX0.s:6607   .debug_str:000000000000064f .LASF183
C:\msys64\tmp\ccJBuPX0.s:6767   .debug_str:0000000000000b70 .LASF185
C:\msys64\tmp\ccJBuPX0.s:6457   .debug_str:00000000000001b9 .LASF187
GAS LISTING C:\msys64\tmp\ccJBuPX0.s 			page 50


C:\msys64\tmp\ccJBuPX0.s:52     .text:0000000000000020 .LVL0
C:\msys64\tmp\ccJBuPX0.s:190    .text:00000000000000e0 .LVL6
C:\msys64\tmp\ccJBuPX0.s:815    .text:0000000000000318 .LVL62
C:\msys64\tmp\ccJBuPX0.s:92     .text:0000000000000054 .LVL3
C:\msys64\tmp\ccJBuPX0.s:323    .text:0000000000000118 .LVL15
C:\msys64\tmp\ccJBuPX0.s:346    .text:0000000000000134 .LVL16
C:\msys64\tmp\ccJBuPX0.s:832    .text:000000000000032c .LVL65
C:\msys64\tmp\ccJBuPX0.s:968    .text:0000000000000418 .LVL80
C:\msys64\tmp\ccJBuPX0.s:1176   .text:00000000000004ec .LVL95
C:\msys64\tmp\ccJBuPX0.s:85     .text:0000000000000050 .LVL2
C:\msys64\tmp\ccJBuPX0.s:827    .text:0000000000000324 .LVL64
C:\msys64\tmp\ccJBuPX0.s:369    .text:0000000000000148 .LVL18
C:\msys64\tmp\ccJBuPX0.s:459    .text:00000000000001c4 .LVL25
C:\msys64\tmp\ccJBuPX0.s:507    .text:00000000000001f4 .LVL31
C:\msys64\tmp\ccJBuPX0.s:536    .text:0000000000000214 .LVL34
C:\msys64\tmp\ccJBuPX0.s:596    .text:0000000000000250 .LVL40
C:\msys64\tmp\ccJBuPX0.s:647    .text:0000000000000280 .LVL46
C:\msys64\tmp\ccJBuPX0.s:688    .text:00000000000002a4 .LVL50
C:\msys64\tmp\ccJBuPX0.s:731    .text:00000000000002c8 .LVL54
C:\msys64\tmp\ccJBuPX0.s:761    .text:00000000000002ec .LVL57
C:\msys64\tmp\ccJBuPX0.s:799    .text:0000000000000308 .LVL60
C:\msys64\tmp\ccJBuPX0.s:118    .text:0000000000000084 .LVL4
C:\msys64\tmp\ccJBuPX0.s:139    .text:00000000000000b0 .LVL5
C:\msys64\tmp\ccJBuPX0.s:482    .text:00000000000001dc .LVL27
C:\msys64\tmp\ccJBuPX0.s:79     .text:0000000000000048 .LVL1
C:\msys64\tmp\ccJBuPX0.s:192    .text:00000000000000e8 .LVL7
C:\msys64\tmp\ccJBuPX0.s:387    .text:0000000000000154 .LVL19
C:\msys64\tmp\ccJBuPX0.s:746    .text:00000000000002d8 .LVL55
C:\msys64\tmp\ccJBuPX0.s:1162   .text:00000000000004e8 .LVL94
C:\msys64\tmp\ccJBuPX0.s:275    .text:00000000000000f8 .LVL8
C:\msys64\tmp\ccJBuPX0.s:279    .text:00000000000000fc .LVL9
C:\msys64\tmp\ccJBuPX0.s:290    .text:0000000000000108 .LVL11
C:\msys64\tmp\ccJBuPX0.s:406    .text:000000000000017c .LVL21
C:\msys64\tmp\ccJBuPX0.s:414    .text:000000000000018c .LVL22
C:\msys64\tmp\ccJBuPX0.s:443    .text:00000000000001b8 .LVL24
C:\msys64\tmp\ccJBuPX0.s:553    .text:0000000000000224 .LVL36
C:\msys64\tmp\ccJBuPX0.s:568    .text:0000000000000238 .LVL38
C:\msys64\tmp\ccJBuPX0.s:580    .text:0000000000000244 .LVL39
C:\msys64\tmp\ccJBuPX0.s:608    .text:0000000000000254 .LVL41
C:\msys64\tmp\ccJBuPX0.s:620    .text:0000000000000260 .LVL42
C:\msys64\tmp\ccJBuPX0.s:637    .text:0000000000000270 .LVL44
C:\msys64\tmp\ccJBuPX0.s:657    .text:0000000000000284 .LVL47
C:\msys64\tmp\ccJBuPX0.s:669    .text:0000000000000290 .LVL48
C:\msys64\tmp\ccJBuPX0.s:700    .text:00000000000002a8 .LVL51
C:\msys64\tmp\ccJBuPX0.s:712    .text:00000000000002b4 .LVL52
C:\msys64\tmp\ccJBuPX0.s:475    .text:00000000000001d8 .LVL26
C:\msys64\tmp\ccJBuPX0.s:484    .text:00000000000001e0 .LVL28
C:\msys64\tmp\ccJBuPX0.s:496    .text:00000000000001e8 .LVL29
C:\msys64\tmp\ccJBuPX0.s:521    .text:0000000000000200 .LVL32
C:\msys64\tmp\ccJBuPX0.s:777    .text:00000000000002f8 .LVL58
C:\msys64\tmp\ccJBuPX0.s:300    .text:000000000000010c .LVL12
C:\msys64\tmp\ccJBuPX0.s:308    .text:0000000000000110 .LVL13
C:\msys64\tmp\ccJBuPX0.s:315    .text:0000000000000114 .LVL14
C:\msys64\tmp\ccJBuPX0.s:853    .text:000000000000034c .LVL67
C:\msys64\tmp\ccJBuPX0.s:1001   .text:000000000000043c .LVL82
C:\msys64\tmp\ccJBuPX0.s:1037   .text:0000000000000480 .LVL85
C:\msys64\tmp\ccJBuPX0.s:1021   .text:0000000000000460 .LVL83
GAS LISTING C:\msys64\tmp\ccJBuPX0.s 			page 51


C:\msys64\tmp\ccJBuPX0.s:1029   .text:0000000000000470 .LVL84
C:\msys64\tmp\ccJBuPX0.s:1136   .text:00000000000004d8 .LVL91
C:\msys64\tmp\ccJBuPX0.s:1144   .text:00000000000004dc .LVL92
C:\msys64\tmp\ccJBuPX0.s:1151   .text:00000000000004e0 .LVL93
C:\msys64\tmp\ccJBuPX0.s:1048   .text:0000000000000488 .LVL86
C:\msys64\tmp\ccJBuPX0.s:1054   .text:000000000000048c .LVL87
C:\msys64\tmp\ccJBuPX0.s:1064   .text:0000000000000498 .LVL88
C:\msys64\tmp\ccJBuPX0.s:1073   .text:00000000000004a0 .LVL89
C:\msys64\tmp\ccJBuPX0.s:1231   .debug_info:0000000000000000 .Ldebug_info0
C:\msys64\tmp\ccJBuPX0.s:977    .text:0000000000000418 .LBB120
C:\msys64\tmp\ccJBuPX0.s:988    .text:0000000000000428 .LBE120
C:\msys64\tmp\ccJBuPX0.s:999    .text:000000000000043c .LBB128
C:\msys64\tmp\ccJBuPX0.s:1041   .text:0000000000000480 .LBE128
C:\msys64\tmp\ccJBuPX0.s:982    .text:0000000000000418 .LBE121
C:\msys64\tmp\ccJBuPX0.s:1015   .text:0000000000000454 .LBB127
C:\msys64\tmp\ccJBuPX0.s:1040   .text:0000000000000480 .LBE127
C:\msys64\tmp\ccJBuPX0.s:821    .text:0000000000000318 .LBB148
C:\msys64\tmp\ccJBuPX0.s:840    .text:0000000000000338 .LBE148
C:\msys64\tmp\ccJBuPX0.s:843    .text:000000000000033c .LBB166
C:\msys64\tmp\ccJBuPX0.s:972    .text:0000000000000418 .LBE166
C:\msys64\tmp\ccJBuPX0.s:146    .text:00000000000000b0 .LBB170
C:\msys64\tmp\ccJBuPX0.s:328    .text:0000000000000118 .LBE170
C:\msys64\tmp\ccJBuPX0.s:350    .text:0000000000000134 .LBB234
C:\msys64\tmp\ccJBuPX0.s:819    .text:0000000000000318 .LBE234
C:\msys64\tmp\ccJBuPX0.s:1171   .text:00000000000004e8 .LBB237
C:\msys64\tmp\ccJBuPX0.s:1186   .text:0000000000000504 .LBE237
C:\msys64\tmp\ccJBuPX0.s:540    .text:0000000000000214 .LBB197
C:\msys64\tmp\ccJBuPX0.s:600    .text:0000000000000250 .LBE197
C:\msys64\tmp\ccJBuPX0.s:1173   .text:00000000000004e8 .LBB227
C:\msys64\tmp\ccJBuPX0.s:1184   .text:0000000000000504 .LBE227
C:\msys64\tmp\ccJBuPX0.s:1192   .gcc_except_table:0000000000000000 .LLSDA35

UNDEFINED SYMBOLS
_ZN7_thread16timeSliceCounterE
_ZN7_thread12sleepingHeadE
_ZN15MemoryAllocator7kmallocEm
_ZN15MemoryAllocator5kfreeEPv
_ZN7_thread12createThreadEPFvPvES0_S0_
_ZN9Scheduler3putEP7_thread
_ZN7_thread7runningE
_ZN7_thread8dispatchEv
_ZN4_semC1Ei
_ZN4_sem5closeEv
_ZdlPv
_ZN4_sem4waitEv
_ZN4_sem6signalEv
_ZN7_thread10time_sleepEm
_ZN8_console4getcEv
_ZN8_console4putcEc
plic_claim
plic_complete
CONSOLE_RX_DATA
_ZN8_console10ensureInitEv
_ZN8_console6inbuffE
_ZN6Buffer3putEc
_ZN8_console5inSemE
CONSOLE_STATUS
GAS LISTING C:\msys64\tmp\ccJBuPX0.s 			page 52


_ZN6Buffer6isFullEv
_ZN8_console7outbuffE
_ZN6Buffer7isEmptyEv
_ZN6Buffer3getEv
CONSOLE_TX_DATA
_ZN8_console6outSemE
_Unwind_Resume
__gxx_personality_v0
