GAS LISTING C:\msys64\tmp\ccDJHNFl.s 			page 1


   1              		.file	"riscv.cpp"
   2              		.option nopic
   3              		.option norelax
   4              		.attribute arch, "rv64i2p0_m2p0_a2p0"
   5              		.attribute unaligned_access, 0
   6              		.attribute stack_align, 16
   7              		.text
   8              	.Ltext0:
   9              		.align	2
  10              		.globl	_ZN5Riscv10popSppSpieEv
  12              	_ZN5Riscv10popSppSpieEv:
  13              	.LFB29:
  14              		.file 1 "src/riscv.cpp"
   1:src/riscv.cpp **** #include "../h/riscv.h"
   2:src/riscv.cpp **** #include "../lib/console.h"
   3:src/riscv.cpp **** #include "../h/MemoryAllocator.h"
   4:src/riscv.cpp **** #include "../h/Thread.h"
   5:src/riscv.cpp **** 
   6:src/riscv.cpp **** void Riscv::popSppSpie(){
  15              		.loc 1 6 25
  16              		.cfi_startproc
  17 0000 130101FF 		addi	sp,sp,-16
  18              		.cfi_def_cfa_offset 16
  19 0004 23348100 		sd	s0,8(sp)
  20              		.cfi_offset 8, -8
  21 0008 13040101 		addi	s0,sp,16
  22              		.cfi_def_cfa 8, 0
   7:src/riscv.cpp **** 	__asm__ volatile("csrw sepc, ra");
  23              		.loc 1 7 2
  24              	 #APP
  25              	# 7 "src/riscv.cpp" 1
   8              		__asm__ volatile ("sret");
  26              		csrw sepc, ra
  27              	# 0 "" 2
  28              		.loc 1 8 2
  29              	# 8 "src/riscv.cpp" 1
   9              	}
  30              		sret
  31              	# 0 "" 2
  32              		.loc 1 9 1 is_stmt 0
  33              	 #NO_APP
  34 0014 03348100 		ld	s0,8(sp)
  35              		.cfi_restore 8
  36              		.cfi_def_cfa 2, 16
  37 0018 13010101 		addi	sp,sp,16
  38              		.cfi_def_cfa_offset 0
  39 001c 67800000 		jr	ra
  40              		.cfi_endproc
  41              	.LFE29:
  43              		.align	2
  44              		.globl	_ZN5Riscv20handleSupervisorTrapEPm
  46              	_ZN5Riscv20handleSupervisorTrapEPm:
  47              	.LFB30:
  10:src/riscv.cpp **** void Riscv::handleSupervisorTrap(uint64* regs) {
  48              		.loc 1 10 48 is_stmt 1
  49              		.cfi_startproc
  50              	.LVL0:
GAS LISTING C:\msys64\tmp\ccDJHNFl.s 			page 2


  51 0020 130101FA 		addi	sp,sp,-96
  52              		.cfi_def_cfa_offset 96
  53 0024 233C1104 		sd	ra,88(sp)
  54 0028 23388104 		sd	s0,80(sp)
  55 002c 23349104 		sd	s1,72(sp)
  56 0030 23302105 		sd	s2,64(sp)
  57 0034 233C3103 		sd	s3,56(sp)
  58              		.cfi_offset 1, -8
  59              		.cfi_offset 8, -16
  60              		.cfi_offset 9, -24
  61              		.cfi_offset 18, -32
  62              		.cfi_offset 19, -40
  63 0038 13040106 		addi	s0,sp,96
  64              		.cfi_def_cfa 8, 0
  11:src/riscv.cpp **** 
  12:src/riscv.cpp ****     uint64 scause = r_scause();
  65              		.loc 1 12 5
  66              	.LBB39:
  67              	.LBB40:
  68              		.file 2 "src/../h/riscv.h"
   1:src/../h/riscv.h ****     //
   2:src/../h/riscv.h ****     // Created by os on 3/31/26.
   3:src/../h/riscv.h ****     //
   4:src/../h/riscv.h **** 
   5:src/../h/riscv.h ****     #ifndef PROJECT_BASE_RISCB_H
   6:src/../h/riscv.h ****     #define PROJECT_BASE_RISCB_H
   7:src/../h/riscv.h ****     #include "../lib/hw.h"
   8:src/../h/riscv.h **** 
   9:src/../h/riscv.h ****     class Riscv {
  10:src/../h/riscv.h ****     public:
  11:src/../h/riscv.h **** 	
  12:src/../h/riscv.h **** 	static void popSppSpie();
  13:src/../h/riscv.h **** 	
  14:src/../h/riscv.h **** 	
  15:src/../h/riscv.h ****         static uint64 r_scause();
  16:src/../h/riscv.h **** 
  17:src/../h/riscv.h ****         static void w_scause(uint64 scause);
  18:src/../h/riscv.h **** 
  19:src/../h/riscv.h ****         static uint64 r_sepc();
  20:src/../h/riscv.h **** 
  21:src/../h/riscv.h ****         static void w_sepc(uint64 sepc);
  22:src/../h/riscv.h **** 
  23:src/../h/riscv.h ****         static uint64 r_stvec();
  24:src/../h/riscv.h **** 
  25:src/../h/riscv.h ****         static void w_stvec(uint64 stvec);
  26:src/../h/riscv.h **** 
  27:src/../h/riscv.h ****         static uint64 r_stval();
  28:src/../h/riscv.h **** 
  29:src/../h/riscv.h ****         static void w_stval(uint64 stval);
  30:src/../h/riscv.h **** 
  31:src/../h/riscv.h ****         enum BitMaskSip {
  32:src/../h/riscv.h ****             SIP_SSIP = (1 << 1),
  33:src/../h/riscv.h ****             SIP_STIP = (1 << 5),
  34:src/../h/riscv.h ****             SIP_SEIP = (1 << 9),
  35:src/../h/riscv.h ****         };
  36:src/../h/riscv.h **** 
  37:src/../h/riscv.h ****         static void ms_sip(uint64 mask);
GAS LISTING C:\msys64\tmp\ccDJHNFl.s 			page 3


  38:src/../h/riscv.h **** 
  39:src/../h/riscv.h ****         static void mc_sip(uint64 mask);
  40:src/../h/riscv.h **** 
  41:src/../h/riscv.h ****         static uint64 r_sip();
  42:src/../h/riscv.h **** 
  43:src/../h/riscv.h ****         static void w_sip(uint64 sip);
  44:src/../h/riscv.h **** 
  45:src/../h/riscv.h ****         enum BitMaskSstatus {
  46:src/../h/riscv.h ****             SSTATUS_SIE = (1 << 1),
  47:src/../h/riscv.h ****             SSTATUS_SPIE = (1 << 5),
  48:src/../h/riscv.h ****             SSTATUS_SPP = (1 <<8),
  49:src/../h/riscv.h ****         };
  50:src/../h/riscv.h **** 
  51:src/../h/riscv.h ****         static void ms_sstatus(uint64 mask);
  52:src/../h/riscv.h **** 
  53:src/../h/riscv.h ****         static void mc_sstatus(uint64 mask);
  54:src/../h/riscv.h **** 
  55:src/../h/riscv.h ****         static uint64 r_sstatus();
  56:src/../h/riscv.h **** 
  57:src/../h/riscv.h ****         static void w_sstatus(uint64 sstatus);
  58:src/../h/riscv.h **** 
  59:src/../h/riscv.h ****        
  60:src/../h/riscv.h **** 
  61:src/../h/riscv.h **** 
  62:src/../h/riscv.h ****         static void supervisorTrap();
  63:src/../h/riscv.h ****     private:
  64:src/../h/riscv.h ****         static void handleSupervisorTrap(uint64* regs);
  65:src/../h/riscv.h **** 
  66:src/../h/riscv.h ****     };
  67:src/../h/riscv.h **** 
  68:src/../h/riscv.h ****     inline uint64 Riscv::r_scause()
  69:src/../h/riscv.h ****     {
  70:src/../h/riscv.h ****         uint64 volatile scause;
  69              		.loc 2 70 9
  71:src/../h/riscv.h ****         __asm__ volatile ("csrr %[scause], scause" : [scause] "=r"(scause));
  70              		.loc 2 71 9
  71              	 #APP
  72              	# 71 "src/../h/riscv.h" 1
  72              	        return scause;
  73              		csrr a5, scause
  74              	# 0 "" 2
  75              	 #NO_APP
  76 0040 2334F4FA 		sd	a5,-88(s0)
  77              		.loc 2 72 9
  78              		.loc 2 72 16 is_stmt 0
  79 0044 033784FA 		ld	a4,-88(s0)
  80              	.LVL1:
  81              	.LBE40:
  82              	.LBE39:
  13:src/riscv.cpp ****     if (scause == 0x0000000000000008UL || scause == 0x0000000000000009UL) {
  83              		.loc 1 13 5 is_stmt 1
  84              	.LBB41:
  85              		.loc 1 13 40 is_stmt 0
  86 0048 930687FF 		addi	a3,a4,-8
  87              		.loc 1 13 5
  88 004c 93071000 		li	a5,1
  89 0050 63FAD704 		bleu	a3,a5,.L14
GAS LISTING C:\msys64\tmp\ccDJHNFl.s 			page 4


  90              	.LBE41:
  14:src/riscv.cpp **** 		uint64 call = regs[10]; // x10 je A0
  15:src/riscv.cpp ****         uint64 arg1 = regs[11]; // x11 je A1
  16:src/riscv.cpp ****         
  17:src/riscv.cpp ****         uint64 sepc = r_sepc() + 4;
  18:src/riscv.cpp ****         uint64 sstatus = r_sstatus();
  19:src/riscv.cpp **** 
  20:src/riscv.cpp ****         switch(call) {
  21:src/riscv.cpp ****             case 0x01: {
  22:src/riscv.cpp ****                 size_t bytes = (size_t)arg1 * MEM_BLOCK_SIZE;
  23:src/riscv.cpp ****                 void* ret = MemoryAllocator::kmalloc(bytes);
  24:src/riscv.cpp ****                 regs[10] = (uint64)ret; // Upisujemo povratnu vrednost direktno u x10 na steku
  25:src/riscv.cpp ****                 break;
  26:src/riscv.cpp ****             }
  27:src/riscv.cpp ****             case 0x02: {
  28:src/riscv.cpp ****                 int ret = MemoryAllocator::kfree((void*)arg1);
  29:src/riscv.cpp ****                 regs[10] = (uint64)ret;
  30:src/riscv.cpp ****                 break;
  31:src/riscv.cpp ****             }
  32:src/riscv.cpp ****             default:
  33:src/riscv.cpp **** 			{
  34:src/riscv.cpp **** 				Thread::timeSliceCounter = 0;
  35:src/riscv.cpp ****                 Thread::dispatch();
  36:src/riscv.cpp ****                 break;
  37:src/riscv.cpp **** 			}
  38:src/riscv.cpp **** 				
  39:src/riscv.cpp ****         }
  40:src/riscv.cpp ****         w_sstatus(sstatus);
  41:src/riscv.cpp ****         w_sepc(sepc);
  42:src/riscv.cpp **** 				
  43:src/riscv.cpp **** 
  44:src/riscv.cpp ****         
  45:src/riscv.cpp ****     	w_sstatus(sstatus);
  46:src/riscv.cpp ****     	w_sepc(sepc);
  47:src/riscv.cpp **** 	}
  48:src/riscv.cpp **** 	else if (scause == 0x8000000000000009UL) {
  91              		.loc 1 48 7 is_stmt 1
  92              	.LBB84:
  93              	.LBB42:
  94 0054 9307F0FF 		li	a5,-1
  95 0058 9397F703 		slli	a5,a5,63
  96 005c 93879700 		addi	a5,a5,9
  97 0060 630EF70C 		beq	a4,a5,.L15
  98              	.LBE42:
  99              	.LBE84:
  49:src/riscv.cpp ****         console_handler();
  50:src/riscv.cpp ****     } else if (scause == 0x8000000000000001UL) {
 100              		.loc 1 50 12
 101              	.LBB85:
 102              	.LBB62:
 103              	.LBB43:
 104 0064 9307F0FF 		li	a5,-1
 105 0068 9397F703 		slli	a5,a5,63
 106 006c 93871700 		addi	a5,a5,1
 107 0070 6310F70A 		bne	a4,a5,.L3
 108              	.LBB44:
  51:src/riscv.cpp ****     	Thread::timeSliceCounter++;
GAS LISTING C:\msys64\tmp\ccDJHNFl.s 			page 5


 109              		.loc 1 51 6
 110              		.loc 1 51 30 is_stmt 0
 111 0074 17070000 		lla	a4,_ZN6Thread16timeSliceCounterE
 111      13070700 
 112              	.LVL2:
 113 007c 83370700 		ld	a5,0(a4)
 114 0080 93871700 		addi	a5,a5,1
 115 0084 2330F700 		sd	a5,0(a4)
  52:src/riscv.cpp ****     if(Thread::timeSliceCounter >= Thread::running -> getTimeSlice())
 116              		.loc 1 52 5 is_stmt 1
 117              	.LBB45:
 118              		.loc 1 52 67 is_stmt 0
 119 0088 17070000 		ld	a4,_ZN6Thread7runningE
 119      03370700 
 120              	.LVL3:
 121              	.LBB46:
 122              	.LBB47:
 123              		.file 3 "src/../h/Thread.h"
   1:src/../h/Thread.h ****  #ifndef PROJEKAT_THREAD_H
   2:src/../h/Thread.h **** #define PROJEKAT_THREAD_H
   3:src/../h/Thread.h **** 
   4:src/../h/Thread.h **** #include "../lib/hw.h"
   5:src/../h/Thread.h **** #include "MemoryAllocator.h"
   6:src/../h/Thread.h **** #include "Scheduler.h"
   7:src/../h/Thread.h **** 
   8:src/../h/Thread.h **** class Thread {
   9:src/../h/Thread.h **** public:
  10:src/../h/Thread.h ****     ~Thread() {delete[] stack;};
  11:src/../h/Thread.h ****     using Body = void (*)();
  12:src/../h/Thread.h **** 
  13:src/../h/Thread.h ****     static Thread* createThread(Body body);
  14:src/../h/Thread.h ****     
  15:src/../h/Thread.h ****     static Thread* running;
  16:src/../h/Thread.h **** 
  17:src/../h/Thread.h ****     static void yield();
  18:src/../h/Thread.h **** 
  19:src/../h/Thread.h **** 
  20:src/../h/Thread.h ****     static void dispatch();
  21:src/../h/Thread.h **** 
  22:src/../h/Thread.h ****     bool isFinished(){return finished;};
  23:src/../h/Thread.h **** 	
  24:src/../h/Thread.h **** 	uint64 getTimeSlice() const {
  25:src/../h/Thread.h **** 	return timeSlice;
 124              		.loc 3 25 2 is_stmt 1
 125              		.loc 3 25 9 is_stmt 0
 126 0090 03378702 		ld	a4,40(a4)
 127              	.LVL4:
 128              	.LBE47:
 129              	.LBE46:
 130              		.loc 1 52 5
 131 0094 63FAE70A 		bgeu	a5,a4,.L16
 132              	.LVL5:
 133              	.L11:
 134              	.LBE45:
  53:src/riscv.cpp ****     {
  54:src/riscv.cpp ****     	uint64 sepc = r_sepc();
  55:src/riscv.cpp ****     	uint64 sstatus = r_sstatus();
GAS LISTING C:\msys64\tmp\ccDJHNFl.s 			page 6


  56:src/riscv.cpp ****     	Thread::timeSliceCounter = 0;
  57:src/riscv.cpp ****     	Thread::dispatch();
  58:src/riscv.cpp ****     	w_sstatus(sstatus);
  59:src/riscv.cpp ****     	w_sepc(sepc);
  60:src/riscv.cpp ****     	
  61:src/riscv.cpp ****     }
  62:src/riscv.cpp ****         mc_sip(SIP_SSIP);
 135              		.loc 1 62 9 is_stmt 1
 136              	.LBB57:
 137              	.LBB58:
  73:src/../h/riscv.h ****     }
  74:src/../h/riscv.h **** 
  75:src/../h/riscv.h ****     inline void Riscv::w_scause(uint64 scause)
  76:src/../h/riscv.h ****     {
  77:src/../h/riscv.h ****         __asm__ volatile ("csrw scause, %[scause]" : : [scause] "r"(scause));
  78:src/../h/riscv.h ****     }
  79:src/../h/riscv.h **** 
  80:src/../h/riscv.h ****     inline uint64 Riscv::r_sepc()
  81:src/../h/riscv.h ****     {
  82:src/../h/riscv.h ****         uint64 volatile sepc;
  83:src/../h/riscv.h ****         __asm__ volatile ("csrr %[sepc], sepc" : [sepc] "=r"(sepc));
  84:src/../h/riscv.h ****         return sepc;
  85:src/../h/riscv.h ****     }
  86:src/../h/riscv.h **** 
  87:src/../h/riscv.h ****     inline void Riscv::w_sepc(uint64 sepc)
  88:src/../h/riscv.h ****     {
  89:src/../h/riscv.h ****         __asm__ volatile ("csrw sepc, %[sepc]" : : [sepc] "r"(sepc));
  90:src/../h/riscv.h ****     }
  91:src/../h/riscv.h **** 
  92:src/../h/riscv.h ****     inline uint64 Riscv::r_stvec()
  93:src/../h/riscv.h ****     {
  94:src/../h/riscv.h ****         uint64 volatile stvec;
  95:src/../h/riscv.h ****         __asm__ volatile ("csrr %[stvec], stvec" : [stvec] "=r"(stvec));
  96:src/../h/riscv.h ****         return stvec;
  97:src/../h/riscv.h ****     }
  98:src/../h/riscv.h **** 
  99:src/../h/riscv.h ****     inline void Riscv::w_stvec(uint64 stvec)
 100:src/../h/riscv.h ****     {
 101:src/../h/riscv.h ****         __asm__ volatile ("csrw stvec, %[stvec]" : : [stvec] "r"(stvec));
 102:src/../h/riscv.h ****     }
 103:src/../h/riscv.h **** 
 104:src/../h/riscv.h ****     inline uint64 Riscv::r_stval()
 105:src/../h/riscv.h ****     {
 106:src/../h/riscv.h ****         uint64 volatile stval;
 107:src/../h/riscv.h ****         __asm__ volatile ("csrr %[stval], stval" : [stval] "=r"(stval));
 108:src/../h/riscv.h ****         return stval;
 109:src/../h/riscv.h ****     }
 110:src/../h/riscv.h **** 
 111:src/../h/riscv.h ****     inline void Riscv::w_stval(uint64 stval)
 112:src/../h/riscv.h ****     {
 113:src/../h/riscv.h ****         __asm__ volatile ("csrw stval, %[stval]" : : [stval] "r"(stval));
 114:src/../h/riscv.h ****     }
 115:src/../h/riscv.h **** 
 116:src/../h/riscv.h ****     inline void Riscv::ms_sip(uint64 mask)
 117:src/../h/riscv.h ****     {
 118:src/../h/riscv.h ****         __asm__ volatile ("csrs sip, %[mask]" : : [mask] "r"(mask));
 119:src/../h/riscv.h ****     }
GAS LISTING C:\msys64\tmp\ccDJHNFl.s 			page 7


 120:src/../h/riscv.h **** 
 121:src/../h/riscv.h ****     inline void Riscv::mc_sip(uint64 mask)
 122:src/../h/riscv.h ****     {
 123:src/../h/riscv.h ****         __asm__ volatile ("csrc sip, %[mask]" : : [mask] "r"(mask));
 138              		.loc 2 123 9
 139 0098 93072000 		li	a5,2
 140              	 #APP
 141              	# 123 "src/../h/riscv.h" 1
 124              	    }
 142              		csrc sip, a5
 143              	# 0 "" 2
 144              	.LVL6:
 145              	 #NO_APP
 146              	.LBE58:
 147              	.LBE57:
 148              	.LBE44:
 149              	.LBE43:
 150              	.LBE62:
 151              	.LBE85:
  63:src/riscv.cpp ****     } else {
  64:src/riscv.cpp ****        
  65:src/riscv.cpp ****     }
  66:src/riscv.cpp **** }
 152              		.loc 1 66 1 is_stmt 0
 153 00a0 6F000007 		j	.L3
 154              	.LVL7:
 155              	.L14:
 156 00a4 93040500 		mv	s1,a0
 157              	.LBB86:
 158              	.LBB63:
  14:src/riscv.cpp ****         uint64 arg1 = regs[11]; // x11 je A1
 159              		.loc 1 14 3 is_stmt 1
  14:src/riscv.cpp ****         uint64 arg1 = regs[11]; // x11 je A1
 160              		.loc 1 14 10 is_stmt 0
 161 00a8 83370505 		ld	a5,80(a0)
 162              	.LVL8:
  15:src/riscv.cpp ****         
 163              		.loc 1 15 9 is_stmt 1
  15:src/riscv.cpp ****         
 164              		.loc 1 15 16 is_stmt 0
 165 00ac 03358505 		ld	a0,88(a0)
 166              	.LVL9:
  17:src/riscv.cpp ****         uint64 sstatus = r_sstatus();
 167              		.loc 1 17 9 is_stmt 1
 168              	.LBB64:
 169              	.LBB65:
  82:src/../h/riscv.h ****         __asm__ volatile ("csrr %[sepc], sepc" : [sepc] "=r"(sepc));
 170              		.loc 2 82 9
  83:src/../h/riscv.h ****         return sepc;
 171              		.loc 2 83 9
 172              	 #APP
 173              	# 83 "src/../h/riscv.h" 1
 174              		csrr a4, sepc
 175              	# 0 "" 2
 176              	.LVL10:
 177              	 #NO_APP
 178 00b4 233CE4FA 		sd	a4,-72(s0)
GAS LISTING C:\msys64\tmp\ccDJHNFl.s 			page 8


  84:src/../h/riscv.h ****     }
 179              		.loc 2 84 9
  84:src/../h/riscv.h ****     }
 180              		.loc 2 84 16 is_stmt 0
 181 00b8 033984FB 		ld	s2,-72(s0)
 182              	.LBE65:
 183              	.LBE64:
  17:src/riscv.cpp ****         uint64 sstatus = r_sstatus();
 184              		.loc 1 17 34
 185 00bc 13094900 		addi	s2,s2,4
 186              	.LVL11:
  18:src/riscv.cpp **** 
 187              		.loc 1 18 9 is_stmt 1
 188              	.LBB66:
 189              	.LBB67:
 125:src/../h/riscv.h **** 
 126:src/../h/riscv.h ****     inline uint64 Riscv::r_sip()
 127:src/../h/riscv.h ****     {
 128:src/../h/riscv.h ****         uint64 volatile sip;
 129:src/../h/riscv.h ****         __asm__ volatile ("csrr %[sip], sip" : [sip] "=r"(sip));
 130:src/../h/riscv.h ****         return sip;
 131:src/../h/riscv.h ****     }
 132:src/../h/riscv.h **** 
 133:src/../h/riscv.h ****     inline void Riscv::w_sip(uint64 sip)
 134:src/../h/riscv.h ****     {
 135:src/../h/riscv.h ****         __asm__ volatile ("csrw sip, %[sip]" : : [sip] "r"(sip));
 136:src/../h/riscv.h ****     }
 137:src/../h/riscv.h **** 
 138:src/../h/riscv.h ****     inline void Riscv::ms_sstatus(uint64 mask)
 139:src/../h/riscv.h ****     {
 140:src/../h/riscv.h ****         __asm__ volatile ("csrs sstatus, %[mask]" : : [mask] "r"(mask));
 141:src/../h/riscv.h ****     }
 142:src/../h/riscv.h **** 
 143:src/../h/riscv.h ****     inline void Riscv::mc_sstatus(uint64 mask)
 144:src/../h/riscv.h ****     {
 145:src/../h/riscv.h ****         __asm__ volatile ("csrc sstatus, %[mask]" : : [mask] "r"(mask));
 146:src/../h/riscv.h ****     }
 147:src/../h/riscv.h **** 
 148:src/../h/riscv.h ****     inline uint64 Riscv::r_sstatus()
 149:src/../h/riscv.h ****     {
 150:src/../h/riscv.h ****         uint64 volatile sstatus;
 190              		.loc 2 150 9
 151:src/../h/riscv.h ****         __asm__ volatile ("csrr %[sstatus], sstatus" : [sstatus] "=r"(sstatus));
 191              		.loc 2 151 9
 192              	 #APP
 193              	# 151 "src/../h/riscv.h" 1
 152              	        return sstatus;
 194              		csrr a4, sstatus
 195              	# 0 "" 2
 196              	 #NO_APP
 197 00c4 2338E4FA 		sd	a4,-80(s0)
 198              		.loc 2 152 9
 199              		.loc 2 152 16 is_stmt 0
 200 00c8 833904FB 		ld	s3,-80(s0)
 201              	.LVL12:
 202              	.LBE67:
 203              	.LBE66:
GAS LISTING C:\msys64\tmp\ccDJHNFl.s 			page 9


  20:src/riscv.cpp ****             case 0x01: {
 204              		.loc 1 20 9 is_stmt 1
 205              	.LBB68:
 206 00cc 13071000 		li	a4,1
 207 00d0 6380E702 		beq	a5,a4,.L5
 208 00d4 13072000 		li	a4,2
 209 00d8 638AE704 		beq	a5,a4,.L6
 210              	.LBB69:
  32:src/riscv.cpp **** 			{
 211              		.loc 1 32 13
  33:src/riscv.cpp **** 				Thread::timeSliceCounter = 0;
 212              		.loc 1 33 4
  34:src/riscv.cpp ****                 Thread::dispatch();
 213              		.loc 1 34 5
  34:src/riscv.cpp ****                 Thread::dispatch();
 214              		.loc 1 34 30 is_stmt 0
 215 00dc 97070000 		sd	zero,_ZN6Thread16timeSliceCounterE,a5
 215      23B00700 
 216              	.LVL13:
  35:src/riscv.cpp ****                 break;
 217              		.loc 1 35 17 is_stmt 1
  35:src/riscv.cpp ****                 break;
 218              		.loc 1 35 33 is_stmt 0
 219 00e4 97000000 		call	_ZN6Thread8dispatchEv
 219      E7800000 
 220              	.LVL14:
  36:src/riscv.cpp **** 			}
 221              		.loc 1 36 17 is_stmt 1
 222 00ec 6F004001 		j	.L8
 223              	.LVL15:
 224              	.L5:
  21:src/riscv.cpp ****                 size_t bytes = (size_t)arg1 * MEM_BLOCK_SIZE;
 225              		.loc 1 21 13
  21:src/riscv.cpp ****                 size_t bytes = (size_t)arg1 * MEM_BLOCK_SIZE;
 226              		.loc 1 21 24
 227              	.LBB70:
  22:src/riscv.cpp ****                 void* ret = MemoryAllocator::kmalloc(bytes);
 228              		.loc 1 22 17
  23:src/riscv.cpp ****                 regs[10] = (uint64)ret; // Upisujemo povratnu vrednost direktno u x10 na steku
 229              		.loc 1 23 17
  23:src/riscv.cpp ****                 regs[10] = (uint64)ret; // Upisujemo povratnu vrednost direktno u x10 na steku
 230              		.loc 1 23 53 is_stmt 0
 231 00f0 13156500 		slli	a0,a0,6
 232              	.LVL16:
 233 00f4 97000000 		call	_ZN15MemoryAllocator7kmallocEm
 233      E7800000 
 234              	.LVL17:
  24:src/riscv.cpp ****                 break;
 235              		.loc 1 24 17 is_stmt 1
  24:src/riscv.cpp ****                 break;
 236              		.loc 1 24 26 is_stmt 0
 237 00fc 23B8A404 		sd	a0,80(s1)
  25:src/riscv.cpp ****             }
 238              		.loc 1 25 17 is_stmt 1
 239              	.LVL18:
 240              	.L8:
 241              	.LBE70:
GAS LISTING C:\msys64\tmp\ccDJHNFl.s 			page 10


 242              	.LBE69:
 243              	.LBE68:
  40:src/riscv.cpp ****         w_sepc(sepc);
 244              		.loc 1 40 9
 245              	.LBB73:
 246              	.LBB74:
 153:src/../h/riscv.h ****     }
 154:src/../h/riscv.h **** 
 155:src/../h/riscv.h ****     inline void Riscv::w_sstatus(uint64 sstatus)
 156:src/../h/riscv.h ****     {
 157:src/../h/riscv.h ****         __asm__ volatile ("csrw sstatus, %[sstatus]" : : [sstatus] "r"(sstatus));
 247              		.loc 2 157 9
 248              	 #APP
 249              	# 157 "src/../h/riscv.h" 1
 158              	    }
 250              		csrw sstatus, s3
 251              	# 0 "" 2
 252              	.LVL19:
 253              	 #NO_APP
 254              	.LBE74:
 255              	.LBE73:
  41:src/riscv.cpp **** 				
 256              		.loc 1 41 9
 257              	.LBB75:
 258              	.LBB76:
  89:src/../h/riscv.h ****     }
 259              		.loc 2 89 9
 260              	 #APP
 261              	# 89 "src/../h/riscv.h" 1
 262              		csrw sepc, s2
 263              	# 0 "" 2
 264              	.LVL20:
 265              	 #NO_APP
 266              	.LBE76:
 267              	.LBE75:
  45:src/riscv.cpp ****     	w_sepc(sepc);
 268              		.loc 1 45 6
 269              	.LBB77:
 270              	.LBB78:
 157:src/../h/riscv.h ****     }
 271              		.loc 2 157 9
 272              	 #APP
 273              	# 157 "src/../h/riscv.h" 1
 274              		csrw sstatus, s3
 275              	# 0 "" 2
 276              	.LVL21:
 277              	 #NO_APP
 278              	.LBE78:
 279              	.LBE77:
  46:src/riscv.cpp **** 	}
 280              		.loc 1 46 6
 281              	.LBB79:
 282              	.LBB80:
  89:src/../h/riscv.h ****     }
 283              		.loc 2 89 9
 284              	 #APP
 285              	# 89 "src/../h/riscv.h" 1
GAS LISTING C:\msys64\tmp\ccDJHNFl.s 			page 11


 286              		csrw sepc, s2
 287              	# 0 "" 2
 288              	.LVL22:
 289              	 #NO_APP
 290              	.L3:
 291              	.LBE80:
 292              	.LBE79:
 293              	.LBE63:
 294              	.LBE86:
 295              		.loc 1 66 1 is_stmt 0
 296 0110 83308105 		ld	ra,88(sp)
 297              		.cfi_remember_state
 298              		.cfi_restore 1
 299 0114 03340105 		ld	s0,80(sp)
 300              		.cfi_restore 8
 301              		.cfi_def_cfa 2, 96
 302 0118 83348104 		ld	s1,72(sp)
 303              		.cfi_restore 9
 304 011c 03390104 		ld	s2,64(sp)
 305              		.cfi_restore 18
 306 0120 83398103 		ld	s3,56(sp)
 307              		.cfi_restore 19
 308 0124 13010106 		addi	sp,sp,96
 309              		.cfi_def_cfa_offset 0
 310 0128 67800000 		jr	ra
 311              	.LVL23:
 312              	.L6:
 313              		.cfi_restore_state
 314              	.LBB87:
 315              	.LBB82:
 316              	.LBB81:
 317              	.LBB72:
  27:src/riscv.cpp ****                 int ret = MemoryAllocator::kfree((void*)arg1);
 318              		.loc 1 27 13 is_stmt 1
  27:src/riscv.cpp ****                 int ret = MemoryAllocator::kfree((void*)arg1);
 319              		.loc 1 27 24
 320              	.LBB71:
  28:src/riscv.cpp ****                 regs[10] = (uint64)ret;
 321              		.loc 1 28 17
  28:src/riscv.cpp ****                 regs[10] = (uint64)ret;
 322              		.loc 1 28 49 is_stmt 0
 323 012c 97000000 		call	_ZN15MemoryAllocator5kfreeEPv
 323      E7800000 
 324              	.LVL24:
  29:src/riscv.cpp ****                 break;
 325              		.loc 1 29 17 is_stmt 1
  29:src/riscv.cpp ****                 break;
 326              		.loc 1 29 26 is_stmt 0
 327 0134 23B8A404 		sd	a0,80(s1)
  30:src/riscv.cpp ****             }
 328              		.loc 1 30 17 is_stmt 1
 329 0138 6FF09FFC 		j	.L8
 330              	.LVL25:
 331              	.L15:
 332              	.LBE71:
 333              	.LBE72:
 334              	.LBE81:
GAS LISTING C:\msys64\tmp\ccDJHNFl.s 			page 12


 335              	.LBE82:
 336              	.LBB83:
  49:src/riscv.cpp ****     } else if (scause == 0x8000000000000001UL) {
 337              		.loc 1 49 9
  49:src/riscv.cpp ****     } else if (scause == 0x8000000000000001UL) {
 338              		.loc 1 49 24 is_stmt 0
 339 013c 97000000 		call	console_handler
 339      E7800000 
 340              	.LVL26:
 341 0144 6FF0DFFC 		j	.L3
 342              	.LVL27:
 343              	.L16:
 344              	.LBB61:
 345              	.LBB60:
 346              	.LBB59:
 347              	.LBB48:
  54:src/riscv.cpp ****     	uint64 sstatus = r_sstatus();
 348              		.loc 1 54 6 is_stmt 1
 349              	.LBB49:
 350              	.LBB50:
  82:src/../h/riscv.h ****         __asm__ volatile ("csrr %[sepc], sepc" : [sepc] "=r"(sepc));
 351              		.loc 2 82 9
  83:src/../h/riscv.h ****         return sepc;
 352              		.loc 2 83 9
 353              	 #APP
 354              	# 83 "src/../h/riscv.h" 1
 355              		csrr a5, sepc
 356              	# 0 "" 2
 357              	 #NO_APP
 358 014c 2334F4FC 		sd	a5,-56(s0)
  84:src/../h/riscv.h ****     }
 359              		.loc 2 84 9
  84:src/../h/riscv.h ****     }
 360              		.loc 2 84 16 is_stmt 0
 361 0150 833484FC 		ld	s1,-56(s0)
 362              	.LVL28:
 363              	.LBE50:
 364              	.LBE49:
  55:src/riscv.cpp ****     	Thread::timeSliceCounter = 0;
 365              		.loc 1 55 6 is_stmt 1
 366              	.LBB51:
 367              	.LBB52:
 150:src/../h/riscv.h ****         __asm__ volatile ("csrr %[sstatus], sstatus" : [sstatus] "=r"(sstatus));
 368              		.loc 2 150 9
 151:src/../h/riscv.h ****         return sstatus;
 369              		.loc 2 151 9
 370              	 #APP
 371              	# 151 "src/../h/riscv.h" 1
 372              		csrr a5, sstatus
 373              	# 0 "" 2
 374              	 #NO_APP
 375 0158 2330F4FC 		sd	a5,-64(s0)
 152:src/../h/riscv.h ****     }
 376              		.loc 2 152 9
 152:src/../h/riscv.h ****     }
 377              		.loc 2 152 16 is_stmt 0
 378 015c 033904FC 		ld	s2,-64(s0)
GAS LISTING C:\msys64\tmp\ccDJHNFl.s 			page 13


 379              	.LVL29:
 380              	.LBE52:
 381              	.LBE51:
  56:src/riscv.cpp ****     	Thread::dispatch();
 382              		.loc 1 56 6 is_stmt 1
  56:src/riscv.cpp ****     	Thread::dispatch();
 383              		.loc 1 56 31 is_stmt 0
 384 0160 97070000 		sd	zero,_ZN6Thread16timeSliceCounterE,a5
 384      23B00700 
  57:src/riscv.cpp ****     	w_sstatus(sstatus);
 385              		.loc 1 57 6 is_stmt 1
  57:src/riscv.cpp ****     	w_sstatus(sstatus);
 386              		.loc 1 57 22 is_stmt 0
 387 0168 97000000 		call	_ZN6Thread8dispatchEv
 387      E7800000 
 388              	.LVL30:
  58:src/riscv.cpp ****     	w_sepc(sepc);
 389              		.loc 1 58 6 is_stmt 1
 390              	.LBB53:
 391              	.LBB54:
 157:src/../h/riscv.h ****     }
 392              		.loc 2 157 9
 393              	 #APP
 394              	# 157 "src/../h/riscv.h" 1
 395              		csrw sstatus, s2
 396              	# 0 "" 2
 397              	.LVL31:
 398              	 #NO_APP
 399              	.LBE54:
 400              	.LBE53:
  59:src/riscv.cpp ****     	
 401              		.loc 1 59 6
 402              	.LBB55:
 403              	.LBB56:
  89:src/../h/riscv.h ****     }
 404              		.loc 2 89 9
 405              	 #APP
 406              	# 89 "src/../h/riscv.h" 1
  90:src/../h/riscv.h **** 
 407              		csrw sepc, s1
 408              	# 0 "" 2
 409              		.loc 2 90 5 is_stmt 0
 410              	 #NO_APP
 411 0178 6FF01FF2 		j	.L11
 412              	.LBE56:
 413              	.LBE55:
 414              	.LBE48:
 415              	.LBE59:
 416              	.LBE60:
 417              	.LBE61:
 418              	.LBE83:
 419              	.LBE87:
 420              		.cfi_endproc
 421              	.LFE30:
 423              	.Letext0:
 424              		.file 4 "src/../h/../lib/hw.h"
 425              		.file 5 "src/../h/MemoryAllocator.h"
GAS LISTING C:\msys64\tmp\ccDJHNFl.s 			page 14


 426              		.file 6 "src/../lib/console.h"
GAS LISTING C:\msys64\tmp\ccDJHNFl.s 			page 15


DEFINED SYMBOLS
                            *ABS*:0000000000000000 riscv.cpp
C:\msys64\tmp\ccDJHNFl.s:12     .text:0000000000000000 _ZN5Riscv10popSppSpieEv
C:\msys64\tmp\ccDJHNFl.s:16     .text:0000000000000000 .L0 
C:\msys64\tmp\ccDJHNFl.s:17     .text:0000000000000000 .L0 
C:\msys64\tmp\ccDJHNFl.s:18     .text:0000000000000004 .L0 
C:\msys64\tmp\ccDJHNFl.s:20     .text:0000000000000008 .L0 
C:\msys64\tmp\ccDJHNFl.s:22     .text:000000000000000c .L0 
       src/riscv.cpp:7      .text:000000000000000c .L0 
       src/riscv.cpp:8      .text:0000000000000010 .L0 
C:\msys64\tmp\ccDJHNFl.s:34     .text:0000000000000014 .L0 
C:\msys64\tmp\ccDJHNFl.s:35     .text:0000000000000018 .L0 
C:\msys64\tmp\ccDJHNFl.s:36     .text:0000000000000018 .L0 
C:\msys64\tmp\ccDJHNFl.s:38     .text:000000000000001c .L0 
C:\msys64\tmp\ccDJHNFl.s:40     .text:0000000000000020 .L0 
C:\msys64\tmp\ccDJHNFl.s:46     .text:0000000000000020 _ZN5Riscv20handleSupervisorTrapEPm
C:\msys64\tmp\ccDJHNFl.s:49     .text:0000000000000020 .L0 
C:\msys64\tmp\ccDJHNFl.s:51     .text:0000000000000020 .L0 
C:\msys64\tmp\ccDJHNFl.s:52     .text:0000000000000024 .L0 
C:\msys64\tmp\ccDJHNFl.s:58     .text:0000000000000038 .L0 
C:\msys64\tmp\ccDJHNFl.s:59     .text:0000000000000038 .L0 
C:\msys64\tmp\ccDJHNFl.s:60     .text:0000000000000038 .L0 
C:\msys64\tmp\ccDJHNFl.s:61     .text:0000000000000038 .L0 
C:\msys64\tmp\ccDJHNFl.s:62     .text:0000000000000038 .L0 
C:\msys64\tmp\ccDJHNFl.s:64     .text:000000000000003c .L0 
C:\msys64\tmp\ccDJHNFl.s:69     .text:000000000000003c .L0 
C:\msys64\tmp\ccDJHNFl.s:70     .text:000000000000003c .L0 
    src/../h/riscv.h:71     .text:000000000000003c .L0 
C:\msys64\tmp\ccDJHNFl.s:78     .text:0000000000000044 .L0 
C:\msys64\tmp\ccDJHNFl.s:79     .text:0000000000000044 .L0 
C:\msys64\tmp\ccDJHNFl.s:85     .text:0000000000000048 .L0 
C:\msys64\tmp\ccDJHNFl.s:86     .text:0000000000000048 .L0 
C:\msys64\tmp\ccDJHNFl.s:88     .text:000000000000004c .L0 
C:\msys64\tmp\ccDJHNFl.s:94     .text:0000000000000054 .L0 
C:\msys64\tmp\ccDJHNFl.s:104    .text:0000000000000064 .L0 
C:\msys64\tmp\ccDJHNFl.s:110    .text:0000000000000074 .L0 
C:\msys64\tmp\ccDJHNFl.s:111    .text:0000000000000074 .L0 
C:\msys64\tmp\ccDJHNFl.s:118    .text:0000000000000088 .L0 
C:\msys64\tmp\ccDJHNFl.s:119    .text:0000000000000088 .L0 
C:\msys64\tmp\ccDJHNFl.s:125    .text:0000000000000090 .L0 
C:\msys64\tmp\ccDJHNFl.s:126    .text:0000000000000090 .L0 
C:\msys64\tmp\ccDJHNFl.s:131    .text:0000000000000094 .L0 
C:\msys64\tmp\ccDJHNFl.s:138    .text:0000000000000098 .L0 
C:\msys64\tmp\ccDJHNFl.s:139    .text:0000000000000098 .L0 
C:\msys64\tmp\ccDJHNFl.s:153    .text:00000000000000a0 .L0 
C:\msys64\tmp\ccDJHNFl.s:160    .text:00000000000000a8 .L0 
C:\msys64\tmp\ccDJHNFl.s:161    .text:00000000000000a8 .L0 
C:\msys64\tmp\ccDJHNFl.s:164    .text:00000000000000ac .L0 
C:\msys64\tmp\ccDJHNFl.s:165    .text:00000000000000ac .L0 
C:\msys64\tmp\ccDJHNFl.s:170    .text:00000000000000b0 .L0 
C:\msys64\tmp\ccDJHNFl.s:171    .text:00000000000000b0 .L0 
    src/../h/riscv.h:83     .text:00000000000000b0 .L0 
C:\msys64\tmp\ccDJHNFl.s:180    .text:00000000000000b8 .L0 
C:\msys64\tmp\ccDJHNFl.s:181    .text:00000000000000b8 .L0 
C:\msys64\tmp\ccDJHNFl.s:185    .text:00000000000000bc .L0 
C:\msys64\tmp\ccDJHNFl.s:190    .text:00000000000000c0 .L0 
C:\msys64\tmp\ccDJHNFl.s:191    .text:00000000000000c0 .L0 
GAS LISTING C:\msys64\tmp\ccDJHNFl.s 			page 16


    src/../h/riscv.h:151    .text:00000000000000c0 .L0 
C:\msys64\tmp\ccDJHNFl.s:199    .text:00000000000000c8 .L0 
C:\msys64\tmp\ccDJHNFl.s:200    .text:00000000000000c8 .L0 
C:\msys64\tmp\ccDJHNFl.s:206    .text:00000000000000cc .L0 
C:\msys64\tmp\ccDJHNFl.s:212    .text:00000000000000dc .L0 
C:\msys64\tmp\ccDJHNFl.s:213    .text:00000000000000dc .L0 
C:\msys64\tmp\ccDJHNFl.s:214    .text:00000000000000dc .L0 
C:\msys64\tmp\ccDJHNFl.s:215    .text:00000000000000dc .L0 
C:\msys64\tmp\ccDJHNFl.s:218    .text:00000000000000e4 .L0 
C:\msys64\tmp\ccDJHNFl.s:219    .text:00000000000000e4 .L0 
C:\msys64\tmp\ccDJHNFl.s:222    .text:00000000000000ec .L0 
C:\msys64\tmp\ccDJHNFl.s:226    .text:00000000000000f0 .L0 
C:\msys64\tmp\ccDJHNFl.s:228    .text:00000000000000f0 .L0 
C:\msys64\tmp\ccDJHNFl.s:229    .text:00000000000000f0 .L0 
C:\msys64\tmp\ccDJHNFl.s:230    .text:00000000000000f0 .L0 
C:\msys64\tmp\ccDJHNFl.s:231    .text:00000000000000f0 .L0 
C:\msys64\tmp\ccDJHNFl.s:236    .text:00000000000000fc .L0 
C:\msys64\tmp\ccDJHNFl.s:237    .text:00000000000000fc .L0 
C:\msys64\tmp\ccDJHNFl.s:244    .text:0000000000000100 .L0 
C:\msys64\tmp\ccDJHNFl.s:247    .text:0000000000000100 .L0 
    src/../h/riscv.h:157    .text:0000000000000100 .L0 
C:\msys64\tmp\ccDJHNFl.s:259    .text:0000000000000104 .L0 
    src/../h/riscv.h:89     .text:0000000000000104 .L0 
C:\msys64\tmp\ccDJHNFl.s:271    .text:0000000000000108 .L0 
    src/../h/riscv.h:157    .text:0000000000000108 .L0 
C:\msys64\tmp\ccDJHNFl.s:283    .text:000000000000010c .L0 
    src/../h/riscv.h:89     .text:000000000000010c .L0 
C:\msys64\tmp\ccDJHNFl.s:296    .text:0000000000000110 .L0 
C:\msys64\tmp\ccDJHNFl.s:297    .text:0000000000000114 .L0 
C:\msys64\tmp\ccDJHNFl.s:298    .text:0000000000000114 .L0 
C:\msys64\tmp\ccDJHNFl.s:300    .text:0000000000000118 .L0 
C:\msys64\tmp\ccDJHNFl.s:301    .text:0000000000000118 .L0 
C:\msys64\tmp\ccDJHNFl.s:303    .text:000000000000011c .L0 
C:\msys64\tmp\ccDJHNFl.s:305    .text:0000000000000120 .L0 
C:\msys64\tmp\ccDJHNFl.s:307    .text:0000000000000124 .L0 
C:\msys64\tmp\ccDJHNFl.s:309    .text:0000000000000128 .L0 
C:\msys64\tmp\ccDJHNFl.s:313    .text:000000000000012c .L0 
C:\msys64\tmp\ccDJHNFl.s:319    .text:000000000000012c .L0 
C:\msys64\tmp\ccDJHNFl.s:321    .text:000000000000012c .L0 
C:\msys64\tmp\ccDJHNFl.s:322    .text:000000000000012c .L0 
C:\msys64\tmp\ccDJHNFl.s:323    .text:000000000000012c .L0 
C:\msys64\tmp\ccDJHNFl.s:326    .text:0000000000000134 .L0 
C:\msys64\tmp\ccDJHNFl.s:327    .text:0000000000000134 .L0 
C:\msys64\tmp\ccDJHNFl.s:329    .text:0000000000000138 .L0 
C:\msys64\tmp\ccDJHNFl.s:338    .text:000000000000013c .L0 
C:\msys64\tmp\ccDJHNFl.s:339    .text:000000000000013c .L0 
C:\msys64\tmp\ccDJHNFl.s:351    .text:0000000000000148 .L0 
C:\msys64\tmp\ccDJHNFl.s:352    .text:0000000000000148 .L0 
    src/../h/riscv.h:83     .text:0000000000000148 .L0 
C:\msys64\tmp\ccDJHNFl.s:360    .text:0000000000000150 .L0 
C:\msys64\tmp\ccDJHNFl.s:361    .text:0000000000000150 .L0 
C:\msys64\tmp\ccDJHNFl.s:368    .text:0000000000000154 .L0 
C:\msys64\tmp\ccDJHNFl.s:369    .text:0000000000000154 .L0 
    src/../h/riscv.h:151    .text:0000000000000154 .L0 
C:\msys64\tmp\ccDJHNFl.s:377    .text:000000000000015c .L0 
C:\msys64\tmp\ccDJHNFl.s:378    .text:000000000000015c .L0 
C:\msys64\tmp\ccDJHNFl.s:383    .text:0000000000000160 .L0 
GAS LISTING C:\msys64\tmp\ccDJHNFl.s 			page 17


C:\msys64\tmp\ccDJHNFl.s:384    .text:0000000000000160 .L0 
C:\msys64\tmp\ccDJHNFl.s:386    .text:0000000000000168 .L0 
C:\msys64\tmp\ccDJHNFl.s:387    .text:0000000000000168 .L0 
C:\msys64\tmp\ccDJHNFl.s:392    .text:0000000000000170 .L0 
    src/../h/riscv.h:157    .text:0000000000000170 .L0 
C:\msys64\tmp\ccDJHNFl.s:404    .text:0000000000000174 .L0 
    src/../h/riscv.h:89     .text:0000000000000174 .L0 
C:\msys64\tmp\ccDJHNFl.s:411    .text:0000000000000178 .L0 
C:\msys64\tmp\ccDJHNFl.s:420    .text:000000000000017c .L0 
C:\msys64\tmp\ccDJHNFl.s:427    .text:000000000000017c .L0 
C:\msys64\tmp\ccDJHNFl.s:111    .text:0000000000000074 .L0 
C:\msys64\tmp\ccDJHNFl.s:119    .text:0000000000000088 .L0 
C:\msys64\tmp\ccDJHNFl.s:215    .text:00000000000000dc .L0 
C:\msys64\tmp\ccDJHNFl.s:384    .text:0000000000000160 .L0 
C:\msys64\tmp\ccDJHNFl.s:155    .text:00000000000000a4 .L14
C:\msys64\tmp\ccDJHNFl.s:331    .text:000000000000013c .L15
C:\msys64\tmp\ccDJHNFl.s:290    .text:0000000000000110 .L3
C:\msys64\tmp\ccDJHNFl.s:343    .text:0000000000000148 .L16
C:\msys64\tmp\ccDJHNFl.s:224    .text:00000000000000f0 .L5
C:\msys64\tmp\ccDJHNFl.s:312    .text:000000000000012c .L6
C:\msys64\tmp\ccDJHNFl.s:240    .text:0000000000000100 .L8
C:\msys64\tmp\ccDJHNFl.s:133    .text:0000000000000098 .L11
C:\msys64\tmp\ccDJHNFl.s:1506   .debug_abbrev:0000000000000000 .Ldebug_abbrev0
C:\msys64\tmp\ccDJHNFl.s:2725   .debug_str:00000000000000d0 .LASF105
C:\msys64\tmp\ccDJHNFl.s:2839   .debug_str:00000000000004dc .LASF106
C:\msys64\tmp\ccDJHNFl.s:2851   .debug_str:0000000000000528 .LASF107
C:\msys64\tmp\ccDJHNFl.s:8      .text:0000000000000000 .Ltext0
C:\msys64\tmp\ccDJHNFl.s:423    .text:000000000000017c .Letext0
C:\msys64\tmp\ccDJHNFl.s:2691   .debug_line:0000000000000000 .Ldebug_line0
C:\msys64\tmp\ccDJHNFl.s:2817   .debug_str:000000000000044f .LASF0
C:\msys64\tmp\ccDJHNFl.s:2835   .debug_str:00000000000004b6 .LASF1
C:\msys64\tmp\ccDJHNFl.s:2801   .debug_str:00000000000003e6 .LASF2
C:\msys64\tmp\ccDJHNFl.s:2777   .debug_str:0000000000000356 .LASF4
C:\msys64\tmp\ccDJHNFl.s:2871   .debug_str:00000000000005fa .LASF3
C:\msys64\tmp\ccDJHNFl.s:2713   .debug_str:000000000000007e .LASF5
C:\msys64\tmp\ccDJHNFl.s:2837   .debug_str:00000000000004c9 .LASF6
C:\msys64\tmp\ccDJHNFl.s:2815   .debug_str:000000000000043c .LASF7
C:\msys64\tmp\ccDJHNFl.s:2849   .debug_str:0000000000000519 .LASF8
C:\msys64\tmp\ccDJHNFl.s:2723   .debug_str:00000000000000c4 .LASF9
C:\msys64\tmp\ccDJHNFl.s:2863   .debug_str:00000000000005a1 .LASF10
C:\msys64\tmp\ccDJHNFl.s:2737   .debug_str:0000000000000222 .LASF11
C:\msys64\tmp\ccDJHNFl.s:2831   .debug_str:00000000000004a5 .LASF51
C:\msys64\tmp\ccDJHNFl.s:2789   .debug_str:0000000000000389 .LASF108
C:\msys64\tmp\ccDJHNFl.s:2879   .debug_str:0000000000000633 .LASF12
C:\msys64\tmp\ccDJHNFl.s:2829   .debug_str:000000000000049c .LASF13
C:\msys64\tmp\ccDJHNFl.s:2783   .debug_str:000000000000036b .LASF14
C:\msys64\tmp\ccDJHNFl.s:2859   .debug_str:0000000000000577 .LASF47
C:\msys64\tmp\ccDJHNFl.s:2913   .debug_str:0000000000000739 .LASF49
C:\msys64\tmp\ccDJHNFl.s:2701   .debug_str:0000000000000053 .LASF15
C:\msys64\tmp\ccDJHNFl.s:2753   .debug_str:00000000000002a0 .LASF17
C:\msys64\tmp\ccDJHNFl.s:2749   .debug_str:000000000000028f .LASF19
C:\msys64\tmp\ccDJHNFl.s:2747   .debug_str:000000000000027a .LASF21
C:\msys64\tmp\ccDJHNFl.s:2875   .debug_str:000000000000061d .LASF16
C:\msys64\tmp\ccDJHNFl.s:2853   .debug_str:0000000000000557 .LASF18
C:\msys64\tmp\ccDJHNFl.s:2887   .debug_str:0000000000000679 .LASF20
C:\msys64\tmp\ccDJHNFl.s:2883   .debug_str:0000000000000654 .LASF22
C:\msys64\tmp\ccDJHNFl.s:2761   .debug_str:00000000000002e1 .LASF23
GAS LISTING C:\msys64\tmp\ccDJHNFl.s 			page 18


C:\msys64\tmp\ccDJHNFl.s:2739   .debug_str:0000000000000238 .LASF24
C:\msys64\tmp\ccDJHNFl.s:2695   .debug_str:0000000000000019 .LASF25
C:\msys64\tmp\ccDJHNFl.s:2769   .debug_str:000000000000031b .LASF26
C:\msys64\tmp\ccDJHNFl.s:2889   .debug_str:0000000000000680 .LASF27
C:\msys64\tmp\ccDJHNFl.s:2717   .debug_str:000000000000008a .LASF28
C:\msys64\tmp\ccDJHNFl.s:2921   .debug_str:0000000000000770 .LASF29
C:\msys64\tmp\ccDJHNFl.s:2755   .debug_str:00000000000002b5 .LASF30
C:\msys64\tmp\ccDJHNFl.s:2819   .debug_str:000000000000045c .LASF31
C:\msys64\tmp\ccDJHNFl.s:2907   .debug_str:0000000000000718 .LASF32
C:\msys64\tmp\ccDJHNFl.s:2711   .debug_str:0000000000000077 .LASF33
C:\msys64\tmp\ccDJHNFl.s:2759   .debug_str:00000000000002ce .LASF34
C:\msys64\tmp\ccDJHNFl.s:2765   .debug_str:00000000000002ff .LASF35
C:\msys64\tmp\ccDJHNFl.s:2885   .debug_str:0000000000000667 .LASF36
C:\msys64\tmp\ccDJHNFl.s:2709   .debug_str:0000000000000071 .LASF37
C:\msys64\tmp\ccDJHNFl.s:2927   .debug_str:0000000000000782 .LASF38
C:\msys64\tmp\ccDJHNFl.s:2919   .debug_str:0000000000000765 .LASF39
C:\msys64\tmp\ccDJHNFl.s:2869   .debug_str:00000000000005e2 .LASF40
C:\msys64\tmp\ccDJHNFl.s:2833   .debug_str:00000000000004ab .LASF41
C:\msys64\tmp\ccDJHNFl.s:2881   .debug_str:000000000000063c .LASF42
C:\msys64\tmp\ccDJHNFl.s:2721   .debug_str:00000000000000ba .LASF43
C:\msys64\tmp\ccDJHNFl.s:2775   .debug_str:0000000000000340 .LASF44
C:\msys64\tmp\ccDJHNFl.s:2807   .debug_str:0000000000000407 .LASF45
C:\msys64\tmp\ccDJHNFl.s:2767   .debug_str:0000000000000305 .LASF46
C:\msys64\tmp\ccDJHNFl.s:2877   .debug_str:0000000000000624 .LASF48
C:\msys64\tmp\ccDJHNFl.s:2719   .debug_str:000000000000009e .LASF50
C:\msys64\tmp\ccDJHNFl.s:2905   .debug_str:0000000000000703 .LASF63
C:\msys64\tmp\ccDJHNFl.s:2865   .debug_str:00000000000005b7 .LASF65
C:\msys64\tmp\ccDJHNFl.s:2799   .debug_str:00000000000003d6 .LASF52
C:\msys64\tmp\ccDJHNFl.s:2901   .debug_str:00000000000006f0 .LASF69
C:\msys64\tmp\ccDJHNFl.s:2811   .debug_str:000000000000041b .LASF53
C:\msys64\tmp\ccDJHNFl.s:2857   .debug_str:0000000000000572 .LASF54
C:\msys64\tmp\ccDJHNFl.s:2745   .debug_str:0000000000000261 .LASF55
C:\msys64\tmp\ccDJHNFl.s:2897   .debug_str:00000000000006a1 .LASF56
C:\msys64\tmp\ccDJHNFl.s:2809   .debug_str:0000000000000411 .LASF109
C:\msys64\tmp\ccDJHNFl.s:2791   .debug_str:0000000000000394 .LASF110
C:\msys64\tmp\ccDJHNFl.s:2893   .debug_str:0000000000000692 .LASF57
C:\msys64\tmp\ccDJHNFl.s:2861   .debug_str:0000000000000582 .LASF59
C:\msys64\tmp\ccDJHNFl.s:2727   .debug_str:00000000000001a3 .LASF58
C:\msys64\tmp\ccDJHNFl.s:2699   .debug_str:0000000000000035 .LASF60
C:\msys64\tmp\ccDJHNFl.s:2843   .debug_str:00000000000004f5 .LASF86
C:\msys64\tmp\ccDJHNFl.s:2813   .debug_str:0000000000000420 .LASF88
C:\msys64\tmp\ccDJHNFl.s:2741   .debug_str:000000000000024c .LASF61
C:\msys64\tmp\ccDJHNFl.s:2805   .debug_str:0000000000000400 .LASF62
C:\msys64\tmp\ccDJHNFl.s:2911   .debug_str:0000000000000730 .LASF64
C:\msys64\tmp\ccDJHNFl.s:2899   .debug_str:00000000000006bd .LASF66
C:\msys64\tmp\ccDJHNFl.s:2757   .debug_str:00000000000002c9 .LASF67
C:\msys64\tmp\ccDJHNFl.s:2895   .debug_str:000000000000069a .LASF68
C:\msys64\tmp\ccDJHNFl.s:2707   .debug_str:0000000000000069 .LASF70
C:\msys64\tmp\ccDJHNFl.s:2867   .debug_str:00000000000005da .LASF71
C:\msys64\tmp\ccDJHNFl.s:2827   .debug_str:000000000000048d .LASF72
C:\msys64\tmp\ccDJHNFl.s:2787   .debug_str:000000000000037c .LASF73
C:\msys64\tmp\ccDJHNFl.s:2735   .debug_str:0000000000000203 .LASF74
C:\msys64\tmp\ccDJHNFl.s:2715   .debug_str:0000000000000085 .LASF111
C:\msys64\tmp\ccDJHNFl.s:2751   .debug_str:0000000000000298 .LASF112
C:\msys64\tmp\ccDJHNFl.s:2705   .debug_str:0000000000000063 .LASF75
C:\msys64\tmp\ccDJHNFl.s:2733   .debug_str:00000000000001f0 .LASF76
C:\msys64\tmp\ccDJHNFl.s:2821   .debug_str:0000000000000463 .LASF77
GAS LISTING C:\msys64\tmp\ccDJHNFl.s 			page 19


C:\msys64\tmp\ccDJHNFl.s:2763   .debug_str:00000000000002e9 .LASF78
C:\msys64\tmp\ccDJHNFl.s:2841   .debug_str:00000000000004ea .LASF79
C:\msys64\tmp\ccDJHNFl.s:2693   .debug_str:0000000000000000 .LASF80
C:\msys64\tmp\ccDJHNFl.s:2797   .debug_str:00000000000003c9 .LASF81
C:\msys64\tmp\ccDJHNFl.s:2823   .debug_str:000000000000046c .LASF82
C:\msys64\tmp\ccDJHNFl.s:2803   .debug_str:00000000000003f4 .LASF83
C:\msys64\tmp\ccDJHNFl.s:2847   .debug_str:00000000000004ff .LASF84
C:\msys64\tmp\ccDJHNFl.s:2697   .debug_str:0000000000000021 .LASF85
C:\msys64\tmp\ccDJHNFl.s:2795   .debug_str:00000000000003bb .LASF87
C:\msys64\tmp\ccDJHNFl.s:2729   .debug_str:00000000000001a9 .LASF89
C:\msys64\tmp\ccDJHNFl.s:2915   .debug_str:0000000000000751 .LASF113
C:\msys64\tmp\ccDJHNFl.s:2731   .debug_str:00000000000001c5 .LASF114
C:\msys64\tmp\ccDJHNFl.s:2781   .debug_str:0000000000000366 .LASF90
C:\msys64\tmp\ccDJHNFl.s:2917   .debug_str:000000000000075f .LASF91
C:\msys64\tmp\ccDJHNFl.s:2785   .debug_str:0000000000000374 .LASF92
C:\msys64\tmp\ccDJHNFl.s:2891   .debug_str:0000000000000688 .LASF93
C:\msys64\tmp\ccDJHNFl.s:2779   .debug_str:000000000000035d .LASF94
C:\msys64\tmp\ccDJHNFl.s:2873   .debug_str:000000000000060c .LASF95
C:\msys64\tmp\ccDJHNFl.s:2793   .debug_str:00000000000003b0 .LASF96
C:\msys64\tmp\ccDJHNFl.s:2773   .debug_str:0000000000000335 .LASF97
C:\msys64\tmp\ccDJHNFl.s:47     .text:0000000000000020 .LFB30
C:\msys64\tmp\ccDJHNFl.s:421    .text:000000000000017c .LFE30
C:\msys64\tmp\ccDJHNFl.s:2923   .debug_str:0000000000000778 .LASF115
C:\msys64\tmp\ccDJHNFl.s:2429   .debug_loc:0000000000000000 .LLST0
C:\msys64\tmp\ccDJHNFl.s:2703   .debug_str:000000000000005c .LASF98
C:\msys64\tmp\ccDJHNFl.s:2484   .debug_loc:00000000000000da .LLST1
C:\msys64\tmp\ccDJHNFl.s:2683   .debug_ranges:0000000000000000 .Ldebug_ranges0
C:\msys64\tmp\ccDJHNFl.s:2845   .debug_str:00000000000004fa .LASF99
C:\msys64\tmp\ccDJHNFl.s:2529   .debug_loc:000000000000018c .LLST5
C:\msys64\tmp\ccDJHNFl.s:2903   .debug_str:00000000000006fe .LASF100
C:\msys64\tmp\ccDJHNFl.s:2549   .debug_loc:00000000000001ea .LLST6
C:\msys64\tmp\ccDJHNFl.s:2825   .debug_str:0000000000000488 .LASF101
C:\msys64\tmp\ccDJHNFl.s:2569   .debug_loc:0000000000000248 .LLST7
C:\msys64\tmp\ccDJHNFl.s:2855   .debug_str:000000000000056a .LASF102
C:\msys64\tmp\ccDJHNFl.s:2580   .debug_loc:000000000000027e .LLST8
C:\msys64\tmp\ccDJHNFl.s:227    .text:00000000000000f0 .LBB70
C:\msys64\tmp\ccDJHNFl.s:241    .text:0000000000000100 .LBE70
C:\msys64\tmp\ccDJHNFl.s:2771   .debug_str:000000000000032f .LASF103
C:\msys64\tmp\ccDJHNFl.s:2591   .debug_loc:00000000000002b4 .LLST9
C:\msys64\tmp\ccDJHNFl.s:2606   .debug_loc:00000000000002ee .LLST10
C:\msys64\tmp\ccDJHNFl.s:234    .text:00000000000000fc .LVL17
C:\msys64\tmp\ccDJHNFl.s:320    .text:000000000000012c .LBB71
C:\msys64\tmp\ccDJHNFl.s:332    .text:000000000000013c .LBE71
C:\msys64\tmp\ccDJHNFl.s:2613   .debug_loc:0000000000000311 .LLST11
C:\msys64\tmp\ccDJHNFl.s:324    .text:0000000000000134 .LVL24
C:\msys64\tmp\ccDJHNFl.s:168    .text:00000000000000b0 .LBB64
C:\msys64\tmp\ccDJHNFl.s:183    .text:00000000000000bc .LBE64
C:\msys64\tmp\ccDJHNFl.s:188    .text:00000000000000c0 .LBB66
C:\msys64\tmp\ccDJHNFl.s:203    .text:00000000000000cc .LBE66
C:\msys64\tmp\ccDJHNFl.s:245    .text:0000000000000100 .LBB73
C:\msys64\tmp\ccDJHNFl.s:255    .text:0000000000000104 .LBE73
C:\msys64\tmp\ccDJHNFl.s:2620   .debug_loc:0000000000000334 .LLST12
C:\msys64\tmp\ccDJHNFl.s:257    .text:0000000000000104 .LBB75
C:\msys64\tmp\ccDJHNFl.s:267    .text:0000000000000108 .LBE75
C:\msys64\tmp\ccDJHNFl.s:2627   .debug_loc:0000000000000357 .LLST13
C:\msys64\tmp\ccDJHNFl.s:269    .text:0000000000000108 .LBB77
C:\msys64\tmp\ccDJHNFl.s:279    .text:000000000000010c .LBE77
GAS LISTING C:\msys64\tmp\ccDJHNFl.s 			page 20


C:\msys64\tmp\ccDJHNFl.s:2634   .debug_loc:000000000000037a .LLST14
C:\msys64\tmp\ccDJHNFl.s:281    .text:000000000000010c .LBB79
C:\msys64\tmp\ccDJHNFl.s:292    .text:0000000000000110 .LBE79
C:\msys64\tmp\ccDJHNFl.s:2641   .debug_loc:000000000000039d .LLST15
C:\msys64\tmp\ccDJHNFl.s:220    .text:00000000000000ec .LVL14
C:\msys64\tmp\ccDJHNFl.s:347    .text:0000000000000148 .LBB48
C:\msys64\tmp\ccDJHNFl.s:414    .text:000000000000017c .LBE48
C:\msys64\tmp\ccDJHNFl.s:349    .text:0000000000000148 .LBB49
C:\msys64\tmp\ccDJHNFl.s:364    .text:0000000000000154 .LBE49
C:\msys64\tmp\ccDJHNFl.s:366    .text:0000000000000154 .LBB51
C:\msys64\tmp\ccDJHNFl.s:381    .text:0000000000000160 .LBE51
C:\msys64\tmp\ccDJHNFl.s:390    .text:0000000000000170 .LBB53
C:\msys64\tmp\ccDJHNFl.s:400    .text:0000000000000174 .LBE53
C:\msys64\tmp\ccDJHNFl.s:2648   .debug_loc:00000000000003c0 .LLST3
C:\msys64\tmp\ccDJHNFl.s:402    .text:0000000000000174 .LBB55
C:\msys64\tmp\ccDJHNFl.s:413    .text:000000000000017c .LBE55
C:\msys64\tmp\ccDJHNFl.s:388    .text:0000000000000170 .LVL30
C:\msys64\tmp\ccDJHNFl.s:66     .text:000000000000003c .LBB39
C:\msys64\tmp\ccDJHNFl.s:82     .text:0000000000000048 .LBE39
C:\msys64\tmp\ccDJHNFl.s:121    .text:0000000000000090 .LBB46
C:\msys64\tmp\ccDJHNFl.s:129    .text:0000000000000094 .LBE46
C:\msys64\tmp\ccDJHNFl.s:2655   .debug_loc:00000000000003e3 .LLST2
C:\msys64\tmp\ccDJHNFl.s:136    .text:0000000000000098 .LBB57
C:\msys64\tmp\ccDJHNFl.s:147    .text:00000000000000a0 .LBE57
C:\msys64\tmp\ccDJHNFl.s:2662   .debug_loc:0000000000000406 .LLST4
C:\msys64\tmp\ccDJHNFl.s:340    .text:0000000000000144 .LVL26
C:\msys64\tmp\ccDJHNFl.s:13     .text:0000000000000000 .LFB29
C:\msys64\tmp\ccDJHNFl.s:41     .text:0000000000000020 .LFE29
C:\msys64\tmp\ccDJHNFl.s:2909   .debug_str:000000000000072b .LASF116
C:\msys64\tmp\ccDJHNFl.s:2925   .debug_str:000000000000077d .LASF104
C:\msys64\tmp\ccDJHNFl.s:2743   .debug_str:0000000000000251 .LASF117
C:\msys64\tmp\ccDJHNFl.s:50     .text:0000000000000020 .LVL0
C:\msys64\tmp\ccDJHNFl.s:132    .text:0000000000000098 .LVL5
C:\msys64\tmp\ccDJHNFl.s:154    .text:00000000000000a4 .LVL7
C:\msys64\tmp\ccDJHNFl.s:166    .text:00000000000000b0 .LVL9
C:\msys64\tmp\ccDJHNFl.s:288    .text:0000000000000110 .LVL22
C:\msys64\tmp\ccDJHNFl.s:311    .text:000000000000012c .LVL23
C:\msys64\tmp\ccDJHNFl.s:330    .text:000000000000013c .LVL25
C:\msys64\tmp\ccDJHNFl.s:342    .text:0000000000000148 .LVL27
C:\msys64\tmp\ccDJHNFl.s:80     .text:0000000000000048 .LVL1
C:\msys64\tmp\ccDJHNFl.s:112    .text:000000000000007c .LVL2
C:\msys64\tmp\ccDJHNFl.s:176    .text:00000000000000b4 .LVL10
C:\msys64\tmp\ccDJHNFl.s:223    .text:00000000000000f0 .LVL15
C:\msys64\tmp\ccDJHNFl.s:162    .text:00000000000000ac .LVL8
C:\msys64\tmp\ccDJHNFl.s:216    .text:00000000000000e4 .LVL13
C:\msys64\tmp\ccDJHNFl.s:232    .text:00000000000000f4 .LVL16
C:\msys64\tmp\ccDJHNFl.s:186    .text:00000000000000c0 .LVL11
C:\msys64\tmp\ccDJHNFl.s:201    .text:00000000000000cc .LVL12
C:\msys64\tmp\ccDJHNFl.s:239    .text:0000000000000100 .LVL18
C:\msys64\tmp\ccDJHNFl.s:252    .text:0000000000000104 .LVL19
C:\msys64\tmp\ccDJHNFl.s:264    .text:0000000000000108 .LVL20
C:\msys64\tmp\ccDJHNFl.s:276    .text:000000000000010c .LVL21
C:\msys64\tmp\ccDJHNFl.s:397    .text:0000000000000174 .LVL31
C:\msys64\tmp\ccDJHNFl.s:120    .text:0000000000000090 .LVL3
C:\msys64\tmp\ccDJHNFl.s:127    .text:0000000000000094 .LVL4
C:\msys64\tmp\ccDJHNFl.s:144    .text:00000000000000a0 .LVL6
C:\msys64\tmp\ccDJHNFl.s:428    .debug_info:0000000000000000 .Ldebug_info0
GAS LISTING C:\msys64\tmp\ccDJHNFl.s 			page 21


C:\msys64\tmp\ccDJHNFl.s:158    .text:00000000000000a8 .LBB63
C:\msys64\tmp\ccDJHNFl.s:293    .text:0000000000000110 .LBE63
C:\msys64\tmp\ccDJHNFl.s:315    .text:000000000000012c .LBB82
C:\msys64\tmp\ccDJHNFl.s:335    .text:000000000000013c .LBE82

UNDEFINED SYMBOLS
_ZN6Thread16timeSliceCounterE
_ZN6Thread7runningE
_ZN6Thread8dispatchEv
_ZN15MemoryAllocator7kmallocEm
_ZN15MemoryAllocator5kfreeEPv
console_handler
