GAS LISTING /tmp/ccZidhAb.s 			page 1


   1              		.file	"riscv.cpp"
   2              		.option pic
   3              		.option norelax
   4              		.text
   5              	.Ltext0:
   6              		.align	2
   7              		.globl	_ZN5Riscv11handleEcallEPm
   9              	_ZN5Riscv11handleEcallEPm:
  10              	.LFB18:
  11              		.file 1 "src/riscv.cpp"
   1:src/riscv.cpp **** #include "../h/riscv.h"
   2:src/riscv.cpp **** #include "../lib/console.h"
   3:src/riscv.cpp **** #include "../h/MemoryAllocator.h"
   4:src/riscv.cpp **** 
   5:src/riscv.cpp **** void Riscv::handleEcall(uint64* regs) {
  12              		.loc 1 5 39
  13              		.cfi_startproc
  14              	.LVL0:
  15 0000 130101FC 		addi	sp,sp,-64
  16              		.cfi_def_cfa_offset 64
  17 0004 233C1102 		sd	ra,56(sp)
  18 0008 23388102 		sd	s0,48(sp)
  19 000c 23349102 		sd	s1,40(sp)
  20 0010 23302103 		sd	s2,32(sp)
  21 0014 233C3101 		sd	s3,24(sp)
  22              		.cfi_offset 1, -8
  23              		.cfi_offset 8, -16
  24              		.cfi_offset 9, -24
  25              		.cfi_offset 18, -32
  26              		.cfi_offset 19, -40
  27 0018 13040104 		addi	s0,sp,64
  28              		.cfi_def_cfa 8, 0
  29 001c 93040500 		mv	s1,a0
   6:src/riscv.cpp ****     // regs[10] je x10 (a0), regs[11] je x11 (a1)
   7:src/riscv.cpp ****     uint64 a0_val = regs[10];
  30              		.loc 1 7 5
  31              		.loc 1 7 12 is_stmt 0
  32 0020 03370505 		ld	a4,80(a0)
  33              	.LVL1:
   8:src/riscv.cpp ****     uint64 a1_val = regs[11];
  34              		.loc 1 8 5 is_stmt 1
  35              		.loc 1 8 12 is_stmt 0
  36 0024 03358505 		ld	a0,88(a0)
  37              	.LVL2:
   9:src/riscv.cpp **** 
  10:src/riscv.cpp ****     uint64 sepc = r_sepc() + 4;
  38              		.loc 1 10 5 is_stmt 1
  39              	.LBB16:
  40              	.LBB17:
  41              		.file 2 "src/../h/riscv.h"
   1:src/../h/riscv.h ****     //
   2:src/../h/riscv.h ****     // Created by os on 3/31/26.
   3:src/../h/riscv.h ****     //
   4:src/../h/riscv.h **** 
   5:src/../h/riscv.h ****     #ifndef PROJECT_BASE_RISCB_H
   6:src/../h/riscv.h ****     #define PROJECT_BASE_RISCB_H
   7:src/../h/riscv.h ****     #include "../lib/hw.h"
GAS LISTING /tmp/ccZidhAb.s 			page 2


   8:src/../h/riscv.h **** 
   9:src/../h/riscv.h ****     class Riscv {
  10:src/../h/riscv.h ****     public:
  11:src/../h/riscv.h **** 
  12:src/../h/riscv.h ****         static uint64 r_scause();
  13:src/../h/riscv.h **** 
  14:src/../h/riscv.h ****         static void w_scause(uint64 scause);
  15:src/../h/riscv.h **** 
  16:src/../h/riscv.h ****         static uint64 r_sepc();
  17:src/../h/riscv.h **** 
  18:src/../h/riscv.h ****         static void w_sepc(uint64 sepc);
  19:src/../h/riscv.h **** 
  20:src/../h/riscv.h ****         static uint64 r_stvec();
  21:src/../h/riscv.h **** 
  22:src/../h/riscv.h ****         static void w_stvec(uint64 stvec);
  23:src/../h/riscv.h **** 
  24:src/../h/riscv.h ****         static uint64 r_stval();
  25:src/../h/riscv.h **** 
  26:src/../h/riscv.h ****         static void w_stval(uint64 stval);
  27:src/../h/riscv.h **** 
  28:src/../h/riscv.h ****         enum BitMaskSip {
  29:src/../h/riscv.h ****             SIP_SSIE = (1 << 1),
  30:src/../h/riscv.h ****             SIP_STIE = (1 << 5),
  31:src/../h/riscv.h ****             SIP_SEIE = (1 << 9),
  32:src/../h/riscv.h ****         };
  33:src/../h/riscv.h **** 
  34:src/../h/riscv.h ****         static void ms_sip(uint64 mask);
  35:src/../h/riscv.h **** 
  36:src/../h/riscv.h ****         static void mc_sip(uint64 mask);
  37:src/../h/riscv.h **** 
  38:src/../h/riscv.h ****         static uint64 r_sip();
  39:src/../h/riscv.h **** 
  40:src/../h/riscv.h ****         static void w_sip(uint64 sip);
  41:src/../h/riscv.h **** 
  42:src/../h/riscv.h ****         enum BitMaskSstatus {
  43:src/../h/riscv.h ****             SSTATUS_SIE = (1 << 1),
  44:src/../h/riscv.h ****             SSTATUS_SPIE = (1 << 5),
  45:src/../h/riscv.h ****             SSTATUS_SPP = (1 <<8),
  46:src/../h/riscv.h ****         };
  47:src/../h/riscv.h **** 
  48:src/../h/riscv.h ****         static void ms_sstatus(uint64 mask);
  49:src/../h/riscv.h **** 
  50:src/../h/riscv.h ****         static void mc_sstatus(uint64 mask);
  51:src/../h/riscv.h **** 
  52:src/../h/riscv.h ****         static uint64 r_sstatus();
  53:src/../h/riscv.h **** 
  54:src/../h/riscv.h ****         static void w_sstatus(uint64 sstatus);
  55:src/../h/riscv.h **** 
  56:src/../h/riscv.h ****         static uint64 readARegister(int reg_number);
  57:src/../h/riscv.h **** 
  58:src/../h/riscv.h ****         static void writeARegister(int reg_number, uint64 value);
  59:src/../h/riscv.h **** 
  60:src/../h/riscv.h ****         static void handleEcall(uint64* regs);
  61:src/../h/riscv.h **** 
  62:src/../h/riscv.h ****         static void handleConsole();
  63:src/../h/riscv.h **** 
  64:src/../h/riscv.h ****         static void handleTimer();
GAS LISTING /tmp/ccZidhAb.s 			page 3


  65:src/../h/riscv.h **** 
  66:src/../h/riscv.h ****         static void unknownsCause();
  67:src/../h/riscv.h **** 
  68:src/../h/riscv.h **** 
  69:src/../h/riscv.h ****         static void pushAllRegs();
  70:src/../h/riscv.h ****         static void popAllRegs();
  71:src/../h/riscv.h **** 
  72:src/../h/riscv.h ****         static void supervisorTrap();
  73:src/../h/riscv.h ****     private:
  74:src/../h/riscv.h ****         static void handleSupervisorTrap(uint64* regs);
  75:src/../h/riscv.h **** 
  76:src/../h/riscv.h ****     };
  77:src/../h/riscv.h **** 
  78:src/../h/riscv.h ****     inline uint64 Riscv::r_scause()
  79:src/../h/riscv.h ****     {
  80:src/../h/riscv.h ****         uint64 volatile scause;
  81:src/../h/riscv.h ****         __asm__ volatile ("csrr %[scause], scause" : [scause] "=r"(scause));
  82:src/../h/riscv.h ****         return scause;
  83:src/../h/riscv.h ****     }
  84:src/../h/riscv.h **** 
  85:src/../h/riscv.h ****     inline void Riscv::w_scause(uint64 scause)
  86:src/../h/riscv.h ****     {
  87:src/../h/riscv.h ****         __asm__ volatile ("csrw scause, %[scause]" : : [scause] "r"(scause));
  88:src/../h/riscv.h ****     }
  89:src/../h/riscv.h **** 
  90:src/../h/riscv.h ****     inline uint64 Riscv::r_sepc()
  91:src/../h/riscv.h ****     {
  92:src/../h/riscv.h ****         uint64 volatile sepc;
  42              		.loc 2 92 9
  93:src/../h/riscv.h ****         __asm__ volatile ("csrr %[sepc], sepc" : [sepc] "=r"(sepc));
  43              		.loc 2 93 9
  44              		.loc 2 93 68 is_stmt 0
  45              	#APP
  46              	# 93 "src/../h/riscv.h" 1
  94              	        return sepc;
  47              		csrr a5, sepc
  48              	# 0 "" 2
  49              	#NO_APP
  50 002c 2334F4FC 		sd	a5,-56(s0)
  51              		.loc 2 94 9 is_stmt 1
  52              		.loc 2 94 16 is_stmt 0
  53 0030 833784FC 		ld	a5,-56(s0)
  54              	.LBE17:
  55              	.LBE16:
  56              		.loc 1 10 30
  57 0034 13894700 		addi	s2,a5,4
  58              	.LVL3:
  11:src/riscv.cpp ****     uint64 sstatus = r_sstatus();
  59              		.loc 1 11 5 is_stmt 1
  60              	.LBB18:
  61              	.LBB19:
  95:src/../h/riscv.h ****     }
  96:src/../h/riscv.h **** 
  97:src/../h/riscv.h ****     inline void Riscv::w_sepc(uint64 sepc)
  98:src/../h/riscv.h ****     {
  99:src/../h/riscv.h ****         __asm__ volatile ("csrw sepc, %[sepc]" : : [sepc] "r"(sepc));
 100:src/../h/riscv.h ****     }
GAS LISTING /tmp/ccZidhAb.s 			page 4


 101:src/../h/riscv.h **** 
 102:src/../h/riscv.h ****     inline uint64 Riscv::r_stvec()
 103:src/../h/riscv.h ****     {
 104:src/../h/riscv.h ****         uint64 volatile stvec;
 105:src/../h/riscv.h ****         __asm__ volatile ("csrr %[stvec], stvec" : [stvec] "=r"(stvec));
 106:src/../h/riscv.h ****         return stvec;
 107:src/../h/riscv.h ****     }
 108:src/../h/riscv.h **** 
 109:src/../h/riscv.h ****     inline void Riscv::w_stvec(uint64 stvec)
 110:src/../h/riscv.h ****     {
 111:src/../h/riscv.h ****         __asm__ volatile ("csrw stvec, %[stvec]" : : [stvec] "r"(stvec));
 112:src/../h/riscv.h ****     }
 113:src/../h/riscv.h **** 
 114:src/../h/riscv.h ****     inline uint64 Riscv::r_stval()
 115:src/../h/riscv.h ****     {
 116:src/../h/riscv.h ****         uint64 volatile stval;
 117:src/../h/riscv.h ****         __asm__ volatile ("csrr %[stval], stval" : [stval] "=r"(stval));
 118:src/../h/riscv.h ****         return stval;
 119:src/../h/riscv.h ****     }
 120:src/../h/riscv.h **** 
 121:src/../h/riscv.h ****     inline void Riscv::w_stval(uint64 stval)
 122:src/../h/riscv.h ****     {
 123:src/../h/riscv.h ****         __asm__ volatile ("csrw stval, %[stval]" : : [stval] "r"(stval));
 124:src/../h/riscv.h ****     }
 125:src/../h/riscv.h **** 
 126:src/../h/riscv.h ****     inline void Riscv::ms_sip(uint64 mask)
 127:src/../h/riscv.h ****     {
 128:src/../h/riscv.h ****         __asm__ volatile ("csrs sip, %[mask]" : : [mask] "r"(mask));
 129:src/../h/riscv.h ****     }
 130:src/../h/riscv.h **** 
 131:src/../h/riscv.h ****     inline void Riscv::mc_sip(uint64 mask)
 132:src/../h/riscv.h ****     {
 133:src/../h/riscv.h ****         __asm__ volatile ("csrc sip, %[mask]" : : [mask] "r"(mask));
 134:src/../h/riscv.h ****     }
 135:src/../h/riscv.h **** 
 136:src/../h/riscv.h ****     inline uint64 Riscv::r_sip()
 137:src/../h/riscv.h ****     {
 138:src/../h/riscv.h ****         uint64 volatile sip;
 139:src/../h/riscv.h ****         __asm__ volatile ("csrr %[sip], sip" : [sip] "=r"(sip));
 140:src/../h/riscv.h ****         return sip;
 141:src/../h/riscv.h ****     }
 142:src/../h/riscv.h **** 
 143:src/../h/riscv.h ****     inline void Riscv::w_sip(uint64 sip)
 144:src/../h/riscv.h ****     {
 145:src/../h/riscv.h ****         __asm__ volatile ("csrw sip, %[sip]" : : [sip] "r"(sip));
 146:src/../h/riscv.h ****     }
 147:src/../h/riscv.h **** 
 148:src/../h/riscv.h ****     inline void Riscv::ms_sstatus(uint64 mask)
 149:src/../h/riscv.h ****     {
 150:src/../h/riscv.h ****         __asm__ volatile ("csrs sstatus, %[mask]" : : [mask] "r"(mask));
 151:src/../h/riscv.h ****     }
 152:src/../h/riscv.h **** 
 153:src/../h/riscv.h ****     inline void Riscv::mc_sstatus(uint64 mask)
 154:src/../h/riscv.h ****     {
 155:src/../h/riscv.h ****         __asm__ volatile ("csrc sstatus, %[mask]" : : [mask] "r"(mask));
 156:src/../h/riscv.h ****     }
 157:src/../h/riscv.h **** 
GAS LISTING /tmp/ccZidhAb.s 			page 5


 158:src/../h/riscv.h ****     inline uint64 Riscv::r_sstatus()
 159:src/../h/riscv.h ****     {
 160:src/../h/riscv.h ****         uint64 volatile sstatus;
  62              		.loc 2 160 9
 161:src/../h/riscv.h ****         __asm__ volatile ("csrr %[sstatus], sstatus" : [sstatus] "=r"(sstatus));
  63              		.loc 2 161 9
  64              		.loc 2 161 80 is_stmt 0
  65              	#APP
  66              	# 161 "src/../h/riscv.h" 1
 162              	        return sstatus;
  67              		csrr a5, sstatus
  68              	# 0 "" 2
  69              	#NO_APP
  70 003c 2330F4FC 		sd	a5,-64(s0)
  71              		.loc 2 162 9 is_stmt 1
  72              		.loc 2 162 16 is_stmt 0
  73 0040 833904FC 		ld	s3,-64(s0)
  74              	.LVL4:
  75              	.LBE19:
  76              	.LBE18:
  12:src/riscv.cpp **** 
  13:src/riscv.cpp ****     switch(a0_val) {
  77              		.loc 1 13 5 is_stmt 1
  78              	.LBB20:
  79 0044 93071000 		li	a5,1
  80 0048 6308F702 		beq	a4,a5,.L2
  81 004c 93072000 		li	a5,2
  82 0050 630EF702 		beq	a4,a5,.L3
  83              	.LVL5:
  84              	.L4:
  85              	.LBE20:
  14:src/riscv.cpp ****         case 0x01: { // MEM_ALLOC
  15:src/riscv.cpp ****             // Direktno koristimo a1_val koji smo izvukli iz regs[11]
  16:src/riscv.cpp ****             uint64 size_in_bytes = a1_val * MEM_BLOCK_SIZE;
  17:src/riscv.cpp ****             void* result = MemoryAllocator::kmalloc(size_in_bytes);
  18:src/riscv.cpp **** 
  19:src/riscv.cpp ****             // Upisujemo rezultat direktno u regs[10] (to je a0 na steku)
  20:src/riscv.cpp ****             regs[10] = (uint64)result;
  21:src/riscv.cpp ****             break;
  22:src/riscv.cpp ****         }
  23:src/riscv.cpp ****         case 0x02: { // MEM_FREE
  24:src/riscv.cpp ****             void* ptr = (void*)a1_val;
  25:src/riscv.cpp ****             int result = MemoryAllocator::kfree(ptr);
  26:src/riscv.cpp **** 
  27:src/riscv.cpp ****             // Rezultat statusa oslobađanja u a0 na steku
  28:src/riscv.cpp ****             regs[10] = (uint64)result;
  29:src/riscv.cpp ****             break;
  30:src/riscv.cpp ****         }
  31:src/riscv.cpp ****         default:
  32:src/riscv.cpp ****             break;
  33:src/riscv.cpp ****     }
  34:src/riscv.cpp **** 
  35:src/riscv.cpp ****     w_sstatus(sstatus);
  86              		.loc 1 35 5
  87              	.LBB23:
  88              	.LBB24:
 163:src/../h/riscv.h ****     }
GAS LISTING /tmp/ccZidhAb.s 			page 6


 164:src/../h/riscv.h **** 
 165:src/../h/riscv.h ****     inline void Riscv::w_sstatus(uint64 sstatus)
 166:src/../h/riscv.h ****     {
 167:src/../h/riscv.h ****         __asm__ volatile ("csrw sstatus, %[sstatus]" : : [sstatus] "r"(sstatus));
  89              		.loc 2 167 9
  90              		.loc 2 167 81 is_stmt 0
  91              	#APP
  92              	# 167 "src/../h/riscv.h" 1
 168              	    }
  93              		csrw sstatus, s3
  94              	# 0 "" 2
  95              	.LVL6:
  96              	#NO_APP
  97              	.LBE24:
  98              	.LBE23:
  36:src/riscv.cpp ****     w_sepc(sepc);
  99              		.loc 1 36 5 is_stmt 1
 100              	.LBB25:
 101              	.LBB26:
  99:src/../h/riscv.h ****     }
 102              		.loc 2 99 9
  99:src/../h/riscv.h ****     }
 103              		.loc 2 99 69 is_stmt 0
 104              	#APP
 105              	# 99 "src/../h/riscv.h" 1
 106              		csrw sepc, s2
 107              	# 0 "" 2
 108              	.LVL7:
 109              	#NO_APP
 110              	.LBE26:
 111              	.LBE25:
  37:src/riscv.cpp **** }
 112              		.loc 1 37 1
 113 005c 83308103 		ld	ra,56(sp)
 114              		.cfi_remember_state
 115              		.cfi_restore 1
 116 0060 03340103 		ld	s0,48(sp)
 117              		.cfi_restore 8
 118              		.cfi_def_cfa 2, 64
 119 0064 83348102 		ld	s1,40(sp)
 120              		.cfi_restore 9
 121              	.LVL8:
 122 0068 03390102 		ld	s2,32(sp)
 123              		.cfi_restore 18
 124              	.LVL9:
 125 006c 83398101 		ld	s3,24(sp)
 126              		.cfi_restore 19
 127              	.LVL10:
 128 0070 13010104 		addi	sp,sp,64
 129              		.cfi_def_cfa_offset 0
 130 0074 67800000 		jr	ra
 131              	.LVL11:
 132              	.L2:
 133              		.cfi_restore_state
  14:src/riscv.cpp ****             // Direktno koristimo a1_val koji smo izvukli iz regs[11]
 134              		.loc 1 14 9 is_stmt 1
  14:src/riscv.cpp ****             // Direktno koristimo a1_val koji smo izvukli iz regs[11]
GAS LISTING /tmp/ccZidhAb.s 			page 7


 135              		.loc 1 14 20
 136              	.LBB27:
 137              	.LBB21:
  16:src/riscv.cpp ****             void* result = MemoryAllocator::kmalloc(size_in_bytes);
 138              		.loc 1 16 13
  17:src/riscv.cpp **** 
 139              		.loc 1 17 13
  17:src/riscv.cpp **** 
 140              		.loc 1 17 52 is_stmt 0
 141 0078 13156500 		slli	a0,a0,6
 142              	.LVL12:
 143 007c 97000000 		call	_ZN15MemoryAllocator7kmallocEm@plt
 143      E7800000 
 144              	.LVL13:
  20:src/riscv.cpp ****             break;
 145              		.loc 1 20 13 is_stmt 1
  20:src/riscv.cpp ****             break;
 146              		.loc 1 20 22 is_stmt 0
 147 0084 23B8A404 		sd	a0,80(s1)
  21:src/riscv.cpp ****         }
 148              		.loc 1 21 13 is_stmt 1
 149 0088 6FF0DFFC 		j	.L4
 150              	.LVL14:
 151              	.L3:
 152              	.LBE21:
 153              	.LBE27:
  23:src/riscv.cpp ****             void* ptr = (void*)a1_val;
 154              		.loc 1 23 9
  23:src/riscv.cpp ****             void* ptr = (void*)a1_val;
 155              		.loc 1 23 20
 156              	.LBB28:
 157              	.LBB22:
  24:src/riscv.cpp ****             int result = MemoryAllocator::kfree(ptr);
 158              		.loc 1 24 13
  25:src/riscv.cpp **** 
 159              		.loc 1 25 13
  25:src/riscv.cpp **** 
 160              		.loc 1 25 48 is_stmt 0
 161 008c 97000000 		call	_ZN15MemoryAllocator5kfreeEPv@plt
 161      E7800000 
 162              	.LVL15:
  28:src/riscv.cpp ****             break;
 163              		.loc 1 28 13 is_stmt 1
  28:src/riscv.cpp ****             break;
 164              		.loc 1 28 22 is_stmt 0
 165 0094 23B8A404 		sd	a0,80(s1)
  29:src/riscv.cpp ****         }
 166              		.loc 1 29 13 is_stmt 1
 167 0098 6FF0DFFB 		j	.L4
 168              	.LBE22:
 169              	.LBE28:
 170              		.cfi_endproc
 171              	.LFE18:
 173              		.align	2
 174              		.globl	_ZN5Riscv13handleConsoleEv
 176              	_ZN5Riscv13handleConsoleEv:
 177              	.LFB19:
GAS LISTING /tmp/ccZidhAb.s 			page 8


  38:src/riscv.cpp **** 
  39:src/riscv.cpp **** void Riscv::handleConsole() {
 178              		.loc 1 39 29
 179              		.cfi_startproc
 180 009c 130101FF 		addi	sp,sp,-16
 181              		.cfi_def_cfa_offset 16
 182 00a0 23348100 		sd	s0,8(sp)
 183              		.cfi_offset 8, -8
 184 00a4 13040101 		addi	s0,sp,16
 185              		.cfi_def_cfa 8, 0
  40:src/riscv.cpp **** }
 186              		.loc 1 40 1 is_stmt 0
 187 00a8 03348100 		ld	s0,8(sp)
 188              		.cfi_restore 8
 189              		.cfi_def_cfa 2, 16
 190 00ac 13010101 		addi	sp,sp,16
 191              		.cfi_def_cfa_offset 0
 192 00b0 67800000 		jr	ra
 193              		.cfi_endproc
 194              	.LFE19:
 196              		.align	2
 197              		.globl	_ZN5Riscv11handleTimerEv
 199              	_ZN5Riscv11handleTimerEv:
 200              	.LFB20:
  41:src/riscv.cpp **** 
  42:src/riscv.cpp **** void Riscv::handleTimer() {
 201              		.loc 1 42 27 is_stmt 1
 202              		.cfi_startproc
 203 00b4 130101FF 		addi	sp,sp,-16
 204              		.cfi_def_cfa_offset 16
 205 00b8 23348100 		sd	s0,8(sp)
 206              		.cfi_offset 8, -8
 207 00bc 13040101 		addi	s0,sp,16
 208              		.cfi_def_cfa 8, 0
  43:src/riscv.cpp **** }
 209              		.loc 1 43 1 is_stmt 0
 210 00c0 03348100 		ld	s0,8(sp)
 211              		.cfi_restore 8
 212              		.cfi_def_cfa 2, 16
 213 00c4 13010101 		addi	sp,sp,16
 214              		.cfi_def_cfa_offset 0
 215 00c8 67800000 		jr	ra
 216              		.cfi_endproc
 217              	.LFE20:
 219              		.align	2
 220              		.globl	_ZN5Riscv13unknownsCauseEv
 222              	_ZN5Riscv13unknownsCauseEv:
 223              	.LFB21:
  44:src/riscv.cpp **** 
  45:src/riscv.cpp **** void Riscv::unknownsCause() {
 224              		.loc 1 45 29 is_stmt 1
 225              		.cfi_startproc
 226 00cc 130101FF 		addi	sp,sp,-16
 227              		.cfi_def_cfa_offset 16
 228 00d0 23348100 		sd	s0,8(sp)
 229              		.cfi_offset 8, -8
 230 00d4 13040101 		addi	s0,sp,16
GAS LISTING /tmp/ccZidhAb.s 			page 9


 231              		.cfi_def_cfa 8, 0
  46:src/riscv.cpp **** }
 232              		.loc 1 46 1 is_stmt 0
 233 00d8 03348100 		ld	s0,8(sp)
 234              		.cfi_restore 8
 235              		.cfi_def_cfa 2, 16
 236 00dc 13010101 		addi	sp,sp,16
 237              		.cfi_def_cfa_offset 0
 238 00e0 67800000 		jr	ra
 239              		.cfi_endproc
 240              	.LFE21:
 242              		.align	2
 243              		.globl	_ZN5Riscv20handleSupervisorTrapEPm
 245              	_ZN5Riscv20handleSupervisorTrapEPm:
 246              	.LFB22:
  47:src/riscv.cpp **** 
  48:src/riscv.cpp **** void Riscv::handleSupervisorTrap(uint64* regs) {
 247              		.loc 1 48 48 is_stmt 1
 248              		.cfi_startproc
 249              	.LVL16:
 250 00e4 130101FE 		addi	sp,sp,-32
 251              		.cfi_def_cfa_offset 32
 252 00e8 233C1100 		sd	ra,24(sp)
 253 00ec 23388100 		sd	s0,16(sp)
 254              		.cfi_offset 1, -8
 255              		.cfi_offset 8, -16
 256 00f0 13040102 		addi	s0,sp,32
 257              		.cfi_def_cfa 8, 0
  49:src/riscv.cpp **** 
  50:src/riscv.cpp ****     uint64 scause = r_scause();
 258              		.loc 1 50 5
 259              	.LBB29:
 260              	.LBB30:
  80:src/../h/riscv.h ****         __asm__ volatile ("csrr %[scause], scause" : [scause] "=r"(scause));
 261              		.loc 2 80 9
  81:src/../h/riscv.h ****         return scause;
 262              		.loc 2 81 9
  81:src/../h/riscv.h ****         return scause;
 263              		.loc 2 81 76 is_stmt 0
 264              	#APP
 265              	# 81 "src/../h/riscv.h" 1
 266              		csrr a5, scause
 267              	# 0 "" 2
 268              	#NO_APP
 269 00f8 2334F4FE 		sd	a5,-24(s0)
  82:src/../h/riscv.h ****     }
 270              		.loc 2 82 9 is_stmt 1
  82:src/../h/riscv.h ****     }
 271              		.loc 2 82 16 is_stmt 0
 272 00fc 833784FE 		ld	a5,-24(s0)
 273              	.LVL17:
 274              	.LBE30:
 275              	.LBE29:
  51:src/riscv.cpp ****     if (scause == 0x0000000000000008UL || scause == 0x0000000000000009UL) {
 276              		.loc 1 51 5 is_stmt 1
 277              		.loc 1 51 40 is_stmt 0
 278 0100 938787FF 		addi	a5,a5,-8
GAS LISTING /tmp/ccZidhAb.s 			page 10


 279              	.LVL18:
 280              		.loc 1 51 5
 281 0104 13071000 		li	a4,1
 282 0108 637AF700 		bleu	a5,a4,.L15
 283              	.LVL19:
 284              	.L12:
  52:src/riscv.cpp ****         handleEcall(regs);
  53:src/riscv.cpp ****     } else if (scause == 0x8000000000000009UL) {
  54:src/riscv.cpp ****         handleConsole();
  55:src/riscv.cpp ****     } else if (scause == 0x8000000000000001UL) {
  56:src/riscv.cpp ****         handleTimer();
  57:src/riscv.cpp ****     } else {
  58:src/riscv.cpp ****         unknownsCause();
  59:src/riscv.cpp ****     }
  60:src/riscv.cpp **** }
 285              		.loc 1 60 1
 286 010c 83308101 		ld	ra,24(sp)
 287              		.cfi_remember_state
 288              		.cfi_restore 1
 289 0110 03340101 		ld	s0,16(sp)
 290              		.cfi_restore 8
 291              		.cfi_def_cfa 2, 32
 292 0114 13010102 		addi	sp,sp,32
 293              		.cfi_def_cfa_offset 0
 294 0118 67800000 		jr	ra
 295              	.LVL20:
 296              	.L15:
 297              		.cfi_restore_state
  52:src/riscv.cpp ****         handleEcall(regs);
 298              		.loc 1 52 9 is_stmt 1
  52:src/riscv.cpp ****         handleEcall(regs);
 299              		.loc 1 52 20 is_stmt 0
 300 011c 97000000 		call	_ZN5Riscv11handleEcallEPm
 300      E7800000 
 301              	.LVL21:
 302              		.loc 1 60 1
 303 0124 6FF09FFE 		j	.L12
 304              		.cfi_endproc
 305              	.LFE22:
 307              	.Letext0:
 308              		.file 3 "src/../h/../lib/hw.h"
 309              		.file 4 "src/../h/MemoryAllocator.h"
GAS LISTING /tmp/ccZidhAb.s 			page 11


DEFINED SYMBOLS
                            *ABS*:0000000000000000 riscv.cpp
     /tmp/ccZidhAb.s:9      .text:0000000000000000 _ZN5Riscv11handleEcallEPm
     /tmp/ccZidhAb.s:13     .text:0000000000000000 .L0 
     /tmp/ccZidhAb.s:15     .text:0000000000000000 .L0 
     /tmp/ccZidhAb.s:16     .text:0000000000000004 .L0 
     /tmp/ccZidhAb.s:22     .text:0000000000000018 .L0 
     /tmp/ccZidhAb.s:23     .text:0000000000000018 .L0 
     /tmp/ccZidhAb.s:24     .text:0000000000000018 .L0 
     /tmp/ccZidhAb.s:25     .text:0000000000000018 .L0 
     /tmp/ccZidhAb.s:26     .text:0000000000000018 .L0 
     /tmp/ccZidhAb.s:28     .text:000000000000001c .L0 
     /tmp/ccZidhAb.s:31     .text:0000000000000020 .L0 
     /tmp/ccZidhAb.s:32     .text:0000000000000020 .L0 
     /tmp/ccZidhAb.s:35     .text:0000000000000024 .L0 
     /tmp/ccZidhAb.s:36     .text:0000000000000024 .L0 
     /tmp/ccZidhAb.s:42     .text:0000000000000028 .L0 
     /tmp/ccZidhAb.s:43     .text:0000000000000028 .L0 
     /tmp/ccZidhAb.s:44     .text:0000000000000028 .L0 
    src/../h/riscv.h:93     .text:0000000000000028 .L0 
     /tmp/ccZidhAb.s:52     .text:0000000000000030 .L0 
     /tmp/ccZidhAb.s:53     .text:0000000000000030 .L0 
     /tmp/ccZidhAb.s:57     .text:0000000000000034 .L0 
     /tmp/ccZidhAb.s:62     .text:0000000000000038 .L0 
     /tmp/ccZidhAb.s:63     .text:0000000000000038 .L0 
     /tmp/ccZidhAb.s:64     .text:0000000000000038 .L0 
    src/../h/riscv.h:161    .text:0000000000000038 .L0 
     /tmp/ccZidhAb.s:72     .text:0000000000000040 .L0 
     /tmp/ccZidhAb.s:73     .text:0000000000000040 .L0 
     /tmp/ccZidhAb.s:79     .text:0000000000000044 .L0 
     /tmp/ccZidhAb.s:89     .text:0000000000000054 .L0 
     /tmp/ccZidhAb.s:90     .text:0000000000000054 .L0 
    src/../h/riscv.h:167    .text:0000000000000054 .L0 
     /tmp/ccZidhAb.s:102    .text:0000000000000058 .L0 
     /tmp/ccZidhAb.s:103    .text:0000000000000058 .L0 
    src/../h/riscv.h:99     .text:0000000000000058 .L0 
     /tmp/ccZidhAb.s:113    .text:000000000000005c .L0 
     /tmp/ccZidhAb.s:114    .text:0000000000000060 .L0 
     /tmp/ccZidhAb.s:115    .text:0000000000000060 .L0 
     /tmp/ccZidhAb.s:117    .text:0000000000000064 .L0 
     /tmp/ccZidhAb.s:118    .text:0000000000000064 .L0 
     /tmp/ccZidhAb.s:120    .text:0000000000000068 .L0 
     /tmp/ccZidhAb.s:123    .text:000000000000006c .L0 
     /tmp/ccZidhAb.s:126    .text:0000000000000070 .L0 
     /tmp/ccZidhAb.s:129    .text:0000000000000074 .L0 
     /tmp/ccZidhAb.s:133    .text:0000000000000078 .L0 
     /tmp/ccZidhAb.s:135    .text:0000000000000078 .L0 
     /tmp/ccZidhAb.s:138    .text:0000000000000078 .L0 
     /tmp/ccZidhAb.s:139    .text:0000000000000078 .L0 
     /tmp/ccZidhAb.s:140    .text:0000000000000078 .L0 
     /tmp/ccZidhAb.s:141    .text:0000000000000078 .L0 
     /tmp/ccZidhAb.s:146    .text:0000000000000084 .L0 
     /tmp/ccZidhAb.s:147    .text:0000000000000084 .L0 
     /tmp/ccZidhAb.s:149    .text:0000000000000088 .L0 
     /tmp/ccZidhAb.s:155    .text:000000000000008c .L0 
     /tmp/ccZidhAb.s:158    .text:000000000000008c .L0 
     /tmp/ccZidhAb.s:159    .text:000000000000008c .L0 
GAS LISTING /tmp/ccZidhAb.s 			page 12


     /tmp/ccZidhAb.s:160    .text:000000000000008c .L0 
     /tmp/ccZidhAb.s:161    .text:000000000000008c .L0 
     /tmp/ccZidhAb.s:164    .text:0000000000000094 .L0 
     /tmp/ccZidhAb.s:165    .text:0000000000000094 .L0 
     /tmp/ccZidhAb.s:167    .text:0000000000000098 .L0 
     /tmp/ccZidhAb.s:170    .text:000000000000009c .L0 
     /tmp/ccZidhAb.s:176    .text:000000000000009c _ZN5Riscv13handleConsoleEv
     /tmp/ccZidhAb.s:179    .text:000000000000009c .L0 
     /tmp/ccZidhAb.s:180    .text:000000000000009c .L0 
     /tmp/ccZidhAb.s:181    .text:00000000000000a0 .L0 
     /tmp/ccZidhAb.s:183    .text:00000000000000a4 .L0 
     /tmp/ccZidhAb.s:185    .text:00000000000000a8 .L0 
     /tmp/ccZidhAb.s:187    .text:00000000000000a8 .L0 
     /tmp/ccZidhAb.s:188    .text:00000000000000ac .L0 
     /tmp/ccZidhAb.s:189    .text:00000000000000ac .L0 
     /tmp/ccZidhAb.s:191    .text:00000000000000b0 .L0 
     /tmp/ccZidhAb.s:193    .text:00000000000000b4 .L0 
     /tmp/ccZidhAb.s:199    .text:00000000000000b4 _ZN5Riscv11handleTimerEv
     /tmp/ccZidhAb.s:202    .text:00000000000000b4 .L0 
     /tmp/ccZidhAb.s:203    .text:00000000000000b4 .L0 
     /tmp/ccZidhAb.s:204    .text:00000000000000b8 .L0 
     /tmp/ccZidhAb.s:206    .text:00000000000000bc .L0 
     /tmp/ccZidhAb.s:208    .text:00000000000000c0 .L0 
     /tmp/ccZidhAb.s:210    .text:00000000000000c0 .L0 
     /tmp/ccZidhAb.s:211    .text:00000000000000c4 .L0 
     /tmp/ccZidhAb.s:212    .text:00000000000000c4 .L0 
     /tmp/ccZidhAb.s:214    .text:00000000000000c8 .L0 
     /tmp/ccZidhAb.s:216    .text:00000000000000cc .L0 
     /tmp/ccZidhAb.s:222    .text:00000000000000cc _ZN5Riscv13unknownsCauseEv
     /tmp/ccZidhAb.s:225    .text:00000000000000cc .L0 
     /tmp/ccZidhAb.s:226    .text:00000000000000cc .L0 
     /tmp/ccZidhAb.s:227    .text:00000000000000d0 .L0 
     /tmp/ccZidhAb.s:229    .text:00000000000000d4 .L0 
     /tmp/ccZidhAb.s:231    .text:00000000000000d8 .L0 
     /tmp/ccZidhAb.s:233    .text:00000000000000d8 .L0 
     /tmp/ccZidhAb.s:234    .text:00000000000000dc .L0 
     /tmp/ccZidhAb.s:235    .text:00000000000000dc .L0 
     /tmp/ccZidhAb.s:237    .text:00000000000000e0 .L0 
     /tmp/ccZidhAb.s:239    .text:00000000000000e4 .L0 
     /tmp/ccZidhAb.s:245    .text:00000000000000e4 _ZN5Riscv20handleSupervisorTrapEPm
     /tmp/ccZidhAb.s:248    .text:00000000000000e4 .L0 
     /tmp/ccZidhAb.s:250    .text:00000000000000e4 .L0 
     /tmp/ccZidhAb.s:251    .text:00000000000000e8 .L0 
     /tmp/ccZidhAb.s:254    .text:00000000000000f0 .L0 
     /tmp/ccZidhAb.s:255    .text:00000000000000f0 .L0 
     /tmp/ccZidhAb.s:257    .text:00000000000000f4 .L0 
     /tmp/ccZidhAb.s:261    .text:00000000000000f4 .L0 
     /tmp/ccZidhAb.s:262    .text:00000000000000f4 .L0 
     /tmp/ccZidhAb.s:263    .text:00000000000000f4 .L0 
    src/../h/riscv.h:81     .text:00000000000000f4 .L0 
     /tmp/ccZidhAb.s:271    .text:00000000000000fc .L0 
     /tmp/ccZidhAb.s:272    .text:00000000000000fc .L0 
     /tmp/ccZidhAb.s:277    .text:0000000000000100 .L0 
     /tmp/ccZidhAb.s:278    .text:0000000000000100 .L0 
     /tmp/ccZidhAb.s:281    .text:0000000000000104 .L0 
     /tmp/ccZidhAb.s:286    .text:000000000000010c .L0 
     /tmp/ccZidhAb.s:287    .text:0000000000000110 .L0 
GAS LISTING /tmp/ccZidhAb.s 			page 13


     /tmp/ccZidhAb.s:288    .text:0000000000000110 .L0 
     /tmp/ccZidhAb.s:290    .text:0000000000000114 .L0 
     /tmp/ccZidhAb.s:291    .text:0000000000000114 .L0 
     /tmp/ccZidhAb.s:293    .text:0000000000000118 .L0 
     /tmp/ccZidhAb.s:297    .text:000000000000011c .L0 
     /tmp/ccZidhAb.s:299    .text:000000000000011c .L0 
     /tmp/ccZidhAb.s:300    .text:000000000000011c .L0 
     /tmp/ccZidhAb.s:303    .text:0000000000000124 .L0 
     /tmp/ccZidhAb.s:304    .text:0000000000000128 .L0 
     /tmp/ccZidhAb.s:310    .text:0000000000000128 .L0 
     /tmp/ccZidhAb.s:132    .text:0000000000000078 .L2
     /tmp/ccZidhAb.s:151    .text:000000000000008c .L3
     /tmp/ccZidhAb.s:84     .text:0000000000000054 .L4
     /tmp/ccZidhAb.s:296    .text:000000000000011c .L15
     /tmp/ccZidhAb.s:284    .text:000000000000010c .L12
     /tmp/ccZidhAb.s:1113   .debug_abbrev:0000000000000000 .Ldebug_abbrev0
     /tmp/ccZidhAb.s:2131   .debug_str:0000000000000506 .LASF92
     /tmp/ccZidhAb.s:2089   .debug_str:00000000000003ad .LASF93
     /tmp/ccZidhAb.s:2085   .debug_str:0000000000000380 .LASF94
     /tmp/ccZidhAb.s:5      .text:0000000000000000 .Ltext0
     /tmp/ccZidhAb.s:307    .text:0000000000000128 .Letext0
     /tmp/ccZidhAb.s:1965   .debug_line:0000000000000000 .Ldebug_line0
     /tmp/ccZidhAb.s:2071   .debug_str:000000000000033b .LASF0
     /tmp/ccZidhAb.s:2081   .debug_str:0000000000000361 .LASF1
     /tmp/ccZidhAb.s:2059   .debug_str:00000000000002f1 .LASF2
     /tmp/ccZidhAb.s:2043   .debug_str:0000000000000256 .LASF4
     /tmp/ccZidhAb.s:2111   .debug_str:0000000000000451 .LASF3
     /tmp/ccZidhAb.s:1985   .debug_str:0000000000000073 .LASF5
     /tmp/ccZidhAb.s:2087   .debug_str:000000000000039a .LASF6
     /tmp/ccZidhAb.s:2069   .debug_str:0000000000000328 .LASF7
     /tmp/ccZidhAb.s:2145   .debug_str:000000000000064b .LASF8
     /tmp/ccZidhAb.s:2035   .debug_str:0000000000000208 .LASF9
     /tmp/ccZidhAb.s:2093   .debug_str:00000000000003c0 .LASF10
     /tmp/ccZidhAb.s:2133   .debug_str:00000000000005ca .LASF11
     /tmp/ccZidhAb.s:1987   .debug_str:000000000000007a .LASF12
     /tmp/ccZidhAb.s:1973   .debug_str:000000000000002d .LASF13
     /tmp/ccZidhAb.s:1997   .debug_str:00000000000000cf .LASF14
     /tmp/ccZidhAb.s:2107   .debug_str:0000000000000423 .LASF15
     /tmp/ccZidhAb.s:2005   .debug_str:0000000000000110 .LASF16
     /tmp/ccZidhAb.s:2079   .debug_str:000000000000035b .LASF65
     /tmp/ccZidhAb.s:1975   .debug_str:000000000000003d .LASF17
     /tmp/ccZidhAb.s:2121   .debug_str:0000000000000498 .LASF19
     /tmp/ccZidhAb.s:2015   .debug_str:000000000000016d .LASF21
     /tmp/ccZidhAb.s:2013   .debug_str:0000000000000158 .LASF23
     /tmp/ccZidhAb.s:2113   .debug_str:0000000000000463 .LASF18
     /tmp/ccZidhAb.s:2095   .debug_str:00000000000003cf .LASF20
     /tmp/ccZidhAb.s:2103   .debug_str:00000000000003fd .LASF22
     /tmp/ccZidhAb.s:2125   .debug_str:00000000000004c5 .LASF24
     /tmp/ccZidhAb.s:2027   .debug_str:00000000000001c5 .LASF25
     /tmp/ccZidhAb.s:2007   .debug_str:0000000000000126 .LASF26
     /tmp/ccZidhAb.s:1967   .debug_str:0000000000000000 .LASF27
     /tmp/ccZidhAb.s:2039   .debug_str:000000000000022c .LASF28
     /tmp/ccZidhAb.s:2017   .debug_str:0000000000000176 .LASF29
     /tmp/ccZidhAb.s:1991   .debug_str:0000000000000095 .LASF30
     /tmp/ccZidhAb.s:2161   .debug_str:00000000000006ba .LASF31
     /tmp/ccZidhAb.s:2019   .debug_str:000000000000017e .LASF32
     /tmp/ccZidhAb.s:2073   .debug_str:0000000000000348 .LASF33
GAS LISTING /tmp/ccZidhAb.s 			page 14


     /tmp/ccZidhAb.s:2153   .debug_str:000000000000068c .LASF34
     /tmp/ccZidhAb.s:1983   .debug_str:000000000000006c .LASF35
     /tmp/ccZidhAb.s:2025   .debug_str:00000000000001b2 .LASF36
     /tmp/ccZidhAb.s:2029   .debug_str:00000000000001cd .LASF37
     /tmp/ccZidhAb.s:2127   .debug_str:00000000000004d8 .LASF38
     /tmp/ccZidhAb.s:1981   .debug_str:0000000000000066 .LASF39
     /tmp/ccZidhAb.s:2165   .debug_str:00000000000006c7 .LASF40
     /tmp/ccZidhAb.s:2159   .debug_str:00000000000006af .LASF41
     /tmp/ccZidhAb.s:2109   .debug_str:0000000000000439 .LASF42
     /tmp/ccZidhAb.s:2045   .debug_str:000000000000025d .LASF43
     /tmp/ccZidhAb.s:2123   .debug_str:00000000000004ad .LASF44
     /tmp/ccZidhAb.s:1995   .debug_str:00000000000000c5 .LASF45
     /tmp/ccZidhAb.s:2041   .debug_str:0000000000000240 .LASF46
     /tmp/ccZidhAb.s:2061   .debug_str:00000000000002ff .LASF47
     /tmp/ccZidhAb.s:2037   .debug_str:0000000000000216 .LASF48
     /tmp/ccZidhAb.s:2057   .debug_str:00000000000002e3 .LASF71
     /tmp/ccZidhAb.s:2053   .debug_str:00000000000002af .LASF73
     /tmp/ccZidhAb.s:2137   .debug_str:00000000000005e1 .LASF49
     /tmp/ccZidhAb.s:2051   .debug_str:0000000000000292 .LASF50
     /tmp/ccZidhAb.s:2143   .debug_str:000000000000063f .LASF51
     /tmp/ccZidhAb.s:2033   .debug_str:00000000000001ee .LASF52
     /tmp/ccZidhAb.s:2097   .debug_str:00000000000003e2 .LASF53
     /tmp/ccZidhAb.s:2023   .debug_str:0000000000000197 .LASF55
     /tmp/ccZidhAb.s:2003   .debug_str:0000000000000104 .LASF54
     /tmp/ccZidhAb.s:2055   .debug_str:00000000000002ca .LASF56
     /tmp/ccZidhAb.s:2151   .debug_str:000000000000067e .LASF57
     /tmp/ccZidhAb.s:2031   .debug_str:00000000000001d3 .LASF58
     /tmp/ccZidhAb.s:2083   .debug_str:0000000000000374 .LASF59
     /tmp/ccZidhAb.s:1979   .debug_str:000000000000004d .LASF60
     /tmp/ccZidhAb.s:1989   .debug_str:000000000000008a .LASF61
     /tmp/ccZidhAb.s:2117   .debug_str:0000000000000479 .LASF62
     /tmp/ccZidhAb.s:2115   .debug_str:000000000000046a .LASF63
     /tmp/ccZidhAb.s:1993   .debug_str:00000000000000a9 .LASF64
     /tmp/ccZidhAb.s:2149   .debug_str:0000000000000669 .LASF79
     /tmp/ccZidhAb.s:1999   .debug_str:00000000000000db .LASF81
     /tmp/ccZidhAb.s:2067   .debug_str:0000000000000318 .LASF66
     /tmp/ccZidhAb.s:2147   .debug_str:000000000000065b .LASF95
     /tmp/ccZidhAb.s:2065   .debug_str:0000000000000313 .LASF67
     /tmp/ccZidhAb.s:2101   .debug_str:00000000000003f8 .LASF68
     /tmp/ccZidhAb.s:2011   .debug_str:000000000000013f .LASF69
     /tmp/ccZidhAb.s:2139   .debug_str:00000000000005f0 .LASF70
     /tmp/ccZidhAb.s:2063   .debug_str:0000000000000309 .LASF96
     /tmp/ccZidhAb.s:2047   .debug_str:0000000000000268 .LASF97
     /tmp/ccZidhAb.s:2135   .debug_str:00000000000005d9 .LASF72
     /tmp/ccZidhAb.s:2105   .debug_str:0000000000000404 .LASF74
     /tmp/ccZidhAb.s:2001   .debug_str:00000000000000fe .LASF75
     /tmp/ccZidhAb.s:1971   .debug_str:000000000000000f .LASF76
     /tmp/ccZidhAb.s:2091   .debug_str:00000000000003bb .LASF98
     /tmp/ccZidhAb.s:2129   .debug_str:00000000000004ea .LASF99
     /tmp/ccZidhAb.s:2009   .debug_str:000000000000013a .LASF77
     /tmp/ccZidhAb.s:2157   .debug_str:00000000000006a8 .LASF78
     /tmp/ccZidhAb.s:2155   .debug_str:000000000000069f .LASF80
     /tmp/ccZidhAb.s:2141   .debug_str:000000000000060c .LASF82
     /tmp/ccZidhAb.s:2021   .debug_str:0000000000000192 .LASF83
     /tmp/ccZidhAb.s:246    .text:00000000000000e4 .LFB22
     /tmp/ccZidhAb.s:305    .text:0000000000000128 .LFE22
     /tmp/ccZidhAb.s:2163   .debug_str:00000000000006c2 .LASF85
GAS LISTING /tmp/ccZidhAb.s 			page 15


     /tmp/ccZidhAb.s:1786   .debug_loc:0000000000000000 .LLST10
     /tmp/ccZidhAb.s:1977   .debug_str:0000000000000046 .LASF84
     /tmp/ccZidhAb.s:1811   .debug_loc:0000000000000062 .LLST11
     /tmp/ccZidhAb.s:259    .text:00000000000000f4 .LBB29
     /tmp/ccZidhAb.s:275    .text:0000000000000100 .LBE29
     /tmp/ccZidhAb.s:301    .text:0000000000000124 .LVL21
     /tmp/ccZidhAb.s:223    .text:00000000000000cc .LFB21
     /tmp/ccZidhAb.s:240    .text:00000000000000e4 .LFE21
     /tmp/ccZidhAb.s:200    .text:00000000000000b4 .LFB20
     /tmp/ccZidhAb.s:217    .text:00000000000000cc .LFE20
     /tmp/ccZidhAb.s:177    .text:000000000000009c .LFB19
     /tmp/ccZidhAb.s:194    .text:00000000000000b4 .LFE19
     /tmp/ccZidhAb.s:10     .text:0000000000000000 .LFB18
     /tmp/ccZidhAb.s:171    .text:000000000000009c .LFE18
     /tmp/ccZidhAb.s:1830   .debug_loc:00000000000000af .LLST0
     /tmp/ccZidhAb.s:2119   .debug_str:0000000000000491 .LASF86
     /tmp/ccZidhAb.s:1852   .debug_loc:000000000000010e .LLST1
     /tmp/ccZidhAb.s:2075   .debug_str:000000000000034f .LASF87
     /tmp/ccZidhAb.s:1867   .debug_loc:0000000000000157 .LLST2
     /tmp/ccZidhAb.s:2077   .debug_str:0000000000000356 .LASF88
     /tmp/ccZidhAb.s:1887   .debug_loc:00000000000001b5 .LLST3
     /tmp/ccZidhAb.s:2099   .debug_str:00000000000003f0 .LASF89
     /tmp/ccZidhAb.s:1898   .debug_loc:00000000000001eb .LLST4
     /tmp/ccZidhAb.s:137    .text:0000000000000078 .LBB21
     /tmp/ccZidhAb.s:152    .text:000000000000008c .LBE21
     /tmp/ccZidhAb.s:2049   .debug_str:0000000000000284 .LASF90
     /tmp/ccZidhAb.s:1909   .debug_loc:0000000000000221 .LLST5
     /tmp/ccZidhAb.s:1969   .debug_str:0000000000000008 .LASF91
     /tmp/ccZidhAb.s:1924   .debug_loc:000000000000025b .LLST6
     /tmp/ccZidhAb.s:144    .text:0000000000000084 .LVL13
     /tmp/ccZidhAb.s:157    .text:000000000000008c .LBB22
     /tmp/ccZidhAb.s:168    .text:000000000000009c .LBE22
     /tmp/ccZidhAb.s:1931   .debug_loc:000000000000027e .LLST7
     /tmp/ccZidhAb.s:162    .text:0000000000000094 .LVL15
     /tmp/ccZidhAb.s:39     .text:0000000000000028 .LBB16
     /tmp/ccZidhAb.s:55     .text:0000000000000034 .LBE16
     /tmp/ccZidhAb.s:60     .text:0000000000000038 .LBB18
     /tmp/ccZidhAb.s:76     .text:0000000000000044 .LBE18
     /tmp/ccZidhAb.s:87     .text:0000000000000054 .LBB23
     /tmp/ccZidhAb.s:98     .text:0000000000000058 .LBE23
     /tmp/ccZidhAb.s:1938   .debug_loc:00000000000002a1 .LLST8
     /tmp/ccZidhAb.s:100    .text:0000000000000058 .LBB25
     /tmp/ccZidhAb.s:111    .text:000000000000005c .LBE25
     /tmp/ccZidhAb.s:1945   .debug_loc:00000000000002c4 .LLST9
     /tmp/ccZidhAb.s:249    .text:00000000000000e4 .LVL16
     /tmp/ccZidhAb.s:283    .text:000000000000010c .LVL19
     /tmp/ccZidhAb.s:295    .text:000000000000011c .LVL20
     /tmp/ccZidhAb.s:273    .text:0000000000000100 .LVL17
     /tmp/ccZidhAb.s:279    .text:0000000000000104 .LVL18
     /tmp/ccZidhAb.s:14     .text:0000000000000000 .LVL0
     /tmp/ccZidhAb.s:37     .text:0000000000000028 .LVL2
     /tmp/ccZidhAb.s:121    .text:0000000000000068 .LVL8
     /tmp/ccZidhAb.s:131    .text:0000000000000078 .LVL11
     /tmp/ccZidhAb.s:33     .text:0000000000000024 .LVL1
     /tmp/ccZidhAb.s:83     .text:0000000000000054 .LVL5
     /tmp/ccZidhAb.s:150    .text:000000000000008c .LVL14
     /tmp/ccZidhAb.s:142    .text:000000000000007c .LVL12
GAS LISTING /tmp/ccZidhAb.s 			page 16


     /tmp/ccZidhAb.s:58     .text:0000000000000038 .LVL3
     /tmp/ccZidhAb.s:124    .text:000000000000006c .LVL9
     /tmp/ccZidhAb.s:74     .text:0000000000000044 .LVL4
     /tmp/ccZidhAb.s:127    .text:0000000000000070 .LVL10
     /tmp/ccZidhAb.s:95     .text:0000000000000058 .LVL6
     /tmp/ccZidhAb.s:108    .text:000000000000005c .LVL7
     /tmp/ccZidhAb.s:311    .debug_info:0000000000000000 .Ldebug_info0

UNDEFINED SYMBOLS
_ZN15MemoryAllocator7kmallocEm
_ZN15MemoryAllocator5kfreeEPv
