GAS LISTING C:\msys64\tmp\ccfwn9Bi.s 			page 1


   1              		.file	"riscv.cpp"
   2              		.option nopic
   3              		.option norelax
   4              		.attribute arch, "rv64i2p0_m2p0_a2p0"
   5              		.attribute unaligned_access, 0
   6              		.attribute stack_align, 16
   7              		.text
   8              	.Ltext0:
   9              		.align	2
  10              		.globl	_ZN5Riscv10popSppSpieEv
  12              	_ZN5Riscv10popSppSpieEv:
  13              	.LFB31:
  14              		.file 1 "src/riscv.cpp"
   1:src/riscv.cpp **** #include "../h/riscv.h"
   2:src/riscv.cpp **** #include "../lib/console.h"
   3:src/riscv.cpp **** #include "../h/MemoryAllocator.h"
   4:src/riscv.cpp **** #include "../h/Thread.h"
   5:src/riscv.cpp **** 
   6:src/riscv.cpp **** void Riscv::popSppSpie(){
  15              		.loc 1 6 25
  16              		.cfi_startproc
  17 0000 130101FF 		addi	sp,sp,-16
  18              		.cfi_def_cfa_offset 16
  19 0004 23348100 		sd	s0,8(sp)
  20              		.cfi_offset 8, -8
  21 0008 13040101 		addi	s0,sp,16
  22              		.cfi_def_cfa 8, 0
   7:src/riscv.cpp **** 	
   8:src/riscv.cpp **** 	__asm__ volatile("csrw sepc, ra");
  23              		.loc 1 8 2
  24              	 #APP
  25              	# 8 "src/riscv.cpp" 1
   9              		__asm__ volatile ("sret");
  26              		csrw sepc, ra
  27              	# 0 "" 2
  28              		.loc 1 9 2
  29              	# 9 "src/riscv.cpp" 1
  10              	}
  30              		sret
  31              	# 0 "" 2
  32              		.loc 1 10 1 is_stmt 0
  33              	 #NO_APP
  34 0014 03348100 		ld	s0,8(sp)
  35              		.cfi_restore 8
  36              		.cfi_def_cfa 2, 16
  37 0018 13010101 		addi	sp,sp,16
  38              		.cfi_def_cfa_offset 0
  39 001c 67800000 		jr	ra
  40              		.cfi_endproc
  41              	.LFE31:
  43              		.align	2
  44              		.globl	_ZN5Riscv20handleSupervisorTrapEv
  46              	_ZN5Riscv20handleSupervisorTrapEv:
  47              	.LFB32:
  11:src/riscv.cpp **** void Riscv::handleSupervisorTrap() {
  48              		.loc 1 11 36 is_stmt 1
  49              		.cfi_startproc
GAS LISTING C:\msys64\tmp\ccfwn9Bi.s 			page 2


  50 0020 130101FB 		addi	sp,sp,-80
  51              		.cfi_def_cfa_offset 80
  52 0024 23341104 		sd	ra,72(sp)
  53 0028 23308104 		sd	s0,64(sp)
  54 002c 233C9102 		sd	s1,56(sp)
  55 0030 23382103 		sd	s2,48(sp)
  56              		.cfi_offset 1, -8
  57              		.cfi_offset 8, -16
  58              		.cfi_offset 9, -24
  59              		.cfi_offset 18, -32
  60 0034 13040105 		addi	s0,sp,80
  61              		.cfi_def_cfa 8, 0
  12:src/riscv.cpp **** 
  13:src/riscv.cpp ****     uint64 scause = r_scause();
  62              		.loc 1 13 5
  63              	.LBB31:
  64              	.LBB32:
  65              		.file 2 "src/../h/riscv.h"
   1:src/../h/riscv.h ****     //
   2:src/../h/riscv.h ****     // Created by os on 3/31/26.
   3:src/../h/riscv.h ****     //
   4:src/../h/riscv.h **** 
   5:src/../h/riscv.h ****     #ifndef PROJECT_BASE_RISCB_H
   6:src/../h/riscv.h ****     #define PROJECT_BASE_RISCB_H
   7:src/../h/riscv.h ****     #include "../lib/hw.h"
   8:src/../h/riscv.h **** 
   9:src/../h/riscv.h ****     class Riscv {
  10:src/../h/riscv.h ****     public:
  11:src/../h/riscv.h **** 	
  12:src/../h/riscv.h **** 	static void popSppSpie();
  13:src/../h/riscv.h **** 	
  14:src/../h/riscv.h **** 	
  15:src/../h/riscv.h ****         static uint64 r_scause();
  16:src/../h/riscv.h **** 
  17:src/../h/riscv.h ****         static void w_scause(uint64 scause);
  18:src/../h/riscv.h **** 
  19:src/../h/riscv.h ****         static uint64 r_sepc();
  20:src/../h/riscv.h **** 
  21:src/../h/riscv.h ****         static void w_sepc(uint64 sepc);
  22:src/../h/riscv.h **** 
  23:src/../h/riscv.h ****         static uint64 r_stvec();
  24:src/../h/riscv.h **** 
  25:src/../h/riscv.h ****         static void w_stvec(uint64 stvec);
  26:src/../h/riscv.h **** 
  27:src/../h/riscv.h ****         static uint64 r_stval();
  28:src/../h/riscv.h **** 
  29:src/../h/riscv.h ****         static void w_stval(uint64 stval);
  30:src/../h/riscv.h **** 
  31:src/../h/riscv.h ****         enum BitMaskSip {
  32:src/../h/riscv.h ****             SIP_SSIP = (1 << 1),
  33:src/../h/riscv.h ****             SIP_STIP = (1 << 5),
  34:src/../h/riscv.h ****             SIP_SEIP = (1 << 9),
  35:src/../h/riscv.h ****         };
  36:src/../h/riscv.h **** 
  37:src/../h/riscv.h ****         static void ms_sip(uint64 mask);
  38:src/../h/riscv.h **** 
  39:src/../h/riscv.h ****         static void mc_sip(uint64 mask);
GAS LISTING C:\msys64\tmp\ccfwn9Bi.s 			page 3


  40:src/../h/riscv.h **** 
  41:src/../h/riscv.h ****         static uint64 r_sip();
  42:src/../h/riscv.h **** 
  43:src/../h/riscv.h ****         static void w_sip(uint64 sip);
  44:src/../h/riscv.h **** 
  45:src/../h/riscv.h ****         enum BitMaskSstatus {
  46:src/../h/riscv.h ****             SSTATUS_SIE = (1 << 1),
  47:src/../h/riscv.h ****             SSTATUS_SPIE = (1 << 5),
  48:src/../h/riscv.h ****             SSTATUS_SPP = (1 <<8),
  49:src/../h/riscv.h ****         };
  50:src/../h/riscv.h **** 
  51:src/../h/riscv.h ****         static void ms_sstatus(uint64 mask);
  52:src/../h/riscv.h **** 
  53:src/../h/riscv.h ****         static void mc_sstatus(uint64 mask);
  54:src/../h/riscv.h **** 
  55:src/../h/riscv.h ****         static uint64 r_sstatus();
  56:src/../h/riscv.h **** 
  57:src/../h/riscv.h ****         static void w_sstatus(uint64 sstatus);
  58:src/../h/riscv.h **** 
  59:src/../h/riscv.h ****         static uint64 readARegister(int reg_number);
  60:src/../h/riscv.h **** 
  61:src/../h/riscv.h ****         static void writeARegister(int reg_number, uint64 value);
  62:src/../h/riscv.h **** 
  63:src/../h/riscv.h **** 
  64:src/../h/riscv.h ****         static void supervisorTrap();
  65:src/../h/riscv.h ****     private:
  66:src/../h/riscv.h ****         static void handleSupervisorTrap();
  67:src/../h/riscv.h **** 
  68:src/../h/riscv.h ****     };
  69:src/../h/riscv.h **** 
  70:src/../h/riscv.h ****     inline uint64 Riscv::r_scause()
  71:src/../h/riscv.h ****     {
  72:src/../h/riscv.h ****         uint64 volatile scause;
  66              		.loc 2 72 9
  73:src/../h/riscv.h ****         __asm__ volatile ("csrr %[scause], scause" : [scause] "=r"(scause));
  67              		.loc 2 73 9
  68              	 #APP
  69              	# 73 "src/../h/riscv.h" 1
  74              	        return scause;
  70              		csrr a5, scause
  71              	# 0 "" 2
  72              	 #NO_APP
  73 003c 233CF4FA 		sd	a5,-72(s0)
  74              		.loc 2 74 9
  75              		.loc 2 74 16 is_stmt 0
  76 0040 033784FB 		ld	a4,-72(s0)
  77              	.LVL0:
  78              	.LBE32:
  79              	.LBE31:
  14:src/riscv.cpp ****     if (scause == 0x0000000000000008UL || scause == 0x0000000000000009UL) {
  80              		.loc 1 14 5 is_stmt 1
  81              	.LBB33:
  82              		.loc 1 14 40 is_stmt 0
  83 0044 930687FF 		addi	a3,a4,-8
  84              		.loc 1 14 5
  85 0048 93071000 		li	a5,1
  86 004c 63FED702 		bleu	a3,a5,.L9
GAS LISTING C:\msys64\tmp\ccfwn9Bi.s 			page 4


  87              	.LBE33:
  15:src/riscv.cpp ****         uint64 sepc = r_sepc() + 4;
  16:src/riscv.cpp ****     	uint64 sstatus = r_sstatus();
  17:src/riscv.cpp ****     	Thread::timeSliceCounter = 0;
  18:src/riscv.cpp ****     	Thread::dispatch();
  19:src/riscv.cpp ****     	w_sstatus(sstatus);
  20:src/riscv.cpp ****     	w_sepc(sepc);
  21:src/riscv.cpp ****     } else if (scause == 0x8000000000000009UL) {
  88              		.loc 1 21 12 is_stmt 1
  89              	.LBB67:
  90              	.LBB34:
  91 0050 9307F0FF 		li	a5,-1
  92 0054 9397F703 		slli	a5,a5,63
  93 0058 93879700 		addi	a5,a5,9
  94 005c 6302F706 		beq	a4,a5,.L10
  95              	.LBE34:
  96              	.LBE67:
  22:src/riscv.cpp ****         console_handler();
  23:src/riscv.cpp ****     } else if (scause == 0x8000000000000001UL) {
  97              		.loc 1 23 12
  98              	.LBB68:
  99              	.LBB55:
 100              	.LBB35:
 101 0060 9307F0FF 		li	a5,-1
 102 0064 9397F703 		slli	a5,a5,63
 103 0068 93871700 		addi	a5,a5,1
 104 006c 6300F706 		beq	a4,a5,.L11
 105              	.LVL1:
 106              	.L3:
 107              	.LBE35:
 108              	.LBE55:
 109              	.LBE68:
  24:src/riscv.cpp ****     	Thread::timeSliceCounter++;
  25:src/riscv.cpp ****     if(Thread::timeSliceCounter >= Thread::running -> getTimeSlice())
  26:src/riscv.cpp ****     {
  27:src/riscv.cpp ****     	uint64 sepc = r_sepc();
  28:src/riscv.cpp ****     	uint64 sstatus = r_sstatus();
  29:src/riscv.cpp ****     	Thread::timeSliceCounter = 0;
  30:src/riscv.cpp ****     	Thread::dispatch();
  31:src/riscv.cpp ****     	w_sstatus(sstatus);
  32:src/riscv.cpp ****     	w_sepc(sepc);
  33:src/riscv.cpp ****     	
  34:src/riscv.cpp ****     }
  35:src/riscv.cpp ****         mc_sip(SIP_SSIP);
  36:src/riscv.cpp ****     } else {
  37:src/riscv.cpp ****        
  38:src/riscv.cpp ****     }
  39:src/riscv.cpp **** }
 110              		.loc 1 39 1 is_stmt 0
 111 0070 83308104 		ld	ra,72(sp)
 112              		.cfi_remember_state
 113              		.cfi_restore 1
 114 0074 03340104 		ld	s0,64(sp)
 115              		.cfi_restore 8
 116              		.cfi_def_cfa 2, 80
 117 0078 83348103 		ld	s1,56(sp)
 118              		.cfi_restore 9
GAS LISTING C:\msys64\tmp\ccfwn9Bi.s 			page 5


 119 007c 03390103 		ld	s2,48(sp)
 120              		.cfi_restore 18
 121 0080 13010105 		addi	sp,sp,80
 122              		.cfi_def_cfa_offset 0
 123 0084 67800000 		jr	ra
 124              	.LVL2:
 125              	.L9:
 126              		.cfi_restore_state
 127              	.LBB69:
 128              	.LBB56:
  15:src/riscv.cpp ****     	uint64 sstatus = r_sstatus();
 129              		.loc 1 15 9 is_stmt 1
 130              	.LBB57:
 131              	.LBB58:
  75:src/../h/riscv.h ****     }
  76:src/../h/riscv.h **** 
  77:src/../h/riscv.h ****     inline void Riscv::w_scause(uint64 scause)
  78:src/../h/riscv.h ****     {
  79:src/../h/riscv.h ****         __asm__ volatile ("csrw scause, %[scause]" : : [scause] "r"(scause));
  80:src/../h/riscv.h ****     }
  81:src/../h/riscv.h **** 
  82:src/../h/riscv.h ****     inline uint64 Riscv::r_sepc()
  83:src/../h/riscv.h ****     {
  84:src/../h/riscv.h ****         uint64 volatile sepc;
 132              		.loc 2 84 9
  85:src/../h/riscv.h ****         __asm__ volatile ("csrr %[sepc], sepc" : [sepc] "=r"(sepc));
 133              		.loc 2 85 9
 134              	 #APP
 135              	# 85 "src/../h/riscv.h" 1
  86              	        return sepc;
 136              		csrr a5, sepc
 137              	# 0 "" 2
 138              	 #NO_APP
 139 008c 2334F4FC 		sd	a5,-56(s0)
 140              		.loc 2 86 9
 141              		.loc 2 86 16 is_stmt 0
 142 0090 833484FC 		ld	s1,-56(s0)
 143              	.LBE58:
 144              	.LBE57:
  15:src/riscv.cpp ****     	uint64 sstatus = r_sstatus();
 145              		.loc 1 15 34
 146 0094 93844400 		addi	s1,s1,4
 147              	.LVL3:
  16:src/riscv.cpp ****     	Thread::timeSliceCounter = 0;
 148              		.loc 1 16 6 is_stmt 1
 149              	.LBB59:
 150              	.LBB60:
  87:src/../h/riscv.h ****     }
  88:src/../h/riscv.h **** 
  89:src/../h/riscv.h ****     inline void Riscv::w_sepc(uint64 sepc)
  90:src/../h/riscv.h ****     {
  91:src/../h/riscv.h ****         __asm__ volatile ("csrw sepc, %[sepc]" : : [sepc] "r"(sepc));
  92:src/../h/riscv.h ****     }
  93:src/../h/riscv.h **** 
  94:src/../h/riscv.h ****     inline uint64 Riscv::r_stvec()
  95:src/../h/riscv.h ****     {
  96:src/../h/riscv.h ****         uint64 volatile stvec;
GAS LISTING C:\msys64\tmp\ccfwn9Bi.s 			page 6


  97:src/../h/riscv.h ****         __asm__ volatile ("csrr %[stvec], stvec" : [stvec] "=r"(stvec));
  98:src/../h/riscv.h ****         return stvec;
  99:src/../h/riscv.h ****     }
 100:src/../h/riscv.h **** 
 101:src/../h/riscv.h ****     inline void Riscv::w_stvec(uint64 stvec)
 102:src/../h/riscv.h ****     {
 103:src/../h/riscv.h ****         __asm__ volatile ("csrw stvec, %[stvec]" : : [stvec] "r"(stvec));
 104:src/../h/riscv.h ****     }
 105:src/../h/riscv.h **** 
 106:src/../h/riscv.h ****     inline uint64 Riscv::r_stval()
 107:src/../h/riscv.h ****     {
 108:src/../h/riscv.h ****         uint64 volatile stval;
 109:src/../h/riscv.h ****         __asm__ volatile ("csrr %[stval], stval" : [stval] "=r"(stval));
 110:src/../h/riscv.h ****         return stval;
 111:src/../h/riscv.h ****     }
 112:src/../h/riscv.h **** 
 113:src/../h/riscv.h ****     inline void Riscv::w_stval(uint64 stval)
 114:src/../h/riscv.h ****     {
 115:src/../h/riscv.h ****         __asm__ volatile ("csrw stval, %[stval]" : : [stval] "r"(stval));
 116:src/../h/riscv.h ****     }
 117:src/../h/riscv.h **** 
 118:src/../h/riscv.h ****     inline void Riscv::ms_sip(uint64 mask)
 119:src/../h/riscv.h ****     {
 120:src/../h/riscv.h ****         __asm__ volatile ("csrs sip, %[mask]" : : [mask] "r"(mask));
 121:src/../h/riscv.h ****     }
 122:src/../h/riscv.h **** 
 123:src/../h/riscv.h ****     inline void Riscv::mc_sip(uint64 mask)
 124:src/../h/riscv.h ****     {
 125:src/../h/riscv.h ****         __asm__ volatile ("csrc sip, %[mask]" : : [mask] "r"(mask));
 126:src/../h/riscv.h ****     }
 127:src/../h/riscv.h **** 
 128:src/../h/riscv.h ****     inline uint64 Riscv::r_sip()
 129:src/../h/riscv.h ****     {
 130:src/../h/riscv.h ****         uint64 volatile sip;
 131:src/../h/riscv.h ****         __asm__ volatile ("csrr %[sip], sip" : [sip] "=r"(sip));
 132:src/../h/riscv.h ****         return sip;
 133:src/../h/riscv.h ****     }
 134:src/../h/riscv.h **** 
 135:src/../h/riscv.h ****     inline void Riscv::w_sip(uint64 sip)
 136:src/../h/riscv.h ****     {
 137:src/../h/riscv.h ****         __asm__ volatile ("csrw sip, %[sip]" : : [sip] "r"(sip));
 138:src/../h/riscv.h ****     }
 139:src/../h/riscv.h **** 
 140:src/../h/riscv.h ****     inline void Riscv::ms_sstatus(uint64 mask)
 141:src/../h/riscv.h ****     {
 142:src/../h/riscv.h ****         __asm__ volatile ("csrs sstatus, %[mask]" : : [mask] "r"(mask));
 143:src/../h/riscv.h ****     }
 144:src/../h/riscv.h **** 
 145:src/../h/riscv.h ****     inline void Riscv::mc_sstatus(uint64 mask)
 146:src/../h/riscv.h ****     {
 147:src/../h/riscv.h ****         __asm__ volatile ("csrc sstatus, %[mask]" : : [mask] "r"(mask));
 148:src/../h/riscv.h ****     }
 149:src/../h/riscv.h **** 
 150:src/../h/riscv.h ****     inline uint64 Riscv::r_sstatus()
 151:src/../h/riscv.h ****     {
 152:src/../h/riscv.h ****         uint64 volatile sstatus;
 151              		.loc 2 152 9
GAS LISTING C:\msys64\tmp\ccfwn9Bi.s 			page 7


 153:src/../h/riscv.h ****         __asm__ volatile ("csrr %[sstatus], sstatus" : [sstatus] "=r"(sstatus));
 152              		.loc 2 153 9
 153              	 #APP
 154              	# 153 "src/../h/riscv.h" 1
 154              	        return sstatus;
 155              		csrr a5, sstatus
 156              	# 0 "" 2
 157              	 #NO_APP
 158 009c 2330F4FC 		sd	a5,-64(s0)
 159              		.loc 2 154 9
 160              		.loc 2 154 16 is_stmt 0
 161 00a0 033904FC 		ld	s2,-64(s0)
 162              	.LVL4:
 163              	.LBE60:
 164              	.LBE59:
  17:src/riscv.cpp ****     	Thread::dispatch();
 165              		.loc 1 17 6 is_stmt 1
  17:src/riscv.cpp ****     	Thread::dispatch();
 166              		.loc 1 17 31 is_stmt 0
 167 00a4 97070000 		sd	zero,_ZN6Thread16timeSliceCounterE,a5
 167      23B00700 
  18:src/riscv.cpp ****     	w_sstatus(sstatus);
 168              		.loc 1 18 6 is_stmt 1
  18:src/riscv.cpp ****     	w_sstatus(sstatus);
 169              		.loc 1 18 22 is_stmt 0
 170 00ac 97000000 		call	_ZN6Thread8dispatchEv
 170      E7800000 
 171              	.LVL5:
  19:src/riscv.cpp ****     	w_sepc(sepc);
 172              		.loc 1 19 6 is_stmt 1
 173              	.LBB61:
 174              	.LBB62:
 155:src/../h/riscv.h ****     }
 156:src/../h/riscv.h **** 
 157:src/../h/riscv.h ****     inline void Riscv::w_sstatus(uint64 sstatus)
 158:src/../h/riscv.h ****     {
 159:src/../h/riscv.h ****         __asm__ volatile ("csrw sstatus, %[sstatus]" : : [sstatus] "r"(sstatus));
 175              		.loc 2 159 9
 176              	 #APP
 177              	# 159 "src/../h/riscv.h" 1
 160              	    }
 178              		csrw sstatus, s2
 179              	# 0 "" 2
 180              	.LVL6:
 181              	 #NO_APP
 182              	.LBE62:
 183              	.LBE61:
  20:src/riscv.cpp ****     } else if (scause == 0x8000000000000009UL) {
 184              		.loc 1 20 6
 185              	.LBB63:
 186              	.LBB64:
  91:src/../h/riscv.h ****     }
 187              		.loc 2 91 9
 188              	 #APP
 189              	# 91 "src/../h/riscv.h" 1
  92:src/../h/riscv.h **** 
 190              		csrw sepc, s1
GAS LISTING C:\msys64\tmp\ccfwn9Bi.s 			page 8


 191              	# 0 "" 2
 192              		.loc 2 92 5 is_stmt 0
 193              	 #NO_APP
 194 00bc 6FF05FFB 		j	.L3
 195              	.LVL7:
 196              	.L10:
 197              	.LBE64:
 198              	.LBE63:
 199              	.LBE56:
 200              	.LBB65:
  22:src/riscv.cpp ****     } else if (scause == 0x8000000000000001UL) {
 201              		.loc 1 22 9 is_stmt 1
  22:src/riscv.cpp ****     } else if (scause == 0x8000000000000001UL) {
 202              		.loc 1 22 24 is_stmt 0
 203 00c0 97000000 		call	console_handler
 203      E7800000 
 204              	.LVL8:
 205 00c8 6FF09FFA 		j	.L3
 206              	.LVL9:
 207              	.L11:
 208              	.LBB53:
 209              	.LBB36:
  24:src/riscv.cpp ****     if(Thread::timeSliceCounter >= Thread::running -> getTimeSlice())
 210              		.loc 1 24 6 is_stmt 1
  24:src/riscv.cpp ****     if(Thread::timeSliceCounter >= Thread::running -> getTimeSlice())
 211              		.loc 1 24 30 is_stmt 0
 212 00cc 17070000 		lla	a4,_ZN6Thread16timeSliceCounterE
 212      13070700 
 213              	.LVL10:
 214 00d4 83370700 		ld	a5,0(a4)
 215 00d8 93871700 		addi	a5,a5,1
 216 00dc 2330F700 		sd	a5,0(a4)
  25:src/riscv.cpp ****     {
 217              		.loc 1 25 5 is_stmt 1
 218              	.LBB37:
  25:src/riscv.cpp ****     {
 219              		.loc 1 25 67 is_stmt 0
 220 00e0 17070000 		ld	a4,_ZN6Thread7runningE
 220      03370700 
 221              	.LVL11:
 222              	.LBB38:
 223              	.LBB39:
 224              		.file 3 "src/../h/Thread.h"
   1:src/../h/Thread.h ****  #ifndef PROJEKAT_THREAD_H
   2:src/../h/Thread.h **** #define PROJEKAT_THREAD_H
   3:src/../h/Thread.h **** 
   4:src/../h/Thread.h **** #include "../lib/hw.h"
   5:src/../h/Thread.h **** #include "MemoryAllocator.h"
   6:src/../h/Thread.h **** #include "Scheduler.h"
   7:src/../h/Thread.h **** 
   8:src/../h/Thread.h **** class Thread {
   9:src/../h/Thread.h **** public:
  10:src/../h/Thread.h ****     ~Thread() {delete[] stack;};
  11:src/../h/Thread.h ****     using Body = void (*)();
  12:src/../h/Thread.h **** 
  13:src/../h/Thread.h ****     static Thread* createThread(Body body);
  14:src/../h/Thread.h ****     
GAS LISTING C:\msys64\tmp\ccfwn9Bi.s 			page 9


  15:src/../h/Thread.h ****     static Thread* running;
  16:src/../h/Thread.h **** 
  17:src/../h/Thread.h ****     static void yield();
  18:src/../h/Thread.h **** 
  19:src/../h/Thread.h **** 
  20:src/../h/Thread.h ****     static void dispatch();
  21:src/../h/Thread.h **** 
  22:src/../h/Thread.h ****     bool isFinished(){return finished;};
  23:src/../h/Thread.h **** 	
  24:src/../h/Thread.h **** 	uint64 getTimeSlice() const {
  25:src/../h/Thread.h **** 	return timeSlice;
 225              		.loc 3 25 2 is_stmt 1
 226              		.loc 3 25 9 is_stmt 0
 227 00e8 03378702 		ld	a4,40(a4)
 228              	.LVL12:
 229              	.LBE39:
 230              	.LBE38:
  25:src/riscv.cpp ****     {
 231              		.loc 1 25 5
 232 00ec 63F8E700 		bgeu	a5,a4,.L12
 233              	.LVL13:
 234              	.L7:
 235              	.LBE37:
  35:src/riscv.cpp ****     } else {
 236              		.loc 1 35 9 is_stmt 1
 237              	.LBB49:
 238              	.LBB50:
 125:src/../h/riscv.h ****     }
 239              		.loc 2 125 9
 240 00f0 93072000 		li	a5,2
 241              	 #APP
 242              	# 125 "src/../h/riscv.h" 1
 243              		csrc sip, a5
 244              	# 0 "" 2
 245              	.LVL14:
 246              	 #NO_APP
 247              	.LBE50:
 248              	.LBE49:
 249              	.LBE36:
 250              	.LBE53:
 251              	.LBE65:
 252              	.LBE69:
 253              		.loc 1 39 1 is_stmt 0
 254 00f8 6FF09FF7 		j	.L3
 255              	.LVL15:
 256              	.L12:
 257              	.LBB70:
 258              	.LBB66:
 259              	.LBB54:
 260              	.LBB52:
 261              	.LBB51:
 262              	.LBB40:
  27:src/riscv.cpp ****     	uint64 sstatus = r_sstatus();
 263              		.loc 1 27 6 is_stmt 1
 264              	.LBB41:
 265              	.LBB42:
  84:src/../h/riscv.h ****         __asm__ volatile ("csrr %[sepc], sepc" : [sepc] "=r"(sepc));
GAS LISTING C:\msys64\tmp\ccfwn9Bi.s 			page 10


 266              		.loc 2 84 9
  85:src/../h/riscv.h ****         return sepc;
 267              		.loc 2 85 9
 268              	 #APP
 269              	# 85 "src/../h/riscv.h" 1
 270              		csrr a5, sepc
 271              	# 0 "" 2
 272              	 #NO_APP
 273 0100 233CF4FC 		sd	a5,-40(s0)
  86:src/../h/riscv.h ****     }
 274              		.loc 2 86 9
  86:src/../h/riscv.h ****     }
 275              		.loc 2 86 16 is_stmt 0
 276 0104 833484FD 		ld	s1,-40(s0)
 277              	.LVL16:
 278              	.LBE42:
 279              	.LBE41:
  28:src/riscv.cpp ****     	Thread::timeSliceCounter = 0;
 280              		.loc 1 28 6 is_stmt 1
 281              	.LBB43:
 282              	.LBB44:
 152:src/../h/riscv.h ****         __asm__ volatile ("csrr %[sstatus], sstatus" : [sstatus] "=r"(sstatus));
 283              		.loc 2 152 9
 153:src/../h/riscv.h ****         return sstatus;
 284              		.loc 2 153 9
 285              	 #APP
 286              	# 153 "src/../h/riscv.h" 1
 287              		csrr a5, sstatus
 288              	# 0 "" 2
 289              	 #NO_APP
 290 010c 2338F4FC 		sd	a5,-48(s0)
 154:src/../h/riscv.h ****     }
 291              		.loc 2 154 9
 154:src/../h/riscv.h ****     }
 292              		.loc 2 154 16 is_stmt 0
 293 0110 033904FD 		ld	s2,-48(s0)
 294              	.LVL17:
 295              	.LBE44:
 296              	.LBE43:
  29:src/riscv.cpp ****     	Thread::dispatch();
 297              		.loc 1 29 6 is_stmt 1
  29:src/riscv.cpp ****     	Thread::dispatch();
 298              		.loc 1 29 31 is_stmt 0
 299 0114 97070000 		sd	zero,_ZN6Thread16timeSliceCounterE,a5
 299      23B00700 
  30:src/riscv.cpp ****     	w_sstatus(sstatus);
 300              		.loc 1 30 6 is_stmt 1
  30:src/riscv.cpp ****     	w_sstatus(sstatus);
 301              		.loc 1 30 22 is_stmt 0
 302 011c 97000000 		call	_ZN6Thread8dispatchEv
 302      E7800000 
 303              	.LVL18:
  31:src/riscv.cpp ****     	w_sepc(sepc);
 304              		.loc 1 31 6 is_stmt 1
 305              	.LBB45:
 306              	.LBB46:
 159:src/../h/riscv.h ****     }
GAS LISTING C:\msys64\tmp\ccfwn9Bi.s 			page 11


 307              		.loc 2 159 9
 308              	 #APP
 309              	# 159 "src/../h/riscv.h" 1
 310              		csrw sstatus, s2
 311              	# 0 "" 2
 312              	.LVL19:
 313              	 #NO_APP
 314              	.LBE46:
 315              	.LBE45:
  32:src/riscv.cpp ****     	
 316              		.loc 1 32 6
 317              	.LBB47:
 318              	.LBB48:
  91:src/../h/riscv.h ****     }
 319              		.loc 2 91 9
 320              	 #APP
 321              	# 91 "src/../h/riscv.h" 1
  92:src/../h/riscv.h **** 
 322              		csrw sepc, s1
 323              	# 0 "" 2
 324              		.loc 2 92 5 is_stmt 0
 325              	 #NO_APP
 326 012c 6FF05FFC 		j	.L7
 327              	.LBE48:
 328              	.LBE47:
 329              	.LBE40:
 330              	.LBE51:
 331              	.LBE52:
 332              	.LBE54:
 333              	.LBE66:
 334              	.LBE70:
 335              		.cfi_endproc
 336              	.LFE32:
 338              	.Letext0:
 339              		.file 4 "src/../h/../lib/hw.h"
 340              		.file 5 "src/../lib/console.h"
GAS LISTING C:\msys64\tmp\ccfwn9Bi.s 			page 12


DEFINED SYMBOLS
                            *ABS*:0000000000000000 riscv.cpp
C:\msys64\tmp\ccfwn9Bi.s:12     .text:0000000000000000 _ZN5Riscv10popSppSpieEv
C:\msys64\tmp\ccfwn9Bi.s:16     .text:0000000000000000 .L0 
C:\msys64\tmp\ccfwn9Bi.s:17     .text:0000000000000000 .L0 
C:\msys64\tmp\ccfwn9Bi.s:18     .text:0000000000000004 .L0 
C:\msys64\tmp\ccfwn9Bi.s:20     .text:0000000000000008 .L0 
C:\msys64\tmp\ccfwn9Bi.s:22     .text:000000000000000c .L0 
       src/riscv.cpp:8      .text:000000000000000c .L0 
       src/riscv.cpp:9      .text:0000000000000010 .L0 
C:\msys64\tmp\ccfwn9Bi.s:34     .text:0000000000000014 .L0 
C:\msys64\tmp\ccfwn9Bi.s:35     .text:0000000000000018 .L0 
C:\msys64\tmp\ccfwn9Bi.s:36     .text:0000000000000018 .L0 
C:\msys64\tmp\ccfwn9Bi.s:38     .text:000000000000001c .L0 
C:\msys64\tmp\ccfwn9Bi.s:40     .text:0000000000000020 .L0 
C:\msys64\tmp\ccfwn9Bi.s:46     .text:0000000000000020 _ZN5Riscv20handleSupervisorTrapEv
C:\msys64\tmp\ccfwn9Bi.s:49     .text:0000000000000020 .L0 
C:\msys64\tmp\ccfwn9Bi.s:50     .text:0000000000000020 .L0 
C:\msys64\tmp\ccfwn9Bi.s:51     .text:0000000000000024 .L0 
C:\msys64\tmp\ccfwn9Bi.s:56     .text:0000000000000034 .L0 
C:\msys64\tmp\ccfwn9Bi.s:57     .text:0000000000000034 .L0 
C:\msys64\tmp\ccfwn9Bi.s:58     .text:0000000000000034 .L0 
C:\msys64\tmp\ccfwn9Bi.s:59     .text:0000000000000034 .L0 
C:\msys64\tmp\ccfwn9Bi.s:61     .text:0000000000000038 .L0 
C:\msys64\tmp\ccfwn9Bi.s:66     .text:0000000000000038 .L0 
C:\msys64\tmp\ccfwn9Bi.s:67     .text:0000000000000038 .L0 
    src/../h/riscv.h:73     .text:0000000000000038 .L0 
C:\msys64\tmp\ccfwn9Bi.s:75     .text:0000000000000040 .L0 
C:\msys64\tmp\ccfwn9Bi.s:76     .text:0000000000000040 .L0 
C:\msys64\tmp\ccfwn9Bi.s:82     .text:0000000000000044 .L0 
C:\msys64\tmp\ccfwn9Bi.s:83     .text:0000000000000044 .L0 
C:\msys64\tmp\ccfwn9Bi.s:85     .text:0000000000000048 .L0 
C:\msys64\tmp\ccfwn9Bi.s:91     .text:0000000000000050 .L0 
C:\msys64\tmp\ccfwn9Bi.s:101    .text:0000000000000060 .L0 
C:\msys64\tmp\ccfwn9Bi.s:111    .text:0000000000000070 .L0 
C:\msys64\tmp\ccfwn9Bi.s:112    .text:0000000000000074 .L0 
C:\msys64\tmp\ccfwn9Bi.s:113    .text:0000000000000074 .L0 
C:\msys64\tmp\ccfwn9Bi.s:115    .text:0000000000000078 .L0 
C:\msys64\tmp\ccfwn9Bi.s:116    .text:0000000000000078 .L0 
C:\msys64\tmp\ccfwn9Bi.s:118    .text:000000000000007c .L0 
C:\msys64\tmp\ccfwn9Bi.s:120    .text:0000000000000080 .L0 
C:\msys64\tmp\ccfwn9Bi.s:122    .text:0000000000000084 .L0 
C:\msys64\tmp\ccfwn9Bi.s:126    .text:0000000000000088 .L0 
C:\msys64\tmp\ccfwn9Bi.s:132    .text:0000000000000088 .L0 
C:\msys64\tmp\ccfwn9Bi.s:133    .text:0000000000000088 .L0 
    src/../h/riscv.h:85     .text:0000000000000088 .L0 
C:\msys64\tmp\ccfwn9Bi.s:141    .text:0000000000000090 .L0 
C:\msys64\tmp\ccfwn9Bi.s:142    .text:0000000000000090 .L0 
C:\msys64\tmp\ccfwn9Bi.s:146    .text:0000000000000094 .L0 
C:\msys64\tmp\ccfwn9Bi.s:151    .text:0000000000000098 .L0 
C:\msys64\tmp\ccfwn9Bi.s:152    .text:0000000000000098 .L0 
    src/../h/riscv.h:153    .text:0000000000000098 .L0 
C:\msys64\tmp\ccfwn9Bi.s:160    .text:00000000000000a0 .L0 
C:\msys64\tmp\ccfwn9Bi.s:161    .text:00000000000000a0 .L0 
C:\msys64\tmp\ccfwn9Bi.s:166    .text:00000000000000a4 .L0 
C:\msys64\tmp\ccfwn9Bi.s:167    .text:00000000000000a4 .L0 
C:\msys64\tmp\ccfwn9Bi.s:169    .text:00000000000000ac .L0 
GAS LISTING C:\msys64\tmp\ccfwn9Bi.s 			page 13


C:\msys64\tmp\ccfwn9Bi.s:170    .text:00000000000000ac .L0 
C:\msys64\tmp\ccfwn9Bi.s:175    .text:00000000000000b4 .L0 
    src/../h/riscv.h:159    .text:00000000000000b4 .L0 
C:\msys64\tmp\ccfwn9Bi.s:187    .text:00000000000000b8 .L0 
    src/../h/riscv.h:91     .text:00000000000000b8 .L0 
C:\msys64\tmp\ccfwn9Bi.s:194    .text:00000000000000bc .L0 
C:\msys64\tmp\ccfwn9Bi.s:202    .text:00000000000000c0 .L0 
C:\msys64\tmp\ccfwn9Bi.s:203    .text:00000000000000c0 .L0 
C:\msys64\tmp\ccfwn9Bi.s:211    .text:00000000000000cc .L0 
C:\msys64\tmp\ccfwn9Bi.s:212    .text:00000000000000cc .L0 
C:\msys64\tmp\ccfwn9Bi.s:219    .text:00000000000000e0 .L0 
C:\msys64\tmp\ccfwn9Bi.s:220    .text:00000000000000e0 .L0 
C:\msys64\tmp\ccfwn9Bi.s:226    .text:00000000000000e8 .L0 
C:\msys64\tmp\ccfwn9Bi.s:227    .text:00000000000000e8 .L0 
C:\msys64\tmp\ccfwn9Bi.s:232    .text:00000000000000ec .L0 
C:\msys64\tmp\ccfwn9Bi.s:239    .text:00000000000000f0 .L0 
C:\msys64\tmp\ccfwn9Bi.s:240    .text:00000000000000f0 .L0 
C:\msys64\tmp\ccfwn9Bi.s:254    .text:00000000000000f8 .L0 
C:\msys64\tmp\ccfwn9Bi.s:266    .text:00000000000000fc .L0 
C:\msys64\tmp\ccfwn9Bi.s:267    .text:00000000000000fc .L0 
    src/../h/riscv.h:85     .text:00000000000000fc .L0 
C:\msys64\tmp\ccfwn9Bi.s:275    .text:0000000000000104 .L0 
C:\msys64\tmp\ccfwn9Bi.s:276    .text:0000000000000104 .L0 
C:\msys64\tmp\ccfwn9Bi.s:283    .text:0000000000000108 .L0 
C:\msys64\tmp\ccfwn9Bi.s:284    .text:0000000000000108 .L0 
    src/../h/riscv.h:153    .text:0000000000000108 .L0 
C:\msys64\tmp\ccfwn9Bi.s:292    .text:0000000000000110 .L0 
C:\msys64\tmp\ccfwn9Bi.s:293    .text:0000000000000110 .L0 
C:\msys64\tmp\ccfwn9Bi.s:298    .text:0000000000000114 .L0 
C:\msys64\tmp\ccfwn9Bi.s:299    .text:0000000000000114 .L0 
C:\msys64\tmp\ccfwn9Bi.s:301    .text:000000000000011c .L0 
C:\msys64\tmp\ccfwn9Bi.s:302    .text:000000000000011c .L0 
C:\msys64\tmp\ccfwn9Bi.s:307    .text:0000000000000124 .L0 
    src/../h/riscv.h:159    .text:0000000000000124 .L0 
C:\msys64\tmp\ccfwn9Bi.s:319    .text:0000000000000128 .L0 
    src/../h/riscv.h:91     .text:0000000000000128 .L0 
C:\msys64\tmp\ccfwn9Bi.s:326    .text:000000000000012c .L0 
C:\msys64\tmp\ccfwn9Bi.s:335    .text:0000000000000130 .L0 
C:\msys64\tmp\ccfwn9Bi.s:341    .text:0000000000000130 .L0 
C:\msys64\tmp\ccfwn9Bi.s:167    .text:00000000000000a4 .L0 
C:\msys64\tmp\ccfwn9Bi.s:212    .text:00000000000000cc .L0 
C:\msys64\tmp\ccfwn9Bi.s:220    .text:00000000000000e0 .L0 
C:\msys64\tmp\ccfwn9Bi.s:299    .text:0000000000000114 .L0 
C:\msys64\tmp\ccfwn9Bi.s:125    .text:0000000000000088 .L9
C:\msys64\tmp\ccfwn9Bi.s:196    .text:00000000000000c0 .L10
C:\msys64\tmp\ccfwn9Bi.s:207    .text:00000000000000cc .L11
C:\msys64\tmp\ccfwn9Bi.s:106    .text:0000000000000070 .L3
C:\msys64\tmp\ccfwn9Bi.s:256    .text:00000000000000fc .L12
C:\msys64\tmp\ccfwn9Bi.s:234    .text:00000000000000f0 .L7
C:\msys64\tmp\ccfwn9Bi.s:1223   .debug_abbrev:0000000000000000 .Ldebug_abbrev0
C:\msys64\tmp\ccfwn9Bi.s:2140   .debug_str:00000000000000c8 .LASF89
C:\msys64\tmp\ccfwn9Bi.s:2240   .debug_str:000000000000049e .LASF90
C:\msys64\tmp\ccfwn9Bi.s:2248   .debug_str:00000000000004e0 .LASF91
C:\msys64\tmp\ccfwn9Bi.s:8      .text:0000000000000000 .Ltext0
C:\msys64\tmp\ccfwn9Bi.s:338    .text:0000000000000130 .Letext0
C:\msys64\tmp\ccfwn9Bi.s:2106   .debug_line:0000000000000000 .Ldebug_line0
C:\msys64\tmp\ccfwn9Bi.s:2218   .debug_str:0000000000000411 .LASF0
GAS LISTING C:\msys64\tmp\ccfwn9Bi.s 			page 14


C:\msys64\tmp\ccfwn9Bi.s:2236   .debug_str:0000000000000478 .LASF1
C:\msys64\tmp\ccfwn9Bi.s:2210   .debug_str:00000000000003da .LASF2
C:\msys64\tmp\ccfwn9Bi.s:2188   .debug_str:0000000000000336 .LASF4
C:\msys64\tmp\ccfwn9Bi.s:2264   .debug_str:0000000000000571 .LASF3
C:\msys64\tmp\ccfwn9Bi.s:2128   .debug_str:0000000000000076 .LASF5
C:\msys64\tmp\ccfwn9Bi.s:2238   .debug_str:000000000000048b .LASF6
C:\msys64\tmp\ccfwn9Bi.s:2216   .debug_str:00000000000003fe .LASF7
C:\msys64\tmp\ccfwn9Bi.s:2246   .debug_str:00000000000004d1 .LASF8
C:\msys64\tmp\ccfwn9Bi.s:2138   .debug_str:00000000000000bc .LASF9
C:\msys64\tmp\ccfwn9Bi.s:2256   .debug_str:0000000000000535 .LASF10
C:\msys64\tmp\ccfwn9Bi.s:2154   .debug_str:0000000000000226 .LASF11
C:\msys64\tmp\ccfwn9Bi.s:2232   .debug_str:0000000000000467 .LASF54
C:\msys64\tmp\ccfwn9Bi.s:2200   .debug_str:000000000000037e .LASF92
C:\msys64\tmp\ccfwn9Bi.s:2274   .debug_str:00000000000005b7 .LASF12
C:\msys64\tmp\ccfwn9Bi.s:2230   .debug_str:000000000000045e .LASF13
C:\msys64\tmp\ccfwn9Bi.s:2194   .debug_str:000000000000034b .LASF14
C:\msys64\tmp\ccfwn9Bi.s:2254   .debug_str:000000000000052a .LASF49
C:\msys64\tmp\ccfwn9Bi.s:2298   .debug_str:0000000000000659 .LASF51
C:\msys64\tmp\ccfwn9Bi.s:2116   .debug_str:0000000000000043 .LASF15
C:\msys64\tmp\ccfwn9Bi.s:2166   .debug_str:0000000000000286 .LASF17
C:\msys64\tmp\ccfwn9Bi.s:2162   .debug_str:0000000000000275 .LASF19
C:\msys64\tmp\ccfwn9Bi.s:2160   .debug_str:0000000000000260 .LASF21
C:\msys64\tmp\ccfwn9Bi.s:2268   .debug_str:0000000000000594 .LASF16
C:\msys64\tmp\ccfwn9Bi.s:2250   .debug_str:000000000000050f .LASF18
C:\msys64\tmp\ccfwn9Bi.s:2282   .debug_str:00000000000005fd .LASF20
C:\msys64\tmp\ccfwn9Bi.s:2278   .debug_str:00000000000005d8 .LASF22
C:\msys64\tmp\ccfwn9Bi.s:2174   .debug_str:00000000000002c7 .LASF23
C:\msys64\tmp\ccfwn9Bi.s:2156   .debug_str:000000000000023c .LASF24
C:\msys64\tmp\ccfwn9Bi.s:2110   .debug_str:0000000000000019 .LASF25
C:\msys64\tmp\ccfwn9Bi.s:2182   .debug_str:0000000000000301 .LASF26
C:\msys64\tmp\ccfwn9Bi.s:2284   .debug_str:0000000000000604 .LASF27
C:\msys64\tmp\ccfwn9Bi.s:2132   .debug_str:0000000000000082 .LASF28
C:\msys64\tmp\ccfwn9Bi.s:2304   .debug_str:0000000000000682 .LASF29
C:\msys64\tmp\ccfwn9Bi.s:2168   .debug_str:000000000000029b .LASF30
C:\msys64\tmp\ccfwn9Bi.s:2220   .debug_str:000000000000041e .LASF31
C:\msys64\tmp\ccfwn9Bi.s:2294   .debug_str:0000000000000641 .LASF32
C:\msys64\tmp\ccfwn9Bi.s:2126   .debug_str:000000000000006f .LASF33
C:\msys64\tmp\ccfwn9Bi.s:2172   .debug_str:00000000000002b4 .LASF34
C:\msys64\tmp\ccfwn9Bi.s:2178   .debug_str:00000000000002e5 .LASF35
C:\msys64\tmp\ccfwn9Bi.s:2280   .debug_str:00000000000005eb .LASF36
C:\msys64\tmp\ccfwn9Bi.s:2124   .debug_str:0000000000000069 .LASF37
C:\msys64\tmp\ccfwn9Bi.s:2308   .debug_str:000000000000068f .LASF38
C:\msys64\tmp\ccfwn9Bi.s:2302   .debug_str:0000000000000677 .LASF39
C:\msys64\tmp\ccfwn9Bi.s:2262   .debug_str:0000000000000559 .LASF40
C:\msys64\tmp\ccfwn9Bi.s:2234   .debug_str:000000000000046d .LASF41
C:\msys64\tmp\ccfwn9Bi.s:2276   .debug_str:00000000000005c0 .LASF42
C:\msys64\tmp\ccfwn9Bi.s:2136   .debug_str:00000000000000b2 .LASF43
C:\msys64\tmp\ccfwn9Bi.s:2186   .debug_str:0000000000000320 .LASF44
C:\msys64\tmp\ccfwn9Bi.s:2214   .debug_str:00000000000003f4 .LASF45
C:\msys64\tmp\ccfwn9Bi.s:2180   .debug_str:00000000000002eb .LASF46
C:\msys64\tmp\ccfwn9Bi.s:2114   .debug_str:0000000000000035 .LASF56
C:\msys64\tmp\ccfwn9Bi.s:2206   .debug_str:00000000000003b1 .LASF58
C:\msys64\tmp\ccfwn9Bi.s:2290   .debug_str:000000000000061d .LASF47
C:\msys64\tmp\ccfwn9Bi.s:2204   .debug_str:0000000000000394 .LASF48
C:\msys64\tmp\ccfwn9Bi.s:2270   .debug_str:000000000000059b .LASF50
C:\msys64\tmp\ccfwn9Bi.s:2134   .debug_str:0000000000000096 .LASF52
C:\msys64\tmp\ccfwn9Bi.s:2292   .debug_str:000000000000062c .LASF73
GAS LISTING C:\msys64\tmp\ccfwn9Bi.s 			page 15


C:\msys64\tmp\ccfwn9Bi.s:2198   .debug_str:000000000000035c .LASF75
C:\msys64\tmp\ccfwn9Bi.s:2170   .debug_str:00000000000002af .LASF53
C:\msys64\tmp\ccfwn9Bi.s:2288   .debug_str:0000000000000616 .LASF55
C:\msys64\tmp\ccfwn9Bi.s:2120   .debug_str:0000000000000053 .LASF93
C:\msys64\tmp\ccfwn9Bi.s:2260   .debug_str:0000000000000551 .LASF57
C:\msys64\tmp\ccfwn9Bi.s:2228   .debug_str:000000000000044f .LASF59
C:\msys64\tmp\ccfwn9Bi.s:2152   .debug_str:0000000000000219 .LASF60
C:\msys64\tmp\ccfwn9Bi.s:2150   .debug_str:00000000000001fa .LASF61
C:\msys64\tmp\ccfwn9Bi.s:2130   .debug_str:000000000000007d .LASF94
C:\msys64\tmp\ccfwn9Bi.s:2164   .debug_str:000000000000027e .LASF95
C:\msys64\tmp\ccfwn9Bi.s:2258   .debug_str:000000000000054b .LASF62
C:\msys64\tmp\ccfwn9Bi.s:2148   .debug_str:00000000000001e7 .LASF63
C:\msys64\tmp\ccfwn9Bi.s:2222   .debug_str:0000000000000425 .LASF64
C:\msys64\tmp\ccfwn9Bi.s:2176   .debug_str:00000000000002cf .LASF65
C:\msys64\tmp\ccfwn9Bi.s:2242   .debug_str:00000000000004ac .LASF66
C:\msys64\tmp\ccfwn9Bi.s:2108   .debug_str:0000000000000000 .LASF68
C:\msys64\tmp\ccfwn9Bi.s:2272   .debug_str:00000000000005aa .LASF67
C:\msys64\tmp\ccfwn9Bi.s:2224   .debug_str:000000000000042e .LASF69
C:\msys64\tmp\ccfwn9Bi.s:2212   .debug_str:00000000000003e8 .LASF70
C:\msys64\tmp\ccfwn9Bi.s:2244   .debug_str:00000000000004b7 .LASF71
C:\msys64\tmp\ccfwn9Bi.s:2112   .debug_str:0000000000000021 .LASF72
C:\msys64\tmp\ccfwn9Bi.s:2208   .debug_str:00000000000003cc .LASF74
C:\msys64\tmp\ccfwn9Bi.s:2144   .debug_str:00000000000001a0 .LASF76
C:\msys64\tmp\ccfwn9Bi.s:2122   .debug_str:000000000000005b .LASF96
C:\msys64\tmp\ccfwn9Bi.s:2146   .debug_str:00000000000001bc .LASF97
C:\msys64\tmp\ccfwn9Bi.s:2142   .debug_str:000000000000019b .LASF77
C:\msys64\tmp\ccfwn9Bi.s:2192   .debug_str:0000000000000346 .LASF78
C:\msys64\tmp\ccfwn9Bi.s:2300   .debug_str:0000000000000671 .LASF79
C:\msys64\tmp\ccfwn9Bi.s:2196   .debug_str:0000000000000354 .LASF80
C:\msys64\tmp\ccfwn9Bi.s:2286   .debug_str:000000000000060c .LASF81
C:\msys64\tmp\ccfwn9Bi.s:2190   .debug_str:000000000000033d .LASF82
C:\msys64\tmp\ccfwn9Bi.s:2266   .debug_str:0000000000000583 .LASF98
C:\msys64\tmp\ccfwn9Bi.s:2202   .debug_str:0000000000000389 .LASF83
C:\msys64\tmp\ccfwn9Bi.s:2184   .debug_str:0000000000000315 .LASF84
C:\msys64\tmp\ccfwn9Bi.s:47     .text:0000000000000020 .LFB32
C:\msys64\tmp\ccfwn9Bi.s:336    .text:0000000000000130 .LFE32
C:\msys64\tmp\ccfwn9Bi.s:2118   .debug_str:000000000000004c .LASF85
C:\msys64\tmp\ccfwn9Bi.s:2012   .debug_loc:0000000000000000 .LLST0
C:\msys64\tmp\ccfwn9Bi.s:128    .text:0000000000000088 .LBB56
C:\msys64\tmp\ccfwn9Bi.s:199    .text:00000000000000c0 .LBE56
C:\msys64\tmp\ccfwn9Bi.s:2226   .debug_str:000000000000044a .LASF86
C:\msys64\tmp\ccfwn9Bi.s:2043   .debug_loc:0000000000000086 .LLST4
C:\msys64\tmp\ccfwn9Bi.s:2252   .debug_str:0000000000000522 .LASF87
C:\msys64\tmp\ccfwn9Bi.s:2050   .debug_loc:00000000000000a9 .LLST5
C:\msys64\tmp\ccfwn9Bi.s:130    .text:0000000000000088 .LBB57
C:\msys64\tmp\ccfwn9Bi.s:144    .text:0000000000000094 .LBE57
C:\msys64\tmp\ccfwn9Bi.s:149    .text:0000000000000098 .LBB59
C:\msys64\tmp\ccfwn9Bi.s:164    .text:00000000000000a4 .LBE59
C:\msys64\tmp\ccfwn9Bi.s:173    .text:00000000000000b4 .LBB61
C:\msys64\tmp\ccfwn9Bi.s:183    .text:00000000000000b8 .LBE61
C:\msys64\tmp\ccfwn9Bi.s:2057   .debug_loc:00000000000000cc .LLST6
C:\msys64\tmp\ccfwn9Bi.s:185    .text:00000000000000b8 .LBB63
C:\msys64\tmp\ccfwn9Bi.s:198    .text:00000000000000c0 .LBE63
C:\msys64\tmp\ccfwn9Bi.s:2064   .debug_loc:00000000000000ef .LLST7
C:\msys64\tmp\ccfwn9Bi.s:171    .text:00000000000000b4 .LVL5
C:\msys64\tmp\ccfwn9Bi.s:262    .text:00000000000000fc .LBB40
C:\msys64\tmp\ccfwn9Bi.s:329    .text:0000000000000130 .LBE40
GAS LISTING C:\msys64\tmp\ccfwn9Bi.s 			page 16


C:\msys64\tmp\ccfwn9Bi.s:264    .text:00000000000000fc .LBB41
C:\msys64\tmp\ccfwn9Bi.s:279    .text:0000000000000108 .LBE41
C:\msys64\tmp\ccfwn9Bi.s:281    .text:0000000000000108 .LBB43
C:\msys64\tmp\ccfwn9Bi.s:296    .text:0000000000000114 .LBE43
C:\msys64\tmp\ccfwn9Bi.s:305    .text:0000000000000124 .LBB45
C:\msys64\tmp\ccfwn9Bi.s:315    .text:0000000000000128 .LBE45
C:\msys64\tmp\ccfwn9Bi.s:2071   .debug_loc:0000000000000112 .LLST2
C:\msys64\tmp\ccfwn9Bi.s:317    .text:0000000000000128 .LBB47
C:\msys64\tmp\ccfwn9Bi.s:328    .text:0000000000000130 .LBE47
C:\msys64\tmp\ccfwn9Bi.s:303    .text:0000000000000124 .LVL18
C:\msys64\tmp\ccfwn9Bi.s:63     .text:0000000000000038 .LBB31
C:\msys64\tmp\ccfwn9Bi.s:79     .text:0000000000000044 .LBE31
C:\msys64\tmp\ccfwn9Bi.s:222    .text:00000000000000e8 .LBB38
C:\msys64\tmp\ccfwn9Bi.s:230    .text:00000000000000ec .LBE38
C:\msys64\tmp\ccfwn9Bi.s:2078   .debug_loc:0000000000000135 .LLST1
C:\msys64\tmp\ccfwn9Bi.s:237    .text:00000000000000f0 .LBB49
C:\msys64\tmp\ccfwn9Bi.s:248    .text:00000000000000f8 .LBE49
C:\msys64\tmp\ccfwn9Bi.s:2085   .debug_loc:0000000000000158 .LLST3
C:\msys64\tmp\ccfwn9Bi.s:204    .text:00000000000000c8 .LVL8
C:\msys64\tmp\ccfwn9Bi.s:13     .text:0000000000000000 .LFB31
C:\msys64\tmp\ccfwn9Bi.s:41     .text:0000000000000020 .LFE31
C:\msys64\tmp\ccfwn9Bi.s:2296   .debug_str:0000000000000654 .LASF99
C:\msys64\tmp\ccfwn9Bi.s:2306   .debug_str:000000000000068a .LASF88
C:\msys64\tmp\ccfwn9Bi.s:2158   .debug_str:0000000000000250 .LASF100
C:\msys64\tmp\ccfwn9Bi.s:77     .text:0000000000000044 .LVL0
C:\msys64\tmp\ccfwn9Bi.s:105    .text:0000000000000070 .LVL1
C:\msys64\tmp\ccfwn9Bi.s:124    .text:0000000000000088 .LVL2
C:\msys64\tmp\ccfwn9Bi.s:195    .text:00000000000000c0 .LVL7
C:\msys64\tmp\ccfwn9Bi.s:206    .text:00000000000000cc .LVL9
C:\msys64\tmp\ccfwn9Bi.s:213    .text:00000000000000d4 .LVL10
C:\msys64\tmp\ccfwn9Bi.s:233    .text:00000000000000f0 .LVL13
C:\msys64\tmp\ccfwn9Bi.s:255    .text:00000000000000fc .LVL15
C:\msys64\tmp\ccfwn9Bi.s:147    .text:0000000000000098 .LVL3
C:\msys64\tmp\ccfwn9Bi.s:162    .text:00000000000000a4 .LVL4
C:\msys64\tmp\ccfwn9Bi.s:180    .text:00000000000000b8 .LVL6
C:\msys64\tmp\ccfwn9Bi.s:312    .text:0000000000000128 .LVL19
C:\msys64\tmp\ccfwn9Bi.s:221    .text:00000000000000e8 .LVL11
C:\msys64\tmp\ccfwn9Bi.s:228    .text:00000000000000ec .LVL12
C:\msys64\tmp\ccfwn9Bi.s:245    .text:00000000000000f8 .LVL14
C:\msys64\tmp\ccfwn9Bi.s:342    .debug_info:0000000000000000 .Ldebug_info0

UNDEFINED SYMBOLS
_ZN6Thread16timeSliceCounterE
_ZN6Thread8dispatchEv
console_handler
_ZN6Thread7runningE
