GAS LISTING C:\msys64\tmp\ccetbcNa.s 			page 1


   1              		.file	"riscv.cpp"
   2              		.option nopic
   3              		.option norelax
   4              		.attribute arch, "rv64i2p0_m2p0_a2p0"
   5              		.attribute unaligned_access, 0
   6              		.attribute stack_align, 16
   7              		.text
   8              	.Ltext0:
   9              		.align	2
  10              		.globl	_ZN5Riscv10popSppSpieEv
  12              	_ZN5Riscv10popSppSpieEv:
  13              	.LFB34:
  14              		.file 1 "src/riscv.cpp"
   1:src/riscv.cpp **** #include "../h/riscv.h"
   2:src/riscv.cpp **** #include "../lib/console.h"
   3:src/riscv.cpp **** #include "../h/MemoryAllocator.h"
   4:src/riscv.cpp **** #include "../h/Thread.h"
   5:src/riscv.cpp **** #include "../h/Semaphore.h"
   6:src/riscv.cpp **** #include "../h/Console.h"
   7:src/riscv.cpp **** void Riscv::popSppSpie()
   8:src/riscv.cpp **** {
  15              		.loc 1 8 1
  16              		.cfi_startproc
  17 0000 130101FF 		addi	sp,sp,-16
  18              		.cfi_def_cfa_offset 16
  19 0004 23348100 		sd	s0,8(sp)
  20              		.cfi_offset 8, -8
  21 0008 13040101 		addi	s0,sp,16
  22              		.cfi_def_cfa 8, 0
   9:src/riscv.cpp **** 	__asm__ volatile("csrw sepc, ra");
  23              		.loc 1 9 2
  24              	 #APP
  25              	# 9 "src/riscv.cpp" 1
  10              		Riscv::mc_sstatus(Riscv::SSTATUS_SPP);
  26              		csrw sepc, ra
  27              	# 0 "" 2
  28              		.loc 1 10 2
  29              	.LVL0:
  30              	 #NO_APP
  31              	.LBB132:
  32              	.LBB133:
  33              		.file 2 "src/../h/riscv.h"
   1:src/../h/riscv.h **** //
   2:src/../h/riscv.h **** // Created by os on 3/31/26.
   3:src/../h/riscv.h **** //
   4:src/../h/riscv.h **** 
   5:src/../h/riscv.h **** #ifndef PROJECT_BASE_RISCB_H
   6:src/../h/riscv.h **** #define PROJECT_BASE_RISCB_H
   7:src/../h/riscv.h **** #include "../lib/hw.h"
   8:src/../h/riscv.h **** 
   9:src/../h/riscv.h **** class Riscv
  10:src/../h/riscv.h **** {
  11:src/../h/riscv.h **** public:
  12:src/../h/riscv.h ****     static void popSppSpie();
  13:src/../h/riscv.h **** 
  14:src/../h/riscv.h ****     static uint64 r_scause();
  15:src/../h/riscv.h **** 
GAS LISTING C:\msys64\tmp\ccetbcNa.s 			page 2


  16:src/../h/riscv.h ****     static void w_scause(uint64 scause);
  17:src/../h/riscv.h **** 
  18:src/../h/riscv.h ****     static uint64 r_sepc();
  19:src/../h/riscv.h **** 
  20:src/../h/riscv.h ****     static void w_sepc(uint64 sepc);
  21:src/../h/riscv.h **** 
  22:src/../h/riscv.h ****     static uint64 r_stvec();
  23:src/../h/riscv.h **** 
  24:src/../h/riscv.h ****     static void w_stvec(uint64 stvec);
  25:src/../h/riscv.h **** 
  26:src/../h/riscv.h ****     static uint64 r_stval();
  27:src/../h/riscv.h **** 
  28:src/../h/riscv.h ****     static void w_stval(uint64 stval);
  29:src/../h/riscv.h **** 
  30:src/../h/riscv.h ****     enum BitMaskSip
  31:src/../h/riscv.h ****     {
  32:src/../h/riscv.h ****         SIP_SSIP = (1 << 1),
  33:src/../h/riscv.h ****         SIP_STIP = (1 << 5),
  34:src/../h/riscv.h ****         SIP_SEIP = (1 << 9),
  35:src/../h/riscv.h ****     };
  36:src/../h/riscv.h **** 
  37:src/../h/riscv.h ****     static void ms_sip(uint64 mask);
  38:src/../h/riscv.h **** 
  39:src/../h/riscv.h ****     static void mc_sip(uint64 mask);
  40:src/../h/riscv.h **** 
  41:src/../h/riscv.h ****     static uint64 r_sip();
  42:src/../h/riscv.h **** 
  43:src/../h/riscv.h ****     static void w_sip(uint64 sip);
  44:src/../h/riscv.h **** 
  45:src/../h/riscv.h ****     enum BitMaskSstatus
  46:src/../h/riscv.h ****     {
  47:src/../h/riscv.h ****         SSTATUS_SIE = (1 << 1),
  48:src/../h/riscv.h ****         SSTATUS_SPIE = (1 << 5),
  49:src/../h/riscv.h ****         SSTATUS_SPP = (1 << 8),
  50:src/../h/riscv.h ****     };
  51:src/../h/riscv.h **** 
  52:src/../h/riscv.h ****     static void ms_sstatus(uint64 mask);
  53:src/../h/riscv.h **** 
  54:src/../h/riscv.h ****     static void mc_sstatus(uint64 mask);
  55:src/../h/riscv.h **** 
  56:src/../h/riscv.h ****     static uint64 r_sstatus();
  57:src/../h/riscv.h **** 
  58:src/../h/riscv.h ****     static void w_sstatus(uint64 sstatus);
  59:src/../h/riscv.h **** 
  60:src/../h/riscv.h ****     static uint64 readARegister(int reg_number);
  61:src/../h/riscv.h **** 
  62:src/../h/riscv.h ****     static void writeARegister(int reg_number, uint64 value);
  63:src/../h/riscv.h **** 
  64:src/../h/riscv.h ****     static void supervisorTrap();
  65:src/../h/riscv.h **** 
  66:src/../h/riscv.h **** private:
  67:src/../h/riscv.h ****     static void handleSupervisorTrap(uint64 a0, uint64 a1, uint64 a2, uint64 a3, uint64 a4, uint64 
  68:src/../h/riscv.h **** };
  69:src/../h/riscv.h **** 
  70:src/../h/riscv.h **** inline uint64 Riscv::r_scause()
  71:src/../h/riscv.h **** {
  72:src/../h/riscv.h ****     uint64 volatile scause;
GAS LISTING C:\msys64\tmp\ccetbcNa.s 			page 3


  73:src/../h/riscv.h ****     __asm__ volatile("csrr %[scause], scause" : [scause] "=r"(scause));
  74:src/../h/riscv.h ****     return scause;
  75:src/../h/riscv.h **** }
  76:src/../h/riscv.h **** 
  77:src/../h/riscv.h **** inline void Riscv::w_scause(uint64 scause)
  78:src/../h/riscv.h **** {
  79:src/../h/riscv.h ****     __asm__ volatile("csrw scause, %[scause]" : : [scause] "r"(scause));
  80:src/../h/riscv.h **** }
  81:src/../h/riscv.h **** 
  82:src/../h/riscv.h **** inline uint64 Riscv::r_sepc()
  83:src/../h/riscv.h **** {
  84:src/../h/riscv.h ****     uint64 volatile sepc;
  85:src/../h/riscv.h ****     __asm__ volatile("csrr %[sepc], sepc" : [sepc] "=r"(sepc));
  86:src/../h/riscv.h ****     return sepc;
  87:src/../h/riscv.h **** }
  88:src/../h/riscv.h **** 
  89:src/../h/riscv.h **** inline void Riscv::w_sepc(uint64 sepc)
  90:src/../h/riscv.h **** {
  91:src/../h/riscv.h ****     __asm__ volatile("csrw sepc, %[sepc]" : : [sepc] "r"(sepc));
  92:src/../h/riscv.h **** }
  93:src/../h/riscv.h **** 
  94:src/../h/riscv.h **** inline uint64 Riscv::r_stvec()
  95:src/../h/riscv.h **** {
  96:src/../h/riscv.h ****     uint64 volatile stvec;
  97:src/../h/riscv.h ****     __asm__ volatile("csrr %[stvec], stvec" : [stvec] "=r"(stvec));
  98:src/../h/riscv.h ****     return stvec;
  99:src/../h/riscv.h **** }
 100:src/../h/riscv.h **** 
 101:src/../h/riscv.h **** inline void Riscv::w_stvec(uint64 stvec)
 102:src/../h/riscv.h **** {
 103:src/../h/riscv.h ****     __asm__ volatile("csrw stvec, %[stvec]" : : [stvec] "r"(stvec));
 104:src/../h/riscv.h **** }
 105:src/../h/riscv.h **** 
 106:src/../h/riscv.h **** inline uint64 Riscv::r_stval()
 107:src/../h/riscv.h **** {
 108:src/../h/riscv.h ****     uint64 volatile stval;
 109:src/../h/riscv.h ****     __asm__ volatile("csrr %[stval], stval" : [stval] "=r"(stval));
 110:src/../h/riscv.h ****     return stval;
 111:src/../h/riscv.h **** }
 112:src/../h/riscv.h **** 
 113:src/../h/riscv.h **** inline void Riscv::w_stval(uint64 stval)
 114:src/../h/riscv.h **** {
 115:src/../h/riscv.h ****     __asm__ volatile("csrw stval, %[stval]" : : [stval] "r"(stval));
 116:src/../h/riscv.h **** }
 117:src/../h/riscv.h **** 
 118:src/../h/riscv.h **** inline void Riscv::ms_sip(uint64 mask)
 119:src/../h/riscv.h **** {
 120:src/../h/riscv.h ****     __asm__ volatile("csrs sip, %[mask]" : : [mask] "r"(mask));
 121:src/../h/riscv.h **** }
 122:src/../h/riscv.h **** 
 123:src/../h/riscv.h **** inline void Riscv::mc_sip(uint64 mask)
 124:src/../h/riscv.h **** {
 125:src/../h/riscv.h ****     __asm__ volatile("csrc sip, %[mask]" : : [mask] "r"(mask));
 126:src/../h/riscv.h **** }
 127:src/../h/riscv.h **** 
 128:src/../h/riscv.h **** inline uint64 Riscv::r_sip()
 129:src/../h/riscv.h **** {
GAS LISTING C:\msys64\tmp\ccetbcNa.s 			page 4


 130:src/../h/riscv.h ****     uint64 volatile sip;
 131:src/../h/riscv.h ****     __asm__ volatile("csrr %[sip], sip" : [sip] "=r"(sip));
 132:src/../h/riscv.h ****     return sip;
 133:src/../h/riscv.h **** }
 134:src/../h/riscv.h **** 
 135:src/../h/riscv.h **** inline void Riscv::w_sip(uint64 sip)
 136:src/../h/riscv.h **** {
 137:src/../h/riscv.h ****     __asm__ volatile("csrw sip, %[sip]" : : [sip] "r"(sip));
 138:src/../h/riscv.h **** }
 139:src/../h/riscv.h **** 
 140:src/../h/riscv.h **** inline void Riscv::ms_sstatus(uint64 mask)
 141:src/../h/riscv.h **** {
 142:src/../h/riscv.h ****     __asm__ volatile("csrs sstatus, %[mask]" : : [mask] "r"(mask));
 143:src/../h/riscv.h **** }
 144:src/../h/riscv.h **** 
 145:src/../h/riscv.h **** inline void Riscv::mc_sstatus(uint64 mask)
 146:src/../h/riscv.h **** {
 147:src/../h/riscv.h ****     __asm__ volatile("csrc sstatus, %[mask]" : : [mask] "r"(mask));
  34              		.loc 2 147 5
  35 0010 93070010 		li	a5,256
  36              	 #APP
  37              	# 147 "src/../h/riscv.h" 1
 148              	}
  38              		csrc sstatus, a5
  39              	# 0 "" 2
  40              	.LVL1:
  41              	 #NO_APP
  42              	.LBE133:
  43              	.LBE132:
  11:src/riscv.cpp **** 	__asm__ volatile("sret");
  44              		.loc 1 11 2
  45              	 #APP
  46              	# 11 "src/riscv.cpp" 1
  12              	}
  47              		sret
  48              	# 0 "" 2
  49              		.loc 1 12 1 is_stmt 0
  50              	 #NO_APP
  51 001c 03348100 		ld	s0,8(sp)
  52              		.cfi_restore 8
  53              		.cfi_def_cfa 2, 16
  54 0020 13010101 		addi	sp,sp,16
  55              		.cfi_def_cfa_offset 0
  56 0024 67800000 		jr	ra
  57              		.cfi_endproc
  58              	.LFE34:
  60              		.section	.rodata.str1.8,"aMS",@progbits,1
  61              		.align	3
  62              	.LC0:
  63 0000 556E6578 		.string	"Unexpected trap cause: "
  63      70656374 
  63      65642074 
  63      72617020 
  63      63617573 
  64              		.align	3
  65              	.LC1:
  66 0018 30313233 		.string	"0123456789abcdef"
GAS LISTING C:\msys64\tmp\ccetbcNa.s 			page 5


  66      34353637 
  66      38396162 
  66      63646566 
  66      00
  67              		.text
  68              		.align	2
  69              		.globl	_ZN5Riscv20handleSupervisorTrapEmmmmmmmm
  71              	_ZN5Riscv20handleSupervisorTrapEmmmmmmmm:
  72              	.LFB35:
  13:src/riscv.cpp **** void Riscv::handleSupervisorTrap(uint64 a0, uint64 a1, uint64 a2, uint64 a3, uint64 a4, uint64 a5, 
  14:src/riscv.cpp **** {
  73              		.loc 1 14 1 is_stmt 1
  74              		.cfi_startproc
  75              		.cfi_personality 0x9b,DW.ref.__gxx_personality_v0
  76              		.cfi_lsda 0x1b,.LLSDA35
  77              	.LVL2:
  78 0028 130101F7 		addi	sp,sp,-144
  79              		.cfi_def_cfa_offset 144
  80 002c 23341108 		sd	ra,136(sp)
  81 0030 23308108 		sd	s0,128(sp)
  82 0034 233C9106 		sd	s1,120(sp)
  83 0038 23382107 		sd	s2,112(sp)
  84 003c 23343107 		sd	s3,104(sp)
  85              		.cfi_offset 1, -8
  86              		.cfi_offset 8, -16
  87              		.cfi_offset 9, -24
  88              		.cfi_offset 18, -32
  89              		.cfi_offset 19, -40
  90 0040 13040109 		addi	s0,sp,144
  91              		.cfi_def_cfa 8, 0
  92 0044 13090600 		mv	s2,a2
  15:src/riscv.cpp **** 
  16:src/riscv.cpp **** 	uint64 scause = r_scause();
  93              		.loc 1 16 2
  94              	.LBB134:
  95              	.LBB135:
  72:src/../h/riscv.h ****     __asm__ volatile("csrr %[scause], scause" : [scause] "=r"(scause));
  96              		.loc 2 72 5
  73:src/../h/riscv.h ****     return scause;
  97              		.loc 2 73 5
  98              	 #APP
  99              	# 73 "src/../h/riscv.h" 1
 100              		csrr a5, scause
 101              	# 0 "" 2
 102              	.LVL3:
 103              	 #NO_APP
 104 004c 2334F4FA 		sd	a5,-88(s0)
  74:src/../h/riscv.h **** }
 105              		.loc 2 74 5
  74:src/../h/riscv.h **** }
 106              		.loc 2 74 12 is_stmt 0
 107 0050 833984FA 		ld	s3,-88(s0)
 108              	.LVL4:
 109              	.LBE135:
 110              	.LBE134:
  17:src/riscv.cpp **** 
  18:src/riscv.cpp **** 	if (scause == 0x0000000000000008UL || scause == 0x0000000000000009UL)
GAS LISTING C:\msys64\tmp\ccetbcNa.s 			page 6


 111              		.loc 1 18 2 is_stmt 1
 112              	.LBB136:
 113              		.loc 1 18 37 is_stmt 0
 114 0054 138689FF 		addi	a2,s3,-8
 115              	.LVL5:
 116              		.loc 1 18 2
 117 0058 93071000 		li	a5,1
 118 005c 63F8C704 		bleu	a2,a5,.L54
 119              	.LBE136:
  19:src/riscv.cpp **** 	{
  20:src/riscv.cpp **** 		uint64 call = a0;
  21:src/riscv.cpp **** 		uint64 volatile sepc = r_sepc() + 4;
  22:src/riscv.cpp **** 		uint64 volatile sstatus = r_sstatus();
  23:src/riscv.cpp **** 
  24:src/riscv.cpp **** 		switch (call)
  25:src/riscv.cpp **** 		{
  26:src/riscv.cpp **** 		case 0x01:
  27:src/riscv.cpp **** 		{
  28:src/riscv.cpp **** 			size_t bytes = a1 * MEM_BLOCK_SIZE;
  29:src/riscv.cpp **** 			writeARegister(0, (uint64)MemoryAllocator::kmalloc(bytes));
  30:src/riscv.cpp **** 			break;
  31:src/riscv.cpp **** 		}
  32:src/riscv.cpp **** 		case 0x02:
  33:src/riscv.cpp **** 		{
  34:src/riscv.cpp **** 			writeARegister(0, (uint64)MemoryAllocator::kfree((void *)a1));
  35:src/riscv.cpp **** 			break;
  36:src/riscv.cpp **** 		}
  37:src/riscv.cpp **** 		case 0x11:
  38:src/riscv.cpp **** 		{
  39:src/riscv.cpp **** 			_thread **handle = (_thread **)a1;
  40:src/riscv.cpp **** 			_thread::Body body = (_thread::Body)a2;
  41:src/riscv.cpp **** 			void *volatile arg = (void *)a3;
  42:src/riscv.cpp **** 			void *volatile stack_space = (void *)a4;
  43:src/riscv.cpp **** 
  44:src/riscv.cpp **** 			*handle = _thread::createThread(body, arg, stack_space);
  45:src/riscv.cpp **** 
  46:src/riscv.cpp **** 			if (*handle)
  47:src/riscv.cpp **** 			{
  48:src/riscv.cpp **** 				if (body != nullptr)
  49:src/riscv.cpp **** 					Scheduler::instance().put(*handle);
  50:src/riscv.cpp **** 				writeARegister(0, 0);
  51:src/riscv.cpp **** 			}
  52:src/riscv.cpp **** 			else
  53:src/riscv.cpp **** 				writeARegister(0, -1);
  54:src/riscv.cpp **** 			break;
  55:src/riscv.cpp **** 		}
  56:src/riscv.cpp **** 		case 0x12:
  57:src/riscv.cpp **** 		{
  58:src/riscv.cpp **** 			_thread::timeSliceCounter = 0;
  59:src/riscv.cpp **** 			if (_thread::running)
  60:src/riscv.cpp **** 			{
  61:src/riscv.cpp **** 				_thread::running->setFinished(true); // possible need to notify if someone is wating for this t
  62:src/riscv.cpp **** 				writeARegister(0, 0);
  63:src/riscv.cpp **** 			}
  64:src/riscv.cpp **** 			else
  65:src/riscv.cpp **** 			{
  66:src/riscv.cpp **** 				writeARegister(0, -1);
GAS LISTING C:\msys64\tmp\ccetbcNa.s 			page 7


  67:src/riscv.cpp **** 			}
  68:src/riscv.cpp **** 
  69:src/riscv.cpp **** 			_thread::dispatch();
  70:src/riscv.cpp **** 			break;
  71:src/riscv.cpp **** 		}
  72:src/riscv.cpp **** 		case 0x13:
  73:src/riscv.cpp **** 		{
  74:src/riscv.cpp **** 			_thread::timeSliceCounter = 0;
  75:src/riscv.cpp **** 			_thread::dispatch();
  76:src/riscv.cpp **** 			break;
  77:src/riscv.cpp **** 		}
  78:src/riscv.cpp **** 		case 0x21:
  79:src/riscv.cpp **** 		{
  80:src/riscv.cpp **** 			_sem **handle = (_sem **)a1;
  81:src/riscv.cpp **** 
  82:src/riscv.cpp **** 			*handle = new _sem(a2);
  83:src/riscv.cpp **** 
  84:src/riscv.cpp **** 			if (*handle)
  85:src/riscv.cpp **** 			{
  86:src/riscv.cpp **** 				writeARegister(0, 0);
  87:src/riscv.cpp **** 			}
  88:src/riscv.cpp **** 			else
  89:src/riscv.cpp **** 				writeARegister(0, -1);
  90:src/riscv.cpp **** 			break;
  91:src/riscv.cpp **** 		}
  92:src/riscv.cpp **** 		case 0x22:
  93:src/riscv.cpp **** 		{
  94:src/riscv.cpp **** 			_sem *s = (_sem *)a1;
  95:src/riscv.cpp **** 			if (s == nullptr)
  96:src/riscv.cpp **** 			{
  97:src/riscv.cpp **** 				writeARegister(0, -1);
  98:src/riscv.cpp **** 			}
  99:src/riscv.cpp **** 			else
 100:src/riscv.cpp **** 			{
 101:src/riscv.cpp **** 				writeARegister(0, s->close());
 102:src/riscv.cpp **** 				delete s;
 103:src/riscv.cpp **** 			}
 104:src/riscv.cpp **** 
 105:src/riscv.cpp **** 			break;
 106:src/riscv.cpp **** 		}
 107:src/riscv.cpp **** 		case 0x23:
 108:src/riscv.cpp **** 		{
 109:src/riscv.cpp **** 			_sem *s = (_sem *)a1;
 110:src/riscv.cpp **** 			if (s == nullptr)
 111:src/riscv.cpp **** 			{
 112:src/riscv.cpp **** 				writeARegister(0, -1);
 113:src/riscv.cpp **** 			}
 114:src/riscv.cpp **** 			else
 115:src/riscv.cpp **** 			{
 116:src/riscv.cpp **** 				writeARegister(0, s->wait());
 117:src/riscv.cpp **** 			}
 118:src/riscv.cpp **** 
 119:src/riscv.cpp **** 			break;
 120:src/riscv.cpp **** 		}
 121:src/riscv.cpp **** 		case 0x24:
 122:src/riscv.cpp **** 		{
 123:src/riscv.cpp **** 			_sem *s = (_sem *)a1;
GAS LISTING C:\msys64\tmp\ccetbcNa.s 			page 8


 124:src/riscv.cpp **** 			if (s == nullptr)
 125:src/riscv.cpp **** 			{
 126:src/riscv.cpp **** 				writeARegister(0, -1);
 127:src/riscv.cpp **** 			}
 128:src/riscv.cpp **** 			else
 129:src/riscv.cpp **** 			{
 130:src/riscv.cpp **** 				writeARegister(0, s->signal());
 131:src/riscv.cpp **** 			}
 132:src/riscv.cpp **** 			break;
 133:src/riscv.cpp **** 		}
 134:src/riscv.cpp **** 		case 0x25:{
 135:src/riscv.cpp **** 			_sem *s = (_sem *)a1;
 136:src/riscv.cpp **** 			unsigned n = (unsigned)a2;
 137:src/riscv.cpp **** 			if (s == nullptr)
 138:src/riscv.cpp **** 			{
 139:src/riscv.cpp **** 				writeARegister(0, -1);
 140:src/riscv.cpp **** 			}
 141:src/riscv.cpp **** 			else
 142:src/riscv.cpp **** 			{
 143:src/riscv.cpp **** 				writeARegister(0, s->wait_n(n));
 144:src/riscv.cpp **** 			}
 145:src/riscv.cpp **** 			break;
 146:src/riscv.cpp **** 		}
 147:src/riscv.cpp **** 		case 0x26:{
 148:src/riscv.cpp **** 			_sem *s = (_sem *)a1;
 149:src/riscv.cpp **** 			unsigned n = (unsigned)a2;
 150:src/riscv.cpp **** 			if (s == nullptr)
 151:src/riscv.cpp **** 			{
 152:src/riscv.cpp **** 				writeARegister(0, -1);
 153:src/riscv.cpp **** 			}
 154:src/riscv.cpp **** 			else
 155:src/riscv.cpp **** 			{
 156:src/riscv.cpp **** 				writeARegister(0, s->signal_n(n));
 157:src/riscv.cpp **** 			}
 158:src/riscv.cpp **** 			break;
 159:src/riscv.cpp **** 		}
 160:src/riscv.cpp **** 		case 0x31:
 161:src/riscv.cpp **** 		{
 162:src/riscv.cpp **** 			if (_thread::running == nullptr)
 163:src/riscv.cpp **** 			{
 164:src/riscv.cpp **** 				writeARegister(0, -1);
 165:src/riscv.cpp **** 			}
 166:src/riscv.cpp **** 			else
 167:src/riscv.cpp **** 			{
 168:src/riscv.cpp **** 				_thread::running->time_sleep(a1);
 169:src/riscv.cpp **** 				writeARegister(0, 0);
 170:src/riscv.cpp **** 			}
 171:src/riscv.cpp **** 
 172:src/riscv.cpp **** 			break;
 173:src/riscv.cpp **** 		}
 174:src/riscv.cpp **** 		case 0x41:
 175:src/riscv.cpp **** 		{
 176:src/riscv.cpp **** 			char c = _console::getc();
 177:src/riscv.cpp **** 			writeARegister(0, (uint64)c);
 178:src/riscv.cpp **** 			break;
 179:src/riscv.cpp **** 		}
 180:src/riscv.cpp **** 
GAS LISTING C:\msys64\tmp\ccetbcNa.s 			page 9


 181:src/riscv.cpp **** 		case 0x42:
 182:src/riscv.cpp **** 		{					   // putc
 183:src/riscv.cpp **** 			char c = (char)a1; // Karakter koji je korisnik prosledio
 184:src/riscv.cpp **** 			_console::putc(c);
 185:src/riscv.cpp **** 			break;
 186:src/riscv.cpp **** 		}
 187:src/riscv.cpp **** 		default:
 188:src/riscv.cpp **** 		{
 189:src/riscv.cpp **** 			break;
 190:src/riscv.cpp **** 		}
 191:src/riscv.cpp **** 		}
 192:src/riscv.cpp **** 
 193:src/riscv.cpp **** 		w_sstatus(sstatus);
 194:src/riscv.cpp **** 		w_sepc(sepc);
 195:src/riscv.cpp **** 	}
 196:src/riscv.cpp **** 	else if (scause == 0x8000000000000009UL)
 120              		.loc 1 196 7 is_stmt 1
 121              	.LBB273:
 122              	.LBB137:
 123 0060 9307F0FF 		li	a5,-1
 124 0064 9397F703 		slli	a5,a5,63
 125 0068 93879700 		addi	a5,a5,9
 126 006c 638CF92E 		beq	s3,a5,.L55
 127              	.LBE137:
 128              	.LBE273:
 197:src/riscv.cpp **** 	{
 198:src/riscv.cpp **** 		int irq = plic_claim(); // Potvrđujemo prekid PLIC kontroleru
 199:src/riscv.cpp **** 
 200:src/riscv.cpp **** 		if (irq == CONSOLE_IRQ)
 201:src/riscv.cpp **** 		{ // Proveravamo da li je prekid stigao baš sa konzole (obično 10)
 202:src/riscv.cpp **** 
 203:src/riscv.cpp **** 			// RX deo: Čitamo sve dok hardver ima podataka I dok imamo gde da ih smestimo
 204:src/riscv.cpp **** 			while ((*((volatile uint8 *)CONSOLE_STATUS) & 0x01) && !_console::getInBuff()->isFull())
 205:src/riscv.cpp **** 			{
 206:src/riscv.cpp **** 				char c = *((volatile uint8 *)CONSOLE_RX_DATA);
 207:src/riscv.cpp **** 				_console::getInBuff()->put(c);
 208:src/riscv.cpp **** 				_console::getInSem()->signal();
 209:src/riscv.cpp **** 			}
 210:src/riscv.cpp **** 
 211:src/riscv.cpp **** 			// TX deo: Šaljemo sve dok je hardver spreman I dok imamo šta da pošaljemo
 212:src/riscv.cpp **** 			while ((*((volatile uint8 *)CONSOLE_STATUS) & 0x20) && !_console::getOutBuff()->isEmpty())
 213:src/riscv.cpp **** 			{
 214:src/riscv.cpp **** 				char c = _console::getOutBuff()->get();
 215:src/riscv.cpp **** 				*((volatile uint8 *)CONSOLE_TX_DATA) = (uint8)c;
 216:src/riscv.cpp **** 				_console::getOutSem()->signal();
 217:src/riscv.cpp **** 			}
 218:src/riscv.cpp **** 		}
 219:src/riscv.cpp **** 
 220:src/riscv.cpp **** 		plic_complete(irq); // Obaveštavamo PLIC da je obrada završena
 221:src/riscv.cpp **** 	}
 222:src/riscv.cpp **** 	else if (scause == 0x8000000000000001UL)
 129              		.loc 1 222 7
 130              	.LBB274:
 131              	.LBB195:
 132              	.LBB138:
 133 0070 9307F0FF 		li	a5,-1
 134 0074 9397F703 		slli	a5,a5,63
GAS LISTING C:\msys64\tmp\ccetbcNa.s 			page 10


 135 0078 93871700 		addi	a5,a5,1
 136 007c 6386F93E 		beq	s3,a5,.L56
 137              	.LBB139:
 223:src/riscv.cpp **** 	{
 224:src/riscv.cpp **** 		_thread::timeSliceCounter++;
 225:src/riscv.cpp **** 		if (_thread::sleepingHead)
 226:src/riscv.cpp **** 		{
 227:src/riscv.cpp **** 			if (_thread::sleepingHead->timeSleeping > 0)
 228:src/riscv.cpp **** 			{
 229:src/riscv.cpp **** 				_thread::sleepingHead->timeSleeping--;
 230:src/riscv.cpp **** 			}
 231:src/riscv.cpp **** 
 232:src/riscv.cpp **** 			while (_thread::sleepingHead && _thread::sleepingHead->timeSleeping == 0)
 233:src/riscv.cpp **** 			{
 234:src/riscv.cpp **** 				_thread *t = _thread::sleepingHead;
 235:src/riscv.cpp **** 
 236:src/riscv.cpp **** 				_thread::sleepingHead = t->waitnext;
 237:src/riscv.cpp **** 
 238:src/riscv.cpp **** 				t->waitnext = nullptr;
 239:src/riscv.cpp **** 				t->isReady = true;
 240:src/riscv.cpp **** 				Scheduler::instance().put(t);
 241:src/riscv.cpp **** 			}
 242:src/riscv.cpp **** 		}
 243:src/riscv.cpp **** 		if (_thread::timeSliceCounter >= _thread::running->getTimeSlice())
 244:src/riscv.cpp **** 		{
 245:src/riscv.cpp **** 			uint64 volatile sepc = r_sepc();
 246:src/riscv.cpp **** 			uint64 volatile sstatus = r_sstatus();
 247:src/riscv.cpp **** 			_thread::timeSliceCounter = 0;
 248:src/riscv.cpp **** 			_thread::dispatch();
 249:src/riscv.cpp **** 			w_sstatus(sstatus);
 250:src/riscv.cpp **** 			w_sepc(sepc);
 251:src/riscv.cpp **** 		}
 252:src/riscv.cpp **** 		mc_sip(SIP_SSIP);
 253:src/riscv.cpp **** 	}else{
 254:src/riscv.cpp **** 		uint64 sepc = r_sepc();
 138              		.loc 1 254 3
 139              	.LBB140:
 140              	.LBB141:
  84:src/../h/riscv.h ****     __asm__ volatile("csrr %[sepc], sepc" : [sepc] "=r"(sepc));
 141              		.loc 2 84 5
  85:src/../h/riscv.h ****     return sepc;
 142              		.loc 2 85 5
 143              	 #APP
 144              	# 85 "src/../h/riscv.h" 1
 145              		csrr a5, sepc
 146              	# 0 "" 2
 147              	 #NO_APP
 148 0084 2334F4FC 		sd	a5,-56(s0)
  86:src/../h/riscv.h **** }
 149              		.loc 2 86 5
  86:src/../h/riscv.h **** }
 150              		.loc 2 86 12 is_stmt 0
 151 0088 033984FC 		ld	s2,-56(s0)
 152              	.LVL6:
 153              	.LBE141:
 154              	.LBE140:
 255:src/riscv.cpp ****         // unexpected trap cause
GAS LISTING C:\msys64\tmp\ccetbcNa.s 			page 11


 256:src/riscv.cpp ****         for (const char* p = "Unexpected trap cause: "; *p; p++)
 155              		.loc 1 256 9 is_stmt 1
 156              	.LBB142:
 157              		.loc 1 256 26 is_stmt 0
 158 008c 97040000 		lla	s1,.LC0
 158      93840400 
 159              	.LVL7:
 160              	.L46:
 161              		.loc 1 256 57 is_stmt 1 discriminator 3
 162 0094 03C50400 		lbu	a0,0(s1)
 163 0098 630A054C 		beq	a0,zero,.L51
 257:src/riscv.cpp ****             _console::putc(*p);
 164              		.loc 1 257 13 discriminator 2
 165              	.LEHB0:
 166              		.loc 1 257 27 is_stmt 0 discriminator 2
 167 009c 97000000 		call	_ZN8_console4putcEc
 167      E7800000 
 168              	.LVL8:
 256:src/riscv.cpp ****             _console::putc(*p);
 169              		.loc 1 256 9 is_stmt 1 discriminator 2
 170 00a4 93841400 		addi	s1,s1,1
 171              	.LVL9:
 172 00a8 6FF0DFFE 		j	.L46
 173              	.LVL10:
 174              	.L54:
 175 00ac 93840500 		mv	s1,a1
 176              	.LBE142:
 177              	.LBE139:
 178              	.LBE138:
 179              	.LBE195:
 180              	.LBB196:
  20:src/riscv.cpp **** 		uint64 volatile sepc = r_sepc() + 4;
 181              		.loc 1 20 3
 182              	.LVL11:
  21:src/riscv.cpp **** 		uint64 volatile sstatus = r_sstatus();
 183              		.loc 1 21 3
 184              	.LBB197:
 185              	.LBB198:
  84:src/../h/riscv.h ****     __asm__ volatile("csrr %[sepc], sepc" : [sepc] "=r"(sepc));
 186              		.loc 2 84 5
  85:src/../h/riscv.h ****     return sepc;
 187              		.loc 2 85 5
 188              	 #APP
 189              	# 85 "src/../h/riscv.h" 1
 190              		csrr a5, sepc
 191              	# 0 "" 2
 192              	 #NO_APP
 193 00b4 233CF4FA 		sd	a5,-72(s0)
  86:src/../h/riscv.h **** }
 194              		.loc 2 86 5
  86:src/../h/riscv.h **** }
 195              		.loc 2 86 12 is_stmt 0
 196 00b8 833784FB 		ld	a5,-72(s0)
 197              	.LBE198:
 198              	.LBE197:
  21:src/riscv.cpp **** 		uint64 volatile sstatus = r_sstatus();
 199              		.loc 1 21 35
GAS LISTING C:\msys64\tmp\ccetbcNa.s 			page 12


 200 00bc 93874700 		addi	a5,a5,4
  21:src/riscv.cpp **** 		uint64 volatile sstatus = r_sstatus();
 201              		.loc 1 21 37
 202 00c0 233CF4F6 		sd	a5,-136(s0)
  22:src/riscv.cpp **** 
 203              		.loc 1 22 3 is_stmt 1
 204              	.LBB199:
 205              	.LBB200:
 149:src/../h/riscv.h **** 
 150:src/../h/riscv.h **** inline uint64 Riscv::r_sstatus()
 151:src/../h/riscv.h **** {
 152:src/../h/riscv.h ****     uint64 volatile sstatus;
 206              		.loc 2 152 5
 153:src/../h/riscv.h ****     __asm__ volatile("csrr %[sstatus], sstatus" : [sstatus] "=r"(sstatus));
 207              		.loc 2 153 5
 208              	 #APP
 209              	# 153 "src/../h/riscv.h" 1
 154              	    return sstatus;
 210              		csrr a5, sstatus
 211              	# 0 "" 2
 212              	 #NO_APP
 213 00c8 2338F4FA 		sd	a5,-80(s0)
 214              		.loc 2 154 5
 215              		.loc 2 154 12 is_stmt 0
 216 00cc 833704FB 		ld	a5,-80(s0)
 217              	.LBE200:
 218              	.LBE199:
  22:src/riscv.cpp **** 
 219              		.loc 1 22 39
 220 00d0 2330F4F8 		sd	a5,-128(s0)
  24:src/riscv.cpp **** 		{
 221              		.loc 1 24 3 is_stmt 1
 222 00d4 93072004 		li	a5,66
 223 00d8 63E8A702 		bgtu	a0,a5,.L5
 224              	.LVL12:
 225 00dc 13152500 		slli	a0,a0,2
 226              	.LVL13:
 227 00e0 17060000 		lla	a2,.L7
 227      13060600 
 228 00e8 B307C500 		add	a5,a0,a2
 229 00ec 83A70700 		lw	a5,0(a5)
 230 00f0 B387C700 		add	a5,a5,a2
 231 00f4 67800700 		jr	a5
 232              		.section	.rodata
 233              		.align	2
 234              		.align	2
 235              	.L7:
 236 0000 00000000 		.word	.L5-.L7
 237 0004 00000000 		.word	.L20-.L7
 238 0008 00000000 		.word	.L19-.L7
 239 000c 00000000 		.word	.L5-.L7
 240 0010 00000000 		.word	.L5-.L7
 241 0014 00000000 		.word	.L5-.L7
 242 0018 00000000 		.word	.L5-.L7
 243 001c 00000000 		.word	.L5-.L7
 244 0020 00000000 		.word	.L5-.L7
 245 0024 00000000 		.word	.L5-.L7
GAS LISTING C:\msys64\tmp\ccetbcNa.s 			page 13


 246 0028 00000000 		.word	.L5-.L7
 247 002c 00000000 		.word	.L5-.L7
 248 0030 00000000 		.word	.L5-.L7
 249 0034 00000000 		.word	.L5-.L7
 250 0038 00000000 		.word	.L5-.L7
 251 003c 00000000 		.word	.L5-.L7
 252 0040 00000000 		.word	.L5-.L7
 253 0044 00000000 		.word	.L18-.L7
 254 0048 00000000 		.word	.L17-.L7
 255 004c 00000000 		.word	.L16-.L7
 256 0050 00000000 		.word	.L5-.L7
 257 0054 00000000 		.word	.L5-.L7
 258 0058 00000000 		.word	.L5-.L7
 259 005c 00000000 		.word	.L5-.L7
 260 0060 00000000 		.word	.L5-.L7
 261 0064 00000000 		.word	.L5-.L7
 262 0068 00000000 		.word	.L5-.L7
 263 006c 00000000 		.word	.L5-.L7
 264 0070 00000000 		.word	.L5-.L7
 265 0074 00000000 		.word	.L5-.L7
 266 0078 00000000 		.word	.L5-.L7
 267 007c 00000000 		.word	.L5-.L7
 268 0080 00000000 		.word	.L5-.L7
 269 0084 00000000 		.word	.L15-.L7
 270 0088 00000000 		.word	.L14-.L7
 271 008c 00000000 		.word	.L13-.L7
 272 0090 00000000 		.word	.L12-.L7
 273 0094 00000000 		.word	.L11-.L7
 274 0098 00000000 		.word	.L10-.L7
 275 009c 00000000 		.word	.L5-.L7
 276 00a0 00000000 		.word	.L5-.L7
 277 00a4 00000000 		.word	.L5-.L7
 278 00a8 00000000 		.word	.L5-.L7
 279 00ac 00000000 		.word	.L5-.L7
 280 00b0 00000000 		.word	.L5-.L7
 281 00b4 00000000 		.word	.L5-.L7
 282 00b8 00000000 		.word	.L5-.L7
 283 00bc 00000000 		.word	.L5-.L7
 284 00c0 00000000 		.word	.L5-.L7
 285 00c4 00000000 		.word	.L9-.L7
 286 00c8 00000000 		.word	.L5-.L7
 287 00cc 00000000 		.word	.L5-.L7
 288 00d0 00000000 		.word	.L5-.L7
 289 00d4 00000000 		.word	.L5-.L7
 290 00d8 00000000 		.word	.L5-.L7
 291 00dc 00000000 		.word	.L5-.L7
 292 00e0 00000000 		.word	.L5-.L7
 293 00e4 00000000 		.word	.L5-.L7
 294 00e8 00000000 		.word	.L5-.L7
 295 00ec 00000000 		.word	.L5-.L7
 296 00f0 00000000 		.word	.L5-.L7
 297 00f4 00000000 		.word	.L5-.L7
 298 00f8 00000000 		.word	.L5-.L7
 299 00fc 00000000 		.word	.L5-.L7
 300 0100 00000000 		.word	.L5-.L7
 301 0104 00000000 		.word	.L8-.L7
 302 0108 00000000 		.word	.L6-.L7
GAS LISTING C:\msys64\tmp\ccetbcNa.s 			page 14


 303              		.text
 304              	.L20:
 305              	.LBB201:
  26:src/riscv.cpp **** 		{
 306              		.loc 1 26 3
  27:src/riscv.cpp **** 			size_t bytes = a1 * MEM_BLOCK_SIZE;
 307              		.loc 1 27 3
 308              	.LBB202:
  28:src/riscv.cpp **** 			writeARegister(0, (uint64)MemoryAllocator::kmalloc(bytes));
 309              		.loc 1 28 4
 310              	.LVL14:
  29:src/riscv.cpp **** 			break;
 311              		.loc 1 29 4
  29:src/riscv.cpp **** 			break;
 312              		.loc 1 29 54 is_stmt 0
 313 00f8 13956500 		slli	a0,a1,6
 314              	.LVL15:
 315 00fc 97000000 		call	_ZN15MemoryAllocator7kmallocEm
 315      E7800000 
 316              	.LVL16:
 317              	.LBB203:
 318              	.LBB204:
 155:src/../h/riscv.h **** }
 156:src/../h/riscv.h **** 
 157:src/../h/riscv.h **** inline void Riscv::w_sstatus(uint64 sstatus)
 158:src/../h/riscv.h **** {
 159:src/../h/riscv.h ****     __asm__ volatile("csrw sstatus, %[sstatus]" : : [sstatus] "r"(sstatus));
 160:src/../h/riscv.h **** }
 161:src/../h/riscv.h **** 
 162:src/../h/riscv.h **** inline uint64 Riscv::readARegister(int reg_number)
 163:src/../h/riscv.h **** {
 164:src/../h/riscv.h ****     uint64 value;
 165:src/../h/riscv.h ****     __asm__ volatile("mv %[val], a%[reg]" : [val] "=r"(value) : [reg] "i"(reg_number));
 166:src/../h/riscv.h ****     return value;
 167:src/../h/riscv.h **** }
 168:src/../h/riscv.h **** 
 169:src/../h/riscv.h **** inline void Riscv::writeARegister(int reg_number, uint64 value)
 170:src/../h/riscv.h **** {
 171:src/../h/riscv.h ****     __asm__ volatile("mv a%[reg], %[val]" ::[reg] "i"(reg_number), [val] "r"(value));
 319              		.loc 2 171 5 is_stmt 1
 320              	 #APP
 321              	# 171 "src/../h/riscv.h" 1
 172              	}
 322              		mv a0, a0
 323              	# 0 "" 2
 324              	.LVL17:
 325              	 #NO_APP
 326              	.L5:
 327              	.LBE204:
 328              	.LBE203:
 329              	.LBE202:
 330              	.LBE201:
 193:src/riscv.cpp **** 		w_sepc(sepc);
 331              		.loc 1 193 3
 193:src/riscv.cpp **** 		w_sepc(sepc);
 332              		.loc 1 193 12 is_stmt 0
 333 0108 833704F8 		ld	a5,-128(s0)
GAS LISTING C:\msys64\tmp\ccetbcNa.s 			page 15


 334              	.LVL18:
 335              	.LBB264:
 336              	.LBB265:
 159:src/../h/riscv.h **** }
 337              		.loc 2 159 5 is_stmt 1
 338              	 #APP
 339              	# 159 "src/../h/riscv.h" 1
 340              		csrw sstatus, a5
 341              	# 0 "" 2
 342              	.LVL19:
 343              	 #NO_APP
 344              	.LBE265:
 345              	.LBE264:
 194:src/riscv.cpp **** 	}
 346              		.loc 1 194 3
 194:src/riscv.cpp **** 	}
 347              		.loc 1 194 9 is_stmt 0
 348 0110 833784F7 		ld	a5,-136(s0)
 349              	.LVL20:
 350              	.LBB266:
 351              	.LBB267:
  91:src/../h/riscv.h **** }
 352              		.loc 2 91 5 is_stmt 1
 353              	 #APP
 354              	# 91 "src/../h/riscv.h" 1
 355              		csrw sepc, a5
 356              	# 0 "" 2
 357              	.LVL21:
 358              	 #NO_APP
 359              	.L3:
 360              	.LBE267:
 361              	.LBE266:
 362              	.LBE196:
 363              	.LBE274:
 258:src/riscv.cpp ****         for (int i = 15; i >= 0; i--)
 259:src/riscv.cpp ****         {
 260:src/riscv.cpp ****             char c = "0123456789abcdef"[(scause >> i*4) & 0xf];
 261:src/riscv.cpp ****             _console::putc(c);
 262:src/riscv.cpp ****         }
 263:src/riscv.cpp ****         _console::putc(' ');
 264:src/riscv.cpp ****         for (int i = 15; i >= 0; i--)
 265:src/riscv.cpp ****         {
 266:src/riscv.cpp ****             char c = "0123456789abcdef"[(sepc >> i*4) & 0xf];
 267:src/riscv.cpp ****             _console::putc(c);
 268:src/riscv.cpp ****         }
 269:src/riscv.cpp ****         
 270:src/riscv.cpp ****         // halt the machine
 271:src/riscv.cpp ****         while (1);
 272:src/riscv.cpp **** 	}
 273:src/riscv.cpp **** }
 364              		.loc 1 273 1 is_stmt 0
 365 0118 83308108 		ld	ra,136(sp)
 366              		.cfi_remember_state
 367              		.cfi_restore 1
 368 011c 03340108 		ld	s0,128(sp)
 369              		.cfi_restore 8
 370              		.cfi_def_cfa 2, 144
GAS LISTING C:\msys64\tmp\ccetbcNa.s 			page 16


 371 0120 83348107 		ld	s1,120(sp)
 372              		.cfi_restore 9
 373 0124 03390107 		ld	s2,112(sp)
 374              		.cfi_restore 18
 375 0128 83398106 		ld	s3,104(sp)
 376              		.cfi_restore 19
 377 012c 13010109 		addi	sp,sp,144
 378              		.cfi_def_cfa_offset 0
 379 0130 67800000 		jr	ra
 380              	.LVL22:
 381              	.L19:
 382              		.cfi_restore_state
 383              	.LBB275:
 384              	.LBB270:
 385              	.LBB268:
  32:src/riscv.cpp **** 		{
 386              		.loc 1 32 3 is_stmt 1
  33:src/riscv.cpp **** 			writeARegister(0, (uint64)MemoryAllocator::kfree((void *)a1));
 387              		.loc 1 33 3
  34:src/riscv.cpp **** 			break;
 388              		.loc 1 34 4
  34:src/riscv.cpp **** 			break;
 389              		.loc 1 34 52 is_stmt 0
 390 0134 13850500 		mv	a0,a1
 391 0138 97000000 		call	_ZN15MemoryAllocator5kfreeEPv
 391      E7800000 
 392              	.LVL23:
 393              	.LBB205:
 394              	.LBB206:
 171:src/../h/riscv.h **** }
 395              		.loc 2 171 5 is_stmt 1
 396              	 #APP
 397              	# 171 "src/../h/riscv.h" 1
 398              		mv a0, a0
 399              	# 0 "" 2
 400              		.loc 2 172 1 is_stmt 0
 401              	 #NO_APP
 402 0144 6FF05FFC 		j	.L5
 403              	.LVL24:
 404              	.L18:
 405              	.LBE206:
 406              	.LBE205:
  37:src/riscv.cpp **** 		{
 407              		.loc 1 37 3 is_stmt 1
  38:src/riscv.cpp **** 			_thread **handle = (_thread **)a1;
 408              		.loc 1 38 3
 409              	.LBB207:
  39:src/riscv.cpp **** 			_thread::Body body = (_thread::Body)a2;
 410              		.loc 1 39 4
  40:src/riscv.cpp **** 			void *volatile arg = (void *)a3;
 411              		.loc 1 40 4
  41:src/riscv.cpp **** 			void *volatile stack_space = (void *)a4;
 412              		.loc 1 41 4
  41:src/riscv.cpp **** 			void *volatile stack_space = (void *)a4;
 413              		.loc 1 41 19 is_stmt 0
 414 0148 2334D4F8 		sd	a3,-120(s0)
  42:src/riscv.cpp **** 
GAS LISTING C:\msys64\tmp\ccetbcNa.s 			page 17


 415              		.loc 1 42 4 is_stmt 1
  42:src/riscv.cpp **** 
 416              		.loc 1 42 19 is_stmt 0
 417 014c 2338E4F8 		sd	a4,-112(s0)
  44:src/riscv.cpp **** 
 418              		.loc 1 44 4 is_stmt 1
  44:src/riscv.cpp **** 
 419              		.loc 1 44 35 is_stmt 0
 420 0150 833584F8 		ld	a1,-120(s0)
 421 0154 033604F9 		ld	a2,-112(s0)
 422 0158 13050900 		mv	a0,s2
 423 015c 97000000 		call	_ZN7_thread12createThreadEPFvPvES0_S0_
 423      E7800000 
 424              	.LVL25:
  44:src/riscv.cpp **** 
 425              		.loc 1 44 12
 426 0164 23B0A400 		sd	a0,0(s1)
  46:src/riscv.cpp **** 			{
 427              		.loc 1 46 4 is_stmt 1
 428 0168 63080504 		beq	a0,zero,.L21
  48:src/riscv.cpp **** 					Scheduler::instance().put(*handle);
 429              		.loc 1 48 5
 430 016c 63000904 		beq	s2,zero,.L22
  49:src/riscv.cpp **** 				writeARegister(0, 0);
 431              		.loc 1 49 6
 432              	.LBB208:
 433              	.LBB209:
 434              		.file 3 "src/../h/Scheduler.h"
   1:src/../h/Scheduler.h **** //
   2:src/../h/Scheduler.h **** // Created by os on 4/1/26.
   3:src/../h/Scheduler.h **** //
   4:src/../h/Scheduler.h **** 
   5:src/../h/Scheduler.h **** #ifndef PROJEKAT_SCHEDULER_H
   6:src/../h/Scheduler.h **** #define PROJEKAT_SCHEDULER_H
   7:src/../h/Scheduler.h **** 
   8:src/../h/Scheduler.h **** class _thread;
   9:src/../h/Scheduler.h **** 
  10:src/../h/Scheduler.h **** class Scheduler
  11:src/../h/Scheduler.h **** {
  12:src/../h/Scheduler.h **** public:
  13:src/../h/Scheduler.h ****     static Scheduler &instance()
  14:src/../h/Scheduler.h ****     {
  15:src/../h/Scheduler.h ****         static Scheduler instance;
 435              		.loc 3 15 9
 436              		.loc 3 15 26 is_stmt 0
 437 0170 97070000 		lbu	a5,_ZGVZN9Scheduler8instanceEvE8instance
 437      83C70700 
 438 0178 63900702 		bne	a5,zero,.L23
 439              	.LVL26:
 440              	.LBB210:
 441              	.LBB211:
 442              	.LBB212:
  16:src/../h/Scheduler.h ****         return instance;
  17:src/../h/Scheduler.h ****     }
  18:src/../h/Scheduler.h **** 
  19:src/../h/Scheduler.h ****     Scheduler(const Scheduler &) = delete;
  20:src/../h/Scheduler.h ****     Scheduler &operator=(const Scheduler &) = delete;
GAS LISTING C:\msys64\tmp\ccetbcNa.s 			page 18


  21:src/../h/Scheduler.h **** 
  22:src/../h/Scheduler.h ****     void put(_thread *t);
  23:src/../h/Scheduler.h **** 
  24:src/../h/Scheduler.h ****     _thread *get();
  25:src/../h/Scheduler.h **** 
  26:src/../h/Scheduler.h **** private:
  27:src/../h/Scheduler.h ****     Scheduler() : head(nullptr), tail(nullptr) {};
 443              		.loc 3 27 46
 444 017c 97070000 		lla	a5,_ZZN9Scheduler8instanceEvE8instance
 444      93870700 
 445 0184 23B00700 		sd	zero,0(a5)
 446 0188 23B40700 		sd	zero,8(a5)
 447              	.LVL27:
 448              	.LBE212:
 449              	.LBE211:
 450              	.LBE210:
  15:src/../h/Scheduler.h ****         return instance;
 451              		.loc 3 15 26
 452 018c 93071000 		li	a5,1
 453 0190 17070000 		sb	a5,_ZGVZN9Scheduler8instanceEvE8instance,a4
 453      2300F700 
 454              	.L23:
  16:src/../h/Scheduler.h ****         return instance;
 455              		.loc 3 16 9 is_stmt 1
 456              	.LBE209:
 457              	.LBE208:
  49:src/riscv.cpp **** 				writeARegister(0, 0);
 458              		.loc 1 49 31 is_stmt 0
 459 0198 83B50400 		ld	a1,0(s1)
 460 019c 17050000 		lla	a0,_ZZN9Scheduler8instanceEvE8instance
 460      13050500 
 461 01a4 97000000 		call	_ZN9Scheduler3putEP7_thread
 461      E7800000 
 462              	.LVL28:
 463              	.L22:
  50:src/riscv.cpp **** 			}
 464              		.loc 1 50 5 is_stmt 1
 465              	.LBB213:
 466              	.LBB214:
 171:src/../h/riscv.h **** }
 467              		.loc 2 171 5
 468 01ac 93070000 		li	a5,0
 469              	 #APP
 470              	# 171 "src/../h/riscv.h" 1
 471              		mv a0, a5
 472              	# 0 "" 2
 473              		.loc 2 172 1 is_stmt 0
 474              	 #NO_APP
 475 01b4 6FF05FF5 		j	.L5
 476              	.LVL29:
 477              	.L21:
 478              	.LBE214:
 479              	.LBE213:
  53:src/riscv.cpp **** 			break;
 480              		.loc 1 53 5 is_stmt 1
 481              	.LBB215:
 482              	.LBB216:
GAS LISTING C:\msys64\tmp\ccetbcNa.s 			page 19


 171:src/../h/riscv.h **** }
 483              		.loc 2 171 5
 484 01b8 9307F0FF 		li	a5,-1
 485              	 #APP
 486              	# 171 "src/../h/riscv.h" 1
 487              		mv a0, a5
 488              	# 0 "" 2
 489              		.loc 2 172 1 is_stmt 0
 490              	 #NO_APP
 491 01c0 6FF09FF4 		j	.L5
 492              	.LVL30:
 493              	.L17:
 494              	.LBE216:
 495              	.LBE215:
 496              	.LBE207:
  56:src/riscv.cpp **** 		{
 497              		.loc 1 56 3 is_stmt 1
  57:src/riscv.cpp **** 			_thread::timeSliceCounter = 0;
 498              		.loc 1 57 3
  58:src/riscv.cpp **** 			if (_thread::running)
 499              		.loc 1 58 4
  58:src/riscv.cpp **** 			if (_thread::running)
 500              		.loc 1 58 30 is_stmt 0
 501 01c4 97070000 		sd	zero,_ZN7_thread16timeSliceCounterE,a5
 501      23B00700 
  59:src/riscv.cpp **** 			{
 502              		.loc 1 59 4 is_stmt 1
  59:src/riscv.cpp **** 			{
 503              		.loc 1 59 17 is_stmt 0
 504 01cc 97070000 		ld	a5,_ZN7_thread7runningE
 504      83B70700 
  59:src/riscv.cpp **** 			{
 505              		.loc 1 59 4
 506 01d4 63800702 		beq	a5,zero,.L24
  61:src/riscv.cpp **** 				writeARegister(0, 0);
 507              		.loc 1 61 5 is_stmt 1
 508              	.LVL31:
 509              	.LBB217:
 510              	.LBB218:
 511              		.file 4 "src/../h/Thread.h"
   1:src/../h/Thread.h **** #ifndef PROJEKAT_THREAD_H
   2:src/../h/Thread.h **** #define PROJEKAT_THREAD_H
   3:src/../h/Thread.h **** 
   4:src/../h/Thread.h **** #include "../lib/hw.h"
   5:src/../h/Thread.h **** #include "MemoryAllocator.h"
   6:src/../h/Thread.h **** #include "Scheduler.h"
   7:src/../h/Thread.h **** 
   8:src/../h/Thread.h **** typedef unsigned long time_t;
   9:src/../h/Thread.h **** class _thread
  10:src/../h/Thread.h **** {
  11:src/../h/Thread.h **** public:
  12:src/../h/Thread.h **** 	void *operator new(size_t size)
  13:src/../h/Thread.h **** 	{
  14:src/../h/Thread.h **** 		void *ptr = MemoryAllocator::kmalloc(size);
  15:src/../h/Thread.h **** 		return ptr;
  16:src/../h/Thread.h **** 	}
  17:src/../h/Thread.h **** 	~_thread() { delete stack; };
GAS LISTING C:\msys64\tmp\ccetbcNa.s 			page 20


  18:src/../h/Thread.h **** 	using Body = void (*)(void *);
  19:src/../h/Thread.h **** 
  20:src/../h/Thread.h **** 	static _thread *createThread(Body body, void *args, void *stack);
  21:src/../h/Thread.h **** 
  22:src/../h/Thread.h **** 	static _thread *running;
  23:src/../h/Thread.h **** 
  24:src/../h/Thread.h **** 	static void dispatch();
  25:src/../h/Thread.h **** 
  26:src/../h/Thread.h **** 	bool isFinished() { return finished; };
  27:src/../h/Thread.h **** 
  28:src/../h/Thread.h **** 	uint64 getTimeSlice() const
  29:src/../h/Thread.h **** 	{
  30:src/../h/Thread.h **** 		return timeSlice;
  31:src/../h/Thread.h **** 	}
  32:src/../h/Thread.h **** 	void setFinished(bool finished) { _thread::finished = finished; };
 512              		.loc 4 32 36
 513              		.loc 4 32 54 is_stmt 0
 514 01d8 13071000 		li	a4,1
 515              	.LVL32:
 516 01dc A380E704 		sb	a4,65(a5)
 517              	.LVL33:
 518              	.LBE218:
 519              	.LBE217:
  62:src/riscv.cpp **** 			}
 520              		.loc 1 62 5 is_stmt 1
 521              	.LBB219:
 522              	.LBB220:
 171:src/../h/riscv.h **** }
 523              		.loc 2 171 5
 524 01e0 93070000 		li	a5,0
 525              	 #APP
 526              	# 171 "src/../h/riscv.h" 1
 527              		mv a0, a5
 528              	# 0 "" 2
 529              	.LVL34:
 530              	 #NO_APP
 531              	.L25:
 532              	.LBE220:
 533              	.LBE219:
  69:src/riscv.cpp **** 			break;
 534              		.loc 1 69 4
  69:src/riscv.cpp **** 			break;
 535              		.loc 1 69 21 is_stmt 0
 536 01e8 97000000 		call	_ZN7_thread8dispatchEv
 536      E7800000 
 537              	.LVL35:
  70:src/riscv.cpp **** 		}
 538              		.loc 1 70 4 is_stmt 1
 539 01f0 6FF09FF1 		j	.L5
 540              	.LVL36:
 541              	.L24:
  66:src/riscv.cpp **** 			}
 542              		.loc 1 66 5
 543              	.LBB221:
 544              	.LBB222:
 171:src/../h/riscv.h **** }
 545              		.loc 2 171 5
GAS LISTING C:\msys64\tmp\ccetbcNa.s 			page 21


 546 01f4 9307F0FF 		li	a5,-1
 547              	 #APP
 548              	# 171 "src/../h/riscv.h" 1
 549              		mv a0, a5
 550              	# 0 "" 2
 551              		.loc 2 172 1 is_stmt 0
 552              	 #NO_APP
 553 01fc 6FF0DFFE 		j	.L25
 554              	.LVL37:
 555              	.L16:
 556              	.LBE222:
 557              	.LBE221:
  72:src/riscv.cpp **** 		{
 558              		.loc 1 72 3 is_stmt 1
  73:src/riscv.cpp **** 			_thread::timeSliceCounter = 0;
 559              		.loc 1 73 3
  74:src/riscv.cpp **** 			_thread::dispatch();
 560              		.loc 1 74 4
  74:src/riscv.cpp **** 			_thread::dispatch();
 561              		.loc 1 74 30 is_stmt 0
 562 0200 97070000 		sd	zero,_ZN7_thread16timeSliceCounterE,a5
 562      23B00700 
  75:src/riscv.cpp **** 			break;
 563              		.loc 1 75 4 is_stmt 1
  75:src/riscv.cpp **** 			break;
 564              		.loc 1 75 21 is_stmt 0
 565 0208 97000000 		call	_ZN7_thread8dispatchEv
 565      E7800000 
 566              	.LVL38:
  76:src/riscv.cpp **** 		}
 567              		.loc 1 76 4 is_stmt 1
 568 0210 6FF09FEF 		j	.L5
 569              	.LVL39:
 570              	.L15:
  78:src/riscv.cpp **** 		{
 571              		.loc 1 78 3
  79:src/riscv.cpp **** 			_sem **handle = (_sem **)a1;
 572              		.loc 1 79 3
 573              	.LBB223:
  80:src/riscv.cpp **** 
 574              		.loc 1 80 4
  82:src/riscv.cpp **** 
 575              		.loc 1 82 4
 576              	.LBB224:
 577              	.LBB225:
 578              		.file 5 "src/../h/Semaphore.h"
   1:src/../h/Semaphore.h **** //
   2:src/../h/Semaphore.h **** // Created by os on 4/6/26.
   3:src/../h/Semaphore.h **** //
   4:src/../h/Semaphore.h **** 
   5:src/../h/Semaphore.h **** #ifndef PROJECT_BASE_V1_1_SEMAPHORE_H
   6:src/../h/Semaphore.h **** #define PROJECT_BASE_V1_1_SEMAPHORE_H
   7:src/../h/Semaphore.h **** #include "../h/MemoryAllocator.h"
   8:src/../h/Semaphore.h **** class _thread;
   9:src/../h/Semaphore.h **** 
  10:src/../h/Semaphore.h **** class _sem {
  11:src/../h/Semaphore.h **** public:
GAS LISTING C:\msys64\tmp\ccetbcNa.s 			page 22


  12:src/../h/Semaphore.h **** 
  13:src/../h/Semaphore.h ****     void* operator new(size_t size){
  14:src/../h/Semaphore.h ****         void* ptr = MemoryAllocator::kmalloc(size);
 579              		.loc 5 14 9
 580              		.loc 5 14 45 is_stmt 0
 581 0214 13050002 		li	a0,32
 582 0218 97000000 		call	_ZN15MemoryAllocator7kmallocEm
 582      E7800000 
 583              	.LVL40:
 584              	.LEHE0:
 585 0220 93090500 		mv	s3,a0
 586              	.LVL41:
  15:src/../h/Semaphore.h ****         return ptr;
 587              		.loc 5 15 9 is_stmt 1
 588              	.LBE225:
 589              	.LBE224:
  82:src/riscv.cpp **** 
 590              		.loc 1 82 25 is_stmt 0
 591 0224 9B050900 		sext.w	a1,s2
 592              	.LEHB1:
 593 0228 97000000 		call	_ZN4_semC1Ei
 593      E7800000 
 594              	.LVL42:
 595              	.LEHE1:
  82:src/riscv.cpp **** 
 596              		.loc 1 82 12 discriminator 2
 597 0230 23B03401 		sd	s3,0(s1)
  84:src/riscv.cpp **** 			{
 598              		.loc 1 84 4 is_stmt 1 discriminator 2
 599 0234 63880900 		beq	s3,zero,.L26
  86:src/riscv.cpp **** 			}
 600              		.loc 1 86 5
 601              	.LVL43:
 602              	.LBB226:
 603              	.LBB227:
 171:src/../h/riscv.h **** }
 604              		.loc 2 171 5
 605 0238 93070000 		li	a5,0
 606              	 #APP
 607              	# 171 "src/../h/riscv.h" 1
 608              		mv a0, a5
 609              	# 0 "" 2
 610              		.loc 2 172 1 is_stmt 0
 611              	 #NO_APP
 612 0240 6FF09FEC 		j	.L5
 613              	.LVL44:
 614              	.L26:
 615              	.LBE227:
 616              	.LBE226:
  89:src/riscv.cpp **** 			break;
 617              		.loc 1 89 5 is_stmt 1
 618              	.LBB228:
 619              	.LBB229:
 171:src/../h/riscv.h **** }
 620              		.loc 2 171 5
 621 0244 9307F0FF 		li	a5,-1
 622              	 #APP
GAS LISTING C:\msys64\tmp\ccetbcNa.s 			page 23


 623              	# 171 "src/../h/riscv.h" 1
 624              		mv a0, a5
 625              	# 0 "" 2
 626              		.loc 2 172 1 is_stmt 0
 627              	 #NO_APP
 628 024c 6FF0DFEB 		j	.L5
 629              	.LVL45:
 630              	.L14:
 631              	.LBE229:
 632              	.LBE228:
 633              	.LBE223:
  92:src/riscv.cpp **** 		{
 634              		.loc 1 92 3 is_stmt 1
  93:src/riscv.cpp **** 			_sem *s = (_sem *)a1;
 635              		.loc 1 93 3
 636              	.LBB230:
  94:src/riscv.cpp **** 			if (s == nullptr)
 637              		.loc 1 94 4
  95:src/riscv.cpp **** 			{
 638              		.loc 1 95 4
 639 0250 63980500 		bne	a1,zero,.L27
  97:src/riscv.cpp **** 			}
 640              		.loc 1 97 5
 641              	.LVL46:
 642              	.LBB231:
 643              	.LBB232:
 171:src/../h/riscv.h **** }
 644              		.loc 2 171 5
 645 0254 9307F0FF 		li	a5,-1
 646              	 #APP
 647              	# 171 "src/../h/riscv.h" 1
 648              		mv a0, a5
 649              	# 0 "" 2
 650              		.loc 2 172 1 is_stmt 0
 651              	 #NO_APP
 652 025c 6FF0DFEA 		j	.L5
 653              	.LVL47:
 654              	.L27:
 655              	.LBE232:
 656              	.LBE231:
 101:src/riscv.cpp **** 				delete s;
 657              		.loc 1 101 5 is_stmt 1
 101:src/riscv.cpp **** 				delete s;
 658              		.loc 1 101 31 is_stmt 0
 659 0260 13850500 		mv	a0,a1
 660              	.LEHB2:
 661 0264 97000000 		call	_ZN4_sem5closeEv
 661      E7800000 
 662              	.LVL48:
 663              	.LBB233:
 664              	.LBB234:
 171:src/../h/riscv.h **** }
 665              		.loc 2 171 5 is_stmt 1
 666              	 #APP
 667              	# 171 "src/../h/riscv.h" 1
 668              		mv a0, a0
 669              	# 0 "" 2
GAS LISTING C:\msys64\tmp\ccetbcNa.s 			page 24


 670              	.LVL49:
 671              	 #NO_APP
 672              	.LBE234:
 673              	.LBE233:
 102:src/riscv.cpp **** 			}
 674              		.loc 1 102 5
 102:src/riscv.cpp **** 			}
 675              		.loc 1 102 12 is_stmt 0
 676 0270 13850400 		mv	a0,s1
 677 0274 97000000 		call	_ZdlPv
 677      E7800000 
 678              	.LVL50:
 679 027c 6FF0DFE8 		j	.L5
 680              	.LVL51:
 681              	.L13:
 682              	.LBE230:
 107:src/riscv.cpp **** 		{
 683              		.loc 1 107 3 is_stmt 1
 108:src/riscv.cpp **** 			_sem *s = (_sem *)a1;
 684              		.loc 1 108 3
 685              	.LBB235:
 109:src/riscv.cpp **** 			if (s == nullptr)
 686              		.loc 1 109 4
 110:src/riscv.cpp **** 			{
 687              		.loc 1 110 4
 688 0280 63980500 		bne	a1,zero,.L28
 112:src/riscv.cpp **** 			}
 689              		.loc 1 112 5
 690              	.LVL52:
 691              	.LBB236:
 692              	.LBB237:
 171:src/../h/riscv.h **** }
 693              		.loc 2 171 5
 694 0284 9307F0FF 		li	a5,-1
 695              	 #APP
 696              	# 171 "src/../h/riscv.h" 1
 697              		mv a0, a5
 698              	# 0 "" 2
 699              		.loc 2 172 1 is_stmt 0
 700              	 #NO_APP
 701 028c 6FF0DFE7 		j	.L5
 702              	.LVL53:
 703              	.L28:
 704              	.LBE237:
 705              	.LBE236:
 116:src/riscv.cpp **** 			}
 706              		.loc 1 116 5 is_stmt 1
 116:src/riscv.cpp **** 			}
 707              		.loc 1 116 30 is_stmt 0
 708 0290 13850500 		mv	a0,a1
 709 0294 97000000 		call	_ZN4_sem4waitEv
 709      E7800000 
 710              	.LVL54:
 711              	.LBB238:
 712              	.LBB239:
 171:src/../h/riscv.h **** }
 713              		.loc 2 171 5 is_stmt 1
GAS LISTING C:\msys64\tmp\ccetbcNa.s 			page 25


 714              	 #APP
 715              	# 171 "src/../h/riscv.h" 1
 716              		mv a0, a0
 717              	# 0 "" 2
 718              		.loc 2 172 1 is_stmt 0
 719              	 #NO_APP
 720 02a0 6FF09FE6 		j	.L5
 721              	.LVL55:
 722              	.L12:
 723              	.LBE239:
 724              	.LBE238:
 725              	.LBE235:
 121:src/riscv.cpp **** 		{
 726              		.loc 1 121 3 is_stmt 1
 122:src/riscv.cpp **** 			_sem *s = (_sem *)a1;
 727              		.loc 1 122 3
 728              	.LBB240:
 123:src/riscv.cpp **** 			if (s == nullptr)
 729              		.loc 1 123 4
 124:src/riscv.cpp **** 			{
 730              		.loc 1 124 4
 731 02a4 63980500 		bne	a1,zero,.L29
 126:src/riscv.cpp **** 			}
 732              		.loc 1 126 5
 733              	.LVL56:
 734              	.LBB241:
 735              	.LBB242:
 171:src/../h/riscv.h **** }
 736              		.loc 2 171 5
 737 02a8 9307F0FF 		li	a5,-1
 738              	 #APP
 739              	# 171 "src/../h/riscv.h" 1
 740              		mv a0, a5
 741              	# 0 "" 2
 742              		.loc 2 172 1 is_stmt 0
 743              	 #NO_APP
 744 02b0 6FF09FE5 		j	.L5
 745              	.LVL57:
 746              	.L29:
 747              	.LBE242:
 748              	.LBE241:
 130:src/riscv.cpp **** 			}
 749              		.loc 1 130 5 is_stmt 1
 130:src/riscv.cpp **** 			}
 750              		.loc 1 130 32 is_stmt 0
 751 02b4 13850500 		mv	a0,a1
 752 02b8 97000000 		call	_ZN4_sem6signalEv
 752      E7800000 
 753              	.LVL58:
 754              	.LBB243:
 755              	.LBB244:
 171:src/../h/riscv.h **** }
 756              		.loc 2 171 5 is_stmt 1
 757              	 #APP
 758              	# 171 "src/../h/riscv.h" 1
 759              		mv a0, a0
 760              	# 0 "" 2
GAS LISTING C:\msys64\tmp\ccetbcNa.s 			page 26


 761              		.loc 2 172 1 is_stmt 0
 762              	 #NO_APP
 763 02c4 6FF05FE4 		j	.L5
 764              	.LVL59:
 765              	.L11:
 766              	.LBE244:
 767              	.LBE243:
 768              	.LBE240:
 134:src/riscv.cpp **** 			_sem *s = (_sem *)a1;
 769              		.loc 1 134 3 is_stmt 1
 134:src/riscv.cpp **** 			_sem *s = (_sem *)a1;
 770              		.loc 1 134 13
 771              	.LBB245:
 135:src/riscv.cpp **** 			unsigned n = (unsigned)a2;
 772              		.loc 1 135 4
 136:src/riscv.cpp **** 			if (s == nullptr)
 773              		.loc 1 136 4
 136:src/riscv.cpp **** 			if (s == nullptr)
 774              		.loc 1 136 13 is_stmt 0
 775 02c8 9B050900 		sext.w	a1,s2
 776              	.LVL60:
 137:src/riscv.cpp **** 			{
 777              		.loc 1 137 4 is_stmt 1
 778 02cc 63980400 		bne	s1,zero,.L30
 139:src/riscv.cpp **** 			}
 779              		.loc 1 139 5
 780              	.LVL61:
 781              	.LBB246:
 782              	.LBB247:
 171:src/../h/riscv.h **** }
 783              		.loc 2 171 5
 784 02d0 9307F0FF 		li	a5,-1
 785              	 #APP
 786              	# 171 "src/../h/riscv.h" 1
 787              		mv a0, a5
 788              	# 0 "" 2
 789              		.loc 2 172 1 is_stmt 0
 790              	 #NO_APP
 791 02d8 6FF01FE3 		j	.L5
 792              	.LVL62:
 793              	.L30:
 794              	.LBE247:
 795              	.LBE246:
 143:src/riscv.cpp **** 			}
 796              		.loc 1 143 5 is_stmt 1
 143:src/riscv.cpp **** 			}
 797              		.loc 1 143 32 is_stmt 0
 798 02dc 13850400 		mv	a0,s1
 799 02e0 97000000 		call	_ZN4_sem6wait_nEj
 799      E7800000 
 800              	.LVL63:
 801              	.LBB248:
 802              	.LBB249:
 171:src/../h/riscv.h **** }
 803              		.loc 2 171 5 is_stmt 1
 804              	 #APP
 805              	# 171 "src/../h/riscv.h" 1
GAS LISTING C:\msys64\tmp\ccetbcNa.s 			page 27


 806              		mv a0, a0
 807              	# 0 "" 2
 808              		.loc 2 172 1 is_stmt 0
 809              	 #NO_APP
 810 02ec 6FF0DFE1 		j	.L5
 811              	.LVL64:
 812              	.L10:
 813              	.LBE249:
 814              	.LBE248:
 815              	.LBE245:
 147:src/riscv.cpp **** 			_sem *s = (_sem *)a1;
 816              		.loc 1 147 3 is_stmt 1
 147:src/riscv.cpp **** 			_sem *s = (_sem *)a1;
 817              		.loc 1 147 13
 818              	.LBB250:
 148:src/riscv.cpp **** 			unsigned n = (unsigned)a2;
 819              		.loc 1 148 4
 149:src/riscv.cpp **** 			if (s == nullptr)
 820              		.loc 1 149 4
 149:src/riscv.cpp **** 			if (s == nullptr)
 821              		.loc 1 149 13 is_stmt 0
 822 02f0 9B050900 		sext.w	a1,s2
 823              	.LVL65:
 150:src/riscv.cpp **** 			{
 824              		.loc 1 150 4 is_stmt 1
 825 02f4 63980400 		bne	s1,zero,.L31
 152:src/riscv.cpp **** 			}
 826              		.loc 1 152 5
 827              	.LVL66:
 828              	.LBB251:
 829              	.LBB252:
 171:src/../h/riscv.h **** }
 830              		.loc 2 171 5
 831 02f8 9307F0FF 		li	a5,-1
 832              	 #APP
 833              	# 171 "src/../h/riscv.h" 1
 834              		mv a0, a5
 835              	# 0 "" 2
 836              		.loc 2 172 1 is_stmt 0
 837              	 #NO_APP
 838 0300 6FF09FE0 		j	.L5
 839              	.LVL67:
 840              	.L31:
 841              	.LBE252:
 842              	.LBE251:
 156:src/riscv.cpp **** 			}
 843              		.loc 1 156 5 is_stmt 1
 156:src/riscv.cpp **** 			}
 844              		.loc 1 156 34 is_stmt 0
 845 0304 13850400 		mv	a0,s1
 846 0308 97000000 		call	_ZN4_sem8signal_nEj
 846      E7800000 
 847              	.LVL68:
 848              	.LBB253:
 849              	.LBB254:
 171:src/../h/riscv.h **** }
 850              		.loc 2 171 5 is_stmt 1
GAS LISTING C:\msys64\tmp\ccetbcNa.s 			page 28


 851              	 #APP
 852              	# 171 "src/../h/riscv.h" 1
 853              		mv a0, a0
 854              	# 0 "" 2
 855              		.loc 2 172 1 is_stmt 0
 856              	 #NO_APP
 857 0314 6FF05FDF 		j	.L5
 858              	.LVL69:
 859              	.L9:
 860              	.LBE254:
 861              	.LBE253:
 862              	.LBE250:
 160:src/riscv.cpp **** 		{
 863              		.loc 1 160 3 is_stmt 1
 161:src/riscv.cpp **** 			if (_thread::running == nullptr)
 864              		.loc 1 161 3
 162:src/riscv.cpp **** 			{
 865              		.loc 1 162 4
 162:src/riscv.cpp **** 			{
 866              		.loc 1 162 25 is_stmt 0
 867 0318 17050000 		ld	a0,_ZN7_thread7runningE
 867      03350500 
 162:src/riscv.cpp **** 			{
 868              		.loc 1 162 4
 869 0320 630C0500 		beq	a0,zero,.L57
 168:src/riscv.cpp **** 				writeARegister(0, 0);
 870              		.loc 1 168 5 is_stmt 1
 168:src/riscv.cpp **** 				writeARegister(0, 0);
 871              		.loc 1 168 33 is_stmt 0
 872 0324 97000000 		call	_ZN7_thread10time_sleepEm
 872      E7800000 
 873              	.LVL70:
 169:src/riscv.cpp **** 			}
 874              		.loc 1 169 5 is_stmt 1
 875              	.LBB255:
 876              	.LBB256:
 171:src/../h/riscv.h **** }
 877              		.loc 2 171 5
 878 032c 93070000 		li	a5,0
 879              	 #APP
 880              	# 171 "src/../h/riscv.h" 1
 881              		mv a0, a5
 882              	# 0 "" 2
 883              		.loc 2 172 1 is_stmt 0
 884              	 #NO_APP
 885 0334 6FF05FDD 		j	.L5
 886              	.LVL71:
 887              	.L57:
 888              	.LBE256:
 889              	.LBE255:
 164:src/riscv.cpp **** 			}
 890              		.loc 1 164 5 is_stmt 1
 891              	.LBB257:
 892              	.LBB258:
 171:src/../h/riscv.h **** }
 893              		.loc 2 171 5
 894 0338 9307F0FF 		li	a5,-1
GAS LISTING C:\msys64\tmp\ccetbcNa.s 			page 29


 895              	 #APP
 896              	# 171 "src/../h/riscv.h" 1
 897              		mv a0, a5
 898              	# 0 "" 2
 899              		.loc 2 172 1 is_stmt 0
 900              	 #NO_APP
 901 0340 6FF09FDC 		j	.L5
 902              	.LVL72:
 903              	.L8:
 904              	.LBE258:
 905              	.LBE257:
 174:src/riscv.cpp **** 		{
 906              		.loc 1 174 3 is_stmt 1
 175:src/riscv.cpp **** 			char c = _console::getc();
 907              		.loc 1 175 3
 908              	.LBB259:
 176:src/riscv.cpp **** 			writeARegister(0, (uint64)c);
 909              		.loc 1 176 4
 176:src/riscv.cpp **** 			writeARegister(0, (uint64)c);
 910              		.loc 1 176 27 is_stmt 0
 911 0344 97000000 		call	_ZN8_console4getcEv
 911      E7800000 
 912              	.LVL73:
 177:src/riscv.cpp **** 			break;
 913              		.loc 1 177 4 is_stmt 1
 914              	.LBB260:
 915              	.LBB261:
 171:src/../h/riscv.h **** }
 916              		.loc 2 171 5
 917              	 #APP
 918              	# 171 "src/../h/riscv.h" 1
 919              		mv a0, a0
 920              	# 0 "" 2
 921              		.loc 2 172 1 is_stmt 0
 922              	 #NO_APP
 923 0350 6FF09FDB 		j	.L5
 924              	.LVL74:
 925              	.L6:
 926              	.LBE261:
 927              	.LBE260:
 928              	.LBE259:
 181:src/riscv.cpp **** 		{					   // putc
 929              		.loc 1 181 3 is_stmt 1
 182:src/riscv.cpp **** 			char c = (char)a1; // Karakter koji je korisnik prosledio
 930              		.loc 1 182 3
 931              	.LBB262:
 183:src/riscv.cpp **** 			_console::putc(c);
 932              		.loc 1 183 4
 184:src/riscv.cpp **** 			break;
 933              		.loc 1 184 4
 184:src/riscv.cpp **** 			break;
 934              		.loc 1 184 18 is_stmt 0
 935 0354 13F5F50F 		andi	a0,a1,0xff
 936 0358 97000000 		call	_ZN8_console4putcEc
 936      E7800000 
 937              	.LVL75:
 185:src/riscv.cpp **** 		}
GAS LISTING C:\msys64\tmp\ccetbcNa.s 			page 30


 938              		.loc 1 185 4 is_stmt 1
 939 0360 6FF09FDA 		j	.L5
 940              	.LVL76:
 941              	.L55:
 942              	.LBE262:
 943              	.LBE268:
 944              	.LBE270:
 945              	.LBB271:
 946              	.LBB175:
 198:src/riscv.cpp **** 
 947              		.loc 1 198 3
 198:src/riscv.cpp **** 
 948              		.loc 1 198 23 is_stmt 0
 949 0364 97000000 		call	plic_claim
 949      E7800000 
 950              	.LVL77:
 951 036c 13090500 		mv	s2,a0
 952              	.LVL78:
 200:src/riscv.cpp **** 		{ // Proveravamo da li je prekid stigao baš sa konzole (obično 10)
 953              		.loc 1 200 3 is_stmt 1
 954              	.LBB176:
 955 0370 9307A000 		li	a5,10
 956 0374 630AF500 		beq	a0,a5,.L37
 957              	.LVL79:
 958              	.L35:
 959              	.LBE176:
 220:src/riscv.cpp **** 	}
 960              		.loc 1 220 3
 220:src/riscv.cpp **** 	}
 961              		.loc 1 220 16 is_stmt 0
 962 0378 13050900 		mv	a0,s2
 963 037c 97000000 		call	plic_complete
 963      E7800000 
 964              	.LVL80:
 965              	.LBE175:
 966 0384 6FF05FD9 		j	.L3
 967              	.L37:
 968              	.LBB193:
 969              	.LBB192:
 970              	.LBB177:
 204:src/riscv.cpp **** 			{
 971              		.loc 1 204 4 is_stmt 1
 204:src/riscv.cpp **** 			{
 972              		.loc 1 204 56
 204:src/riscv.cpp **** 			{
 973              		.loc 1 204 12 is_stmt 0
 974 0388 97040000 		ld	s1,CONSOLE_STATUS
 974      83B40400 
 975 0390 83C70400 		lbu	a5,0(s1)
 204:src/riscv.cpp **** 			{
 976              		.loc 1 204 56
 977 0394 93F71700 		andi	a5,a5,1
 978 0398 63840706 		beq	a5,zero,.L38
 979              	.LBB178:
 980              	.LBB179:
 981              		.file 6 "src/../h/Console.h"
   1:src/../h/Console.h **** #ifndef PROJEKAT_CONSOLE_H
GAS LISTING C:\msys64\tmp\ccetbcNa.s 			page 31


   2:src/../h/Console.h **** #define PROJEKAT_CONSOLE_H
   3:src/../h/Console.h **** 
   4:src/../h/Console.h **** #include "../h/Semaphore.h"
   5:src/../h/Console.h **** #include "../h/Buffer.h"
   6:src/../h/Console.h **** 
   7:src/../h/Console.h **** class _console
   8:src/../h/Console.h **** {
   9:src/../h/Console.h **** public:
  10:src/../h/Console.h ****     _console() = delete;
  11:src/../h/Console.h ****     _console(const _console &) = delete;
  12:src/../h/Console.h ****     _console &operator=(const _console &) = delete;
  13:src/../h/Console.h **** 
  14:src/../h/Console.h ****     static char getc();
  15:src/../h/Console.h ****     static void putc(char c);
  16:src/../h/Console.h **** 
  17:src/../h/Console.h ****     static kBuffer *getInBuff()
  18:src/../h/Console.h ****     {
  19:src/../h/Console.h ****         ensureInit();
 982              		.loc 6 19 9 is_stmt 1
 983              		.loc 6 19 19 is_stmt 0
 984 039c 97000000 		call	_ZN8_console10ensureInitEv
 984      E7800000 
 985              	.LVL81:
  20:src/../h/Console.h ****         return inbuff;
 986              		.loc 6 20 9 is_stmt 1
 987              	.LBE179:
 988              	.LBE178:
 204:src/riscv.cpp **** 			{
 989              		.loc 1 204 89 is_stmt 0
 990 03a4 17050000 		ld	a0,_ZN8_console6inbuffE
 990      03350500 
 991 03ac 97000000 		call	_ZN7kBuffer6isFullEv
 991      E7800000 
 992              	.LVL82:
 204:src/riscv.cpp **** 			{
 993              		.loc 1 204 56
 994 03b4 63160504 		bne	a0,zero,.L38
 995              	.LBB180:
 206:src/riscv.cpp **** 				_console::getInBuff()->put(c);
 996              		.loc 1 206 5 is_stmt 1
 206:src/riscv.cpp **** 				_console::getInBuff()->put(c);
 997              		.loc 1 206 14 is_stmt 0
 998 03b8 97070000 		ld	a5,CONSOLE_RX_DATA
 998      83B70700 
 206:src/riscv.cpp **** 				_console::getInBuff()->put(c);
 999              		.loc 1 206 49
 1000 03c0 83C40700 		lbu	s1,0(a5)
 1001 03c4 93F4F40F 		andi	s1,s1,0xff
 1002              	.LVL83:
 207:src/riscv.cpp **** 				_console::getInSem()->signal();
 1003              		.loc 1 207 5 is_stmt 1
 1004              	.LBB181:
 1005              	.LBB182:
  19:src/../h/Console.h ****         return inbuff;
 1006              		.loc 6 19 9
  19:src/../h/Console.h ****         return inbuff;
 1007              		.loc 6 19 19 is_stmt 0
GAS LISTING C:\msys64\tmp\ccetbcNa.s 			page 32


 1008 03c8 97000000 		call	_ZN8_console10ensureInitEv
 1008      E7800000 
 1009              	.LVL84:
 1010              		.loc 6 20 9 is_stmt 1
 1011              	.LBE182:
 1012              	.LBE181:
 207:src/riscv.cpp **** 				_console::getInSem()->signal();
 1013              		.loc 1 207 31 is_stmt 0
 1014 03d0 93850400 		mv	a1,s1
 1015 03d4 17050000 		ld	a0,_ZN8_console6inbuffE
 1015      03350500 
 1016 03dc 97000000 		call	_ZN7kBuffer3putEc
 1016      E7800000 
 1017              	.LVL85:
 208:src/riscv.cpp **** 			}
 1018              		.loc 1 208 5 is_stmt 1
 1019              	.LBB183:
 1020              	.LBB184:
  21:src/../h/Console.h ****     }
  22:src/../h/Console.h ****     static kBuffer *getOutBuff()
  23:src/../h/Console.h ****     {
  24:src/../h/Console.h ****         ensureInit();
  25:src/../h/Console.h ****         return outbuff;
  26:src/../h/Console.h ****     }
  27:src/../h/Console.h ****     static _sem *getInSem()
  28:src/../h/Console.h ****     {
  29:src/../h/Console.h ****         ensureInit();
 1021              		.loc 6 29 9
 1022              		.loc 6 29 19 is_stmt 0
 1023 03e4 97000000 		call	_ZN8_console10ensureInitEv
 1023      E7800000 
 1024              	.LVL86:
  30:src/../h/Console.h ****         return inSem;
 1025              		.loc 6 30 9 is_stmt 1
 1026              	.LBE184:
 1027              	.LBE183:
 208:src/riscv.cpp **** 			}
 1028              		.loc 1 208 33 is_stmt 0
 1029 03ec 17050000 		ld	a0,_ZN8_console5inSemE
 1029      03350500 
 1030 03f4 97000000 		call	_ZN4_sem6signalEv
 1030      E7800000 
 1031              	.LVL87:
 1032              	.LBE180:
 204:src/riscv.cpp **** 			{
 1033              		.loc 1 204 4
 1034 03fc 6FF0DFF8 		j	.L37
 1035              	.LVL88:
 1036              	.L38:
 212:src/riscv.cpp **** 			{
 1037              		.loc 1 212 4 is_stmt 1
 212:src/riscv.cpp **** 			{
 1038              		.loc 1 212 56
 212:src/riscv.cpp **** 			{
 1039              		.loc 1 212 12 is_stmt 0
 1040 0400 83C70400 		lbu	a5,0(s1)
 212:src/riscv.cpp **** 			{
GAS LISTING C:\msys64\tmp\ccetbcNa.s 			page 33


 1041              		.loc 1 212 56
 1042 0404 93F70702 		andi	a5,a5,32
 1043 0408 E38807F6 		beq	a5,zero,.L35
 1044              	.LBB185:
 1045              	.LBB186:
  24:src/../h/Console.h ****         return outbuff;
 1046              		.loc 6 24 9 is_stmt 1
  24:src/../h/Console.h ****         return outbuff;
 1047              		.loc 6 24 19 is_stmt 0
 1048 040c 97000000 		call	_ZN8_console10ensureInitEv
 1048      E7800000 
 1049              	.LVL89:
  25:src/../h/Console.h ****     }
 1050              		.loc 6 25 9 is_stmt 1
 1051              	.LBE186:
 1052              	.LBE185:
 212:src/riscv.cpp **** 			{
 1053              		.loc 1 212 91 is_stmt 0
 1054 0414 17050000 		ld	a0,_ZN8_console7outbuffE
 1054      03350500 
 1055 041c 97000000 		call	_ZN7kBuffer7isEmptyEv
 1055      E7800000 
 1056              	.LVL90:
 212:src/riscv.cpp **** 			{
 1057              		.loc 1 212 56
 1058 0424 E31A05F4 		bne	a0,zero,.L35
 1059              	.LBB187:
 214:src/riscv.cpp **** 				*((volatile uint8 *)CONSOLE_TX_DATA) = (uint8)c;
 1060              		.loc 1 214 5 is_stmt 1
 1061              	.LBB188:
 1062              	.LBB189:
  24:src/../h/Console.h ****         return outbuff;
 1063              		.loc 6 24 9
  24:src/../h/Console.h ****         return outbuff;
 1064              		.loc 6 24 19 is_stmt 0
 1065 0428 97000000 		call	_ZN8_console10ensureInitEv
 1065      E7800000 
 1066              	.LVL91:
  25:src/../h/Console.h ****     }
 1067              		.loc 6 25 9 is_stmt 1
 1068              	.LBE189:
 1069              	.LBE188:
 214:src/riscv.cpp **** 				*((volatile uint8 *)CONSOLE_TX_DATA) = (uint8)c;
 1070              		.loc 1 214 41 is_stmt 0
 1071 0430 17050000 		ld	a0,_ZN8_console7outbuffE
 1071      03350500 
 1072 0438 97000000 		call	_ZN7kBuffer3getEv
 1072      E7800000 
 1073              	.LVL92:
 215:src/riscv.cpp **** 				_console::getOutSem()->signal();
 1074              		.loc 1 215 5 is_stmt 1
 1075 0440 97070000 		ld	a5,CONSOLE_TX_DATA
 1075      83B70700 
 215:src/riscv.cpp **** 				_console::getOutSem()->signal();
 1076              		.loc 1 215 42 is_stmt 0
 1077 0448 2380A700 		sb	a0,0(a5)
 216:src/riscv.cpp **** 			}
GAS LISTING C:\msys64\tmp\ccetbcNa.s 			page 34


 1078              		.loc 1 216 5 is_stmt 1
 1079              	.LBB190:
 1080              	.LBB191:
  31:src/../h/Console.h ****     }
  32:src/../h/Console.h ****     static _sem *getOutSem()
  33:src/../h/Console.h ****     {
  34:src/../h/Console.h ****         ensureInit();
 1081              		.loc 6 34 9
 1082              		.loc 6 34 19 is_stmt 0
 1083 044c 97000000 		call	_ZN8_console10ensureInitEv
 1083      E7800000 
 1084              	.LVL93:
  35:src/../h/Console.h ****         return outSem;
 1085              		.loc 6 35 9 is_stmt 1
 1086              	.LBE191:
 1087              	.LBE190:
 216:src/riscv.cpp **** 			}
 1088              		.loc 1 216 34 is_stmt 0
 1089 0454 17050000 		ld	a0,_ZN8_console6outSemE
 1089      03350500 
 1090 045c 97000000 		call	_ZN4_sem6signalEv
 1090      E7800000 
 1091              	.LVL94:
 1092              	.LBE187:
 212:src/riscv.cpp **** 			{
 1093              		.loc 1 212 4
 1094 0464 6FF0DFF9 		j	.L38
 1095              	.LVL95:
 1096              	.L56:
 1097              	.LBE177:
 1098              	.LBE192:
 1099              	.LBE193:
 1100              	.LBB194:
 1101              	.LBB147:
 224:src/riscv.cpp **** 		if (_thread::sleepingHead)
 1102              		.loc 1 224 3 is_stmt 1
 224:src/riscv.cpp **** 		if (_thread::sleepingHead)
 1103              		.loc 1 224 28 is_stmt 0
 1104 0468 17070000 		lla	a4,_ZN7_thread16timeSliceCounterE
 1104      13070700 
 1105              	.LVL96:
 1106 0470 83370700 		ld	a5,0(a4)
 1107 0474 93871700 		addi	a5,a5,1
 1108 0478 2330F700 		sd	a5,0(a4)
 225:src/riscv.cpp **** 		{
 1109              		.loc 1 225 3 is_stmt 1
 1110              	.LBB148:
 225:src/riscv.cpp **** 		{
 1111              		.loc 1 225 16 is_stmt 0
 1112 047c 97070000 		ld	a5,_ZN7_thread12sleepingHeadE
 1112      83B70700 
 225:src/riscv.cpp **** 		{
 1113              		.loc 1 225 3
 1114 0484 63800708 		beq	a5,zero,.L40
 1115              	.LBB149:
 227:src/riscv.cpp **** 			{
 1116              		.loc 1 227 4 is_stmt 1
GAS LISTING C:\msys64\tmp\ccetbcNa.s 			page 35


 227:src/riscv.cpp **** 			{
 1117              		.loc 1 227 31 is_stmt 0
 1118 0488 03B70705 		ld	a4,80(a5)
 227:src/riscv.cpp **** 			{
 1119              		.loc 1 227 4
 1120 048c 63000702 		beq	a4,zero,.L43
 229:src/riscv.cpp **** 			}
 1121              		.loc 1 229 5 is_stmt 1
 229:src/riscv.cpp **** 			}
 1122              		.loc 1 229 40 is_stmt 0
 1123 0490 1307F7FF 		addi	a4,a4,-1
 1124 0494 23B8E704 		sd	a4,80(a5)
 1125 0498 6F004001 		j	.L43
 1126              	.LVL97:
 1127              	.L42:
 1128              	.LBB150:
 1129              	.LBB151:
 1130              	.LBB152:
  16:src/../h/Scheduler.h ****     }
 1131              		.loc 3 16 9 is_stmt 1
 1132              	.LBE152:
 1133              	.LBE151:
 240:src/riscv.cpp **** 			}
 1134              		.loc 1 240 30 is_stmt 0
 1135 049c 17050000 		lla	a0,_ZZN9Scheduler8instanceEvE8instance
 1135      13050500 
 1136 04a4 97000000 		call	_ZN9Scheduler3putEP7_thread
 1136      E7800000 
 1137              	.LVL98:
 1138              	.L43:
 1139              	.LBE150:
 232:src/riscv.cpp **** 			{
 1140              		.loc 1 232 4 is_stmt 1
 232:src/riscv.cpp **** 			{
 1141              		.loc 1 232 33
 232:src/riscv.cpp **** 			{
 1142              		.loc 1 232 20 is_stmt 0
 1143 04ac 97050000 		ld	a1,_ZN7_thread12sleepingHeadE
 1143      83B50500 
 232:src/riscv.cpp **** 			{
 1144              		.loc 1 232 33
 1145 04b4 63880504 		beq	a1,zero,.L40
 232:src/riscv.cpp **** 			{
 1146              		.loc 1 232 59 discriminator 1
 1147 04b8 83B70505 		ld	a5,80(a1)
 232:src/riscv.cpp **** 			{
 1148              		.loc 1 232 33 discriminator 1
 1149 04bc 63940704 		bne	a5,zero,.L40
 1150              	.LBB158:
 234:src/riscv.cpp **** 
 1151              		.loc 1 234 5 is_stmt 1
 1152              	.LVL99:
 236:src/riscv.cpp **** 
 1153              		.loc 1 236 5
 236:src/riscv.cpp **** 
 1154              		.loc 1 236 32 is_stmt 0
 1155 04c0 83B78500 		ld	a5,8(a1)
GAS LISTING C:\msys64\tmp\ccetbcNa.s 			page 36


 236:src/riscv.cpp **** 
 1156              		.loc 1 236 27
 1157 04c4 17070000 		sd	a5,_ZN7_thread12sleepingHeadE,a4
 1157      2330F700 
 238:src/riscv.cpp **** 				t->isReady = true;
 1158              		.loc 1 238 5 is_stmt 1
 238:src/riscv.cpp **** 				t->isReady = true;
 1159              		.loc 1 238 17 is_stmt 0
 1160 04cc 23B40500 		sd	zero,8(a1)
 239:src/riscv.cpp **** 				Scheduler::instance().put(t);
 1161              		.loc 1 239 5 is_stmt 1
 239:src/riscv.cpp **** 				Scheduler::instance().put(t);
 1162              		.loc 1 239 16 is_stmt 0
 1163 04d0 93071000 		li	a5,1
 1164 04d4 2380F504 		sb	a5,64(a1)
 240:src/riscv.cpp **** 			}
 1165              		.loc 1 240 5 is_stmt 1
 1166              	.LBB157:
 1167              	.LBB156:
  15:src/../h/Scheduler.h ****         return instance;
 1168              		.loc 3 15 9
  15:src/../h/Scheduler.h ****         return instance;
 1169              		.loc 3 15 26 is_stmt 0
 1170 04d8 97070000 		lbu	a5,_ZGVZN9Scheduler8instanceEvE8instance
 1170      83C70700 
 1171 04e0 E39E07FA 		bne	a5,zero,.L42
 1172              	.LVL100:
 1173              	.LBB153:
 1174              	.LBB154:
 1175              	.LBB155:
 1176              		.loc 3 27 46
 1177 04e4 97070000 		lla	a5,_ZZN9Scheduler8instanceEvE8instance
 1177      93870700 
 1178 04ec 23B00700 		sd	zero,0(a5)
 1179 04f0 23B40700 		sd	zero,8(a5)
 1180              	.LVL101:
 1181              	.LBE155:
 1182              	.LBE154:
 1183              	.LBE153:
  15:src/../h/Scheduler.h ****         return instance;
 1184              		.loc 3 15 26
 1185 04f4 93071000 		li	a5,1
 1186 04f8 17070000 		sb	a5,_ZGVZN9Scheduler8instanceEvE8instance,a4
 1186      2300F700 
 1187 0500 6FF0DFF9 		j	.L42
 1188              	.LVL102:
 1189              	.L40:
 1190              	.LBE156:
 1191              	.LBE157:
 1192              	.LBE158:
 1193              	.LBE149:
 1194              	.LBE148:
 243:src/riscv.cpp **** 		{
 1195              		.loc 1 243 3 is_stmt 1
 1196              	.LBB159:
 243:src/riscv.cpp **** 		{
 1197              		.loc 1 243 66 is_stmt 0
GAS LISTING C:\msys64\tmp\ccetbcNa.s 			page 37


 1198 0504 97070000 		ld	a5,_ZN7_thread7runningE
 1198      83B70700 
 1199              	.LVL103:
 1200              	.LBB160:
 1201              	.LBB161:
  30:src/../h/Thread.h **** 	}
 1202              		.loc 4 30 3 is_stmt 1
  30:src/../h/Thread.h **** 	}
 1203              		.loc 4 30 10 is_stmt 0
 1204 050c 83B78703 		ld	a5,56(a5)
 1205              	.LVL104:
 1206              	.LBE161:
 1207              	.LBE160:
 243:src/riscv.cpp **** 		{
 1208              		.loc 1 243 33
 1209 0510 17070000 		ld	a4,_ZN7_thread16timeSliceCounterE
 1209      03370700 
 243:src/riscv.cpp **** 		{
 1210              		.loc 1 243 3
 1211 0518 6378F700 		bgeu	a4,a5,.L58
 1212              	.L44:
 1213              	.LBE159:
 252:src/riscv.cpp **** 	}else{
 1214              		.loc 1 252 3 is_stmt 1
 1215              	.LVL105:
 1216              	.LBB171:
 1217              	.LBB172:
 125:src/../h/riscv.h **** }
 1218              		.loc 2 125 5
 1219 051c 93072000 		li	a5,2
 1220              	 #APP
 1221              	# 125 "src/../h/riscv.h" 1
 126:src/../h/riscv.h **** 
 1222              		csrc sip, a5
 1223              	# 0 "" 2
 1224              		.loc 2 126 1 is_stmt 0
 1225              	 #NO_APP
 1226 0524 6FF05FBF 		j	.L3
 1227              	.LVL106:
 1228              	.L58:
 1229              	.LBE172:
 1230              	.LBE171:
 1231              	.LBB173:
 1232              	.LBB162:
 245:src/riscv.cpp **** 			uint64 volatile sstatus = r_sstatus();
 1233              		.loc 1 245 4 is_stmt 1
 1234              	.LBB163:
 1235              	.LBB164:
  84:src/../h/riscv.h ****     __asm__ volatile("csrr %[sepc], sepc" : [sepc] "=r"(sepc));
 1236              		.loc 2 84 5
  85:src/../h/riscv.h ****     return sepc;
 1237              		.loc 2 85 5
 1238              	 #APP
 1239              	# 85 "src/../h/riscv.h" 1
 1240              		csrr a5, sepc
 1241              	# 0 "" 2
 1242              	 #NO_APP
GAS LISTING C:\msys64\tmp\ccetbcNa.s 			page 38


 1243 052c 2334F4FC 		sd	a5,-56(s0)
  86:src/../h/riscv.h **** }
 1244              		.loc 2 86 5
  86:src/../h/riscv.h **** }
 1245              		.loc 2 86 12 is_stmt 0
 1246 0530 833784FC 		ld	a5,-56(s0)
 1247              	.LBE164:
 1248              	.LBE163:
 245:src/riscv.cpp **** 			uint64 volatile sstatus = r_sstatus();
 1249              		.loc 1 245 34
 1250 0534 233CF4F8 		sd	a5,-104(s0)
 246:src/riscv.cpp **** 			_thread::timeSliceCounter = 0;
 1251              		.loc 1 246 4 is_stmt 1
 1252              	.LBB165:
 1253              	.LBB166:
 152:src/../h/riscv.h ****     __asm__ volatile("csrr %[sstatus], sstatus" : [sstatus] "=r"(sstatus));
 1254              		.loc 2 152 5
 153:src/../h/riscv.h ****     return sstatus;
 1255              		.loc 2 153 5
 1256              	 #APP
 1257              	# 153 "src/../h/riscv.h" 1
 1258              		csrr a5, sstatus
 1259              	# 0 "" 2
 1260              	 #NO_APP
 1261 053c 2330F4FC 		sd	a5,-64(s0)
 154:src/../h/riscv.h **** }
 1262              		.loc 2 154 5
 154:src/../h/riscv.h **** }
 1263              		.loc 2 154 12 is_stmt 0
 1264 0540 833704FC 		ld	a5,-64(s0)
 1265              	.LBE166:
 1266              	.LBE165:
 246:src/riscv.cpp **** 			_thread::timeSliceCounter = 0;
 1267              		.loc 1 246 40
 1268 0544 2330F4FA 		sd	a5,-96(s0)
 247:src/riscv.cpp **** 			_thread::dispatch();
 1269              		.loc 1 247 4 is_stmt 1
 247:src/riscv.cpp **** 			_thread::dispatch();
 1270              		.loc 1 247 30 is_stmt 0
 1271 0548 97070000 		sd	zero,_ZN7_thread16timeSliceCounterE,a5
 1271      23B00700 
 248:src/riscv.cpp **** 			w_sstatus(sstatus);
 1272              		.loc 1 248 4 is_stmt 1
 248:src/riscv.cpp **** 			w_sstatus(sstatus);
 1273              		.loc 1 248 21 is_stmt 0
 1274 0550 97000000 		call	_ZN7_thread8dispatchEv
 1274      E7800000 
 1275              	.LVL107:
 249:src/riscv.cpp **** 			w_sepc(sepc);
 1276              		.loc 1 249 4 is_stmt 1
 249:src/riscv.cpp **** 			w_sepc(sepc);
 1277              		.loc 1 249 13 is_stmt 0
 1278 0558 833704FA 		ld	a5,-96(s0)
 1279              	.LVL108:
 1280              	.LBB167:
 1281              	.LBB168:
 159:src/../h/riscv.h **** }
GAS LISTING C:\msys64\tmp\ccetbcNa.s 			page 39


 1282              		.loc 2 159 5 is_stmt 1
 1283              	 #APP
 1284              	# 159 "src/../h/riscv.h" 1
 1285              		csrw sstatus, a5
 1286              	# 0 "" 2
 1287              	.LVL109:
 1288              	 #NO_APP
 1289              	.LBE168:
 1290              	.LBE167:
 250:src/riscv.cpp **** 		}
 1291              		.loc 1 250 4
 250:src/riscv.cpp **** 		}
 1292              		.loc 1 250 10 is_stmt 0
 1293 0560 833784F9 		ld	a5,-104(s0)
 1294              	.LVL110:
 1295              	.LBB169:
 1296              	.LBB170:
  91:src/../h/riscv.h **** }
 1297              		.loc 2 91 5 is_stmt 1
 1298              	 #APP
 1299              	# 91 "src/../h/riscv.h" 1
  92:src/../h/riscv.h **** 
 1300              		csrw sepc, a5
 1301              	# 0 "" 2
 1302              		.loc 2 92 1 is_stmt 0
 1303              	 #NO_APP
 1304 0568 6FF05FFB 		j	.L44
 1305              	.LVL111:
 1306              	.L51:
 1307              	.LBE170:
 1308              	.LBE169:
 1309              	.LBE162:
 1310              	.LBE173:
 1311              	.LBE147:
 1312              	.LBB174:
 1313              	.LBB143:
 258:src/riscv.cpp ****         {
 1314              		.loc 1 258 18
 1315 056c 9304F000 		li	s1,15
 1316              	.LVL112:
 1317              	.L45:
 258:src/riscv.cpp ****         {
 1318              		.loc 1 258 28 is_stmt 1 discriminator 3
 1319 0570 63C80402 		blt	s1,zero,.L47
 1320              	.LBB144:
 260:src/riscv.cpp ****             _console::putc(c);
 1321              		.loc 1 260 13 discriminator 2
 260:src/riscv.cpp ****             _console::putc(c);
 1322              		.loc 1 260 53 is_stmt 0 discriminator 2
 1323 0574 9B972400 		slliw	a5,s1,2
 260:src/riscv.cpp ****             _console::putc(c);
 1324              		.loc 1 260 49 discriminator 2
 1325 0578 B3D7F900 		srl	a5,s3,a5
 260:src/riscv.cpp ****             _console::putc(c);
 1326              		.loc 1 260 57 discriminator 2
 1327 057c 93F7F700 		andi	a5,a5,15
 260:src/riscv.cpp ****             _console::putc(c);
GAS LISTING C:\msys64\tmp\ccetbcNa.s 			page 40


 1328              		.loc 1 260 18 discriminator 2
 1329 0580 17070000 		lla	a4,.LC1
 1329      13070700 
 1330 0588 B307F700 		add	a5,a4,a5
 1331              	.LVL113:
 261:src/riscv.cpp ****         }
 1332              		.loc 1 261 13 is_stmt 1 discriminator 2
 261:src/riscv.cpp ****         }
 1333              		.loc 1 261 27 is_stmt 0 discriminator 2
 1334 058c 03C50700 		lbu	a0,0(a5)
 1335 0590 97000000 		call	_ZN8_console4putcEc
 1335      E7800000 
 1336              	.LVL114:
 1337              	.LBE144:
 258:src/riscv.cpp ****         {
 1338              		.loc 1 258 9 is_stmt 1 discriminator 2
 1339 0598 9B84F4FF 		addiw	s1,s1,-1
 1340              	.LVL115:
 1341 059c 6FF05FFD 		j	.L45
 1342              	.LVL116:
 1343              	.L47:
 1344              	.LBE143:
 263:src/riscv.cpp ****         for (int i = 15; i >= 0; i--)
 1345              		.loc 1 263 9
 263:src/riscv.cpp ****         for (int i = 15; i >= 0; i--)
 1346              		.loc 1 263 23 is_stmt 0
 1347 05a0 13050002 		li	a0,32
 1348 05a4 97000000 		call	_ZN8_console4putcEc
 1348      E7800000 
 1349              	.LVL117:
 264:src/riscv.cpp ****         {
 1350              		.loc 1 264 9 is_stmt 1
 1351              	.LBB145:
 264:src/riscv.cpp ****         {
 1352              		.loc 1 264 18 is_stmt 0
 1353 05ac 9304F000 		li	s1,15
 1354              	.LVL118:
 1355              	.L49:
 264:src/riscv.cpp ****         {
 1356              		.loc 1 264 28 is_stmt 1 discriminator 3
 1357 05b0 63C80402 		blt	s1,zero,.L48
 1358              	.LBB146:
 266:src/riscv.cpp ****             _console::putc(c);
 1359              		.loc 1 266 13 discriminator 2
 266:src/riscv.cpp ****             _console::putc(c);
 1360              		.loc 1 266 51 is_stmt 0 discriminator 2
 1361 05b4 9B972400 		slliw	a5,s1,2
 266:src/riscv.cpp ****             _console::putc(c);
 1362              		.loc 1 266 47 discriminator 2
 1363 05b8 B357F900 		srl	a5,s2,a5
 266:src/riscv.cpp ****             _console::putc(c);
 1364              		.loc 1 266 55 discriminator 2
 1365 05bc 93F7F700 		andi	a5,a5,15
 266:src/riscv.cpp ****             _console::putc(c);
 1366              		.loc 1 266 18 discriminator 2
 1367 05c0 17070000 		lla	a4,.LC1
 1367      13070700 
GAS LISTING C:\msys64\tmp\ccetbcNa.s 			page 41


 1368 05c8 B307F700 		add	a5,a4,a5
 1369              	.LVL119:
 267:src/riscv.cpp ****         }
 1370              		.loc 1 267 13 is_stmt 1 discriminator 2
 267:src/riscv.cpp ****         }
 1371              		.loc 1 267 27 is_stmt 0 discriminator 2
 1372 05cc 03C50700 		lbu	a0,0(a5)
 1373 05d0 97000000 		call	_ZN8_console4putcEc
 1373      E7800000 
 1374              	.LVL120:
 1375              	.LBE146:
 264:src/riscv.cpp ****         {
 1376              		.loc 1 264 9 is_stmt 1 discriminator 2
 1377 05d8 9B84F4FF 		addiw	s1,s1,-1
 1378              	.LVL121:
 1379 05dc 6FF05FFD 		j	.L49
 1380              	.LVL122:
 1381              	.L48:
 1382              	.LBE145:
 271:src/riscv.cpp **** 	}
 1383              		.loc 1 271 9 discriminator 1
 271:src/riscv.cpp **** 	}
 1384              		.loc 1 271 9 discriminator 1
 1385 05e0 6F000000 		j	.L48
 1386              	.LVL123:
 1387              	.L52:
 1388              	.LBE174:
 1389              	.LBE194:
 1390              	.LBE271:
 1391              	.LBB272:
 1392              	.LBB269:
 1393              	.LBB263:
  82:src/riscv.cpp **** 
 1394              		.loc 1 82 25 is_stmt 0
 1395 05e4 93040500 		mv	s1,a0
 1396              	.LVL124:
 1397 05e8 13850900 		mv	a0,s3
 1398 05ec 97000000 		call	_ZdlPv
 1398      E7800000 
 1399              	.LVL125:
 1400 05f4 13850400 		mv	a0,s1
 1401 05f8 97000000 		call	_Unwind_Resume
 1401      E7800000 
 1402              	.LVL126:
 1403              	.LEHE2:
 1404              	.LBE263:
 1405              	.LBE269:
 1406              	.LBE272:
 1407              	.LBE275:
 1408              		.cfi_endproc
 1409              	.LFE35:
 1410              		.globl	__gxx_personality_v0
 1411              		.section	.gcc_except_table,"aw",@progbits
 1412              	.LLSDA35:
 1413 0000 FF       		.byte	0xff
 1414 0001 FF       		.byte	0xff
 1415 0002 03       		.byte	0x3
GAS LISTING C:\msys64\tmp\ccetbcNa.s 			page 42


 1416 0003 27       		.byte	0x27
 1417 0004 00000000 		.4byte	.LEHB0-.LFB35
 1418 0008 00000000 		.4byte	.LEHE0-.LEHB0
 1419 000c 00000000 		.4byte	0
 1420 0010 00       		.byte	0
 1421 0011 00000000 		.4byte	.LEHB1-.LFB35
 1422 0015 00000000 		.4byte	.LEHE1-.LEHB1
 1423 0019 00000000 		.4byte	.L52-.LFB35
 1424 001d 00       		.byte	0
 1425 001e 00000000 		.4byte	.LEHB2-.LFB35
 1426 0022 00000000 		.4byte	.LEHE2-.LEHB2
 1427 0026 00000000 		.4byte	0
 1428 002a 00       		.byte	0
 1429              		.text
 1431              		.weak	_ZGVZN9Scheduler8instanceEvE8instance
 1432              		.section	.sbss._ZGVZN9Scheduler8instanceEvE8instance,"awG",@nobits,_ZGVZN9Scheduler8instanceEvE8in
 1433              		.align	3
 1436              	_ZGVZN9Scheduler8instanceEvE8instance:
 1437 0000 00000000 		.zero	8
 1437      00000000 
 1438              		.weak	_ZZN9Scheduler8instanceEvE8instance
 1439              		.section	.bss._ZZN9Scheduler8instanceEvE8instance,"awG",@nobits,_ZZN9Scheduler8instanceEvE8instanc
 1440              		.align	3
 1443              	_ZZN9Scheduler8instanceEvE8instance:
 1444 0000 00000000 		.zero	16
 1444      00000000 
 1444      00000000 
 1444      00000000 
 1445              		.text
 1446              	.Letext0:
 1447              		.file 7 "src/../h/../lib/hw.h"
 1448              		.file 8 "src/../h/MemoryAllocator.h"
 1449              		.file 9 "src/../h/../h/Buffer.h"
 7684              		.align	3
 7687              	DW.ref.__gxx_personality_v0:
 7688 0000 00000000 		.dword	__gxx_personality_v0
 7688      00000000 
 7689              		.ident	"GCC: (GNU) 10.1.0"
GAS LISTING C:\msys64\tmp\ccetbcNa.s 			page 43


DEFINED SYMBOLS
                            *ABS*:0000000000000000 riscv.cpp
C:\msys64\tmp\ccetbcNa.s:12     .text:0000000000000000 _ZN5Riscv10popSppSpieEv
C:\msys64\tmp\ccetbcNa.s:16     .text:0000000000000000 .L0 
C:\msys64\tmp\ccetbcNa.s:17     .text:0000000000000000 .L0 
C:\msys64\tmp\ccetbcNa.s:18     .text:0000000000000004 .L0 
C:\msys64\tmp\ccetbcNa.s:20     .text:0000000000000008 .L0 
C:\msys64\tmp\ccetbcNa.s:22     .text:000000000000000c .L0 
       src/riscv.cpp:9      .text:000000000000000c .L0 
C:\msys64\tmp\ccetbcNa.s:34     .text:0000000000000010 .L0 
C:\msys64\tmp\ccetbcNa.s:35     .text:0000000000000010 .L0 
       src/riscv.cpp:11     .text:0000000000000018 .L0 
C:\msys64\tmp\ccetbcNa.s:51     .text:000000000000001c .L0 
C:\msys64\tmp\ccetbcNa.s:52     .text:0000000000000020 .L0 
C:\msys64\tmp\ccetbcNa.s:53     .text:0000000000000020 .L0 
C:\msys64\tmp\ccetbcNa.s:55     .text:0000000000000024 .L0 
C:\msys64\tmp\ccetbcNa.s:57     .text:0000000000000028 .L0 
C:\msys64\tmp\ccetbcNa.s:71     .text:0000000000000028 _ZN5Riscv20handleSupervisorTrapEmmmmmmmm
C:\msys64\tmp\ccetbcNa.s:74     .text:0000000000000028 .L0 
C:\msys64\tmp\ccetbcNa.s:7687   .sdata.DW.ref.__gxx_personality_v0:0000000000000000 DW.ref.__gxx_personality_v0
C:\msys64\tmp\ccetbcNa.s:78     .text:0000000000000028 .L0 
C:\msys64\tmp\ccetbcNa.s:79     .text:000000000000002c .L0 
C:\msys64\tmp\ccetbcNa.s:85     .text:0000000000000040 .L0 
C:\msys64\tmp\ccetbcNa.s:86     .text:0000000000000040 .L0 
C:\msys64\tmp\ccetbcNa.s:87     .text:0000000000000040 .L0 
C:\msys64\tmp\ccetbcNa.s:88     .text:0000000000000040 .L0 
C:\msys64\tmp\ccetbcNa.s:89     .text:0000000000000040 .L0 
C:\msys64\tmp\ccetbcNa.s:91     .text:0000000000000044 .L0 
C:\msys64\tmp\ccetbcNa.s:96     .text:0000000000000048 .L0 
C:\msys64\tmp\ccetbcNa.s:97     .text:0000000000000048 .L0 
    src/../h/riscv.h:73     .text:0000000000000048 .L0 
C:\msys64\tmp\ccetbcNa.s:106    .text:0000000000000050 .L0 
C:\msys64\tmp\ccetbcNa.s:107    .text:0000000000000050 .L0 
C:\msys64\tmp\ccetbcNa.s:113    .text:0000000000000054 .L0 
C:\msys64\tmp\ccetbcNa.s:114    .text:0000000000000054 .L0 
C:\msys64\tmp\ccetbcNa.s:117    .text:0000000000000058 .L0 
C:\msys64\tmp\ccetbcNa.s:123    .text:0000000000000060 .L0 
C:\msys64\tmp\ccetbcNa.s:133    .text:0000000000000070 .L0 
C:\msys64\tmp\ccetbcNa.s:141    .text:0000000000000080 .L0 
C:\msys64\tmp\ccetbcNa.s:142    .text:0000000000000080 .L0 
    src/../h/riscv.h:85     .text:0000000000000080 .L0 
C:\msys64\tmp\ccetbcNa.s:150    .text:0000000000000088 .L0 
C:\msys64\tmp\ccetbcNa.s:151    .text:0000000000000088 .L0 
C:\msys64\tmp\ccetbcNa.s:157    .text:000000000000008c .L0 
C:\msys64\tmp\ccetbcNa.s:158    .text:000000000000008c .L0 
C:\msys64\tmp\ccetbcNa.s:162    .text:0000000000000094 .L0 
C:\msys64\tmp\ccetbcNa.s:166    .text:000000000000009c .L0 
C:\msys64\tmp\ccetbcNa.s:167    .text:000000000000009c .L0 
C:\msys64\tmp\ccetbcNa.s:170    .text:00000000000000a4 .L0 
C:\msys64\tmp\ccetbcNa.s:183    .text:00000000000000b0 .L0 
C:\msys64\tmp\ccetbcNa.s:186    .text:00000000000000b0 .L0 
C:\msys64\tmp\ccetbcNa.s:187    .text:00000000000000b0 .L0 
    src/../h/riscv.h:85     .text:00000000000000b0 .L0 
C:\msys64\tmp\ccetbcNa.s:195    .text:00000000000000b8 .L0 
C:\msys64\tmp\ccetbcNa.s:196    .text:00000000000000b8 .L0 
C:\msys64\tmp\ccetbcNa.s:200    .text:00000000000000bc .L0 
C:\msys64\tmp\ccetbcNa.s:202    .text:00000000000000c0 .L0 
GAS LISTING C:\msys64\tmp\ccetbcNa.s 			page 44


C:\msys64\tmp\ccetbcNa.s:206    .text:00000000000000c4 .L0 
C:\msys64\tmp\ccetbcNa.s:207    .text:00000000000000c4 .L0 
    src/../h/riscv.h:153    .text:00000000000000c4 .L0 
C:\msys64\tmp\ccetbcNa.s:215    .text:00000000000000cc .L0 
C:\msys64\tmp\ccetbcNa.s:216    .text:00000000000000cc .L0 
C:\msys64\tmp\ccetbcNa.s:220    .text:00000000000000d0 .L0 
C:\msys64\tmp\ccetbcNa.s:222    .text:00000000000000d4 .L0 
C:\msys64\tmp\ccetbcNa.s:307    .text:00000000000000f8 .L0 
C:\msys64\tmp\ccetbcNa.s:309    .text:00000000000000f8 .L0 
C:\msys64\tmp\ccetbcNa.s:311    .text:00000000000000f8 .L0 
C:\msys64\tmp\ccetbcNa.s:312    .text:00000000000000f8 .L0 
C:\msys64\tmp\ccetbcNa.s:313    .text:00000000000000f8 .L0 
    src/../h/riscv.h:171    .text:0000000000000104 .L0 
C:\msys64\tmp\ccetbcNa.s:332    .text:0000000000000108 .L0 
C:\msys64\tmp\ccetbcNa.s:333    .text:0000000000000108 .L0 
    src/../h/riscv.h:159    .text:000000000000010c .L0 
C:\msys64\tmp\ccetbcNa.s:347    .text:0000000000000110 .L0 
C:\msys64\tmp\ccetbcNa.s:348    .text:0000000000000110 .L0 
    src/../h/riscv.h:91     .text:0000000000000114 .L0 
C:\msys64\tmp\ccetbcNa.s:365    .text:0000000000000118 .L0 
C:\msys64\tmp\ccetbcNa.s:366    .text:000000000000011c .L0 
C:\msys64\tmp\ccetbcNa.s:367    .text:000000000000011c .L0 
C:\msys64\tmp\ccetbcNa.s:369    .text:0000000000000120 .L0 
C:\msys64\tmp\ccetbcNa.s:370    .text:0000000000000120 .L0 
C:\msys64\tmp\ccetbcNa.s:372    .text:0000000000000124 .L0 
C:\msys64\tmp\ccetbcNa.s:374    .text:0000000000000128 .L0 
C:\msys64\tmp\ccetbcNa.s:376    .text:000000000000012c .L0 
C:\msys64\tmp\ccetbcNa.s:378    .text:0000000000000130 .L0 
C:\msys64\tmp\ccetbcNa.s:382    .text:0000000000000134 .L0 
C:\msys64\tmp\ccetbcNa.s:387    .text:0000000000000134 .L0 
C:\msys64\tmp\ccetbcNa.s:388    .text:0000000000000134 .L0 
C:\msys64\tmp\ccetbcNa.s:389    .text:0000000000000134 .L0 
C:\msys64\tmp\ccetbcNa.s:390    .text:0000000000000134 .L0 
    src/../h/riscv.h:171    .text:0000000000000140 .L0 
C:\msys64\tmp\ccetbcNa.s:402    .text:0000000000000144 .L0 
C:\msys64\tmp\ccetbcNa.s:408    .text:0000000000000148 .L0 
C:\msys64\tmp\ccetbcNa.s:410    .text:0000000000000148 .L0 
C:\msys64\tmp\ccetbcNa.s:411    .text:0000000000000148 .L0 
C:\msys64\tmp\ccetbcNa.s:412    .text:0000000000000148 .L0 
C:\msys64\tmp\ccetbcNa.s:413    .text:0000000000000148 .L0 
C:\msys64\tmp\ccetbcNa.s:414    .text:0000000000000148 .L0 
C:\msys64\tmp\ccetbcNa.s:416    .text:000000000000014c .L0 
C:\msys64\tmp\ccetbcNa.s:417    .text:000000000000014c .L0 
C:\msys64\tmp\ccetbcNa.s:419    .text:0000000000000150 .L0 
C:\msys64\tmp\ccetbcNa.s:420    .text:0000000000000150 .L0 
C:\msys64\tmp\ccetbcNa.s:426    .text:0000000000000164 .L0 
C:\msys64\tmp\ccetbcNa.s:428    .text:0000000000000168 .L0 
C:\msys64\tmp\ccetbcNa.s:430    .text:000000000000016c .L0 
C:\msys64\tmp\ccetbcNa.s:435    .text:0000000000000170 .L0 
C:\msys64\tmp\ccetbcNa.s:436    .text:0000000000000170 .L0 
C:\msys64\tmp\ccetbcNa.s:1436   .sbss._ZGVZN9Scheduler8instanceEvE8instance:0000000000000000 _ZGVZN9Scheduler8instanceEvE8instance
C:\msys64\tmp\ccetbcNa.s:437    .text:0000000000000170 .L0 
C:\msys64\tmp\ccetbcNa.s:1443   .bss._ZZN9Scheduler8instanceEvE8instance:0000000000000000 _ZZN9Scheduler8instanceEvE8instance
C:\msys64\tmp\ccetbcNa.s:444    .text:000000000000017c .L0 
C:\msys64\tmp\ccetbcNa.s:452    .text:000000000000018c .L0 
C:\msys64\tmp\ccetbcNa.s:458    .text:0000000000000198 .L0 
C:\msys64\tmp\ccetbcNa.s:459    .text:0000000000000198 .L0 
GAS LISTING C:\msys64\tmp\ccetbcNa.s 			page 45


C:\msys64\tmp\ccetbcNa.s:467    .text:00000000000001ac .L0 
C:\msys64\tmp\ccetbcNa.s:468    .text:00000000000001ac .L0 
C:\msys64\tmp\ccetbcNa.s:475    .text:00000000000001b4 .L0 
C:\msys64\tmp\ccetbcNa.s:483    .text:00000000000001b8 .L0 
C:\msys64\tmp\ccetbcNa.s:484    .text:00000000000001b8 .L0 
C:\msys64\tmp\ccetbcNa.s:491    .text:00000000000001c0 .L0 
C:\msys64\tmp\ccetbcNa.s:498    .text:00000000000001c4 .L0 
C:\msys64\tmp\ccetbcNa.s:499    .text:00000000000001c4 .L0 
C:\msys64\tmp\ccetbcNa.s:500    .text:00000000000001c4 .L0 
C:\msys64\tmp\ccetbcNa.s:501    .text:00000000000001c4 .L0 
C:\msys64\tmp\ccetbcNa.s:503    .text:00000000000001cc .L0 
C:\msys64\tmp\ccetbcNa.s:504    .text:00000000000001cc .L0 
C:\msys64\tmp\ccetbcNa.s:506    .text:00000000000001d4 .L0 
C:\msys64\tmp\ccetbcNa.s:512    .text:00000000000001d8 .L0 
C:\msys64\tmp\ccetbcNa.s:513    .text:00000000000001d8 .L0 
C:\msys64\tmp\ccetbcNa.s:514    .text:00000000000001d8 .L0 
C:\msys64\tmp\ccetbcNa.s:523    .text:00000000000001e0 .L0 
C:\msys64\tmp\ccetbcNa.s:524    .text:00000000000001e0 .L0 
C:\msys64\tmp\ccetbcNa.s:535    .text:00000000000001e8 .L0 
C:\msys64\tmp\ccetbcNa.s:536    .text:00000000000001e8 .L0 
C:\msys64\tmp\ccetbcNa.s:539    .text:00000000000001f0 .L0 
C:\msys64\tmp\ccetbcNa.s:545    .text:00000000000001f4 .L0 
C:\msys64\tmp\ccetbcNa.s:546    .text:00000000000001f4 .L0 
C:\msys64\tmp\ccetbcNa.s:553    .text:00000000000001fc .L0 
C:\msys64\tmp\ccetbcNa.s:559    .text:0000000000000200 .L0 
C:\msys64\tmp\ccetbcNa.s:560    .text:0000000000000200 .L0 
C:\msys64\tmp\ccetbcNa.s:561    .text:0000000000000200 .L0 
C:\msys64\tmp\ccetbcNa.s:562    .text:0000000000000200 .L0 
C:\msys64\tmp\ccetbcNa.s:564    .text:0000000000000208 .L0 
C:\msys64\tmp\ccetbcNa.s:565    .text:0000000000000208 .L0 
C:\msys64\tmp\ccetbcNa.s:568    .text:0000000000000210 .L0 
C:\msys64\tmp\ccetbcNa.s:572    .text:0000000000000214 .L0 
C:\msys64\tmp\ccetbcNa.s:574    .text:0000000000000214 .L0 
C:\msys64\tmp\ccetbcNa.s:575    .text:0000000000000214 .L0 
C:\msys64\tmp\ccetbcNa.s:579    .text:0000000000000214 .L0 
C:\msys64\tmp\ccetbcNa.s:580    .text:0000000000000214 .L0 
C:\msys64\tmp\ccetbcNa.s:581    .text:0000000000000214 .L0 
C:\msys64\tmp\ccetbcNa.s:590    .text:0000000000000224 .L0 
C:\msys64\tmp\ccetbcNa.s:591    .text:0000000000000224 .L0 
C:\msys64\tmp\ccetbcNa.s:597    .text:0000000000000230 .L0 
C:\msys64\tmp\ccetbcNa.s:599    .text:0000000000000234 .L0 
C:\msys64\tmp\ccetbcNa.s:604    .text:0000000000000238 .L0 
C:\msys64\tmp\ccetbcNa.s:605    .text:0000000000000238 .L0 
C:\msys64\tmp\ccetbcNa.s:612    .text:0000000000000240 .L0 
C:\msys64\tmp\ccetbcNa.s:620    .text:0000000000000244 .L0 
C:\msys64\tmp\ccetbcNa.s:621    .text:0000000000000244 .L0 
C:\msys64\tmp\ccetbcNa.s:628    .text:000000000000024c .L0 
C:\msys64\tmp\ccetbcNa.s:635    .text:0000000000000250 .L0 
C:\msys64\tmp\ccetbcNa.s:637    .text:0000000000000250 .L0 
C:\msys64\tmp\ccetbcNa.s:638    .text:0000000000000250 .L0 
C:\msys64\tmp\ccetbcNa.s:639    .text:0000000000000250 .L0 
C:\msys64\tmp\ccetbcNa.s:644    .text:0000000000000254 .L0 
C:\msys64\tmp\ccetbcNa.s:645    .text:0000000000000254 .L0 
C:\msys64\tmp\ccetbcNa.s:652    .text:000000000000025c .L0 
C:\msys64\tmp\ccetbcNa.s:658    .text:0000000000000260 .L0 
C:\msys64\tmp\ccetbcNa.s:659    .text:0000000000000260 .L0 
    src/../h/riscv.h:171    .text:000000000000026c .L0 
GAS LISTING C:\msys64\tmp\ccetbcNa.s 			page 46


C:\msys64\tmp\ccetbcNa.s:675    .text:0000000000000270 .L0 
C:\msys64\tmp\ccetbcNa.s:676    .text:0000000000000270 .L0 
C:\msys64\tmp\ccetbcNa.s:684    .text:0000000000000280 .L0 
C:\msys64\tmp\ccetbcNa.s:686    .text:0000000000000280 .L0 
C:\msys64\tmp\ccetbcNa.s:687    .text:0000000000000280 .L0 
C:\msys64\tmp\ccetbcNa.s:688    .text:0000000000000280 .L0 
C:\msys64\tmp\ccetbcNa.s:693    .text:0000000000000284 .L0 
C:\msys64\tmp\ccetbcNa.s:694    .text:0000000000000284 .L0 
C:\msys64\tmp\ccetbcNa.s:701    .text:000000000000028c .L0 
C:\msys64\tmp\ccetbcNa.s:707    .text:0000000000000290 .L0 
C:\msys64\tmp\ccetbcNa.s:708    .text:0000000000000290 .L0 
    src/../h/riscv.h:171    .text:000000000000029c .L0 
C:\msys64\tmp\ccetbcNa.s:720    .text:00000000000002a0 .L0 
C:\msys64\tmp\ccetbcNa.s:727    .text:00000000000002a4 .L0 
C:\msys64\tmp\ccetbcNa.s:729    .text:00000000000002a4 .L0 
C:\msys64\tmp\ccetbcNa.s:730    .text:00000000000002a4 .L0 
C:\msys64\tmp\ccetbcNa.s:731    .text:00000000000002a4 .L0 
C:\msys64\tmp\ccetbcNa.s:736    .text:00000000000002a8 .L0 
C:\msys64\tmp\ccetbcNa.s:737    .text:00000000000002a8 .L0 
C:\msys64\tmp\ccetbcNa.s:744    .text:00000000000002b0 .L0 
C:\msys64\tmp\ccetbcNa.s:750    .text:00000000000002b4 .L0 
C:\msys64\tmp\ccetbcNa.s:751    .text:00000000000002b4 .L0 
    src/../h/riscv.h:171    .text:00000000000002c0 .L0 
C:\msys64\tmp\ccetbcNa.s:763    .text:00000000000002c4 .L0 
C:\msys64\tmp\ccetbcNa.s:770    .text:00000000000002c8 .L0 
C:\msys64\tmp\ccetbcNa.s:772    .text:00000000000002c8 .L0 
C:\msys64\tmp\ccetbcNa.s:773    .text:00000000000002c8 .L0 
C:\msys64\tmp\ccetbcNa.s:774    .text:00000000000002c8 .L0 
C:\msys64\tmp\ccetbcNa.s:775    .text:00000000000002c8 .L0 
C:\msys64\tmp\ccetbcNa.s:778    .text:00000000000002cc .L0 
C:\msys64\tmp\ccetbcNa.s:783    .text:00000000000002d0 .L0 
C:\msys64\tmp\ccetbcNa.s:784    .text:00000000000002d0 .L0 
C:\msys64\tmp\ccetbcNa.s:791    .text:00000000000002d8 .L0 
C:\msys64\tmp\ccetbcNa.s:797    .text:00000000000002dc .L0 
C:\msys64\tmp\ccetbcNa.s:798    .text:00000000000002dc .L0 
    src/../h/riscv.h:171    .text:00000000000002e8 .L0 
C:\msys64\tmp\ccetbcNa.s:810    .text:00000000000002ec .L0 
C:\msys64\tmp\ccetbcNa.s:817    .text:00000000000002f0 .L0 
C:\msys64\tmp\ccetbcNa.s:819    .text:00000000000002f0 .L0 
C:\msys64\tmp\ccetbcNa.s:820    .text:00000000000002f0 .L0 
C:\msys64\tmp\ccetbcNa.s:821    .text:00000000000002f0 .L0 
C:\msys64\tmp\ccetbcNa.s:822    .text:00000000000002f0 .L0 
C:\msys64\tmp\ccetbcNa.s:825    .text:00000000000002f4 .L0 
C:\msys64\tmp\ccetbcNa.s:830    .text:00000000000002f8 .L0 
C:\msys64\tmp\ccetbcNa.s:831    .text:00000000000002f8 .L0 
C:\msys64\tmp\ccetbcNa.s:838    .text:0000000000000300 .L0 
C:\msys64\tmp\ccetbcNa.s:844    .text:0000000000000304 .L0 
C:\msys64\tmp\ccetbcNa.s:845    .text:0000000000000304 .L0 
    src/../h/riscv.h:171    .text:0000000000000310 .L0 
C:\msys64\tmp\ccetbcNa.s:857    .text:0000000000000314 .L0 
C:\msys64\tmp\ccetbcNa.s:864    .text:0000000000000318 .L0 
C:\msys64\tmp\ccetbcNa.s:865    .text:0000000000000318 .L0 
C:\msys64\tmp\ccetbcNa.s:866    .text:0000000000000318 .L0 
C:\msys64\tmp\ccetbcNa.s:867    .text:0000000000000318 .L0 
C:\msys64\tmp\ccetbcNa.s:869    .text:0000000000000320 .L0 
C:\msys64\tmp\ccetbcNa.s:871    .text:0000000000000324 .L0 
C:\msys64\tmp\ccetbcNa.s:872    .text:0000000000000324 .L0 
GAS LISTING C:\msys64\tmp\ccetbcNa.s 			page 47


C:\msys64\tmp\ccetbcNa.s:877    .text:000000000000032c .L0 
C:\msys64\tmp\ccetbcNa.s:878    .text:000000000000032c .L0 
C:\msys64\tmp\ccetbcNa.s:885    .text:0000000000000334 .L0 
C:\msys64\tmp\ccetbcNa.s:893    .text:0000000000000338 .L0 
C:\msys64\tmp\ccetbcNa.s:894    .text:0000000000000338 .L0 
C:\msys64\tmp\ccetbcNa.s:901    .text:0000000000000340 .L0 
C:\msys64\tmp\ccetbcNa.s:907    .text:0000000000000344 .L0 
C:\msys64\tmp\ccetbcNa.s:909    .text:0000000000000344 .L0 
C:\msys64\tmp\ccetbcNa.s:910    .text:0000000000000344 .L0 
C:\msys64\tmp\ccetbcNa.s:911    .text:0000000000000344 .L0 
C:\msys64\tmp\ccetbcNa.s:916    .text:000000000000034c .L0 
    src/../h/riscv.h:171    .text:000000000000034c .L0 
C:\msys64\tmp\ccetbcNa.s:923    .text:0000000000000350 .L0 
C:\msys64\tmp\ccetbcNa.s:930    .text:0000000000000354 .L0 
C:\msys64\tmp\ccetbcNa.s:932    .text:0000000000000354 .L0 
C:\msys64\tmp\ccetbcNa.s:933    .text:0000000000000354 .L0 
C:\msys64\tmp\ccetbcNa.s:934    .text:0000000000000354 .L0 
C:\msys64\tmp\ccetbcNa.s:935    .text:0000000000000354 .L0 
C:\msys64\tmp\ccetbcNa.s:939    .text:0000000000000360 .L0 
C:\msys64\tmp\ccetbcNa.s:948    .text:0000000000000364 .L0 
C:\msys64\tmp\ccetbcNa.s:949    .text:0000000000000364 .L0 
C:\msys64\tmp\ccetbcNa.s:955    .text:0000000000000370 .L0 
C:\msys64\tmp\ccetbcNa.s:961    .text:0000000000000378 .L0 
C:\msys64\tmp\ccetbcNa.s:962    .text:0000000000000378 .L0 
C:\msys64\tmp\ccetbcNa.s:972    .text:0000000000000388 .L0 
C:\msys64\tmp\ccetbcNa.s:973    .text:0000000000000388 .L0 
C:\msys64\tmp\ccetbcNa.s:974    .text:0000000000000388 .L0 
C:\msys64\tmp\ccetbcNa.s:977    .text:0000000000000394 .L0 
C:\msys64\tmp\ccetbcNa.s:983    .text:000000000000039c .L0 
C:\msys64\tmp\ccetbcNa.s:984    .text:000000000000039c .L0 
C:\msys64\tmp\ccetbcNa.s:989    .text:00000000000003a4 .L0 
C:\msys64\tmp\ccetbcNa.s:990    .text:00000000000003a4 .L0 
C:\msys64\tmp\ccetbcNa.s:994    .text:00000000000003b4 .L0 
C:\msys64\tmp\ccetbcNa.s:997    .text:00000000000003b8 .L0 
C:\msys64\tmp\ccetbcNa.s:998    .text:00000000000003b8 .L0 
C:\msys64\tmp\ccetbcNa.s:1000   .text:00000000000003c0 .L0 
C:\msys64\tmp\ccetbcNa.s:1006   .text:00000000000003c8 .L0 
C:\msys64\tmp\ccetbcNa.s:1007   .text:00000000000003c8 .L0 
C:\msys64\tmp\ccetbcNa.s:1008   .text:00000000000003c8 .L0 
C:\msys64\tmp\ccetbcNa.s:1013   .text:00000000000003d0 .L0 
C:\msys64\tmp\ccetbcNa.s:1014   .text:00000000000003d0 .L0 
C:\msys64\tmp\ccetbcNa.s:1021   .text:00000000000003e4 .L0 
C:\msys64\tmp\ccetbcNa.s:1022   .text:00000000000003e4 .L0 
C:\msys64\tmp\ccetbcNa.s:1023   .text:00000000000003e4 .L0 
C:\msys64\tmp\ccetbcNa.s:1028   .text:00000000000003ec .L0 
C:\msys64\tmp\ccetbcNa.s:1029   .text:00000000000003ec .L0 
C:\msys64\tmp\ccetbcNa.s:1034   .text:00000000000003fc .L0 
C:\msys64\tmp\ccetbcNa.s:1038   .text:0000000000000400 .L0 
C:\msys64\tmp\ccetbcNa.s:1039   .text:0000000000000400 .L0 
C:\msys64\tmp\ccetbcNa.s:1040   .text:0000000000000400 .L0 
C:\msys64\tmp\ccetbcNa.s:1042   .text:0000000000000404 .L0 
C:\msys64\tmp\ccetbcNa.s:1047   .text:000000000000040c .L0 
C:\msys64\tmp\ccetbcNa.s:1048   .text:000000000000040c .L0 
C:\msys64\tmp\ccetbcNa.s:1053   .text:0000000000000414 .L0 
C:\msys64\tmp\ccetbcNa.s:1054   .text:0000000000000414 .L0 
C:\msys64\tmp\ccetbcNa.s:1058   .text:0000000000000424 .L0 
C:\msys64\tmp\ccetbcNa.s:1063   .text:0000000000000428 .L0 
GAS LISTING C:\msys64\tmp\ccetbcNa.s 			page 48


C:\msys64\tmp\ccetbcNa.s:1064   .text:0000000000000428 .L0 
C:\msys64\tmp\ccetbcNa.s:1065   .text:0000000000000428 .L0 
C:\msys64\tmp\ccetbcNa.s:1070   .text:0000000000000430 .L0 
C:\msys64\tmp\ccetbcNa.s:1071   .text:0000000000000430 .L0 
C:\msys64\tmp\ccetbcNa.s:1075   .text:0000000000000440 .L0 
C:\msys64\tmp\ccetbcNa.s:1077   .text:0000000000000448 .L0 
C:\msys64\tmp\ccetbcNa.s:1081   .text:000000000000044c .L0 
C:\msys64\tmp\ccetbcNa.s:1082   .text:000000000000044c .L0 
C:\msys64\tmp\ccetbcNa.s:1083   .text:000000000000044c .L0 
C:\msys64\tmp\ccetbcNa.s:1088   .text:0000000000000454 .L0 
C:\msys64\tmp\ccetbcNa.s:1089   .text:0000000000000454 .L0 
C:\msys64\tmp\ccetbcNa.s:1094   .text:0000000000000464 .L0 
C:\msys64\tmp\ccetbcNa.s:1103   .text:0000000000000468 .L0 
C:\msys64\tmp\ccetbcNa.s:1104   .text:0000000000000468 .L0 
C:\msys64\tmp\ccetbcNa.s:1111   .text:000000000000047c .L0 
C:\msys64\tmp\ccetbcNa.s:1112   .text:000000000000047c .L0 
C:\msys64\tmp\ccetbcNa.s:1114   .text:0000000000000484 .L0 
C:\msys64\tmp\ccetbcNa.s:1117   .text:0000000000000488 .L0 
C:\msys64\tmp\ccetbcNa.s:1118   .text:0000000000000488 .L0 
C:\msys64\tmp\ccetbcNa.s:1120   .text:000000000000048c .L0 
C:\msys64\tmp\ccetbcNa.s:1122   .text:0000000000000490 .L0 
C:\msys64\tmp\ccetbcNa.s:1123   .text:0000000000000490 .L0 
C:\msys64\tmp\ccetbcNa.s:1134   .text:000000000000049c .L0 
C:\msys64\tmp\ccetbcNa.s:1135   .text:000000000000049c .L0 
C:\msys64\tmp\ccetbcNa.s:1141   .text:00000000000004ac .L0 
C:\msys64\tmp\ccetbcNa.s:1142   .text:00000000000004ac .L0 
C:\msys64\tmp\ccetbcNa.s:1143   .text:00000000000004ac .L0 
C:\msys64\tmp\ccetbcNa.s:1145   .text:00000000000004b4 .L0 
C:\msys64\tmp\ccetbcNa.s:1147   .text:00000000000004b8 .L0 
C:\msys64\tmp\ccetbcNa.s:1149   .text:00000000000004bc .L0 
C:\msys64\tmp\ccetbcNa.s:1153   .text:00000000000004c0 .L0 
C:\msys64\tmp\ccetbcNa.s:1154   .text:00000000000004c0 .L0 
C:\msys64\tmp\ccetbcNa.s:1155   .text:00000000000004c0 .L0 
C:\msys64\tmp\ccetbcNa.s:1157   .text:00000000000004c4 .L0 
C:\msys64\tmp\ccetbcNa.s:1159   .text:00000000000004cc .L0 
C:\msys64\tmp\ccetbcNa.s:1160   .text:00000000000004cc .L0 
C:\msys64\tmp\ccetbcNa.s:1162   .text:00000000000004d0 .L0 
C:\msys64\tmp\ccetbcNa.s:1163   .text:00000000000004d0 .L0 
C:\msys64\tmp\ccetbcNa.s:1168   .text:00000000000004d8 .L0 
C:\msys64\tmp\ccetbcNa.s:1169   .text:00000000000004d8 .L0 
C:\msys64\tmp\ccetbcNa.s:1170   .text:00000000000004d8 .L0 
C:\msys64\tmp\ccetbcNa.s:1177   .text:00000000000004e4 .L0 
C:\msys64\tmp\ccetbcNa.s:1185   .text:00000000000004f4 .L0 
C:\msys64\tmp\ccetbcNa.s:1197   .text:0000000000000504 .L0 
C:\msys64\tmp\ccetbcNa.s:1198   .text:0000000000000504 .L0 
C:\msys64\tmp\ccetbcNa.s:1203   .text:000000000000050c .L0 
C:\msys64\tmp\ccetbcNa.s:1204   .text:000000000000050c .L0 
C:\msys64\tmp\ccetbcNa.s:1209   .text:0000000000000510 .L0 
C:\msys64\tmp\ccetbcNa.s:1211   .text:0000000000000518 .L0 
C:\msys64\tmp\ccetbcNa.s:1218   .text:000000000000051c .L0 
C:\msys64\tmp\ccetbcNa.s:1219   .text:000000000000051c .L0 
C:\msys64\tmp\ccetbcNa.s:1226   .text:0000000000000524 .L0 
C:\msys64\tmp\ccetbcNa.s:1236   .text:0000000000000528 .L0 
C:\msys64\tmp\ccetbcNa.s:1237   .text:0000000000000528 .L0 
    src/../h/riscv.h:85     .text:0000000000000528 .L0 
C:\msys64\tmp\ccetbcNa.s:1245   .text:0000000000000530 .L0 
C:\msys64\tmp\ccetbcNa.s:1246   .text:0000000000000530 .L0 
GAS LISTING C:\msys64\tmp\ccetbcNa.s 			page 49


C:\msys64\tmp\ccetbcNa.s:1250   .text:0000000000000534 .L0 
C:\msys64\tmp\ccetbcNa.s:1254   .text:0000000000000538 .L0 
C:\msys64\tmp\ccetbcNa.s:1255   .text:0000000000000538 .L0 
    src/../h/riscv.h:153    .text:0000000000000538 .L0 
C:\msys64\tmp\ccetbcNa.s:1263   .text:0000000000000540 .L0 
C:\msys64\tmp\ccetbcNa.s:1264   .text:0000000000000540 .L0 
C:\msys64\tmp\ccetbcNa.s:1268   .text:0000000000000544 .L0 
C:\msys64\tmp\ccetbcNa.s:1270   .text:0000000000000548 .L0 
C:\msys64\tmp\ccetbcNa.s:1271   .text:0000000000000548 .L0 
C:\msys64\tmp\ccetbcNa.s:1273   .text:0000000000000550 .L0 
C:\msys64\tmp\ccetbcNa.s:1274   .text:0000000000000550 .L0 
C:\msys64\tmp\ccetbcNa.s:1277   .text:0000000000000558 .L0 
C:\msys64\tmp\ccetbcNa.s:1278   .text:0000000000000558 .L0 
    src/../h/riscv.h:159    .text:000000000000055c .L0 
C:\msys64\tmp\ccetbcNa.s:1292   .text:0000000000000560 .L0 
C:\msys64\tmp\ccetbcNa.s:1293   .text:0000000000000560 .L0 
    src/../h/riscv.h:91     .text:0000000000000564 .L0 
C:\msys64\tmp\ccetbcNa.s:1304   .text:0000000000000568 .L0 
C:\msys64\tmp\ccetbcNa.s:1315   .text:000000000000056c .L0 
C:\msys64\tmp\ccetbcNa.s:1319   .text:0000000000000570 .L0 
C:\msys64\tmp\ccetbcNa.s:1322   .text:0000000000000574 .L0 
C:\msys64\tmp\ccetbcNa.s:1323   .text:0000000000000574 .L0 
C:\msys64\tmp\ccetbcNa.s:1325   .text:0000000000000578 .L0 
C:\msys64\tmp\ccetbcNa.s:1327   .text:000000000000057c .L0 
C:\msys64\tmp\ccetbcNa.s:1329   .text:0000000000000580 .L0 
C:\msys64\tmp\ccetbcNa.s:1333   .text:000000000000058c .L0 
C:\msys64\tmp\ccetbcNa.s:1334   .text:000000000000058c .L0 
C:\msys64\tmp\ccetbcNa.s:1339   .text:0000000000000598 .L0 
C:\msys64\tmp\ccetbcNa.s:1346   .text:00000000000005a0 .L0 
C:\msys64\tmp\ccetbcNa.s:1347   .text:00000000000005a0 .L0 
C:\msys64\tmp\ccetbcNa.s:1352   .text:00000000000005ac .L0 
C:\msys64\tmp\ccetbcNa.s:1353   .text:00000000000005ac .L0 
C:\msys64\tmp\ccetbcNa.s:1357   .text:00000000000005b0 .L0 
C:\msys64\tmp\ccetbcNa.s:1360   .text:00000000000005b4 .L0 
C:\msys64\tmp\ccetbcNa.s:1361   .text:00000000000005b4 .L0 
C:\msys64\tmp\ccetbcNa.s:1363   .text:00000000000005b8 .L0 
C:\msys64\tmp\ccetbcNa.s:1365   .text:00000000000005bc .L0 
C:\msys64\tmp\ccetbcNa.s:1367   .text:00000000000005c0 .L0 
C:\msys64\tmp\ccetbcNa.s:1371   .text:00000000000005cc .L0 
C:\msys64\tmp\ccetbcNa.s:1372   .text:00000000000005cc .L0 
C:\msys64\tmp\ccetbcNa.s:1377   .text:00000000000005d8 .L0 
C:\msys64\tmp\ccetbcNa.s:1384   .text:00000000000005e0 .L0 
C:\msys64\tmp\ccetbcNa.s:1385   .text:00000000000005e0 .L0 
C:\msys64\tmp\ccetbcNa.s:1395   .text:00000000000005e4 .L0 
C:\msys64\tmp\ccetbcNa.s:1408   .text:0000000000000600 .L0 
C:\msys64\tmp\ccetbcNa.s:1450   .text:0000000000000600 .L0 
C:\msys64\tmp\ccetbcNa.s:62     .rodata.str1.8:0000000000000000 .LC0
C:\msys64\tmp\ccetbcNa.s:158    .text:000000000000008c .L0 
C:\msys64\tmp\ccetbcNa.s:235    .rodata:0000000000000000 .L7
C:\msys64\tmp\ccetbcNa.s:227    .text:00000000000000e0 .L0 
C:\msys64\tmp\ccetbcNa.s:437    .text:0000000000000170 .L0 
C:\msys64\tmp\ccetbcNa.s:444    .text:000000000000017c .L0 
C:\msys64\tmp\ccetbcNa.s:453    .text:0000000000000190 .L0 
C:\msys64\tmp\ccetbcNa.s:460    .text:000000000000019c .L0 
C:\msys64\tmp\ccetbcNa.s:501    .text:00000000000001c4 .L0 
C:\msys64\tmp\ccetbcNa.s:504    .text:00000000000001cc .L0 
C:\msys64\tmp\ccetbcNa.s:562    .text:0000000000000200 .L0 
GAS LISTING C:\msys64\tmp\ccetbcNa.s 			page 50


C:\msys64\tmp\ccetbcNa.s:867    .text:0000000000000318 .L0 
C:\msys64\tmp\ccetbcNa.s:974    .text:0000000000000388 .L0 
C:\msys64\tmp\ccetbcNa.s:990    .text:00000000000003a4 .L0 
C:\msys64\tmp\ccetbcNa.s:998    .text:00000000000003b8 .L0 
C:\msys64\tmp\ccetbcNa.s:1015   .text:00000000000003d4 .L0 
C:\msys64\tmp\ccetbcNa.s:1029   .text:00000000000003ec .L0 
C:\msys64\tmp\ccetbcNa.s:1054   .text:0000000000000414 .L0 
C:\msys64\tmp\ccetbcNa.s:1071   .text:0000000000000430 .L0 
C:\msys64\tmp\ccetbcNa.s:1075   .text:0000000000000440 .L0 
C:\msys64\tmp\ccetbcNa.s:1089   .text:0000000000000454 .L0 
C:\msys64\tmp\ccetbcNa.s:1104   .text:0000000000000468 .L0 
C:\msys64\tmp\ccetbcNa.s:1112   .text:000000000000047c .L0 
C:\msys64\tmp\ccetbcNa.s:1135   .text:000000000000049c .L0 
C:\msys64\tmp\ccetbcNa.s:1143   .text:00000000000004ac .L0 
C:\msys64\tmp\ccetbcNa.s:1157   .text:00000000000004c4 .L0 
C:\msys64\tmp\ccetbcNa.s:1170   .text:00000000000004d8 .L0 
C:\msys64\tmp\ccetbcNa.s:1177   .text:00000000000004e4 .L0 
C:\msys64\tmp\ccetbcNa.s:1186   .text:00000000000004f8 .L0 
C:\msys64\tmp\ccetbcNa.s:1198   .text:0000000000000504 .L0 
C:\msys64\tmp\ccetbcNa.s:1209   .text:0000000000000510 .L0 
C:\msys64\tmp\ccetbcNa.s:1271   .text:0000000000000548 .L0 
C:\msys64\tmp\ccetbcNa.s:65     .rodata.str1.8:0000000000000018 .LC1
C:\msys64\tmp\ccetbcNa.s:1329   .text:0000000000000580 .L0 
C:\msys64\tmp\ccetbcNa.s:1367   .text:00000000000005c0 .L0 
C:\msys64\tmp\ccetbcNa.s:174    .text:00000000000000ac .L54
C:\msys64\tmp\ccetbcNa.s:941    .text:0000000000000364 .L55
C:\msys64\tmp\ccetbcNa.s:1096   .text:0000000000000468 .L56
C:\msys64\tmp\ccetbcNa.s:1306   .text:000000000000056c .L51
C:\msys64\tmp\ccetbcNa.s:160    .text:0000000000000094 .L46
C:\msys64\tmp\ccetbcNa.s:326    .text:0000000000000108 .L5
C:\msys64\tmp\ccetbcNa.s:477    .text:00000000000001b8 .L21
C:\msys64\tmp\ccetbcNa.s:463    .text:00000000000001ac .L22
C:\msys64\tmp\ccetbcNa.s:454    .text:0000000000000198 .L23
C:\msys64\tmp\ccetbcNa.s:541    .text:00000000000001f4 .L24
C:\msys64\tmp\ccetbcNa.s:531    .text:00000000000001e8 .L25
C:\msys64\tmp\ccetbcNa.s:614    .text:0000000000000244 .L26
C:\msys64\tmp\ccetbcNa.s:654    .text:0000000000000260 .L27
C:\msys64\tmp\ccetbcNa.s:703    .text:0000000000000290 .L28
C:\msys64\tmp\ccetbcNa.s:746    .text:00000000000002b4 .L29
C:\msys64\tmp\ccetbcNa.s:793    .text:00000000000002dc .L30
C:\msys64\tmp\ccetbcNa.s:840    .text:0000000000000304 .L31
C:\msys64\tmp\ccetbcNa.s:887    .text:0000000000000338 .L57
C:\msys64\tmp\ccetbcNa.s:967    .text:0000000000000388 .L37
C:\msys64\tmp\ccetbcNa.s:359    .text:0000000000000118 .L3
C:\msys64\tmp\ccetbcNa.s:1036   .text:0000000000000400 .L38
C:\msys64\tmp\ccetbcNa.s:958    .text:0000000000000378 .L35
C:\msys64\tmp\ccetbcNa.s:1189   .text:0000000000000504 .L40
C:\msys64\tmp\ccetbcNa.s:1138   .text:00000000000004ac .L43
C:\msys64\tmp\ccetbcNa.s:1127   .text:000000000000049c .L42
C:\msys64\tmp\ccetbcNa.s:1228   .text:0000000000000528 .L58
C:\msys64\tmp\ccetbcNa.s:1212   .text:000000000000051c .L44
C:\msys64\tmp\ccetbcNa.s:1343   .text:00000000000005a0 .L47
C:\msys64\tmp\ccetbcNa.s:1317   .text:0000000000000570 .L45
C:\msys64\tmp\ccetbcNa.s:1381   .text:00000000000005e0 .L48
C:\msys64\tmp\ccetbcNa.s:1355   .text:00000000000005b0 .L49
C:\msys64\tmp\ccetbcNa.s:304    .text:00000000000000f8 .L20
C:\msys64\tmp\ccetbcNa.s:381    .text:0000000000000134 .L19
GAS LISTING C:\msys64\tmp\ccetbcNa.s 			page 51


C:\msys64\tmp\ccetbcNa.s:404    .text:0000000000000148 .L18
C:\msys64\tmp\ccetbcNa.s:493    .text:00000000000001c4 .L17
C:\msys64\tmp\ccetbcNa.s:555    .text:0000000000000200 .L16
C:\msys64\tmp\ccetbcNa.s:570    .text:0000000000000214 .L15
C:\msys64\tmp\ccetbcNa.s:630    .text:0000000000000250 .L14
C:\msys64\tmp\ccetbcNa.s:681    .text:0000000000000280 .L13
C:\msys64\tmp\ccetbcNa.s:722    .text:00000000000002a4 .L12
C:\msys64\tmp\ccetbcNa.s:765    .text:00000000000002c8 .L11
C:\msys64\tmp\ccetbcNa.s:812    .text:00000000000002f0 .L10
C:\msys64\tmp\ccetbcNa.s:859    .text:0000000000000318 .L9
C:\msys64\tmp\ccetbcNa.s:903    .text:0000000000000344 .L8
C:\msys64\tmp\ccetbcNa.s:925    .text:0000000000000354 .L6
C:\msys64\tmp\ccetbcNa.s:165    .text:000000000000009c .LEHB0
C:\msys64\tmp\ccetbcNa.s:72     .text:0000000000000028 .LFB35
C:\msys64\tmp\ccetbcNa.s:584    .text:0000000000000220 .LEHE0
C:\msys64\tmp\ccetbcNa.s:592    .text:0000000000000228 .LEHB1
C:\msys64\tmp\ccetbcNa.s:595    .text:0000000000000230 .LEHE1
C:\msys64\tmp\ccetbcNa.s:1387   .text:00000000000005e4 .L52
C:\msys64\tmp\ccetbcNa.s:660    .text:0000000000000264 .LEHB2
C:\msys64\tmp\ccetbcNa.s:1403   .text:0000000000000600 .LEHE2
C:\msys64\tmp\ccetbcNa.s:4334   .debug_abbrev:0000000000000000 .Ldebug_abbrev0
C:\msys64\tmp\ccetbcNa.s:7635   .debug_str:0000000000000a77 .LASF198
C:\msys64\tmp\ccetbcNa.s:7643   .debug_str:0000000000000b6c .LASF199
C:\msys64\tmp\ccetbcNa.s:7657   .debug_str:0000000000000bcc .LASF200
C:\msys64\tmp\ccetbcNa.s:8      .text:0000000000000000 .Ltext0
C:\msys64\tmp\ccetbcNa.s:1446   .text:0000000000000600 .Letext0
C:\msys64\tmp\ccetbcNa.s:7265   .debug_line:0000000000000000 .Ldebug_line0
C:\msys64\tmp\ccetbcNa.s:7389   .debug_str:0000000000000373 .LASF0
C:\msys64\tmp\ccetbcNa.s:7423   .debug_str:0000000000000479 .LASF1
C:\msys64\tmp\ccetbcNa.s:7523   .debug_str:0000000000000789 .LASF2
C:\msys64\tmp\ccetbcNa.s:7351   .debug_str:0000000000000284 .LASF3
C:\msys64\tmp\ccetbcNa.s:7531   .debug_str:00000000000007ce .LASF4
C:\msys64\tmp\ccetbcNa.s:7401   .debug_str:00000000000003c5 .LASF5
C:\msys64\tmp\ccetbcNa.s:7279   .debug_str:0000000000000045 .LASF6
C:\msys64\tmp\ccetbcNa.s:7491   .debug_str:00000000000006a6 .LASF7
C:\msys64\tmp\ccetbcNa.s:7483   .debug_str:0000000000000669 .LASF8
C:\msys64\tmp\ccetbcNa.s:7413   .debug_str:000000000000042f .LASF9
C:\msys64\tmp\ccetbcNa.s:7313   .debug_str:000000000000013a .LASF10
C:\msys64\tmp\ccetbcNa.s:7355   .debug_str:0000000000000296 .LASF11
C:\msys64\tmp\ccetbcNa.s:7323   .debug_str:0000000000000178 .LASF12
C:\msys64\tmp\ccetbcNa.s:7311   .debug_str:000000000000012a .LASF13
C:\msys64\tmp\ccetbcNa.s:7567   .debug_str:00000000000008d3 .LASF14
C:\msys64\tmp\ccetbcNa.s:7349   .debug_str:000000000000026e .LASF15
C:\msys64\tmp\ccetbcNa.s:7551   .debug_str:0000000000000842 .LASF16
C:\msys64\tmp\ccetbcNa.s:7625   .debug_str:0000000000000a41 .LASF63
C:\msys64\tmp\ccetbcNa.s:7503   .debug_str:00000000000006f7 .LASF20
C:\msys64\tmp\ccetbcNa.s:7425   .debug_str:000000000000048c .LASF17
C:\msys64\tmp\ccetbcNa.s:7283   .debug_str:0000000000000057 .LASF18
C:\msys64\tmp\ccetbcNa.s:7647   .debug_str:0000000000000b84 .LASF19
C:\msys64\tmp\ccetbcNa.s:7615   .debug_str:00000000000009ff .LASF21
C:\msys64\tmp\ccetbcNa.s:7353   .debug_str:000000000000028a .LASF22
C:\msys64\tmp\ccetbcNa.s:7587   .debug_str:0000000000000938 .LASF23
C:\msys64\tmp\ccetbcNa.s:7329   .debug_str:00000000000001b9 .LASF24
C:\msys64\tmp\ccetbcNa.s:7379   .debug_str:0000000000000326 .LASF59
C:\msys64\tmp\ccetbcNa.s:7387   .debug_str:000000000000035b .LASF61
C:\msys64\tmp\ccetbcNa.s:7607   .debug_str:00000000000009c3 .LASF25
C:\msys64\tmp\ccetbcNa.s:7601   .debug_str:00000000000009a3 .LASF27
GAS LISTING C:\msys64\tmp\ccetbcNa.s 			page 52


C:\msys64\tmp\ccetbcNa.s:7517   .debug_str:000000000000075a .LASF29
C:\msys64\tmp\ccetbcNa.s:7473   .debug_str:000000000000060f .LASF31
C:\msys64\tmp\ccetbcNa.s:7495   .debug_str:00000000000006b8 .LASF26
C:\msys64\tmp\ccetbcNa.s:7497   .debug_str:00000000000006bf .LASF28
C:\msys64\tmp\ccetbcNa.s:7469   .debug_str:00000000000005f4 .LASF30
C:\msys64\tmp\ccetbcNa.s:7415   .debug_str:0000000000000442 .LASF32
C:\msys64\tmp\ccetbcNa.s:7641   .debug_str:0000000000000b64 .LASF33
C:\msys64\tmp\ccetbcNa.s:7591   .debug_str:000000000000094a .LASF34
C:\msys64\tmp\ccetbcNa.s:7463   .debug_str:00000000000005de .LASF35
C:\msys64\tmp\ccetbcNa.s:7471   .debug_str:00000000000005fb .LASF36
C:\msys64\tmp\ccetbcNa.s:7427   .debug_str:0000000000000495 .LASF37
C:\msys64\tmp\ccetbcNa.s:7501   .debug_str:00000000000006e3 .LASF38
C:\msys64\tmp\ccetbcNa.s:7675   .debug_str:0000000000000c7a .LASF39
C:\msys64\tmp\ccetbcNa.s:7397   .debug_str:000000000000039f .LASF40
C:\msys64\tmp\ccetbcNa.s:7563   .debug_str:00000000000008bf .LASF41
C:\msys64\tmp\ccetbcNa.s:7535   .debug_str:00000000000007df .LASF42
C:\msys64\tmp\ccetbcNa.s:7537   .debug_str:00000000000007f2 .LASF43
C:\msys64\tmp\ccetbcNa.s:7317   .debug_str:000000000000014e .LASF44
C:\msys64\tmp\ccetbcNa.s:7343   .debug_str:0000000000000233 .LASF45
C:\msys64\tmp\ccetbcNa.s:7385   .debug_str:0000000000000349 .LASF46
C:\msys64\tmp\ccetbcNa.s:7395   .debug_str:0000000000000399 .LASF47
C:\msys64\tmp\ccetbcNa.s:7333   .debug_str:00000000000001dd .LASF48
C:\msys64\tmp\ccetbcNa.s:7281   .debug_str:000000000000004c .LASF49
C:\msys64\tmp\ccetbcNa.s:7527   .debug_str:00000000000007a1 .LASF50
C:\msys64\tmp\ccetbcNa.s:7521   .debug_str:000000000000077e .LASF51
C:\msys64\tmp\ccetbcNa.s:7669   .debug_str:0000000000000c3d .LASF52
C:\msys64\tmp\ccetbcNa.s:7627   .debug_str:0000000000000a47 .LASF53
C:\msys64\tmp\ccetbcNa.s:7651   .debug_str:0000000000000b94 .LASF54
C:\msys64\tmp\ccetbcNa.s:7621   .debug_str:0000000000000a30 .LASF55
C:\msys64\tmp\ccetbcNa.s:7443   .debug_str:0000000000000532 .LASF56
C:\msys64\tmp\ccetbcNa.s:7411   .debug_str:0000000000000421 .LASF69
C:\msys64\tmp\ccetbcNa.s:7377   .debug_str:000000000000030b .LASF71
C:\msys64\tmp\ccetbcNa.s:7515   .debug_str:000000000000074b .LASF57
C:\msys64\tmp\ccetbcNa.s:7277   .debug_str:0000000000000028 .LASF58
C:\msys64\tmp\ccetbcNa.s:7639   .debug_str:0000000000000b55 .LASF60
C:\msys64\tmp\ccetbcNa.s:7369   .debug_str:00000000000002d1 .LASF62
C:\msys64\tmp\ccetbcNa.s:7487   .debug_str:0000000000000683 .LASF77
C:\msys64\tmp\ccetbcNa.s:7345   .debug_str:0000000000000239 .LASF79
C:\msys64\tmp\ccetbcNa.s:7481   .debug_str:0000000000000659 .LASF64
C:\msys64\tmp\ccetbcNa.s:7319   .debug_str:0000000000000161 .LASF92
C:\msys64\tmp\ccetbcNa.s:7315   .debug_str:0000000000000149 .LASF65
C:\msys64\tmp\ccetbcNa.s:7421   .debug_str:0000000000000474 .LASF66
C:\msys64\tmp\ccetbcNa.s:7287   .debug_str:0000000000000066 .LASF67
C:\msys64\tmp\ccetbcNa.s:7405   .debug_str:00000000000003e0 .LASF68
C:\msys64\tmp\ccetbcNa.s:7525   .debug_str:0000000000000797 .LASF86
C:\msys64\tmp\ccetbcNa.s:7611   .debug_str:00000000000009d4 .LASF87
C:\msys64\tmp\ccetbcNa.s:7357   .debug_str:00000000000002a5 .LASF70
C:\msys64\tmp\ccetbcNa.s:7441   .debug_str:0000000000000513 .LASF72
C:\msys64\tmp\ccetbcNa.s:7361   .debug_str:00000000000002b2 .LASF73
C:\msys64\tmp\ccetbcNa.s:7475   .debug_str:0000000000000624 .LASF74
C:\msys64\tmp\ccetbcNa.s:7293   .debug_str:0000000000000098 .LASF111
C:\msys64\tmp\ccetbcNa.s:7595   .debug_str:0000000000000968 .LASF113
C:\msys64\tmp\ccetbcNa.s:7561   .debug_str:00000000000008ba .LASF75
C:\msys64\tmp\ccetbcNa.s:7575   .debug_str:00000000000008f7 .LASF76
C:\msys64\tmp\ccetbcNa.s:7403   .debug_str:00000000000003d7 .LASF78
C:\msys64\tmp\ccetbcNa.s:7553   .debug_str:0000000000000858 .LASF80
C:\msys64\tmp\ccetbcNa.s:7435   .debug_str:00000000000004ed .LASF81
GAS LISTING C:\msys64\tmp\ccetbcNa.s 			page 53


C:\msys64\tmp\ccetbcNa.s:7365   .debug_str:00000000000002c1 .LASF82
C:\msys64\tmp\ccetbcNa.s:7321   .debug_str:000000000000016f .LASF83
C:\msys64\tmp\ccetbcNa.s:7341   .debug_str:000000000000021a .LASF84
C:\msys64\tmp\ccetbcNa.s:7309   .debug_str:0000000000000115 .LASF85
C:\msys64\tmp\ccetbcNa.s:7529   .debug_str:00000000000007b9 .LASF88
C:\msys64\tmp\ccetbcNa.s:7409   .debug_str:0000000000000405 .LASF141
C:\msys64\tmp\ccetbcNa.s:7661   .debug_str:0000000000000c0b .LASF147
C:\msys64\tmp\ccetbcNa.s:7655   .debug_str:0000000000000bba .LASF89
C:\msys64\tmp\ccetbcNa.s:7465   .debug_str:00000000000005e6 .LASF90
C:\msys64\tmp\ccetbcNa.s:7289   .debug_str:000000000000007f .LASF91
C:\msys64\tmp\ccetbcNa.s:7573   .debug_str:00000000000008ef .LASF93
C:\msys64\tmp\ccetbcNa.s:7671   .debug_str:0000000000000c55 .LASF94
C:\msys64\tmp\ccetbcNa.s:7509   .debug_str:0000000000000728 .LASF95
C:\msys64\tmp\ccetbcNa.s:7569   .debug_str:00000000000008df .LASF96
C:\msys64\tmp\ccetbcNa.s:7417   .debug_str:0000000000000455 .LASF97
C:\msys64\tmp\ccetbcNa.s:7565   .debug_str:00000000000008c6 .LASF98
C:\msys64\tmp\ccetbcNa.s:7449   .debug_str:000000000000056c .LASF99
C:\msys64\tmp\ccetbcNa.s:7477   .debug_str:0000000000000642 .LASF201
C:\msys64\tmp\ccetbcNa.s:7585   .debug_str:0000000000000930 .LASF154
C:\msys64\tmp\ccetbcNa.s:7337   .debug_str:000000000000020c .LASF100
C:\msys64\tmp\ccetbcNa.s:7327   .debug_str:00000000000001a2 .LASF101
C:\msys64\tmp\ccetbcNa.s:7375   .debug_str:0000000000000300 .LASF102
C:\msys64\tmp\ccetbcNa.s:7325   .debug_str:0000000000000188 .LASF103
C:\msys64\tmp\ccetbcNa.s:7439   .debug_str:0000000000000506 .LASF104
C:\msys64\tmp\ccetbcNa.s:7335   .debug_str:00000000000001ef .LASF105
C:\msys64\tmp\ccetbcNa.s:7297   .debug_str:00000000000000c1 .LASF106
C:\msys64\tmp\ccetbcNa.s:7617   .debug_str:0000000000000a0e .LASF107
C:\msys64\tmp\ccetbcNa.s:7511   .debug_str:0000000000000738 .LASF108
C:\msys64\tmp\ccetbcNa.s:7299   .debug_str:00000000000000cd .LASF109
C:\msys64\tmp\ccetbcNa.s:7677   .debug_str:0000000000000c82 .LASF110
C:\msys64\tmp\ccetbcNa.s:7301   .debug_str:00000000000000e7 .LASF112
C:\msys64\tmp\ccetbcNa.s:7505   .debug_str:0000000000000702 .LASF114
C:\msys64\tmp\ccetbcNa.s:7373   .debug_str:00000000000002f2 .LASF202
C:\msys64\tmp\ccetbcNa.s:7429   .debug_str:000000000000049d .LASF203
C:\msys64\tmp\ccetbcNa.s:7467   .debug_str:00000000000005eb .LASF115
C:\msys64\tmp\ccetbcNa.s:7273   .debug_str:0000000000000016 .LASF116
C:\msys64\tmp\ccetbcNa.s:7667   .debug_str:0000000000000c38 .LASF117
C:\msys64\tmp\ccetbcNa.s:7547   .debug_str:0000000000000833 .LASF118
C:\msys64\tmp\ccetbcNa.s:7599   .debug_str:000000000000099b .LASF119
C:\msys64\tmp\ccetbcNa.s:7593   .debug_str:000000000000095e .LASF120
C:\msys64\tmp\ccetbcNa.s:7609   .debug_str:00000000000009cc .LASF121
C:\msys64\tmp\ccetbcNa.s:7549   .debug_str:0000000000000839 .LASF122
C:\msys64\tmp\ccetbcNa.s:7461   .debug_str:00000000000005d4 .LASF123
C:\msys64\tmp\ccetbcNa.s:7637   .debug_str:0000000000000b4a .LASF124
C:\msys64\tmp\ccetbcNa.s:7275   .debug_str:000000000000001b .LASF125
C:\msys64\tmp\ccetbcNa.s:7539   .debug_str:00000000000007f9 .LASF126
C:\msys64\tmp\ccetbcNa.s:7663   .debug_str:0000000000000c1f .LASF127
C:\msys64\tmp\ccetbcNa.s:7577   .debug_str:00000000000008fe .LASF128
C:\msys64\tmp\ccetbcNa.s:7679   .debug_str:0000000000000c9e .LASF129
C:\msys64\tmp\ccetbcNa.s:7303   .debug_str:00000000000000f5 .LASF130
C:\msys64\tmp\ccetbcNa.s:7339   .debug_str:0000000000000215 .LASF131
C:\msys64\tmp\ccetbcNa.s:7653   .debug_str:0000000000000baa .LASF132
C:\msys64\tmp\ccetbcNa.s:7571   .debug_str:00000000000008e8 .LASF133
C:\msys64\tmp\ccetbcNa.s:7555   .debug_str:000000000000088b .LASF134
C:\msys64\tmp\ccetbcNa.s:7285   .debug_str:0000000000000060 .LASF135
C:\msys64\tmp\ccetbcNa.s:7291   .debug_str:0000000000000087 .LASF136
C:\msys64\tmp\ccetbcNa.s:7485   .debug_str:000000000000067c .LASF137
GAS LISTING C:\msys64\tmp\ccetbcNa.s 			page 54


C:\msys64\tmp\ccetbcNa.s:7479   .debug_str:0000000000000647 .LASF138
C:\msys64\tmp\ccetbcNa.s:7363   .debug_str:00000000000002b8 .LASF139
C:\msys64\tmp\ccetbcNa.s:7391   .debug_str:0000000000000380 .LASF140
C:\msys64\tmp\ccetbcNa.s:7597   .debug_str:0000000000000984 .LASF204
C:\msys64\tmp\ccetbcNa.s:7419   .debug_str:0000000000000465 .LASF142
C:\msys64\tmp\ccetbcNa.s:7623   .debug_str:0000000000000a3a .LASF143
C:\msys64\tmp\ccetbcNa.s:7455   .debug_str:00000000000005ac .LASF144
C:\msys64\tmp\ccetbcNa.s:7445   .debug_str:0000000000000548 .LASF145
C:\msys64\tmp\ccetbcNa.s:7399   .debug_str:00000000000003b3 .LASF146
C:\msys64\tmp\ccetbcNa.s:7453   .debug_str:000000000000059a .LASF148
C:\msys64\tmp\ccetbcNa.s:7271   .debug_str:000000000000000f .LASF149
C:\msys64\tmp\ccetbcNa.s:7457   .debug_str:00000000000005b4 .LASF150
C:\msys64\tmp\ccetbcNa.s:7513   .debug_str:0000000000000743 .LASF151
C:\msys64\tmp\ccetbcNa.s:7557   .debug_str:000000000000089d .LASF152
C:\msys64\tmp\ccetbcNa.s:7267   .debug_str:0000000000000000 .LASF153
C:\msys64\tmp\ccetbcNa.s:7269   .debug_str:0000000000000006 .LASF155
C:\msys64\tmp\ccetbcNa.s:7545   .debug_str:000000000000082c .LASF156
C:\msys64\tmp\ccetbcNa.s:7579   .debug_str:0000000000000903 .LASF157
C:\msys64\tmp\ccetbcNa.s:7407   .debug_str:00000000000003fc .LASF158
C:\msys64\tmp\ccetbcNa.s:7499   .debug_str:00000000000006d2 .LASF159
C:\msys64\tmp\ccetbcNa.s:7437   .debug_str:00000000000004f2 .LASF160
C:\msys64\tmp\ccetbcNa.s:7447   .debug_str:0000000000000558 .LASF161
C:\msys64\tmp\ccetbcNa.s:7393   .debug_str:0000000000000394 .LASF162
C:\msys64\tmp\ccetbcNa.s:7581   .debug_str:0000000000000908 .LASF163
C:\msys64\tmp\ccetbcNa.s:7629   .debug_str:0000000000000a51 .LASF164
C:\msys64\tmp\ccetbcNa.s:7583   .debug_str:000000000000091c .LASF165
C:\msys64\tmp\ccetbcNa.s:7533   .debug_str:00000000000007d5 .LASF166
C:\msys64\tmp\ccetbcNa.s:7431   .debug_str:00000000000004c9 .LASF167
C:\msys64\tmp\ccetbcNa.s:7307   .debug_str:000000000000010a .LASF168
C:\msys64\tmp\ccetbcNa.s:7541   .debug_str:000000000000080a .LASF169
C:\msys64\tmp\ccetbcNa.s:7507   .debug_str:000000000000071f .LASF170
C:\msys64\tmp\ccetbcNa.s:7673   .debug_str:0000000000000c62 .LASF171
C:\msys64\tmp\ccetbcNa.s:7645   .debug_str:0000000000000b7a .LASF172
C:\msys64\tmp\ccetbcNa.s:7633   .debug_str:0000000000000a5e .LASF173
C:\msys64\tmp\ccetbcNa.s:7543   .debug_str:0000000000000825 .LASF174
C:\msys64\tmp\ccetbcNa.s:7305   .debug_str:0000000000000102 .LASF175
C:\msys64\tmp\ccetbcNa.s:7603   .debug_str:00000000000009b8 .LASF176
C:\msys64\tmp\ccetbcNa.s:7451   .debug_str:0000000000000593 .LASF177
C:\msys64\tmp\ccetbcNa.s:7347   .debug_str:0000000000000262 .LASF178
C:\msys64\tmp\ccetbcNa.s:7493   .debug_str:00000000000006ad .LASF179
C:\msys64\tmp\ccetbcNa.s:7519   .debug_str:0000000000000763 .LASF180
C:\msys64\tmp\ccetbcNa.s:1409   .text:0000000000000600 .LFE35
C:\msys64\tmp\ccetbcNa.s:5593   .debug_loc:0000000000000000 .LLST1
C:\msys64\tmp\ccetbcNa.s:5640   .debug_loc:00000000000000b4 .LLST2
C:\msys64\tmp\ccetbcNa.s:5706   .debug_loc:00000000000001b7 .LLST3
C:\msys64\tmp\ccetbcNa.s:5761   .debug_loc:0000000000000291 .LLST4
C:\msys64\tmp\ccetbcNa.s:5951   .debug_loc:000000000000055a .LLST5
C:\msys64\tmp\ccetbcNa.s:6139   .debug_loc:0000000000000822 .LLST6
C:\msys64\tmp\ccetbcNa.s:6153   .debug_loc:000000000000085b .LLST7
C:\msys64\tmp\ccetbcNa.s:6343   .debug_loc:0000000000000b24 .LLST8
C:\msys64\tmp\ccetbcNa.s:7559   .debug_str:00000000000008b3 .LASF181
C:\msys64\tmp\ccetbcNa.s:6533   .debug_loc:0000000000000ded .LLST9
C:\msys64\tmp\ccetbcNa.s:7225   .debug_ranges:0000000000000000 .Ldebug_ranges0
C:\msys64\tmp\ccetbcNa.s:7605   .debug_str:00000000000009be .LASF182
C:\msys64\tmp\ccetbcNa.s:6548   .debug_loc:0000000000000e36 .LLST25
C:\msys64\tmp\ccetbcNa.s:7589   .debug_str:0000000000000945 .LASF183
C:\msys64\tmp\ccetbcNa.s:7631   .debug_str:0000000000000a56 .LASF184
GAS LISTING C:\msys64\tmp\ccetbcNa.s 			page 55


C:\msys64\tmp\ccetbcNa.s:308    .text:00000000000000f8 .LBB202
C:\msys64\tmp\ccetbcNa.s:329    .text:0000000000000108 .LBE202
C:\msys64\tmp\ccetbcNa.s:7367   .debug_str:00000000000002cb .LASF185
C:\msys64\tmp\ccetbcNa.s:6576   .debug_loc:0000000000000e9b .LLST26
C:\msys64\tmp\ccetbcNa.s:317    .text:0000000000000104 .LBB203
C:\msys64\tmp\ccetbcNa.s:328    .text:0000000000000108 .LBE203
C:\msys64\tmp\ccetbcNa.s:6599   .debug_loc:0000000000000eec .LLST27
C:\msys64\tmp\ccetbcNa.s:6606   .debug_loc:0000000000000f0f .LLST28
C:\msys64\tmp\ccetbcNa.s:316    .text:0000000000000104 .LVL16
C:\msys64\tmp\ccetbcNa.s:409    .text:0000000000000148 .LBB207
C:\msys64\tmp\ccetbcNa.s:496    .text:00000000000001c4 .LBE207
C:\msys64\tmp\ccetbcNa.s:7649   .debug_str:0000000000000b8d .LASF186
C:\msys64\tmp\ccetbcNa.s:6614   .debug_loc:0000000000000f33 .LLST31
C:\msys64\tmp\ccetbcNa.s:6621   .debug_loc:0000000000000f56 .LLST32
C:\msys64\tmp\ccetbcNa.s:7665   .debug_str:0000000000000c2c .LASF187
C:\msys64\tmp\ccetbcNa.s:432    .text:0000000000000170 .LBB208
C:\msys64\tmp\ccetbcNa.s:457    .text:0000000000000198 .LBE208
C:\msys64\tmp\ccetbcNa.s:440    .text:000000000000017c .LBB210
C:\msys64\tmp\ccetbcNa.s:450    .text:000000000000018c .LBE210
C:\msys64\tmp\ccetbcNa.s:6628   .debug_loc:0000000000000f79 .LLST33
C:\msys64\tmp\ccetbcNa.s:465    .text:00000000000001ac .LBB213
C:\msys64\tmp\ccetbcNa.s:479    .text:00000000000001b8 .LBE213
C:\msys64\tmp\ccetbcNa.s:6637   .debug_loc:0000000000000fa5 .LLST34
C:\msys64\tmp\ccetbcNa.s:481    .text:00000000000001b8 .LBB215
C:\msys64\tmp\ccetbcNa.s:495    .text:00000000000001c4 .LBE215
C:\msys64\tmp\ccetbcNa.s:6645   .debug_loc:0000000000000fc9 .LLST36
C:\msys64\tmp\ccetbcNa.s:6654   .debug_loc:0000000000000fee .LLST37
C:\msys64\tmp\ccetbcNa.s:424    .text:0000000000000164 .LVL25
C:\msys64\tmp\ccetbcNa.s:462    .text:00000000000001ac .LVL28
C:\msys64\tmp\ccetbcNa.s:6662   .debug_loc:0000000000001012 .LLST44
C:\msys64\tmp\ccetbcNa.s:576    .text:0000000000000214 .LBB224
C:\msys64\tmp\ccetbcNa.s:589    .text:0000000000000224 .LBE224
C:\msys64\tmp\ccetbcNa.s:6680   .debug_loc:000000000000105e .LLST45
C:\msys64\tmp\ccetbcNa.s:6689   .debug_loc:0000000000001083 .LLST46
C:\msys64\tmp\ccetbcNa.s:583    .text:0000000000000220 .LVL40
C:\msys64\tmp\ccetbcNa.s:602    .text:0000000000000238 .LBB226
C:\msys64\tmp\ccetbcNa.s:616    .text:0000000000000244 .LBE226
C:\msys64\tmp\ccetbcNa.s:6704   .debug_loc:00000000000010cc .LLST47
C:\msys64\tmp\ccetbcNa.s:618    .text:0000000000000244 .LBB228
C:\msys64\tmp\ccetbcNa.s:632    .text:0000000000000250 .LBE228
C:\msys64\tmp\ccetbcNa.s:6712   .debug_loc:00000000000010f0 .LLST49
C:\msys64\tmp\ccetbcNa.s:6721   .debug_loc:0000000000001115 .LLST50
C:\msys64\tmp\ccetbcNa.s:594    .text:0000000000000230 .LVL42
C:\msys64\tmp\ccetbcNa.s:1399   .text:00000000000005f4 .LVL125
C:\msys64\tmp\ccetbcNa.s:636    .text:0000000000000250 .LBB230
C:\msys64\tmp\ccetbcNa.s:682    .text:0000000000000280 .LBE230
C:\msys64\tmp\ccetbcNa.s:6729   .debug_loc:0000000000001139 .LLST51
C:\msys64\tmp\ccetbcNa.s:642    .text:0000000000000254 .LBB231
C:\msys64\tmp\ccetbcNa.s:656    .text:0000000000000260 .LBE231
C:\msys64\tmp\ccetbcNa.s:6736   .debug_loc:000000000000115c .LLST52
C:\msys64\tmp\ccetbcNa.s:6745   .debug_loc:0000000000001181 .LLST53
C:\msys64\tmp\ccetbcNa.s:663    .text:000000000000026c .LBB233
C:\msys64\tmp\ccetbcNa.s:673    .text:0000000000000270 .LBE233
C:\msys64\tmp\ccetbcNa.s:6753   .debug_loc:00000000000011a5 .LLST54
C:\msys64\tmp\ccetbcNa.s:6760   .debug_loc:00000000000011c8 .LLST55
C:\msys64\tmp\ccetbcNa.s:662    .text:000000000000026c .LVL48
C:\msys64\tmp\ccetbcNa.s:678    .text:000000000000027c .LVL50
GAS LISTING C:\msys64\tmp\ccetbcNa.s 			page 56


C:\msys64\tmp\ccetbcNa.s:685    .text:0000000000000280 .LBB235
C:\msys64\tmp\ccetbcNa.s:725    .text:00000000000002a4 .LBE235
C:\msys64\tmp\ccetbcNa.s:6768   .debug_loc:00000000000011ec .LLST56
C:\msys64\tmp\ccetbcNa.s:691    .text:0000000000000284 .LBB236
C:\msys64\tmp\ccetbcNa.s:705    .text:0000000000000290 .LBE236
C:\msys64\tmp\ccetbcNa.s:6775   .debug_loc:000000000000120f .LLST57
C:\msys64\tmp\ccetbcNa.s:6784   .debug_loc:0000000000001234 .LLST58
C:\msys64\tmp\ccetbcNa.s:711    .text:000000000000029c .LBB238
C:\msys64\tmp\ccetbcNa.s:724    .text:00000000000002a4 .LBE238
C:\msys64\tmp\ccetbcNa.s:6792   .debug_loc:0000000000001258 .LLST59
C:\msys64\tmp\ccetbcNa.s:6799   .debug_loc:000000000000127b .LLST60
C:\msys64\tmp\ccetbcNa.s:710    .text:000000000000029c .LVL54
C:\msys64\tmp\ccetbcNa.s:728    .text:00000000000002a4 .LBB240
C:\msys64\tmp\ccetbcNa.s:768    .text:00000000000002c8 .LBE240
C:\msys64\tmp\ccetbcNa.s:6807   .debug_loc:000000000000129f .LLST61
C:\msys64\tmp\ccetbcNa.s:734    .text:00000000000002a8 .LBB241
C:\msys64\tmp\ccetbcNa.s:748    .text:00000000000002b4 .LBE241
C:\msys64\tmp\ccetbcNa.s:6814   .debug_loc:00000000000012c2 .LLST62
C:\msys64\tmp\ccetbcNa.s:6823   .debug_loc:00000000000012e7 .LLST63
C:\msys64\tmp\ccetbcNa.s:754    .text:00000000000002c0 .LBB243
C:\msys64\tmp\ccetbcNa.s:767    .text:00000000000002c8 .LBE243
C:\msys64\tmp\ccetbcNa.s:6831   .debug_loc:000000000000130b .LLST64
C:\msys64\tmp\ccetbcNa.s:6838   .debug_loc:000000000000132e .LLST65
C:\msys64\tmp\ccetbcNa.s:753    .text:00000000000002c0 .LVL58
C:\msys64\tmp\ccetbcNa.s:771    .text:00000000000002c8 .LBB245
C:\msys64\tmp\ccetbcNa.s:815    .text:00000000000002f0 .LBE245
C:\msys64\tmp\ccetbcNa.s:6846   .debug_loc:0000000000001352 .LLST66
C:\msys64\tmp\ccetbcNa.s:6853   .debug_loc:0000000000001375 .LLST67
C:\msys64\tmp\ccetbcNa.s:781    .text:00000000000002d0 .LBB246
C:\msys64\tmp\ccetbcNa.s:795    .text:00000000000002dc .LBE246
C:\msys64\tmp\ccetbcNa.s:6864   .debug_loc:00000000000013ab .LLST68
C:\msys64\tmp\ccetbcNa.s:6873   .debug_loc:00000000000013d0 .LLST69
C:\msys64\tmp\ccetbcNa.s:801    .text:00000000000002e8 .LBB248
C:\msys64\tmp\ccetbcNa.s:814    .text:00000000000002f0 .LBE248
C:\msys64\tmp\ccetbcNa.s:6881   .debug_loc:00000000000013f4 .LLST70
C:\msys64\tmp\ccetbcNa.s:6888   .debug_loc:0000000000001417 .LLST71
C:\msys64\tmp\ccetbcNa.s:800    .text:00000000000002e8 .LVL63
C:\msys64\tmp\ccetbcNa.s:818    .text:00000000000002f0 .LBB250
C:\msys64\tmp\ccetbcNa.s:862    .text:0000000000000318 .LBE250
C:\msys64\tmp\ccetbcNa.s:6896   .debug_loc:000000000000143b .LLST72
C:\msys64\tmp\ccetbcNa.s:6903   .debug_loc:000000000000145e .LLST73
C:\msys64\tmp\ccetbcNa.s:828    .text:00000000000002f8 .LBB251
C:\msys64\tmp\ccetbcNa.s:842    .text:0000000000000304 .LBE251
C:\msys64\tmp\ccetbcNa.s:6914   .debug_loc:0000000000001494 .LLST74
C:\msys64\tmp\ccetbcNa.s:6923   .debug_loc:00000000000014b9 .LLST75
C:\msys64\tmp\ccetbcNa.s:848    .text:0000000000000310 .LBB253
C:\msys64\tmp\ccetbcNa.s:861    .text:0000000000000318 .LBE253
C:\msys64\tmp\ccetbcNa.s:6931   .debug_loc:00000000000014dd .LLST76
C:\msys64\tmp\ccetbcNa.s:6938   .debug_loc:0000000000001500 .LLST77
C:\msys64\tmp\ccetbcNa.s:847    .text:0000000000000310 .LVL68
C:\msys64\tmp\ccetbcNa.s:908    .text:0000000000000344 .LBB259
C:\msys64\tmp\ccetbcNa.s:928    .text:0000000000000354 .LBE259
C:\msys64\tmp\ccetbcNa.s:6946   .debug_loc:0000000000001524 .LLST82
C:\msys64\tmp\ccetbcNa.s:914    .text:000000000000034c .LBB260
C:\msys64\tmp\ccetbcNa.s:927    .text:0000000000000354 .LBE260
C:\msys64\tmp\ccetbcNa.s:6953   .debug_loc:0000000000001547 .LLST84
C:\msys64\tmp\ccetbcNa.s:912    .text:000000000000034c .LVL73
GAS LISTING C:\msys64\tmp\ccetbcNa.s 			page 57


C:\msys64\tmp\ccetbcNa.s:931    .text:0000000000000354 .LBB262
C:\msys64\tmp\ccetbcNa.s:942    .text:0000000000000364 .LBE262
C:\msys64\tmp\ccetbcNa.s:6961   .debug_loc:000000000000156b .LLST85
C:\msys64\tmp\ccetbcNa.s:937    .text:0000000000000360 .LVL75
C:\msys64\tmp\ccetbcNa.s:184    .text:00000000000000b0 .LBB197
C:\msys64\tmp\ccetbcNa.s:198    .text:00000000000000bc .LBE197
C:\msys64\tmp\ccetbcNa.s:204    .text:00000000000000c4 .LBB199
C:\msys64\tmp\ccetbcNa.s:218    .text:00000000000000d0 .LBE199
C:\msys64\tmp\ccetbcNa.s:393    .text:0000000000000140 .LBB205
C:\msys64\tmp\ccetbcNa.s:406    .text:0000000000000148 .LBE205
C:\msys64\tmp\ccetbcNa.s:6968   .debug_loc:000000000000158e .LLST29
C:\msys64\tmp\ccetbcNa.s:6975   .debug_loc:00000000000015b1 .LLST30
C:\msys64\tmp\ccetbcNa.s:509    .text:00000000000001d8 .LBB217
C:\msys64\tmp\ccetbcNa.s:519    .text:00000000000001e0 .LBE217
C:\msys64\tmp\ccetbcNa.s:6983   .debug_loc:00000000000015d5 .LLST38
C:\msys64\tmp\ccetbcNa.s:6991   .debug_loc:00000000000015f9 .LLST39
C:\msys64\tmp\ccetbcNa.s:521    .text:00000000000001e0 .LBB219
C:\msys64\tmp\ccetbcNa.s:533    .text:00000000000001e8 .LBE219
C:\msys64\tmp\ccetbcNa.s:6998   .debug_loc:000000000000161c .LLST40
C:\msys64\tmp\ccetbcNa.s:543    .text:00000000000001f4 .LBB221
C:\msys64\tmp\ccetbcNa.s:557    .text:0000000000000200 .LBE221
C:\msys64\tmp\ccetbcNa.s:7006   .debug_loc:0000000000001640 .LLST42
C:\msys64\tmp\ccetbcNa.s:7015   .debug_loc:0000000000001665 .LLST43
C:\msys64\tmp\ccetbcNa.s:875    .text:000000000000032c .LBB255
C:\msys64\tmp\ccetbcNa.s:889    .text:0000000000000338 .LBE255
C:\msys64\tmp\ccetbcNa.s:7023   .debug_loc:0000000000001689 .LLST78
C:\msys64\tmp\ccetbcNa.s:891    .text:0000000000000338 .LBB257
C:\msys64\tmp\ccetbcNa.s:905    .text:0000000000000344 .LBE257
C:\msys64\tmp\ccetbcNa.s:7031   .debug_loc:00000000000016ad .LLST80
C:\msys64\tmp\ccetbcNa.s:7040   .debug_loc:00000000000016d2 .LLST81
C:\msys64\tmp\ccetbcNa.s:335    .text:000000000000010c .LBB264
C:\msys64\tmp\ccetbcNa.s:345    .text:0000000000000110 .LBE264
C:\msys64\tmp\ccetbcNa.s:7048   .debug_loc:00000000000016f6 .LLST86
C:\msys64\tmp\ccetbcNa.s:350    .text:0000000000000114 .LBB266
C:\msys64\tmp\ccetbcNa.s:361    .text:0000000000000118 .LBE266
C:\msys64\tmp\ccetbcNa.s:7055   .debug_loc:0000000000001719 .LLST87
C:\msys64\tmp\ccetbcNa.s:392    .text:0000000000000140 .LVL23
C:\msys64\tmp\ccetbcNa.s:537    .text:00000000000001f0 .LVL35
C:\msys64\tmp\ccetbcNa.s:566    .text:0000000000000210 .LVL38
C:\msys64\tmp\ccetbcNa.s:873    .text:000000000000032c .LVL70
C:\msys64\tmp\ccetbcNa.s:7062   .debug_loc:000000000000173c .LLST22
C:\msys64\tmp\ccetbcNa.s:995    .text:00000000000003b8 .LBB180
C:\msys64\tmp\ccetbcNa.s:1032   .text:00000000000003fc .LBE180
C:\msys64\tmp\ccetbcNa.s:7069   .debug_loc:000000000000175f .LLST23
C:\msys64\tmp\ccetbcNa.s:1004   .text:00000000000003c8 .LBB181
C:\msys64\tmp\ccetbcNa.s:1012   .text:00000000000003d0 .LBE181
C:\msys64\tmp\ccetbcNa.s:1009   .text:00000000000003d0 .LVL84
C:\msys64\tmp\ccetbcNa.s:1019   .text:00000000000003e4 .LBB183
C:\msys64\tmp\ccetbcNa.s:1027   .text:00000000000003ec .LBE183
C:\msys64\tmp\ccetbcNa.s:1024   .text:00000000000003ec .LVL86
C:\msys64\tmp\ccetbcNa.s:1017   .text:00000000000003e4 .LVL85
C:\msys64\tmp\ccetbcNa.s:1031   .text:00000000000003fc .LVL87
C:\msys64\tmp\ccetbcNa.s:1059   .text:0000000000000428 .LBB187
C:\msys64\tmp\ccetbcNa.s:1092   .text:0000000000000464 .LBE187
C:\msys64\tmp\ccetbcNa.s:7076   .debug_loc:0000000000001782 .LLST24
C:\msys64\tmp\ccetbcNa.s:1061   .text:0000000000000428 .LBB188
C:\msys64\tmp\ccetbcNa.s:1069   .text:0000000000000430 .LBE188
GAS LISTING C:\msys64\tmp\ccetbcNa.s 			page 58


C:\msys64\tmp\ccetbcNa.s:1066   .text:0000000000000430 .LVL91
C:\msys64\tmp\ccetbcNa.s:1079   .text:000000000000044c .LBB190
C:\msys64\tmp\ccetbcNa.s:1087   .text:0000000000000454 .LBE190
C:\msys64\tmp\ccetbcNa.s:1084   .text:0000000000000454 .LVL93
C:\msys64\tmp\ccetbcNa.s:1073   .text:0000000000000440 .LVL92
C:\msys64\tmp\ccetbcNa.s:1091   .text:0000000000000464 .LVL94
C:\msys64\tmp\ccetbcNa.s:979    .text:000000000000039c .LBB178
C:\msys64\tmp\ccetbcNa.s:988    .text:00000000000003a4 .LBE178
C:\msys64\tmp\ccetbcNa.s:985    .text:00000000000003a4 .LVL81
C:\msys64\tmp\ccetbcNa.s:1044   .text:000000000000040c .LBB185
C:\msys64\tmp\ccetbcNa.s:1052   .text:0000000000000414 .LBE185
C:\msys64\tmp\ccetbcNa.s:1049   .text:0000000000000414 .LVL89
C:\msys64\tmp\ccetbcNa.s:950    .text:000000000000036c .LVL77
C:\msys64\tmp\ccetbcNa.s:964    .text:0000000000000384 .LVL80
C:\msys64\tmp\ccetbcNa.s:992    .text:00000000000003b4 .LVL82
C:\msys64\tmp\ccetbcNa.s:1056   .text:0000000000000424 .LVL90
C:\msys64\tmp\ccetbcNa.s:7083   .debug_loc:00000000000017a5 .LLST16
C:\msys64\tmp\ccetbcNa.s:1129   .text:000000000000049c .LBB151
C:\msys64\tmp\ccetbcNa.s:1173   .text:00000000000004e4 .LBB153
C:\msys64\tmp\ccetbcNa.s:1183   .text:00000000000004f4 .LBE153
C:\msys64\tmp\ccetbcNa.s:7094   .debug_loc:00000000000017db .LLST17
C:\msys64\tmp\ccetbcNa.s:1137   .text:00000000000004ac .LVL98
C:\msys64\tmp\ccetbcNa.s:1232   .text:0000000000000528 .LBB162
C:\msys64\tmp\ccetbcNa.s:1309   .text:000000000000056c .LBE162
C:\msys64\tmp\ccetbcNa.s:1234   .text:0000000000000528 .LBB163
C:\msys64\tmp\ccetbcNa.s:1248   .text:0000000000000534 .LBE163
C:\msys64\tmp\ccetbcNa.s:1252   .text:0000000000000538 .LBB165
C:\msys64\tmp\ccetbcNa.s:1266   .text:0000000000000544 .LBE165
C:\msys64\tmp\ccetbcNa.s:1280   .text:000000000000055c .LBB167
C:\msys64\tmp\ccetbcNa.s:1290   .text:0000000000000560 .LBE167
C:\msys64\tmp\ccetbcNa.s:7103   .debug_loc:0000000000001807 .LLST19
C:\msys64\tmp\ccetbcNa.s:1295   .text:0000000000000564 .LBB169
C:\msys64\tmp\ccetbcNa.s:1308   .text:000000000000056c .LBE169
C:\msys64\tmp\ccetbcNa.s:7110   .debug_loc:000000000000182a .LLST20
C:\msys64\tmp\ccetbcNa.s:1275   .text:0000000000000558 .LVL107
C:\msys64\tmp\ccetbcNa.s:7117   .debug_loc:000000000000184d .LLST10
C:\msys64\tmp\ccetbcNa.s:156    .text:000000000000008c .LBB142
C:\msys64\tmp\ccetbcNa.s:176    .text:00000000000000b0 .LBE142
C:\msys64\tmp\ccetbcNa.s:7128   .debug_loc:0000000000001883 .LLST11
C:\msys64\tmp\ccetbcNa.s:168    .text:00000000000000a4 .LVL8
C:\msys64\tmp\ccetbcNa.s:1313   .text:000000000000056c .LBB143
C:\msys64\tmp\ccetbcNa.s:1344   .text:00000000000005a0 .LBE143
C:\msys64\tmp\ccetbcNa.s:7145   .debug_loc:00000000000018d5 .LLST12
C:\msys64\tmp\ccetbcNa.s:1320   .text:0000000000000574 .LBB144
C:\msys64\tmp\ccetbcNa.s:1337   .text:0000000000000598 .LBE144
C:\msys64\tmp\ccetbcNa.s:7156   .debug_loc:000000000000190b .LLST13
C:\msys64\tmp\ccetbcNa.s:1336   .text:0000000000000598 .LVL114
C:\msys64\tmp\ccetbcNa.s:1351   .text:00000000000005ac .LBB145
C:\msys64\tmp\ccetbcNa.s:1382   .text:00000000000005e0 .LBE145
C:\msys64\tmp\ccetbcNa.s:7164   .debug_loc:000000000000192f .LLST14
C:\msys64\tmp\ccetbcNa.s:1358   .text:00000000000005b4 .LBB146
C:\msys64\tmp\ccetbcNa.s:1375   .text:00000000000005d8 .LBE146
C:\msys64\tmp\ccetbcNa.s:7180   .debug_loc:0000000000001979 .LLST15
C:\msys64\tmp\ccetbcNa.s:1374   .text:00000000000005d8 .LVL120
C:\msys64\tmp\ccetbcNa.s:139    .text:0000000000000080 .LBB140
C:\msys64\tmp\ccetbcNa.s:154    .text:000000000000008c .LBE140
C:\msys64\tmp\ccetbcNa.s:1349   .text:00000000000005ac .LVL117
GAS LISTING C:\msys64\tmp\ccetbcNa.s 			page 59


C:\msys64\tmp\ccetbcNa.s:94     .text:0000000000000048 .LBB134
C:\msys64\tmp\ccetbcNa.s:110    .text:0000000000000054 .LBE134
C:\msys64\tmp\ccetbcNa.s:1200   .text:000000000000050c .LBB160
C:\msys64\tmp\ccetbcNa.s:1207   .text:0000000000000510 .LBE160
C:\msys64\tmp\ccetbcNa.s:7188   .debug_loc:000000000000199d .LLST18
C:\msys64\tmp\ccetbcNa.s:1216   .text:000000000000051c .LBB171
C:\msys64\tmp\ccetbcNa.s:1230   .text:0000000000000528 .LBE171
C:\msys64\tmp\ccetbcNa.s:7195   .debug_loc:00000000000019c0 .LLST21
C:\msys64\tmp\ccetbcNa.s:1402   .text:0000000000000600 .LVL126
C:\msys64\tmp\ccetbcNa.s:13     .text:0000000000000000 .LFB34
C:\msys64\tmp\ccetbcNa.s:58     .text:0000000000000028 .LFE34
C:\msys64\tmp\ccetbcNa.s:31     .text:0000000000000010 .LBB132
C:\msys64\tmp\ccetbcNa.s:43     .text:0000000000000018 .LBE132
C:\msys64\tmp\ccetbcNa.s:7203   .debug_loc:00000000000019e4 .LLST0
C:\msys64\tmp\ccetbcNa.s:7359   .debug_str:00000000000002ad .LASF188
C:\msys64\tmp\ccetbcNa.s:7381   .debug_str:0000000000000331 .LASF205
C:\msys64\tmp\ccetbcNa.s:7295   .debug_str:000000000000009d .LASF206
C:\msys64\tmp\ccetbcNa.s:7459   .debug_str:00000000000005c9 .LASF189
C:\msys64\tmp\ccetbcNa.s:7383   .debug_str:0000000000000343 .LASF190
C:\msys64\tmp\ccetbcNa.s:7371   .debug_str:00000000000002ed .LASF191
C:\msys64\tmp\ccetbcNa.s:7619   .debug_str:0000000000000a29 .LASF194
C:\msys64\tmp\ccetbcNa.s:7659   .debug_str:0000000000000bfb .LASF196
C:\msys64\tmp\ccetbcNa.s:7433   .debug_str:00000000000004e2 .LASF192
C:\msys64\tmp\ccetbcNa.s:7489   .debug_str:0000000000000698 .LASF193
C:\msys64\tmp\ccetbcNa.s:7613   .debug_str:00000000000009f0 .LASF195
C:\msys64\tmp\ccetbcNa.s:7331   .debug_str:00000000000001c5 .LASF197
C:\msys64\tmp\ccetbcNa.s:77     .text:0000000000000028 .LVL2
C:\msys64\tmp\ccetbcNa.s:159    .text:0000000000000094 .LVL7
C:\msys64\tmp\ccetbcNa.s:173    .text:00000000000000ac .LVL10
C:\msys64\tmp\ccetbcNa.s:226    .text:00000000000000e0 .LVL13
C:\msys64\tmp\ccetbcNa.s:940    .text:0000000000000364 .LVL76
C:\msys64\tmp\ccetbcNa.s:1095   .text:0000000000000468 .LVL95
C:\msys64\tmp\ccetbcNa.s:1126   .text:000000000000049c .LVL97
C:\msys64\tmp\ccetbcNa.s:224    .text:00000000000000dc .LVL12
C:\msys64\tmp\ccetbcNa.s:357    .text:0000000000000118 .LVL21
C:\msys64\tmp\ccetbcNa.s:380    .text:0000000000000134 .LVL22
C:\msys64\tmp\ccetbcNa.s:1386   .text:00000000000005e4 .LVL123
C:\msys64\tmp\ccetbcNa.s:1396   .text:00000000000005e8 .LVL124
C:\msys64\tmp\ccetbcNa.s:115    .text:0000000000000058 .LVL5
C:\msys64\tmp\ccetbcNa.s:152    .text:000000000000008c .LVL6
C:\msys64\tmp\ccetbcNa.s:952    .text:0000000000000370 .LVL78
C:\msys64\tmp\ccetbcNa.s:1305   .text:000000000000056c .LVL111
C:\msys64\tmp\ccetbcNa.s:403    .text:0000000000000148 .LVL24
C:\msys64\tmp\ccetbcNa.s:492    .text:00000000000001c4 .LVL30
C:\msys64\tmp\ccetbcNa.s:540    .text:00000000000001f4 .LVL36
C:\msys64\tmp\ccetbcNa.s:569    .text:0000000000000214 .LVL39
C:\msys64\tmp\ccetbcNa.s:629    .text:0000000000000250 .LVL45
C:\msys64\tmp\ccetbcNa.s:680    .text:0000000000000280 .LVL51
C:\msys64\tmp\ccetbcNa.s:721    .text:00000000000002a4 .LVL55
C:\msys64\tmp\ccetbcNa.s:764    .text:00000000000002c8 .LVL59
C:\msys64\tmp\ccetbcNa.s:811    .text:00000000000002f0 .LVL64
C:\msys64\tmp\ccetbcNa.s:858    .text:0000000000000318 .LVL69
C:\msys64\tmp\ccetbcNa.s:886    .text:0000000000000338 .LVL71
C:\msys64\tmp\ccetbcNa.s:924    .text:0000000000000354 .LVL74
C:\msys64\tmp\ccetbcNa.s:515    .text:00000000000001dc .LVL32
C:\msys64\tmp\ccetbcNa.s:1105   .text:0000000000000470 .LVL96
C:\msys64\tmp\ccetbcNa.s:102    .text:000000000000004c .LVL3
GAS LISTING C:\msys64\tmp\ccetbcNa.s 			page 60


C:\msys64\tmp\ccetbcNa.s:108    .text:0000000000000054 .LVL4
C:\msys64\tmp\ccetbcNa.s:324    .text:0000000000000108 .LVL17
C:\msys64\tmp\ccetbcNa.s:586    .text:0000000000000224 .LVL41
C:\msys64\tmp\ccetbcNa.s:182    .text:00000000000000b0 .LVL11
C:\msys64\tmp\ccetbcNa.s:310    .text:00000000000000f8 .LVL14
C:\msys64\tmp\ccetbcNa.s:314    .text:00000000000000fc .LVL15
C:\msys64\tmp\ccetbcNa.s:439    .text:000000000000017c .LVL26
C:\msys64\tmp\ccetbcNa.s:447    .text:000000000000018c .LVL27
C:\msys64\tmp\ccetbcNa.s:476    .text:00000000000001b8 .LVL29
C:\msys64\tmp\ccetbcNa.s:601    .text:0000000000000238 .LVL43
C:\msys64\tmp\ccetbcNa.s:613    .text:0000000000000244 .LVL44
C:\msys64\tmp\ccetbcNa.s:641    .text:0000000000000254 .LVL46
C:\msys64\tmp\ccetbcNa.s:653    .text:0000000000000260 .LVL47
C:\msys64\tmp\ccetbcNa.s:670    .text:0000000000000270 .LVL49
C:\msys64\tmp\ccetbcNa.s:690    .text:0000000000000284 .LVL52
C:\msys64\tmp\ccetbcNa.s:702    .text:0000000000000290 .LVL53
C:\msys64\tmp\ccetbcNa.s:733    .text:00000000000002a8 .LVL56
C:\msys64\tmp\ccetbcNa.s:745    .text:00000000000002b4 .LVL57
C:\msys64\tmp\ccetbcNa.s:776    .text:00000000000002cc .LVL60
C:\msys64\tmp\ccetbcNa.s:780    .text:00000000000002d0 .LVL61
C:\msys64\tmp\ccetbcNa.s:792    .text:00000000000002dc .LVL62
C:\msys64\tmp\ccetbcNa.s:823    .text:00000000000002f4 .LVL65
C:\msys64\tmp\ccetbcNa.s:827    .text:00000000000002f8 .LVL66
C:\msys64\tmp\ccetbcNa.s:839    .text:0000000000000304 .LVL67
C:\msys64\tmp\ccetbcNa.s:508    .text:00000000000001d8 .LVL31
C:\msys64\tmp\ccetbcNa.s:517    .text:00000000000001e0 .LVL33
C:\msys64\tmp\ccetbcNa.s:529    .text:00000000000001e8 .LVL34
C:\msys64\tmp\ccetbcNa.s:554    .text:0000000000000200 .LVL37
C:\msys64\tmp\ccetbcNa.s:902    .text:0000000000000344 .LVL72
C:\msys64\tmp\ccetbcNa.s:334    .text:000000000000010c .LVL18
C:\msys64\tmp\ccetbcNa.s:342    .text:0000000000000110 .LVL19
C:\msys64\tmp\ccetbcNa.s:349    .text:0000000000000114 .LVL20
C:\msys64\tmp\ccetbcNa.s:957    .text:0000000000000378 .LVL79
C:\msys64\tmp\ccetbcNa.s:1002   .text:00000000000003c8 .LVL83
C:\msys64\tmp\ccetbcNa.s:1035   .text:0000000000000400 .LVL88
C:\msys64\tmp\ccetbcNa.s:1152   .text:00000000000004c0 .LVL99
C:\msys64\tmp\ccetbcNa.s:1188   .text:0000000000000504 .LVL102
C:\msys64\tmp\ccetbcNa.s:1172   .text:00000000000004e4 .LVL100
C:\msys64\tmp\ccetbcNa.s:1180   .text:00000000000004f4 .LVL101
C:\msys64\tmp\ccetbcNa.s:1279   .text:000000000000055c .LVL108
C:\msys64\tmp\ccetbcNa.s:1287   .text:0000000000000560 .LVL109
C:\msys64\tmp\ccetbcNa.s:1294   .text:0000000000000564 .LVL110
C:\msys64\tmp\ccetbcNa.s:1316   .text:0000000000000570 .LVL112
C:\msys64\tmp\ccetbcNa.s:1340   .text:000000000000059c .LVL115
C:\msys64\tmp\ccetbcNa.s:1342   .text:00000000000005a0 .LVL116
C:\msys64\tmp\ccetbcNa.s:1354   .text:00000000000005b0 .LVL118
C:\msys64\tmp\ccetbcNa.s:1331   .text:000000000000058c .LVL113
C:\msys64\tmp\ccetbcNa.s:1378   .text:00000000000005dc .LVL121
C:\msys64\tmp\ccetbcNa.s:1380   .text:00000000000005e0 .LVL122
C:\msys64\tmp\ccetbcNa.s:1369   .text:00000000000005cc .LVL119
C:\msys64\tmp\ccetbcNa.s:1199   .text:000000000000050c .LVL103
C:\msys64\tmp\ccetbcNa.s:1205   .text:0000000000000510 .LVL104
C:\msys64\tmp\ccetbcNa.s:1215   .text:000000000000051c .LVL105
C:\msys64\tmp\ccetbcNa.s:1227   .text:0000000000000528 .LVL106
C:\msys64\tmp\ccetbcNa.s:29     .text:0000000000000010 .LVL0
C:\msys64\tmp\ccetbcNa.s:40     .text:0000000000000018 .LVL1
C:\msys64\tmp\ccetbcNa.s:1451   .debug_info:0000000000000000 .Ldebug_info0
GAS LISTING C:\msys64\tmp\ccetbcNa.s 			page 61


C:\msys64\tmp\ccetbcNa.s:137    .text:0000000000000080 .LBB139
C:\msys64\tmp\ccetbcNa.s:177    .text:00000000000000b0 .LBE139
C:\msys64\tmp\ccetbcNa.s:1312   .text:000000000000056c .LBB174
C:\msys64\tmp\ccetbcNa.s:1388   .text:00000000000005e4 .LBE174
C:\msys64\tmp\ccetbcNa.s:1128   .text:000000000000049c .LBB150
C:\msys64\tmp\ccetbcNa.s:1139   .text:00000000000004ac .LBE150
C:\msys64\tmp\ccetbcNa.s:1150   .text:00000000000004c0 .LBB158
C:\msys64\tmp\ccetbcNa.s:1192   .text:0000000000000504 .LBE158
C:\msys64\tmp\ccetbcNa.s:1133   .text:000000000000049c .LBE151
C:\msys64\tmp\ccetbcNa.s:1166   .text:00000000000004d8 .LBB157
C:\msys64\tmp\ccetbcNa.s:1191   .text:0000000000000504 .LBE157
C:\msys64\tmp\ccetbcNa.s:946    .text:0000000000000364 .LBB175
C:\msys64\tmp\ccetbcNa.s:965    .text:0000000000000384 .LBE175
C:\msys64\tmp\ccetbcNa.s:968    .text:0000000000000388 .LBB193
C:\msys64\tmp\ccetbcNa.s:1099   .text:0000000000000468 .LBE193
C:\msys64\tmp\ccetbcNa.s:180    .text:00000000000000b0 .LBB196
C:\msys64\tmp\ccetbcNa.s:362    .text:0000000000000118 .LBE196
C:\msys64\tmp\ccetbcNa.s:384    .text:0000000000000134 .LBB270
C:\msys64\tmp\ccetbcNa.s:944    .text:0000000000000364 .LBE270
C:\msys64\tmp\ccetbcNa.s:1391   .text:00000000000005e4 .LBB272
C:\msys64\tmp\ccetbcNa.s:1406   .text:0000000000000600 .LBE272
C:\msys64\tmp\ccetbcNa.s:573    .text:0000000000000214 .LBB223
C:\msys64\tmp\ccetbcNa.s:633    .text:0000000000000250 .LBE223
C:\msys64\tmp\ccetbcNa.s:1393   .text:00000000000005e4 .LBB263
C:\msys64\tmp\ccetbcNa.s:1404   .text:0000000000000600 .LBE263
C:\msys64\tmp\ccetbcNa.s:1412   .gcc_except_table:0000000000000000 .LLSDA35

UNDEFINED SYMBOLS
_ZN8_console4putcEc
_ZN15MemoryAllocator7kmallocEm
_ZN15MemoryAllocator5kfreeEPv
_ZN7_thread12createThreadEPFvPvES0_S0_
_ZN9Scheduler3putEP7_thread
_ZN7_thread16timeSliceCounterE
_ZN7_thread7runningE
_ZN7_thread8dispatchEv
_ZN4_semC1Ei
_ZN4_sem5closeEv
_ZdlPv
_ZN4_sem4waitEv
_ZN4_sem6signalEv
_ZN4_sem6wait_nEj
_ZN4_sem8signal_nEj
_ZN7_thread10time_sleepEm
_ZN8_console4getcEv
plic_claim
plic_complete
CONSOLE_STATUS
_ZN8_console10ensureInitEv
_ZN8_console6inbuffE
_ZN7kBuffer6isFullEv
CONSOLE_RX_DATA
_ZN7kBuffer3putEc
_ZN8_console5inSemE
_ZN8_console7outbuffE
_ZN7kBuffer7isEmptyEv
_ZN7kBuffer3getEv
GAS LISTING C:\msys64\tmp\ccetbcNa.s 			page 62


CONSOLE_TX_DATA
_ZN8_console6outSemE
_ZN7_thread12sleepingHeadE
_Unwind_Resume
__gxx_personality_v0
