GAS LISTING /tmp/cctLfbcG.s 			page 1


   1              		.file	"riscv.cpp"
   2              		.option pic
   3              		.option norelax
   4              		.text
   5              	.Ltext0:
   6              		.align	2
   7              		.globl	_ZN5Riscv10popSppSpieEv
   9              	_ZN5Riscv10popSppSpieEv:
  10              	.LFB31:
  11              		.file 1 "src/riscv.cpp"
   1:src/riscv.cpp **** #include "../h/riscv.h"
   2:src/riscv.cpp **** #include "../lib/console.h"
   3:src/riscv.cpp **** #include "../h/MemoryAllocator.h"
   4:src/riscv.cpp **** #include "../h/Thread.h"
   5:src/riscv.cpp **** 
   6:src/riscv.cpp **** void Riscv::popSppSpie(){
  12              		.loc 1 6 25
  13              		.cfi_startproc
  14 0000 130101FF 		addi	sp,sp,-16
  15              		.cfi_def_cfa_offset 16
  16 0004 23348100 		sd	s0,8(sp)
  17              		.cfi_offset 8, -8
  18 0008 13040101 		addi	s0,sp,16
  19              		.cfi_def_cfa 8, 0
   7:src/riscv.cpp **** 	
   8:src/riscv.cpp **** 	__asm__ volatile("csrw sepc, ra");
  20              		.loc 1 8 2
  21              		.loc 1 8 35 is_stmt 0
  22              	#APP
  23              	# 8 "src/riscv.cpp" 1
   9              		__asm__ volatile ("sret");
  24              		csrw sepc, ra
  25              	# 0 "" 2
  26              		.loc 1 9 2 is_stmt 1
  27              		.loc 1 9 27 is_stmt 0
  28              	# 9 "src/riscv.cpp" 1
  10              	}
  29              		sret
  30              	# 0 "" 2
  31              		.loc 1 10 1
  32              	#NO_APP
  33 0014 03348100 		ld	s0,8(sp)
  34              		.cfi_restore 8
  35              		.cfi_def_cfa 2, 16
  36 0018 13010101 		addi	sp,sp,16
  37              		.cfi_def_cfa_offset 0
  38 001c 67800000 		jr	ra
  39              		.cfi_endproc
  40              	.LFE31:
  42              		.align	2
  43              		.globl	_ZN5Riscv20handleSupervisorTrapEv
  45              	_ZN5Riscv20handleSupervisorTrapEv:
  46              	.LFB32:
  11:src/riscv.cpp **** void Riscv::handleSupervisorTrap() {
  47              		.loc 1 11 36 is_stmt 1
  48              		.cfi_startproc
  49 0020 130101FB 		addi	sp,sp,-80
GAS LISTING /tmp/cctLfbcG.s 			page 2


  50              		.cfi_def_cfa_offset 80
  51 0024 23341104 		sd	ra,72(sp)
  52 0028 23308104 		sd	s0,64(sp)
  53 002c 233C9102 		sd	s1,56(sp)
  54 0030 23382103 		sd	s2,48(sp)
  55              		.cfi_offset 1, -8
  56              		.cfi_offset 8, -16
  57              		.cfi_offset 9, -24
  58              		.cfi_offset 18, -32
  59 0034 13040105 		addi	s0,sp,80
  60              		.cfi_def_cfa 8, 0
  12:src/riscv.cpp **** 
  13:src/riscv.cpp ****     uint64 scause = r_scause();
  61              		.loc 1 13 5
  62              	.LBB31:
  63              	.LBB32:
  64              		.file 2 "src/../h/riscv.h"
   1:src/../h/riscv.h ****     //
   2:src/../h/riscv.h ****     // Created by os on 3/31/26.
   3:src/../h/riscv.h ****     //
   4:src/../h/riscv.h **** 
   5:src/../h/riscv.h ****     #ifndef PROJECT_BASE_RISCB_H
   6:src/../h/riscv.h ****     #define PROJECT_BASE_RISCB_H
   7:src/../h/riscv.h ****     #include "../lib/hw.h"
   8:src/../h/riscv.h **** 
   9:src/../h/riscv.h ****     class Riscv {
  10:src/../h/riscv.h ****     public:
  11:src/../h/riscv.h **** 	
  12:src/../h/riscv.h **** 	static void popSppSpie();
  13:src/../h/riscv.h **** 	
  14:src/../h/riscv.h **** 	
  15:src/../h/riscv.h ****         static uint64 r_scause();
  16:src/../h/riscv.h **** 
  17:src/../h/riscv.h ****         static void w_scause(uint64 scause);
  18:src/../h/riscv.h **** 
  19:src/../h/riscv.h ****         static uint64 r_sepc();
  20:src/../h/riscv.h **** 
  21:src/../h/riscv.h ****         static void w_sepc(uint64 sepc);
  22:src/../h/riscv.h **** 
  23:src/../h/riscv.h ****         static uint64 r_stvec();
  24:src/../h/riscv.h **** 
  25:src/../h/riscv.h ****         static void w_stvec(uint64 stvec);
  26:src/../h/riscv.h **** 
  27:src/../h/riscv.h ****         static uint64 r_stval();
  28:src/../h/riscv.h **** 
  29:src/../h/riscv.h ****         static void w_stval(uint64 stval);
  30:src/../h/riscv.h **** 
  31:src/../h/riscv.h ****         enum BitMaskSip {
  32:src/../h/riscv.h ****             SIP_SSIP = (1 << 1),
  33:src/../h/riscv.h ****             SIP_STIP = (1 << 5),
  34:src/../h/riscv.h ****             SIP_SEIP = (1 << 9),
  35:src/../h/riscv.h ****         };
  36:src/../h/riscv.h **** 
  37:src/../h/riscv.h ****         static void ms_sip(uint64 mask);
  38:src/../h/riscv.h **** 
  39:src/../h/riscv.h ****         static void mc_sip(uint64 mask);
  40:src/../h/riscv.h **** 
GAS LISTING /tmp/cctLfbcG.s 			page 3


  41:src/../h/riscv.h ****         static uint64 r_sip();
  42:src/../h/riscv.h **** 
  43:src/../h/riscv.h ****         static void w_sip(uint64 sip);
  44:src/../h/riscv.h **** 
  45:src/../h/riscv.h ****         enum BitMaskSstatus {
  46:src/../h/riscv.h ****             SSTATUS_SIE = (1 << 1),
  47:src/../h/riscv.h ****             SSTATUS_SPIE = (1 << 5),
  48:src/../h/riscv.h ****             SSTATUS_SPP = (1 <<8),
  49:src/../h/riscv.h ****         };
  50:src/../h/riscv.h **** 
  51:src/../h/riscv.h ****         static void ms_sstatus(uint64 mask);
  52:src/../h/riscv.h **** 
  53:src/../h/riscv.h ****         static void mc_sstatus(uint64 mask);
  54:src/../h/riscv.h **** 
  55:src/../h/riscv.h ****         static uint64 r_sstatus();
  56:src/../h/riscv.h **** 
  57:src/../h/riscv.h ****         static void w_sstatus(uint64 sstatus);
  58:src/../h/riscv.h **** 
  59:src/../h/riscv.h ****         static uint64 readARegister(int reg_number);
  60:src/../h/riscv.h **** 
  61:src/../h/riscv.h ****         static void writeARegister(int reg_number, uint64 value);
  62:src/../h/riscv.h **** 
  63:src/../h/riscv.h **** 
  64:src/../h/riscv.h ****         static void supervisorTrap();
  65:src/../h/riscv.h ****     private:
  66:src/../h/riscv.h ****         static void handleSupervisorTrap();
  67:src/../h/riscv.h **** 
  68:src/../h/riscv.h ****     };
  69:src/../h/riscv.h **** 
  70:src/../h/riscv.h ****     inline uint64 Riscv::r_scause()
  71:src/../h/riscv.h ****     {
  72:src/../h/riscv.h ****         uint64 volatile scause;
  65              		.loc 2 72 9
  73:src/../h/riscv.h ****         __asm__ volatile ("csrr %[scause], scause" : [scause] "=r"(scause));
  66              		.loc 2 73 9
  67              		.loc 2 73 76 is_stmt 0
  68              	#APP
  69              	# 73 "src/../h/riscv.h" 1
  74              	        return scause;
  70              		csrr a5, scause
  71              	# 0 "" 2
  72              	#NO_APP
  73 003c 233CF4FA 		sd	a5,-72(s0)
  74              		.loc 2 74 9 is_stmt 1
  75              		.loc 2 74 16 is_stmt 0
  76 0040 033784FB 		ld	a4,-72(s0)
  77              	.LVL0:
  78              	.LBE32:
  79              	.LBE31:
  14:src/riscv.cpp ****     if (scause == 0x0000000000000008UL || scause == 0x0000000000000009UL) {
  80              		.loc 1 14 5 is_stmt 1
  81              	.LBB33:
  82              		.loc 1 14 40 is_stmt 0
  83 0044 930687FF 		addi	a3,a4,-8
  84              		.loc 1 14 5
  85 0048 93071000 		li	a5,1
  86 004c 63FED702 		bleu	a3,a5,.L9
GAS LISTING /tmp/cctLfbcG.s 			page 4


  87              	.LBE33:
  15:src/riscv.cpp ****         uint64 sepc = r_sepc() + 4;
  16:src/riscv.cpp ****     	uint64 sstatus = r_sstatus();
  17:src/riscv.cpp ****     	Thread::timeSliceCounter = 0;
  18:src/riscv.cpp ****     	Thread::dispatch();
  19:src/riscv.cpp ****     	w_sstatus(sstatus);
  20:src/riscv.cpp ****     	w_sepc(sepc);
  21:src/riscv.cpp ****     } else if (scause == 0x8000000000000009UL) {
  88              		.loc 1 21 12 is_stmt 1
  89              	.LBB67:
  90              	.LBB34:
  91 0050 9307F0FF 		li	a5,-1
  92 0054 9397F703 		slli	a5,a5,63
  93 0058 93879700 		addi	a5,a5,9
  94 005c 6304F706 		beq	a4,a5,.L10
  95              	.LBE34:
  96              	.LBE67:
  22:src/riscv.cpp ****         console_handler();
  23:src/riscv.cpp ****     } else if (scause == 0x8000000000000001UL) {
  97              		.loc 1 23 12
  98              	.LBB68:
  99              	.LBB55:
 100              	.LBB35:
 101 0060 9307F0FF 		li	a5,-1
 102 0064 9397F703 		slli	a5,a5,63
 103 0068 93871700 		addi	a5,a5,1
 104 006c 6302F706 		beq	a4,a5,.L11
 105              	.LVL1:
 106              	.L3:
 107              	.LBE35:
 108              	.LBE55:
 109              	.LBE68:
  24:src/riscv.cpp ****     	Thread::timeSliceCounter++;
  25:src/riscv.cpp ****     if(Thread::timeSliceCounter >= Thread::running -> getTimeSlice())
  26:src/riscv.cpp ****     {
  27:src/riscv.cpp ****     	uint64 sepc = r_sepc();
  28:src/riscv.cpp ****     	uint64 sstatus = r_sstatus();
  29:src/riscv.cpp ****     	Thread::timeSliceCounter = 0;
  30:src/riscv.cpp ****     	Thread::dispatch();
  31:src/riscv.cpp ****     	w_sstatus(sstatus);
  32:src/riscv.cpp ****     	w_sepc(sepc);
  33:src/riscv.cpp ****     	
  34:src/riscv.cpp ****     }
  35:src/riscv.cpp ****         mc_sip(SIP_SSIP);
  36:src/riscv.cpp ****     } else {
  37:src/riscv.cpp ****        
  38:src/riscv.cpp ****     }
  39:src/riscv.cpp **** }
 110              		.loc 1 39 1 is_stmt 0
 111 0070 83308104 		ld	ra,72(sp)
 112              		.cfi_remember_state
 113              		.cfi_restore 1
 114 0074 03340104 		ld	s0,64(sp)
 115              		.cfi_restore 8
 116              		.cfi_def_cfa 2, 80
 117 0078 83348103 		ld	s1,56(sp)
 118              		.cfi_restore 9
GAS LISTING /tmp/cctLfbcG.s 			page 5


 119 007c 03390103 		ld	s2,48(sp)
 120              		.cfi_restore 18
 121 0080 13010105 		addi	sp,sp,80
 122              		.cfi_def_cfa_offset 0
 123 0084 67800000 		jr	ra
 124              	.LVL2:
 125              	.L9:
 126              		.cfi_restore_state
 127              	.LBB69:
 128              	.LBB56:
  15:src/riscv.cpp ****     	uint64 sstatus = r_sstatus();
 129              		.loc 1 15 9 is_stmt 1
 130              	.LBB57:
 131              	.LBB58:
  75:src/../h/riscv.h ****     }
  76:src/../h/riscv.h **** 
  77:src/../h/riscv.h ****     inline void Riscv::w_scause(uint64 scause)
  78:src/../h/riscv.h ****     {
  79:src/../h/riscv.h ****         __asm__ volatile ("csrw scause, %[scause]" : : [scause] "r"(scause));
  80:src/../h/riscv.h ****     }
  81:src/../h/riscv.h **** 
  82:src/../h/riscv.h ****     inline uint64 Riscv::r_sepc()
  83:src/../h/riscv.h ****     {
  84:src/../h/riscv.h ****         uint64 volatile sepc;
 132              		.loc 2 84 9
  85:src/../h/riscv.h ****         __asm__ volatile ("csrr %[sepc], sepc" : [sepc] "=r"(sepc));
 133              		.loc 2 85 9
 134              		.loc 2 85 68 is_stmt 0
 135              	#APP
 136              	# 85 "src/../h/riscv.h" 1
  86              	        return sepc;
 137              		csrr a5, sepc
 138              	# 0 "" 2
 139              	#NO_APP
 140 008c 2334F4FC 		sd	a5,-56(s0)
 141              		.loc 2 86 9 is_stmt 1
 142              		.loc 2 86 16 is_stmt 0
 143 0090 833484FC 		ld	s1,-56(s0)
 144              	.LBE58:
 145              	.LBE57:
  15:src/riscv.cpp ****     	uint64 sstatus = r_sstatus();
 146              		.loc 1 15 34
 147 0094 93844400 		addi	s1,s1,4
 148              	.LVL3:
  16:src/riscv.cpp ****     	Thread::timeSliceCounter = 0;
 149              		.loc 1 16 6 is_stmt 1
 150              	.LBB59:
 151              	.LBB60:
  87:src/../h/riscv.h ****     }
  88:src/../h/riscv.h **** 
  89:src/../h/riscv.h ****     inline void Riscv::w_sepc(uint64 sepc)
  90:src/../h/riscv.h ****     {
  91:src/../h/riscv.h ****         __asm__ volatile ("csrw sepc, %[sepc]" : : [sepc] "r"(sepc));
  92:src/../h/riscv.h ****     }
  93:src/../h/riscv.h **** 
  94:src/../h/riscv.h ****     inline uint64 Riscv::r_stvec()
  95:src/../h/riscv.h ****     {
GAS LISTING /tmp/cctLfbcG.s 			page 6


  96:src/../h/riscv.h ****         uint64 volatile stvec;
  97:src/../h/riscv.h ****         __asm__ volatile ("csrr %[stvec], stvec" : [stvec] "=r"(stvec));
  98:src/../h/riscv.h ****         return stvec;
  99:src/../h/riscv.h ****     }
 100:src/../h/riscv.h **** 
 101:src/../h/riscv.h ****     inline void Riscv::w_stvec(uint64 stvec)
 102:src/../h/riscv.h ****     {
 103:src/../h/riscv.h ****         __asm__ volatile ("csrw stvec, %[stvec]" : : [stvec] "r"(stvec));
 104:src/../h/riscv.h ****     }
 105:src/../h/riscv.h **** 
 106:src/../h/riscv.h ****     inline uint64 Riscv::r_stval()
 107:src/../h/riscv.h ****     {
 108:src/../h/riscv.h ****         uint64 volatile stval;
 109:src/../h/riscv.h ****         __asm__ volatile ("csrr %[stval], stval" : [stval] "=r"(stval));
 110:src/../h/riscv.h ****         return stval;
 111:src/../h/riscv.h ****     }
 112:src/../h/riscv.h **** 
 113:src/../h/riscv.h ****     inline void Riscv::w_stval(uint64 stval)
 114:src/../h/riscv.h ****     {
 115:src/../h/riscv.h ****         __asm__ volatile ("csrw stval, %[stval]" : : [stval] "r"(stval));
 116:src/../h/riscv.h ****     }
 117:src/../h/riscv.h **** 
 118:src/../h/riscv.h ****     inline void Riscv::ms_sip(uint64 mask)
 119:src/../h/riscv.h ****     {
 120:src/../h/riscv.h ****         __asm__ volatile ("csrs sip, %[mask]" : : [mask] "r"(mask));
 121:src/../h/riscv.h ****     }
 122:src/../h/riscv.h **** 
 123:src/../h/riscv.h ****     inline void Riscv::mc_sip(uint64 mask)
 124:src/../h/riscv.h ****     {
 125:src/../h/riscv.h ****         __asm__ volatile ("csrc sip, %[mask]" : : [mask] "r"(mask));
 126:src/../h/riscv.h ****     }
 127:src/../h/riscv.h **** 
 128:src/../h/riscv.h ****     inline uint64 Riscv::r_sip()
 129:src/../h/riscv.h ****     {
 130:src/../h/riscv.h ****         uint64 volatile sip;
 131:src/../h/riscv.h ****         __asm__ volatile ("csrr %[sip], sip" : [sip] "=r"(sip));
 132:src/../h/riscv.h ****         return sip;
 133:src/../h/riscv.h ****     }
 134:src/../h/riscv.h **** 
 135:src/../h/riscv.h ****     inline void Riscv::w_sip(uint64 sip)
 136:src/../h/riscv.h ****     {
 137:src/../h/riscv.h ****         __asm__ volatile ("csrw sip, %[sip]" : : [sip] "r"(sip));
 138:src/../h/riscv.h ****     }
 139:src/../h/riscv.h **** 
 140:src/../h/riscv.h ****     inline void Riscv::ms_sstatus(uint64 mask)
 141:src/../h/riscv.h ****     {
 142:src/../h/riscv.h ****         __asm__ volatile ("csrs sstatus, %[mask]" : : [mask] "r"(mask));
 143:src/../h/riscv.h ****     }
 144:src/../h/riscv.h **** 
 145:src/../h/riscv.h ****     inline void Riscv::mc_sstatus(uint64 mask)
 146:src/../h/riscv.h ****     {
 147:src/../h/riscv.h ****         __asm__ volatile ("csrc sstatus, %[mask]" : : [mask] "r"(mask));
 148:src/../h/riscv.h ****     }
 149:src/../h/riscv.h **** 
 150:src/../h/riscv.h ****     inline uint64 Riscv::r_sstatus()
 151:src/../h/riscv.h ****     {
 152:src/../h/riscv.h ****         uint64 volatile sstatus;
GAS LISTING /tmp/cctLfbcG.s 			page 7


 152              		.loc 2 152 9
 153:src/../h/riscv.h ****         __asm__ volatile ("csrr %[sstatus], sstatus" : [sstatus] "=r"(sstatus));
 153              		.loc 2 153 9
 154              		.loc 2 153 80 is_stmt 0
 155              	#APP
 156              	# 153 "src/../h/riscv.h" 1
 154              	        return sstatus;
 157              		csrr a5, sstatus
 158              	# 0 "" 2
 159              	#NO_APP
 160 009c 2330F4FC 		sd	a5,-64(s0)
 161              		.loc 2 154 9 is_stmt 1
 162              		.loc 2 154 16 is_stmt 0
 163 00a0 033904FC 		ld	s2,-64(s0)
 164              	.LVL4:
 165              	.LBE60:
 166              	.LBE59:
  17:src/riscv.cpp ****     	Thread::dispatch();
 167              		.loc 1 17 6 is_stmt 1
  17:src/riscv.cpp ****     	Thread::dispatch();
 168              		.loc 1 17 31 is_stmt 0
 169 00a4 97070000 		la	a5,_ZN6Thread16timeSliceCounterE
 169      83B70700 
 170 00ac 23B00700 		sd	zero,0(a5)
  18:src/riscv.cpp ****     	w_sstatus(sstatus);
 171              		.loc 1 18 6 is_stmt 1
  18:src/riscv.cpp ****     	w_sstatus(sstatus);
 172              		.loc 1 18 22 is_stmt 0
 173 00b0 97000000 		call	_ZN6Thread8dispatchEv@plt
 173      E7800000 
 174              	.LVL5:
  19:src/riscv.cpp ****     	w_sepc(sepc);
 175              		.loc 1 19 6 is_stmt 1
 176              	.LBB61:
 177              	.LBB62:
 155:src/../h/riscv.h ****     }
 156:src/../h/riscv.h **** 
 157:src/../h/riscv.h ****     inline void Riscv::w_sstatus(uint64 sstatus)
 158:src/../h/riscv.h ****     {
 159:src/../h/riscv.h ****         __asm__ volatile ("csrw sstatus, %[sstatus]" : : [sstatus] "r"(sstatus));
 178              		.loc 2 159 9
 179              		.loc 2 159 81 is_stmt 0
 180              	#APP
 181              	# 159 "src/../h/riscv.h" 1
 160              	    }
 182              		csrw sstatus, s2
 183              	# 0 "" 2
 184              	.LVL6:
 185              	#NO_APP
 186              	.LBE62:
 187              	.LBE61:
  20:src/riscv.cpp ****     } else if (scause == 0x8000000000000009UL) {
 188              		.loc 1 20 6 is_stmt 1
 189              	.LBB63:
 190              	.LBB64:
  91:src/../h/riscv.h ****     }
 191              		.loc 2 91 9
GAS LISTING /tmp/cctLfbcG.s 			page 8


  91:src/../h/riscv.h ****     }
 192              		.loc 2 91 69 is_stmt 0
 193              	#APP
 194              	# 91 "src/../h/riscv.h" 1
  92:src/../h/riscv.h **** 
 195              		csrw sepc, s1
 196              	# 0 "" 2
 197              		.loc 2 92 5
 198              	#NO_APP
 199 00c0 6FF01FFB 		j	.L3
 200              	.LVL7:
 201              	.L10:
 202              	.LBE64:
 203              	.LBE63:
 204              	.LBE56:
 205              	.LBB65:
  22:src/riscv.cpp ****     } else if (scause == 0x8000000000000001UL) {
 206              		.loc 1 22 9 is_stmt 1
  22:src/riscv.cpp ****     } else if (scause == 0x8000000000000001UL) {
 207              		.loc 1 22 24 is_stmt 0
 208 00c4 97000000 		call	console_handler@plt
 208      E7800000 
 209              	.LVL8:
 210 00cc 6FF05FFA 		j	.L3
 211              	.LVL9:
 212              	.L11:
 213              	.LBB53:
 214              	.LBB36:
  24:src/riscv.cpp ****     if(Thread::timeSliceCounter >= Thread::running -> getTimeSlice())
 215              		.loc 1 24 6 is_stmt 1
  24:src/riscv.cpp ****     if(Thread::timeSliceCounter >= Thread::running -> getTimeSlice())
 216              		.loc 1 24 30 is_stmt 0
 217 00d0 17070000 		la	a4,_ZN6Thread16timeSliceCounterE
 217      03370700 
 218              	.LVL10:
 219 00d8 83370700 		ld	a5,0(a4)
 220 00dc 93871700 		addi	a5,a5,1
 221 00e0 2330F700 		sd	a5,0(a4)
  25:src/riscv.cpp ****     {
 222              		.loc 1 25 5 is_stmt 1
 223              	.LBB37:
  25:src/riscv.cpp ****     {
 224              		.loc 1 25 67 is_stmt 0
 225 00e4 17070000 		la	a4,_ZN6Thread7runningE
 225      03370700 
 226 00ec 03370700 		ld	a4,0(a4)
 227              	.LVL11:
 228              	.LBB38:
 229              	.LBB39:
 230              		.file 3 "src/../h/Thread.h"
   1:src/../h/Thread.h ****  #ifndef PROJEKAT_THREAD_H
   2:src/../h/Thread.h **** #define PROJEKAT_THREAD_H
   3:src/../h/Thread.h **** 
   4:src/../h/Thread.h **** #include "../lib/hw.h"
   5:src/../h/Thread.h **** #include "MemoryAllocator.h"
   6:src/../h/Thread.h **** #include "Scheduler.h"
   7:src/../h/Thread.h **** 
GAS LISTING /tmp/cctLfbcG.s 			page 9


   8:src/../h/Thread.h **** class Thread {
   9:src/../h/Thread.h **** public:
  10:src/../h/Thread.h ****     ~Thread() {delete[] stack;};
  11:src/../h/Thread.h ****     using Body = void (*)();
  12:src/../h/Thread.h **** 
  13:src/../h/Thread.h ****     static Thread* createThread(Body body);
  14:src/../h/Thread.h ****     
  15:src/../h/Thread.h ****     static Thread* running;
  16:src/../h/Thread.h **** 
  17:src/../h/Thread.h ****     static void yield();
  18:src/../h/Thread.h **** 
  19:src/../h/Thread.h **** 
  20:src/../h/Thread.h ****     static void dispatch();
  21:src/../h/Thread.h **** 
  22:src/../h/Thread.h ****     bool isFinished(){return finished;};
  23:src/../h/Thread.h **** 	
  24:src/../h/Thread.h **** 	uint64 getTimeSlice() const {
  25:src/../h/Thread.h **** 	return timeSlice;
 231              		.loc 3 25 2 is_stmt 1
 232              		.loc 3 25 9 is_stmt 0
 233 00f0 03378702 		ld	a4,40(a4)
 234              	.LVL12:
 235              	.LBE39:
 236              	.LBE38:
  25:src/riscv.cpp ****     {
 237              		.loc 1 25 5
 238 00f4 63F8E700 		bgeu	a5,a4,.L12
 239              	.LVL13:
 240              	.L7:
 241              	.LBE37:
  35:src/riscv.cpp ****     } else {
 242              		.loc 1 35 9 is_stmt 1
 243              	.LBB49:
 244              	.LBB50:
 125:src/../h/riscv.h ****     }
 245              		.loc 2 125 9
 125:src/../h/riscv.h ****     }
 246              		.loc 2 125 68 is_stmt 0
 247 00f8 93072000 		li	a5,2
 248              	#APP
 249              	# 125 "src/../h/riscv.h" 1
 250              		csrc sip, a5
 251              	# 0 "" 2
 252              	.LVL14:
 253              	#NO_APP
 254              	.LBE50:
 255              	.LBE49:
 256              	.LBE36:
 257              	.LBE53:
 258              	.LBE65:
 259              	.LBE69:
 260              		.loc 1 39 1
 261 0100 6FF01FF7 		j	.L3
 262              	.LVL15:
 263              	.L12:
 264              	.LBB70:
 265              	.LBB66:
GAS LISTING /tmp/cctLfbcG.s 			page 10


 266              	.LBB54:
 267              	.LBB52:
 268              	.LBB51:
 269              	.LBB40:
  27:src/riscv.cpp ****     	uint64 sstatus = r_sstatus();
 270              		.loc 1 27 6 is_stmt 1
 271              	.LBB41:
 272              	.LBB42:
  84:src/../h/riscv.h ****         __asm__ volatile ("csrr %[sepc], sepc" : [sepc] "=r"(sepc));
 273              		.loc 2 84 9
  85:src/../h/riscv.h ****         return sepc;
 274              		.loc 2 85 9
  85:src/../h/riscv.h ****         return sepc;
 275              		.loc 2 85 68 is_stmt 0
 276              	#APP
 277              	# 85 "src/../h/riscv.h" 1
 278              		csrr a5, sepc
 279              	# 0 "" 2
 280              	#NO_APP
 281 0108 233CF4FC 		sd	a5,-40(s0)
  86:src/../h/riscv.h ****     }
 282              		.loc 2 86 9 is_stmt 1
  86:src/../h/riscv.h ****     }
 283              		.loc 2 86 16 is_stmt 0
 284 010c 833484FD 		ld	s1,-40(s0)
 285              	.LVL16:
 286              	.LBE42:
 287              	.LBE41:
  28:src/riscv.cpp ****     	Thread::timeSliceCounter = 0;
 288              		.loc 1 28 6 is_stmt 1
 289              	.LBB43:
 290              	.LBB44:
 152:src/../h/riscv.h ****         __asm__ volatile ("csrr %[sstatus], sstatus" : [sstatus] "=r"(sstatus));
 291              		.loc 2 152 9
 153:src/../h/riscv.h ****         return sstatus;
 292              		.loc 2 153 9
 153:src/../h/riscv.h ****         return sstatus;
 293              		.loc 2 153 80 is_stmt 0
 294              	#APP
 295              	# 153 "src/../h/riscv.h" 1
 296              		csrr a5, sstatus
 297              	# 0 "" 2
 298              	#NO_APP
 299 0114 2338F4FC 		sd	a5,-48(s0)
 154:src/../h/riscv.h ****     }
 300              		.loc 2 154 9 is_stmt 1
 154:src/../h/riscv.h ****     }
 301              		.loc 2 154 16 is_stmt 0
 302 0118 033904FD 		ld	s2,-48(s0)
 303              	.LVL17:
 304              	.LBE44:
 305              	.LBE43:
  29:src/riscv.cpp ****     	Thread::dispatch();
 306              		.loc 1 29 6 is_stmt 1
  29:src/riscv.cpp ****     	Thread::dispatch();
 307              		.loc 1 29 31 is_stmt 0
 308 011c 97070000 		la	a5,_ZN6Thread16timeSliceCounterE
GAS LISTING /tmp/cctLfbcG.s 			page 11


 308      83B70700 
 309 0124 23B00700 		sd	zero,0(a5)
  30:src/riscv.cpp ****     	w_sstatus(sstatus);
 310              		.loc 1 30 6 is_stmt 1
  30:src/riscv.cpp ****     	w_sstatus(sstatus);
 311              		.loc 1 30 22 is_stmt 0
 312 0128 97000000 		call	_ZN6Thread8dispatchEv@plt
 312      E7800000 
 313              	.LVL18:
  31:src/riscv.cpp ****     	w_sepc(sepc);
 314              		.loc 1 31 6 is_stmt 1
 315              	.LBB45:
 316              	.LBB46:
 159:src/../h/riscv.h ****     }
 317              		.loc 2 159 9
 159:src/../h/riscv.h ****     }
 318              		.loc 2 159 81 is_stmt 0
 319              	#APP
 320              	# 159 "src/../h/riscv.h" 1
 321              		csrw sstatus, s2
 322              	# 0 "" 2
 323              	.LVL19:
 324              	#NO_APP
 325              	.LBE46:
 326              	.LBE45:
  32:src/riscv.cpp ****     	
 327              		.loc 1 32 6 is_stmt 1
 328              	.LBB47:
 329              	.LBB48:
  91:src/../h/riscv.h ****     }
 330              		.loc 2 91 9
  91:src/../h/riscv.h ****     }
 331              		.loc 2 91 69 is_stmt 0
 332              	#APP
 333              	# 91 "src/../h/riscv.h" 1
  92:src/../h/riscv.h **** 
 334              		csrw sepc, s1
 335              	# 0 "" 2
 336              		.loc 2 92 5
 337              	#NO_APP
 338 0138 6FF01FFC 		j	.L7
 339              	.LBE48:
 340              	.LBE47:
 341              	.LBE40:
 342              	.LBE51:
 343              	.LBE52:
 344              	.LBE54:
 345              	.LBE66:
 346              	.LBE70:
 347              		.cfi_endproc
 348              	.LFE32:
 350              	.Letext0:
 351              		.file 4 "src/../h/../lib/hw.h"
 352              		.file 5 "src/../lib/console.h"
GAS LISTING /tmp/cctLfbcG.s 			page 12


DEFINED SYMBOLS
                            *ABS*:0000000000000000 riscv.cpp
     /tmp/cctLfbcG.s:9      .text:0000000000000000 _ZN5Riscv10popSppSpieEv
     /tmp/cctLfbcG.s:13     .text:0000000000000000 .L0 
     /tmp/cctLfbcG.s:14     .text:0000000000000000 .L0 
     /tmp/cctLfbcG.s:15     .text:0000000000000004 .L0 
     /tmp/cctLfbcG.s:17     .text:0000000000000008 .L0 
     /tmp/cctLfbcG.s:19     .text:000000000000000c .L0 
     /tmp/cctLfbcG.s:21     .text:000000000000000c .L0 
       src/riscv.cpp:8      .text:000000000000000c .L0 
     /tmp/cctLfbcG.s:27     .text:0000000000000010 .L0 
       src/riscv.cpp:9      .text:0000000000000010 .L0 
     /tmp/cctLfbcG.s:33     .text:0000000000000014 .L0 
     /tmp/cctLfbcG.s:34     .text:0000000000000018 .L0 
     /tmp/cctLfbcG.s:35     .text:0000000000000018 .L0 
     /tmp/cctLfbcG.s:37     .text:000000000000001c .L0 
     /tmp/cctLfbcG.s:39     .text:0000000000000020 .L0 
     /tmp/cctLfbcG.s:45     .text:0000000000000020 _ZN5Riscv20handleSupervisorTrapEv
     /tmp/cctLfbcG.s:48     .text:0000000000000020 .L0 
     /tmp/cctLfbcG.s:49     .text:0000000000000020 .L0 
     /tmp/cctLfbcG.s:50     .text:0000000000000024 .L0 
     /tmp/cctLfbcG.s:55     .text:0000000000000034 .L0 
     /tmp/cctLfbcG.s:56     .text:0000000000000034 .L0 
     /tmp/cctLfbcG.s:57     .text:0000000000000034 .L0 
     /tmp/cctLfbcG.s:58     .text:0000000000000034 .L0 
     /tmp/cctLfbcG.s:60     .text:0000000000000038 .L0 
     /tmp/cctLfbcG.s:65     .text:0000000000000038 .L0 
     /tmp/cctLfbcG.s:66     .text:0000000000000038 .L0 
     /tmp/cctLfbcG.s:67     .text:0000000000000038 .L0 
    src/../h/riscv.h:73     .text:0000000000000038 .L0 
     /tmp/cctLfbcG.s:75     .text:0000000000000040 .L0 
     /tmp/cctLfbcG.s:76     .text:0000000000000040 .L0 
     /tmp/cctLfbcG.s:82     .text:0000000000000044 .L0 
     /tmp/cctLfbcG.s:83     .text:0000000000000044 .L0 
     /tmp/cctLfbcG.s:85     .text:0000000000000048 .L0 
     /tmp/cctLfbcG.s:91     .text:0000000000000050 .L0 
     /tmp/cctLfbcG.s:101    .text:0000000000000060 .L0 
     /tmp/cctLfbcG.s:111    .text:0000000000000070 .L0 
     /tmp/cctLfbcG.s:112    .text:0000000000000074 .L0 
     /tmp/cctLfbcG.s:113    .text:0000000000000074 .L0 
     /tmp/cctLfbcG.s:115    .text:0000000000000078 .L0 
     /tmp/cctLfbcG.s:116    .text:0000000000000078 .L0 
     /tmp/cctLfbcG.s:118    .text:000000000000007c .L0 
     /tmp/cctLfbcG.s:120    .text:0000000000000080 .L0 
     /tmp/cctLfbcG.s:122    .text:0000000000000084 .L0 
     /tmp/cctLfbcG.s:126    .text:0000000000000088 .L0 
     /tmp/cctLfbcG.s:132    .text:0000000000000088 .L0 
     /tmp/cctLfbcG.s:133    .text:0000000000000088 .L0 
     /tmp/cctLfbcG.s:134    .text:0000000000000088 .L0 
    src/../h/riscv.h:85     .text:0000000000000088 .L0 
     /tmp/cctLfbcG.s:142    .text:0000000000000090 .L0 
     /tmp/cctLfbcG.s:143    .text:0000000000000090 .L0 
     /tmp/cctLfbcG.s:147    .text:0000000000000094 .L0 
     /tmp/cctLfbcG.s:152    .text:0000000000000098 .L0 
     /tmp/cctLfbcG.s:153    .text:0000000000000098 .L0 
     /tmp/cctLfbcG.s:154    .text:0000000000000098 .L0 
    src/../h/riscv.h:153    .text:0000000000000098 .L0 
GAS LISTING /tmp/cctLfbcG.s 			page 13


     /tmp/cctLfbcG.s:162    .text:00000000000000a0 .L0 
     /tmp/cctLfbcG.s:163    .text:00000000000000a0 .L0 
     /tmp/cctLfbcG.s:168    .text:00000000000000a4 .L0 
     /tmp/cctLfbcG.s:169    .text:00000000000000a4 .L0 
     /tmp/cctLfbcG.s:172    .text:00000000000000b0 .L0 
     /tmp/cctLfbcG.s:173    .text:00000000000000b0 .L0 
     /tmp/cctLfbcG.s:178    .text:00000000000000b8 .L0 
     /tmp/cctLfbcG.s:179    .text:00000000000000b8 .L0 
    src/../h/riscv.h:159    .text:00000000000000b8 .L0 
     /tmp/cctLfbcG.s:191    .text:00000000000000bc .L0 
     /tmp/cctLfbcG.s:192    .text:00000000000000bc .L0 
    src/../h/riscv.h:91     .text:00000000000000bc .L0 
     /tmp/cctLfbcG.s:199    .text:00000000000000c0 .L0 
     /tmp/cctLfbcG.s:207    .text:00000000000000c4 .L0 
     /tmp/cctLfbcG.s:208    .text:00000000000000c4 .L0 
     /tmp/cctLfbcG.s:216    .text:00000000000000d0 .L0 
     /tmp/cctLfbcG.s:217    .text:00000000000000d0 .L0 
     /tmp/cctLfbcG.s:224    .text:00000000000000e4 .L0 
     /tmp/cctLfbcG.s:225    .text:00000000000000e4 .L0 
     /tmp/cctLfbcG.s:232    .text:00000000000000f0 .L0 
     /tmp/cctLfbcG.s:233    .text:00000000000000f0 .L0 
     /tmp/cctLfbcG.s:238    .text:00000000000000f4 .L0 
     /tmp/cctLfbcG.s:245    .text:00000000000000f8 .L0 
     /tmp/cctLfbcG.s:246    .text:00000000000000f8 .L0 
     /tmp/cctLfbcG.s:247    .text:00000000000000f8 .L0 
     /tmp/cctLfbcG.s:261    .text:0000000000000100 .L0 
     /tmp/cctLfbcG.s:273    .text:0000000000000104 .L0 
     /tmp/cctLfbcG.s:274    .text:0000000000000104 .L0 
     /tmp/cctLfbcG.s:275    .text:0000000000000104 .L0 
    src/../h/riscv.h:85     .text:0000000000000104 .L0 
     /tmp/cctLfbcG.s:283    .text:000000000000010c .L0 
     /tmp/cctLfbcG.s:284    .text:000000000000010c .L0 
     /tmp/cctLfbcG.s:291    .text:0000000000000110 .L0 
     /tmp/cctLfbcG.s:292    .text:0000000000000110 .L0 
     /tmp/cctLfbcG.s:293    .text:0000000000000110 .L0 
    src/../h/riscv.h:153    .text:0000000000000110 .L0 
     /tmp/cctLfbcG.s:301    .text:0000000000000118 .L0 
     /tmp/cctLfbcG.s:302    .text:0000000000000118 .L0 
     /tmp/cctLfbcG.s:307    .text:000000000000011c .L0 
     /tmp/cctLfbcG.s:308    .text:000000000000011c .L0 
     /tmp/cctLfbcG.s:311    .text:0000000000000128 .L0 
     /tmp/cctLfbcG.s:312    .text:0000000000000128 .L0 
     /tmp/cctLfbcG.s:317    .text:0000000000000130 .L0 
     /tmp/cctLfbcG.s:318    .text:0000000000000130 .L0 
    src/../h/riscv.h:159    .text:0000000000000130 .L0 
     /tmp/cctLfbcG.s:330    .text:0000000000000134 .L0 
     /tmp/cctLfbcG.s:331    .text:0000000000000134 .L0 
    src/../h/riscv.h:91     .text:0000000000000134 .L0 
     /tmp/cctLfbcG.s:338    .text:0000000000000138 .L0 
     /tmp/cctLfbcG.s:347    .text:000000000000013c .L0 
     /tmp/cctLfbcG.s:353    .text:000000000000013c .L0 
     /tmp/cctLfbcG.s:169    .text:00000000000000a4 .L0 
     /tmp/cctLfbcG.s:217    .text:00000000000000d0 .L0 
     /tmp/cctLfbcG.s:225    .text:00000000000000e4 .L0 
     /tmp/cctLfbcG.s:308    .text:000000000000011c .L0 
     /tmp/cctLfbcG.s:125    .text:0000000000000088 .L9
     /tmp/cctLfbcG.s:201    .text:00000000000000c4 .L10
GAS LISTING /tmp/cctLfbcG.s 			page 14


     /tmp/cctLfbcG.s:212    .text:00000000000000d0 .L11
     /tmp/cctLfbcG.s:106    .text:0000000000000070 .L3
     /tmp/cctLfbcG.s:263    .text:0000000000000104 .L12
     /tmp/cctLfbcG.s:240    .text:00000000000000f8 .L7
     /tmp/cctLfbcG.s:1269   .debug_abbrev:0000000000000000 .Ldebug_abbrev0
     /tmp/cctLfbcG.s:2360   .debug_str:0000000000000552 .LASF94
     /tmp/cctLfbcG.s:2316   .debug_str:0000000000000416 .LASF95
     /tmp/cctLfbcG.s:2312   .debug_str:00000000000003e9 .LASF96
     /tmp/cctLfbcG.s:5      .text:0000000000000000 .Ltext0
     /tmp/cctLfbcG.s:350    .text:000000000000013c .Letext0
     /tmp/cctLfbcG.s:2176   .debug_line:0000000000000000 .Ldebug_line0
     /tmp/cctLfbcG.s:2292   .debug_str:000000000000036f .LASF0
     /tmp/cctLfbcG.s:2310   .debug_str:00000000000003d6 .LASF1
     /tmp/cctLfbcG.s:2284   .debug_str:0000000000000338 .LASF2
     /tmp/cctLfbcG.s:2260   .debug_str:0000000000000286 .LASF4
     /tmp/cctLfbcG.s:2340   .debug_str:00000000000004bf .LASF3
     /tmp/cctLfbcG.s:2198   .debug_str:0000000000000072 .LASF5
     /tmp/cctLfbcG.s:2314   .debug_str:0000000000000403 .LASF6
     /tmp/cctLfbcG.s:2290   .debug_str:000000000000035c .LASF7
     /tmp/cctLfbcG.s:2370   .debug_str:0000000000000645 .LASF8
     /tmp/cctLfbcG.s:2250   .debug_str:000000000000022d .LASF9
     /tmp/cctLfbcG.s:2322   .debug_str:0000000000000449 .LASF10
     /tmp/cctLfbcG.s:2364   .debug_str:0000000000000620 .LASF11
     /tmp/cctLfbcG.s:2200   .debug_str:0000000000000079 .LASF12
     /tmp/cctLfbcG.s:2184   .debug_str:0000000000000035 .LASF13
     /tmp/cctLfbcG.s:2208   .debug_str:00000000000000c3 .LASF14
     /tmp/cctLfbcG.s:2332   .debug_str:0000000000000483 .LASF15
     /tmp/cctLfbcG.s:2224   .debug_str:0000000000000168 .LASF16
     /tmp/cctLfbcG.s:2306   .debug_str:00000000000003c5 .LASF59
     /tmp/cctLfbcG.s:2272   .debug_str:00000000000002ce .LASF97
     /tmp/cctLfbcG.s:2350   .debug_str:0000000000000505 .LASF17
     /tmp/cctLfbcG.s:2304   .debug_str:00000000000003bc .LASF18
     /tmp/cctLfbcG.s:2266   .debug_str:000000000000029b .LASF19
     /tmp/cctLfbcG.s:2330   .debug_str:0000000000000478 .LASF54
     /tmp/cctLfbcG.s:2378   .debug_str:0000000000000682 .LASF56
     /tmp/cctLfbcG.s:2186   .debug_str:0000000000000045 .LASF20
     /tmp/cctLfbcG.s:2236   .debug_str:00000000000001c8 .LASF22
     /tmp/cctLfbcG.s:2232   .debug_str:00000000000001b7 .LASF24
     /tmp/cctLfbcG.s:2230   .debug_str:00000000000001a2 .LASF26
     /tmp/cctLfbcG.s:2344   .debug_str:00000000000004e2 .LASF21
     /tmp/cctLfbcG.s:2324   .debug_str:0000000000000458 .LASF23
     /tmp/cctLfbcG.s:2358   .debug_str:000000000000054b .LASF25
     /tmp/cctLfbcG.s:2354   .debug_str:0000000000000526 .LASF27
     /tmp/cctLfbcG.s:2244   .debug_str:0000000000000209 .LASF28
     /tmp/cctLfbcG.s:2226   .debug_str:000000000000017e .LASF29
     /tmp/cctLfbcG.s:2180   .debug_str:0000000000000019 .LASF30
     /tmp/cctLfbcG.s:2254   .debug_str:0000000000000251 .LASF31
     /tmp/cctLfbcG.s:2196   .debug_str:000000000000006a .LASF32
     /tmp/cctLfbcG.s:2202   .debug_str:0000000000000089 .LASF33
     /tmp/cctLfbcG.s:2384   .debug_str:00000000000006ab .LASF34
     /tmp/cctLfbcG.s:2238   .debug_str:00000000000001dd .LASF35
     /tmp/cctLfbcG.s:2294   .debug_str:000000000000037c .LASF36
     /tmp/cctLfbcG.s:2374   .debug_str:000000000000066a .LASF37
     /tmp/cctLfbcG.s:2194   .debug_str:0000000000000063 .LASF38
     /tmp/cctLfbcG.s:2242   .debug_str:00000000000001f6 .LASF39
     /tmp/cctLfbcG.s:2248   .debug_str:0000000000000227 .LASF40
     /tmp/cctLfbcG.s:2356   .debug_str:0000000000000539 .LASF41
GAS LISTING /tmp/cctLfbcG.s 			page 15


     /tmp/cctLfbcG.s:2192   .debug_str:000000000000005d .LASF42
     /tmp/cctLfbcG.s:2388   .debug_str:00000000000006b8 .LASF43
     /tmp/cctLfbcG.s:2382   .debug_str:00000000000006a0 .LASF44
     /tmp/cctLfbcG.s:2338   .debug_str:00000000000004a7 .LASF45
     /tmp/cctLfbcG.s:2308   .debug_str:00000000000003cb .LASF46
     /tmp/cctLfbcG.s:2352   .debug_str:000000000000050e .LASF47
     /tmp/cctLfbcG.s:2206   .debug_str:00000000000000b9 .LASF48
     /tmp/cctLfbcG.s:2258   .debug_str:0000000000000270 .LASF49
     /tmp/cctLfbcG.s:2288   .debug_str:0000000000000352 .LASF50
     /tmp/cctLfbcG.s:2252   .debug_str:000000000000023b .LASF51
     /tmp/cctLfbcG.s:2282   .debug_str:000000000000032a .LASF61
     /tmp/cctLfbcG.s:2278   .debug_str:0000000000000301 .LASF63
     /tmp/cctLfbcG.s:2368   .debug_str:0000000000000636 .LASF52
     /tmp/cctLfbcG.s:2276   .debug_str:00000000000002e4 .LASF53
     /tmp/cctLfbcG.s:2346   .debug_str:00000000000004e9 .LASF55
     /tmp/cctLfbcG.s:2204   .debug_str:000000000000009d .LASF57
     /tmp/cctLfbcG.s:2372   .debug_str:0000000000000655 .LASF78
     /tmp/cctLfbcG.s:2270   .debug_str:00000000000002ac .LASF80
     /tmp/cctLfbcG.s:2240   .debug_str:00000000000001f1 .LASF58
     /tmp/cctLfbcG.s:2366   .debug_str:000000000000062f .LASF60
     /tmp/cctLfbcG.s:2190   .debug_str:0000000000000055 .LASF98
     /tmp/cctLfbcG.s:2336   .debug_str:000000000000049f .LASF62
     /tmp/cctLfbcG.s:2302   .debug_str:00000000000003ad .LASF64
     /tmp/cctLfbcG.s:2222   .debug_str:000000000000015b .LASF65
     /tmp/cctLfbcG.s:2220   .debug_str:000000000000013c .LASF66
     /tmp/cctLfbcG.s:2328   .debug_str:0000000000000473 .LASF99
     /tmp/cctLfbcG.s:2234   .debug_str:00000000000001c0 .LASF100
     /tmp/cctLfbcG.s:2334   .debug_str:0000000000000499 .LASF67
     /tmp/cctLfbcG.s:2218   .debug_str:0000000000000129 .LASF68
     /tmp/cctLfbcG.s:2296   .debug_str:0000000000000383 .LASF69
     /tmp/cctLfbcG.s:2246   .debug_str:0000000000000211 .LASF70
     /tmp/cctLfbcG.s:2318   .debug_str:0000000000000424 .LASF71
     /tmp/cctLfbcG.s:2178   .debug_str:0000000000000000 .LASF73
     /tmp/cctLfbcG.s:2348   .debug_str:00000000000004f8 .LASF72
     /tmp/cctLfbcG.s:2298   .debug_str:000000000000038c .LASF74
     /tmp/cctLfbcG.s:2286   .debug_str:0000000000000346 .LASF75
     /tmp/cctLfbcG.s:2320   .debug_str:000000000000042f .LASF76
     /tmp/cctLfbcG.s:2182   .debug_str:0000000000000021 .LASF77
     /tmp/cctLfbcG.s:2280   .debug_str:000000000000031c .LASF79
     /tmp/cctLfbcG.s:2214   .debug_str:00000000000000e2 .LASF81
     /tmp/cctLfbcG.s:2210   .debug_str:00000000000000cf .LASF101
     /tmp/cctLfbcG.s:2216   .debug_str:00000000000000fe .LASF102
     /tmp/cctLfbcG.s:2212   .debug_str:00000000000000dd .LASF82
     /tmp/cctLfbcG.s:2264   .debug_str:0000000000000296 .LASF83
     /tmp/cctLfbcG.s:2380   .debug_str:000000000000069a .LASF84
     /tmp/cctLfbcG.s:2268   .debug_str:00000000000002a4 .LASF85
     /tmp/cctLfbcG.s:2362   .debug_str:0000000000000616 .LASF86
     /tmp/cctLfbcG.s:2262   .debug_str:000000000000028d .LASF87
     /tmp/cctLfbcG.s:2342   .debug_str:00000000000004d1 .LASF103
     /tmp/cctLfbcG.s:2274   .debug_str:00000000000002d9 .LASF88
     /tmp/cctLfbcG.s:2256   .debug_str:0000000000000265 .LASF89
     /tmp/cctLfbcG.s:46     .text:0000000000000020 .LFB32
     /tmp/cctLfbcG.s:348    .text:000000000000013c .LFE32
     /tmp/cctLfbcG.s:2188   .debug_str:000000000000004e .LASF90
     /tmp/cctLfbcG.s:2082   .debug_loc:0000000000000000 .LLST0
     /tmp/cctLfbcG.s:128    .text:0000000000000088 .LBB56
     /tmp/cctLfbcG.s:204    .text:00000000000000c4 .LBE56
GAS LISTING /tmp/cctLfbcG.s 			page 16


     /tmp/cctLfbcG.s:2300   .debug_str:00000000000003a8 .LASF91
     /tmp/cctLfbcG.s:2113   .debug_loc:0000000000000086 .LLST4
     /tmp/cctLfbcG.s:2326   .debug_str:000000000000046b .LASF92
     /tmp/cctLfbcG.s:2120   .debug_loc:00000000000000a9 .LLST5
     /tmp/cctLfbcG.s:130    .text:0000000000000088 .LBB57
     /tmp/cctLfbcG.s:145    .text:0000000000000094 .LBE57
     /tmp/cctLfbcG.s:150    .text:0000000000000098 .LBB59
     /tmp/cctLfbcG.s:166    .text:00000000000000a4 .LBE59
     /tmp/cctLfbcG.s:176    .text:00000000000000b8 .LBB61
     /tmp/cctLfbcG.s:187    .text:00000000000000bc .LBE61
     /tmp/cctLfbcG.s:2127   .debug_loc:00000000000000cc .LLST6
     /tmp/cctLfbcG.s:189    .text:00000000000000bc .LBB63
     /tmp/cctLfbcG.s:203    .text:00000000000000c4 .LBE63
     /tmp/cctLfbcG.s:2134   .debug_loc:00000000000000ef .LLST7
     /tmp/cctLfbcG.s:174    .text:00000000000000b8 .LVL5
     /tmp/cctLfbcG.s:269    .text:0000000000000104 .LBB40
     /tmp/cctLfbcG.s:341    .text:000000000000013c .LBE40
     /tmp/cctLfbcG.s:271    .text:0000000000000104 .LBB41
     /tmp/cctLfbcG.s:287    .text:0000000000000110 .LBE41
     /tmp/cctLfbcG.s:289    .text:0000000000000110 .LBB43
     /tmp/cctLfbcG.s:305    .text:000000000000011c .LBE43
     /tmp/cctLfbcG.s:315    .text:0000000000000130 .LBB45
     /tmp/cctLfbcG.s:326    .text:0000000000000134 .LBE45
     /tmp/cctLfbcG.s:2141   .debug_loc:0000000000000112 .LLST2
     /tmp/cctLfbcG.s:328    .text:0000000000000134 .LBB47
     /tmp/cctLfbcG.s:340    .text:000000000000013c .LBE47
     /tmp/cctLfbcG.s:313    .text:0000000000000130 .LVL18
     /tmp/cctLfbcG.s:62     .text:0000000000000038 .LBB31
     /tmp/cctLfbcG.s:79     .text:0000000000000044 .LBE31
     /tmp/cctLfbcG.s:228    .text:00000000000000f0 .LBB38
     /tmp/cctLfbcG.s:236    .text:00000000000000f4 .LBE38
     /tmp/cctLfbcG.s:2148   .debug_loc:0000000000000135 .LLST1
     /tmp/cctLfbcG.s:243    .text:00000000000000f8 .LBB49
     /tmp/cctLfbcG.s:255    .text:0000000000000100 .LBE49
     /tmp/cctLfbcG.s:2155   .debug_loc:0000000000000158 .LLST3
     /tmp/cctLfbcG.s:209    .text:00000000000000cc .LVL8
     /tmp/cctLfbcG.s:10     .text:0000000000000000 .LFB31
     /tmp/cctLfbcG.s:40     .text:0000000000000020 .LFE31
     /tmp/cctLfbcG.s:2376   .debug_str:000000000000067d .LASF104
     /tmp/cctLfbcG.s:2386   .debug_str:00000000000006b3 .LASF93
     /tmp/cctLfbcG.s:2228   .debug_str:0000000000000192 .LASF105
     /tmp/cctLfbcG.s:77     .text:0000000000000044 .LVL0
     /tmp/cctLfbcG.s:105    .text:0000000000000070 .LVL1
     /tmp/cctLfbcG.s:124    .text:0000000000000088 .LVL2
     /tmp/cctLfbcG.s:200    .text:00000000000000c4 .LVL7
     /tmp/cctLfbcG.s:211    .text:00000000000000d0 .LVL9
     /tmp/cctLfbcG.s:218    .text:00000000000000d8 .LVL10
     /tmp/cctLfbcG.s:239    .text:00000000000000f8 .LVL13
     /tmp/cctLfbcG.s:262    .text:0000000000000104 .LVL15
     /tmp/cctLfbcG.s:148    .text:0000000000000098 .LVL3
     /tmp/cctLfbcG.s:164    .text:00000000000000a4 .LVL4
     /tmp/cctLfbcG.s:184    .text:00000000000000bc .LVL6
     /tmp/cctLfbcG.s:323    .text:0000000000000134 .LVL19
     /tmp/cctLfbcG.s:227    .text:00000000000000f0 .LVL11
     /tmp/cctLfbcG.s:234    .text:00000000000000f4 .LVL12
     /tmp/cctLfbcG.s:252    .text:0000000000000100 .LVL14
     /tmp/cctLfbcG.s:354    .debug_info:0000000000000000 .Ldebug_info0
GAS LISTING /tmp/cctLfbcG.s 			page 17



UNDEFINED SYMBOLS
_ZN6Thread16timeSliceCounterE
_ZN6Thread8dispatchEv
console_handler
_ZN6Thread7runningE
