GAS LISTING /tmp/ccfuBkpt.s 			page 1


   1              		.file	"Scheduler.cpp"
   2              		.option pic
   3              		.option norelax
   4              		.text
   5              	.Ltext0:
   6              		.align	2
   7              		.globl	_ZN9Scheduler3putEP6Thread
   9              	_ZN9Scheduler3putEP6Thread:
  10              	.LFB4:
  11              		.file 1 "src/Scheduler.cpp"
   1:src/Scheduler.cpp **** #include "../h/Scheduler.h"
   2:src/Scheduler.cpp **** #include "../h/Thread.h"
   3:src/Scheduler.cpp **** void Scheduler::put(Thread* t) {
  12              		.loc 1 3 32
  13              		.cfi_startproc
  14              	.LVL0:
  15 0000 130101FF 		addi	sp,sp,-16
  16              		.cfi_def_cfa_offset 16
  17 0004 23348100 		sd	s0,8(sp)
  18              		.cfi_offset 8, -8
  19 0008 13040101 		addi	s0,sp,16
  20              		.cfi_def_cfa 8, 0
   4:src/Scheduler.cpp ****     if (!t) return;
  21              		.loc 1 4 5
  22 000c 638E0500 		beqz	a1,.L1
   5:src/Scheduler.cpp ****     t->next = nullptr;
  23              		.loc 1 5 5
  24              		.loc 1 5 13 is_stmt 0
  25 0010 23B00500 		sd	zero,0(a1)
   6:src/Scheduler.cpp **** 
   7:src/Scheduler.cpp ****     if (!head) {
  26              		.loc 1 7 5 is_stmt 1
  27              		.loc 1 7 10 is_stmt 0
  28 0014 83370500 		ld	a5,0(a0)
  29              		.loc 1 7 5
  30 0018 638E0700 		beqz	a5,.L6
   8:src/Scheduler.cpp ****         head = t;
   9:src/Scheduler.cpp ****     } else {
  10:src/Scheduler.cpp ****         tail->next = t;
  31              		.loc 1 10 9 is_stmt 1
  32 001c 83378500 		ld	a5,8(a0)
  33              		.loc 1 10 20 is_stmt 0
  34 0020 23B0B700 		sd	a1,0(a5)
  35              	.L4:
  11:src/Scheduler.cpp ****     }
  12:src/Scheduler.cpp ****     tail = t;
  36              		.loc 1 12 5 is_stmt 1
  37              		.loc 1 12 10 is_stmt 0
  38 0024 2334B500 		sd	a1,8(a0)
  39              	.L1:
  13:src/Scheduler.cpp **** }
  40              		.loc 1 13 1
  41 0028 03348100 		ld	s0,8(sp)
  42              		.cfi_remember_state
  43              		.cfi_restore 8
  44              		.cfi_def_cfa 2, 16
  45 002c 13010101 		addi	sp,sp,16
GAS LISTING /tmp/ccfuBkpt.s 			page 2


  46              		.cfi_def_cfa_offset 0
  47 0030 67800000 		jr	ra
  48              	.L6:
  49              		.cfi_restore_state
   8:src/Scheduler.cpp ****         head = t;
  50              		.loc 1 8 9 is_stmt 1
   8:src/Scheduler.cpp ****         head = t;
  51              		.loc 1 8 14 is_stmt 0
  52 0034 2330B500 		sd	a1,0(a0)
  53 0038 6FF0DFFE 		j	.L4
  54              		.cfi_endproc
  55              	.LFE4:
  57              		.align	2
  58              		.globl	_ZN9Scheduler3getEv
  60              	_ZN9Scheduler3getEv:
  61              	.LFB5:
  14:src/Scheduler.cpp **** 
  15:src/Scheduler.cpp **** Thread* Scheduler::get() {
  62              		.loc 1 15 26 is_stmt 1
  63              		.cfi_startproc
  64              	.LVL1:
  65 003c 130101FF 		addi	sp,sp,-16
  66              		.cfi_def_cfa_offset 16
  67 0040 23348100 		sd	s0,8(sp)
  68              		.cfi_offset 8, -8
  69 0044 13040101 		addi	s0,sp,16
  70              		.cfi_def_cfa 8, 0
  71 0048 93070500 		mv	a5,a0
  16:src/Scheduler.cpp ****     if (!head) {
  72              		.loc 1 16 5
  73              		.loc 1 16 10 is_stmt 0
  74 004c 03350500 		ld	a0,0(a0)
  75              	.LVL2:
  76              		.loc 1 16 5
  77 0050 630A0500 		beqz	a0,.L7
  17:src/Scheduler.cpp ****         return nullptr;
  18:src/Scheduler.cpp ****     }
  19:src/Scheduler.cpp **** 
  20:src/Scheduler.cpp ****     Thread* t = head;
  78              		.loc 1 20 5 is_stmt 1
  79              	.LVL3:
  21:src/Scheduler.cpp ****     head = head->next;
  80              		.loc 1 21 5
  81              		.loc 1 21 18 is_stmt 0
  82 0054 03370500 		ld	a4,0(a0)
  83              		.loc 1 21 10
  84 0058 23B0E700 		sd	a4,0(a5)
  22:src/Scheduler.cpp **** 
  23:src/Scheduler.cpp ****     if (!head) {
  85              		.loc 1 23 5 is_stmt 1
  86 005c 630A0700 		beqz	a4,.L11
  87              	.L9:
  24:src/Scheduler.cpp ****         tail = nullptr;
  25:src/Scheduler.cpp ****     }
  26:src/Scheduler.cpp **** 
  27:src/Scheduler.cpp ****     t->next = nullptr;
  88              		.loc 1 27 5
GAS LISTING /tmp/ccfuBkpt.s 			page 3


  89              		.loc 1 27 13 is_stmt 0
  90 0060 23300500 		sd	zero,0(a0)
  28:src/Scheduler.cpp ****     return t;
  91              		.loc 1 28 5 is_stmt 1
  92              	.LVL4:
  93              	.L7:
  29:src/Scheduler.cpp **** }...
  94              		.loc 1 29 1 is_stmt 0
  95 0064 03348100 		ld	s0,8(sp)
  96              		.cfi_remember_state
  97              		.cfi_restore 8
  98              		.cfi_def_cfa 2, 16
  99 0068 13010101 		addi	sp,sp,16
 100              		.cfi_def_cfa_offset 0
 101 006c 67800000 		jr	ra
 102              	.LVL5:
 103              	.L11:
 104              		.cfi_restore_state
  24:src/Scheduler.cpp ****         tail = nullptr;
 105              		.loc 1 24 9 is_stmt 1
  24:src/Scheduler.cpp ****         tail = nullptr;
 106              		.loc 1 24 14 is_stmt 0
 107 0070 23B40700 		sd	zero,8(a5)
 108 0074 6FF0DFFE 		j	.L9
 109              		.cfi_endproc
 110              	.LFE5:
 112              	.Letext0:
 113              		.file 2 "src/../h/Scheduler.h"
 114              		.file 3 "src/../h/Thread.h"
 115              		.file 4 "src/../h/../lib/hw.h"
GAS LISTING /tmp/ccfuBkpt.s 			page 4


DEFINED SYMBOLS
                            *ABS*:0000000000000000 Scheduler.cpp
     /tmp/ccfuBkpt.s:9      .text:0000000000000000 _ZN9Scheduler3putEP6Thread
     /tmp/ccfuBkpt.s:13     .text:0000000000000000 .L0 
     /tmp/ccfuBkpt.s:15     .text:0000000000000000 .L0 
     /tmp/ccfuBkpt.s:16     .text:0000000000000004 .L0 
     /tmp/ccfuBkpt.s:18     .text:0000000000000008 .L0 
     /tmp/ccfuBkpt.s:20     .text:000000000000000c .L0 
     /tmp/ccfuBkpt.s:22     .text:000000000000000c .L0 
     /tmp/ccfuBkpt.s:24     .text:0000000000000010 .L0 
     /tmp/ccfuBkpt.s:25     .text:0000000000000010 .L0 
     /tmp/ccfuBkpt.s:27     .text:0000000000000014 .L0 
     /tmp/ccfuBkpt.s:28     .text:0000000000000014 .L0 
     /tmp/ccfuBkpt.s:30     .text:0000000000000018 .L0 
     /tmp/ccfuBkpt.s:32     .text:000000000000001c .L0 
     /tmp/ccfuBkpt.s:34     .text:0000000000000020 .L0 
     /tmp/ccfuBkpt.s:37     .text:0000000000000024 .L0 
     /tmp/ccfuBkpt.s:38     .text:0000000000000024 .L0 
     /tmp/ccfuBkpt.s:41     .text:0000000000000028 .L0 
     /tmp/ccfuBkpt.s:42     .text:000000000000002c .L0 
     /tmp/ccfuBkpt.s:43     .text:000000000000002c .L0 
     /tmp/ccfuBkpt.s:44     .text:000000000000002c .L0 
     /tmp/ccfuBkpt.s:46     .text:0000000000000030 .L0 
     /tmp/ccfuBkpt.s:49     .text:0000000000000034 .L0 
     /tmp/ccfuBkpt.s:51     .text:0000000000000034 .L0 
     /tmp/ccfuBkpt.s:52     .text:0000000000000034 .L0 
     /tmp/ccfuBkpt.s:54     .text:000000000000003c .L0 
     /tmp/ccfuBkpt.s:60     .text:000000000000003c _ZN9Scheduler3getEv
     /tmp/ccfuBkpt.s:63     .text:000000000000003c .L0 
     /tmp/ccfuBkpt.s:65     .text:000000000000003c .L0 
     /tmp/ccfuBkpt.s:66     .text:0000000000000040 .L0 
     /tmp/ccfuBkpt.s:68     .text:0000000000000044 .L0 
     /tmp/ccfuBkpt.s:70     .text:0000000000000048 .L0 
     /tmp/ccfuBkpt.s:73     .text:000000000000004c .L0 
     /tmp/ccfuBkpt.s:74     .text:000000000000004c .L0 
     /tmp/ccfuBkpt.s:77     .text:0000000000000050 .L0 
     /tmp/ccfuBkpt.s:80     .text:0000000000000054 .L0 
     /tmp/ccfuBkpt.s:81     .text:0000000000000054 .L0 
     /tmp/ccfuBkpt.s:82     .text:0000000000000054 .L0 
     /tmp/ccfuBkpt.s:84     .text:0000000000000058 .L0 
     /tmp/ccfuBkpt.s:86     .text:000000000000005c .L0 
     /tmp/ccfuBkpt.s:89     .text:0000000000000060 .L0 
     /tmp/ccfuBkpt.s:90     .text:0000000000000060 .L0 
     /tmp/ccfuBkpt.s:94     .text:0000000000000064 .L0 
     /tmp/ccfuBkpt.s:95     .text:0000000000000064 .L0 
     /tmp/ccfuBkpt.s:96     .text:0000000000000068 .L0 
     /tmp/ccfuBkpt.s:97     .text:0000000000000068 .L0 
     /tmp/ccfuBkpt.s:98     .text:0000000000000068 .L0 
     /tmp/ccfuBkpt.s:100    .text:000000000000006c .L0 
     /tmp/ccfuBkpt.s:104    .text:0000000000000070 .L0 
     /tmp/ccfuBkpt.s:106    .text:0000000000000070 .L0 
     /tmp/ccfuBkpt.s:107    .text:0000000000000070 .L0 
     /tmp/ccfuBkpt.s:109    .text:0000000000000078 .L0 
     /tmp/ccfuBkpt.s:116    .text:0000000000000078 .L0 
     /tmp/ccfuBkpt.s:39     .text:0000000000000028 .L1
     /tmp/ccfuBkpt.s:48     .text:0000000000000034 .L6
     /tmp/ccfuBkpt.s:35     .text:0000000000000024 .L4
GAS LISTING /tmp/ccfuBkpt.s 			page 5


     /tmp/ccfuBkpt.s:93     .text:0000000000000064 .L7
     /tmp/ccfuBkpt.s:103    .text:0000000000000070 .L11
     /tmp/ccfuBkpt.s:87     .text:0000000000000060 .L9
     /tmp/ccfuBkpt.s:551    .debug_abbrev:0000000000000000 .Ldebug_abbrev0
     /tmp/ccfuBkpt.s:1246   .debug_str:000000000000017c .LASF31
     /tmp/ccfuBkpt.s:1252   .debug_str:0000000000000257 .LASF32
     /tmp/ccfuBkpt.s:1262   .debug_str:000000000000029f .LASF33
     /tmp/ccfuBkpt.s:5      .text:0000000000000000 .Ltext0
     /tmp/ccfuBkpt.s:112    .text:0000000000000078 .Letext0
     /tmp/ccfuBkpt.s:1192   .debug_line:0000000000000000 .Ldebug_line0
     /tmp/ccfuBkpt.s:1216   .debug_str:000000000000009e .LASF0
     /tmp/ccfuBkpt.s:1274   .debug_str:00000000000002f9 .LASF34
     /tmp/ccfuBkpt.s:1220   .debug_str:00000000000000bb .LASF35
     /tmp/ccfuBkpt.s:1234   .debug_str:0000000000000128 .LASF36
     /tmp/ccfuBkpt.s:1286   .debug_str:0000000000000354 .LASF37
     /tmp/ccfuBkpt.s:1278   .debug_str:0000000000000325 .LASF38
     /tmp/ccfuBkpt.s:1256   .debug_str:000000000000026f .LASF39
     /tmp/ccfuBkpt.s:1204   .debug_str:0000000000000051 .LASF40
     /tmp/ccfuBkpt.s:1250   .debug_str:0000000000000245 .LASF5
     /tmp/ccfuBkpt.s:1248   .debug_str:0000000000000240 .LASF1
     /tmp/ccfuBkpt.s:1280   .debug_str:000000000000033a .LASF2
     /tmp/ccfuBkpt.s:1224   .debug_str:00000000000000e3 .LASF3
     /tmp/ccfuBkpt.s:1214   .debug_str:0000000000000096 .LASF41
     /tmp/ccfuBkpt.s:1266   .debug_str:00000000000002be .LASF4
     /tmp/ccfuBkpt.s:1276   .debug_str:0000000000000302 .LASF42
     /tmp/ccfuBkpt.s:1264   .debug_str:00000000000002b9 .LASF43
     /tmp/ccfuBkpt.s:1260   .debug_str:0000000000000297 .LASF44
     /tmp/ccfuBkpt.s:1254   .debug_str:0000000000000269 .LASF45
     /tmp/ccfuBkpt.s:1290   .debug_str:0000000000000363 .LASF46
     /tmp/ccfuBkpt.s:1202   .debug_str:0000000000000038 .LASF6
     /tmp/ccfuBkpt.s:1288   .debug_str:000000000000035e .LASF7
     /tmp/ccfuBkpt.s:1270   .debug_str:00000000000002e1 .LASF8
     /tmp/ccfuBkpt.s:1210   .debug_str:000000000000007a .LASF9
     /tmp/ccfuBkpt.s:1242   .debug_str:0000000000000165 .LASF10
     /tmp/ccfuBkpt.s:1238   .debug_str:0000000000000150 .LASF11
     /tmp/ccfuBkpt.s:1194   .debug_str:0000000000000000 .LASF47
     /tmp/ccfuBkpt.s:1230   .debug_str:00000000000000fd .LASF48
     /tmp/ccfuBkpt.s:1258   .debug_str:000000000000028a .LASF12
     /tmp/ccfuBkpt.s:1236   .debug_str:000000000000013d .LASF13
     /tmp/ccfuBkpt.s:1226   .debug_str:00000000000000ea .LASF14
     /tmp/ccfuBkpt.s:1208   .debug_str:0000000000000073 .LASF16
     /tmp/ccfuBkpt.s:1244   .debug_str:000000000000016a .LASF15
     /tmp/ccfuBkpt.s:1198   .debug_str:0000000000000021 .LASF17
     /tmp/ccfuBkpt.s:1196   .debug_str:000000000000000e .LASF18
     /tmp/ccfuBkpt.s:1218   .debug_str:00000000000000a8 .LASF19
     /tmp/ccfuBkpt.s:1200   .debug_str:0000000000000028 .LASF20
     /tmp/ccfuBkpt.s:1206   .debug_str:0000000000000065 .LASF21
     /tmp/ccfuBkpt.s:1232   .debug_str:0000000000000119 .LASF22
     /tmp/ccfuBkpt.s:1222   .debug_str:00000000000000d4 .LASF23
     /tmp/ccfuBkpt.s:1284   .debug_str:0000000000000344 .LASF24
     /tmp/ccfuBkpt.s:1272   .debug_str:00000000000002e9 .LASF25
     /tmp/ccfuBkpt.s:1240   .debug_str:0000000000000159 .LASF26
     /tmp/ccfuBkpt.s:1212   .debug_str:0000000000000080 .LASF27
     /tmp/ccfuBkpt.s:1268   .debug_str:00000000000002cb .LASF28
     /tmp/ccfuBkpt.s:1282   .debug_str:000000000000033f .LASF29
     /tmp/ccfuBkpt.s:61     .text:000000000000003c .LFB5
     /tmp/ccfuBkpt.s:110    .text:0000000000000078 .LFE5
GAS LISTING /tmp/ccfuBkpt.s 			page 6


     /tmp/ccfuBkpt.s:1228   .debug_str:00000000000000f8 .LASF30
     /tmp/ccfuBkpt.s:1157   .debug_loc:0000000000000000 .LLST0
     /tmp/ccfuBkpt.s:1168   .debug_loc:0000000000000036 .LLST1
     /tmp/ccfuBkpt.s:10     .text:0000000000000000 .LFB4
     /tmp/ccfuBkpt.s:55     .text:000000000000003c .LFE4
     /tmp/ccfuBkpt.s:64     .text:000000000000003c .LVL1
     /tmp/ccfuBkpt.s:75     .text:0000000000000050 .LVL2
     /tmp/ccfuBkpt.s:79     .text:0000000000000054 .LVL3
     /tmp/ccfuBkpt.s:92     .text:0000000000000064 .LVL4
     /tmp/ccfuBkpt.s:102    .text:0000000000000070 .LVL5
     /tmp/ccfuBkpt.s:117    .debug_info:0000000000000000 .Ldebug_info0

NO UNDEFINED SYMBOLS
