GAS LISTING C:\msys64\tmp\cc3NvGHF.s 			page 1


   1              		.file	"Scheduler.cpp"
   2              		.option nopic
   3              		.option norelax
   4              		.attribute arch, "rv64i2p0_m2p0_a2p0"
   5              		.attribute unaligned_access, 0
   6              		.attribute stack_align, 16
   7              		.text
   8              	.Ltext0:
   9              		.align	2
  10              		.globl	_ZN9Scheduler3putEP6Thread
  12              	_ZN9Scheduler3putEP6Thread:
  13              	.LFB13:
  14              		.file 1 "src/Scheduler.cpp"
   1:src/Scheduler.cpp **** #include "../h/Scheduler.h"
   2:src/Scheduler.cpp **** #include "../h/Thread.h"
   3:src/Scheduler.cpp **** void Scheduler::put(Thread* t) {
  15              		.loc 1 3 32
  16              		.cfi_startproc
  17              	.LVL0:
  18 0000 130101FF 		addi	sp,sp,-16
  19              		.cfi_def_cfa_offset 16
  20 0004 23348100 		sd	s0,8(sp)
  21              		.cfi_offset 8, -8
  22 0008 13040101 		addi	s0,sp,16
  23              		.cfi_def_cfa 8, 0
   4:src/Scheduler.cpp ****     if (!t) return;
  24              		.loc 1 4 5
  25 000c 638E0500 		beq	a1,zero,.L1
   5:src/Scheduler.cpp ****     t->next = nullptr;
  26              		.loc 1 5 5
  27              		.loc 1 5 13 is_stmt 0
  28 0010 23B00500 		sd	zero,0(a1)
   6:src/Scheduler.cpp **** 
   7:src/Scheduler.cpp ****     if (!head) {
  29              		.loc 1 7 5 is_stmt 1
  30              		.loc 1 7 10 is_stmt 0
  31 0014 83370500 		ld	a5,0(a0)
  32              		.loc 1 7 5
  33 0018 638E0700 		beq	a5,zero,.L6
   8:src/Scheduler.cpp ****         head = t;
   9:src/Scheduler.cpp ****     } else {
  10:src/Scheduler.cpp ****         tail->next = t;
  34              		.loc 1 10 9 is_stmt 1
  35 001c 83378500 		ld	a5,8(a0)
  36              		.loc 1 10 20 is_stmt 0
  37 0020 23B0B700 		sd	a1,0(a5)
  38              	.L4:
  11:src/Scheduler.cpp ****     }
  12:src/Scheduler.cpp ****     tail = t;
  39              		.loc 1 12 5 is_stmt 1
  40              		.loc 1 12 10 is_stmt 0
  41 0024 2334B500 		sd	a1,8(a0)
  42              	.L1:
  13:src/Scheduler.cpp **** }
  43              		.loc 1 13 1
  44 0028 03348100 		ld	s0,8(sp)
  45              		.cfi_remember_state
GAS LISTING C:\msys64\tmp\cc3NvGHF.s 			page 2


  46              		.cfi_restore 8
  47              		.cfi_def_cfa 2, 16
  48 002c 13010101 		addi	sp,sp,16
  49              		.cfi_def_cfa_offset 0
  50 0030 67800000 		jr	ra
  51              	.L6:
  52              		.cfi_restore_state
   8:src/Scheduler.cpp ****         head = t;
  53              		.loc 1 8 9 is_stmt 1
   8:src/Scheduler.cpp ****         head = t;
  54              		.loc 1 8 14 is_stmt 0
  55 0034 2330B500 		sd	a1,0(a0)
  56 0038 6FF0DFFE 		j	.L4
  57              		.cfi_endproc
  58              	.LFE13:
  60              		.align	2
  61              		.globl	_ZN9Scheduler3getEv
  63              	_ZN9Scheduler3getEv:
  64              	.LFB14:
  14:src/Scheduler.cpp **** 
  15:src/Scheduler.cpp **** Thread* Scheduler::get() {
  65              		.loc 1 15 26 is_stmt 1
  66              		.cfi_startproc
  67              	.LVL1:
  68 003c 130101FF 		addi	sp,sp,-16
  69              		.cfi_def_cfa_offset 16
  70 0040 23348100 		sd	s0,8(sp)
  71              		.cfi_offset 8, -8
  72 0044 13040101 		addi	s0,sp,16
  73              		.cfi_def_cfa 8, 0
  74 0048 93070500 		mv	a5,a0
  16:src/Scheduler.cpp ****     if (!head) {
  75              		.loc 1 16 5
  76              		.loc 1 16 10 is_stmt 0
  77 004c 03350500 		ld	a0,0(a0)
  78              	.LVL2:
  79              		.loc 1 16 5
  80 0050 630A0500 		beq	a0,zero,.L7
  17:src/Scheduler.cpp ****         return nullptr;
  18:src/Scheduler.cpp ****     }
  19:src/Scheduler.cpp **** 
  20:src/Scheduler.cpp ****     Thread* t = head;
  81              		.loc 1 20 5 is_stmt 1
  82              	.LVL3:
  21:src/Scheduler.cpp ****     head = head->next;
  83              		.loc 1 21 5
  84              		.loc 1 21 18 is_stmt 0
  85 0054 03370500 		ld	a4,0(a0)
  86              		.loc 1 21 10
  87 0058 23B0E700 		sd	a4,0(a5)
  22:src/Scheduler.cpp **** 
  23:src/Scheduler.cpp ****     if (!head) {
  88              		.loc 1 23 5 is_stmt 1
  89 005c 630A0700 		beq	a4,zero,.L11
  90              	.L9:
  24:src/Scheduler.cpp ****         tail = nullptr;
  25:src/Scheduler.cpp ****     }
GAS LISTING C:\msys64\tmp\cc3NvGHF.s 			page 3


  26:src/Scheduler.cpp **** 
  27:src/Scheduler.cpp ****     t->next = nullptr;
  91              		.loc 1 27 5
  92              		.loc 1 27 13 is_stmt 0
  93 0060 23300500 		sd	zero,0(a0)
  28:src/Scheduler.cpp ****     return t;
  94              		.loc 1 28 5 is_stmt 1
  95              	.LVL4:
  96              	.L7:
  29:src/Scheduler.cpp **** }...
  97              		.loc 1 29 1 is_stmt 0
  98 0064 03348100 		ld	s0,8(sp)
  99              		.cfi_remember_state
 100              		.cfi_restore 8
 101              		.cfi_def_cfa 2, 16
 102 0068 13010101 		addi	sp,sp,16
 103              		.cfi_def_cfa_offset 0
 104 006c 67800000 		jr	ra
 105              	.LVL5:
 106              	.L11:
 107              		.cfi_restore_state
  24:src/Scheduler.cpp ****         tail = nullptr;
 108              		.loc 1 24 9 is_stmt 1
  24:src/Scheduler.cpp ****         tail = nullptr;
 109              		.loc 1 24 14 is_stmt 0
 110 0070 23B40700 		sd	zero,8(a5)
 111 0074 6FF0DFFE 		j	.L9
 112              		.cfi_endproc
 113              	.LFE14:
 115              	.Letext0:
 116              		.file 2 "src/../h/Scheduler.h"
 117              		.file 3 "src/../h/Thread.h"
 118              		.file 4 "src/../h/../lib/hw.h"
GAS LISTING C:\msys64\tmp\cc3NvGHF.s 			page 4


DEFINED SYMBOLS
                            *ABS*:0000000000000000 Scheduler.cpp
C:\msys64\tmp\cc3NvGHF.s:12     .text:0000000000000000 _ZN9Scheduler3putEP6Thread
C:\msys64\tmp\cc3NvGHF.s:16     .text:0000000000000000 .L0 
C:\msys64\tmp\cc3NvGHF.s:18     .text:0000000000000000 .L0 
C:\msys64\tmp\cc3NvGHF.s:19     .text:0000000000000004 .L0 
C:\msys64\tmp\cc3NvGHF.s:21     .text:0000000000000008 .L0 
C:\msys64\tmp\cc3NvGHF.s:23     .text:000000000000000c .L0 
C:\msys64\tmp\cc3NvGHF.s:25     .text:000000000000000c .L0 
C:\msys64\tmp\cc3NvGHF.s:27     .text:0000000000000010 .L0 
C:\msys64\tmp\cc3NvGHF.s:28     .text:0000000000000010 .L0 
C:\msys64\tmp\cc3NvGHF.s:30     .text:0000000000000014 .L0 
C:\msys64\tmp\cc3NvGHF.s:31     .text:0000000000000014 .L0 
C:\msys64\tmp\cc3NvGHF.s:33     .text:0000000000000018 .L0 
C:\msys64\tmp\cc3NvGHF.s:35     .text:000000000000001c .L0 
C:\msys64\tmp\cc3NvGHF.s:37     .text:0000000000000020 .L0 
C:\msys64\tmp\cc3NvGHF.s:40     .text:0000000000000024 .L0 
C:\msys64\tmp\cc3NvGHF.s:41     .text:0000000000000024 .L0 
C:\msys64\tmp\cc3NvGHF.s:44     .text:0000000000000028 .L0 
C:\msys64\tmp\cc3NvGHF.s:45     .text:000000000000002c .L0 
C:\msys64\tmp\cc3NvGHF.s:46     .text:000000000000002c .L0 
C:\msys64\tmp\cc3NvGHF.s:47     .text:000000000000002c .L0 
C:\msys64\tmp\cc3NvGHF.s:49     .text:0000000000000030 .L0 
C:\msys64\tmp\cc3NvGHF.s:52     .text:0000000000000034 .L0 
C:\msys64\tmp\cc3NvGHF.s:54     .text:0000000000000034 .L0 
C:\msys64\tmp\cc3NvGHF.s:55     .text:0000000000000034 .L0 
C:\msys64\tmp\cc3NvGHF.s:57     .text:000000000000003c .L0 
C:\msys64\tmp\cc3NvGHF.s:63     .text:000000000000003c _ZN9Scheduler3getEv
C:\msys64\tmp\cc3NvGHF.s:66     .text:000000000000003c .L0 
C:\msys64\tmp\cc3NvGHF.s:68     .text:000000000000003c .L0 
C:\msys64\tmp\cc3NvGHF.s:69     .text:0000000000000040 .L0 
C:\msys64\tmp\cc3NvGHF.s:71     .text:0000000000000044 .L0 
C:\msys64\tmp\cc3NvGHF.s:73     .text:0000000000000048 .L0 
C:\msys64\tmp\cc3NvGHF.s:76     .text:000000000000004c .L0 
C:\msys64\tmp\cc3NvGHF.s:77     .text:000000000000004c .L0 
C:\msys64\tmp\cc3NvGHF.s:80     .text:0000000000000050 .L0 
C:\msys64\tmp\cc3NvGHF.s:83     .text:0000000000000054 .L0 
C:\msys64\tmp\cc3NvGHF.s:84     .text:0000000000000054 .L0 
C:\msys64\tmp\cc3NvGHF.s:85     .text:0000000000000054 .L0 
C:\msys64\tmp\cc3NvGHF.s:87     .text:0000000000000058 .L0 
C:\msys64\tmp\cc3NvGHF.s:89     .text:000000000000005c .L0 
C:\msys64\tmp\cc3NvGHF.s:92     .text:0000000000000060 .L0 
C:\msys64\tmp\cc3NvGHF.s:93     .text:0000000000000060 .L0 
C:\msys64\tmp\cc3NvGHF.s:97     .text:0000000000000064 .L0 
C:\msys64\tmp\cc3NvGHF.s:98     .text:0000000000000064 .L0 
C:\msys64\tmp\cc3NvGHF.s:99     .text:0000000000000068 .L0 
C:\msys64\tmp\cc3NvGHF.s:100    .text:0000000000000068 .L0 
C:\msys64\tmp\cc3NvGHF.s:101    .text:0000000000000068 .L0 
C:\msys64\tmp\cc3NvGHF.s:103    .text:000000000000006c .L0 
C:\msys64\tmp\cc3NvGHF.s:107    .text:0000000000000070 .L0 
C:\msys64\tmp\cc3NvGHF.s:109    .text:0000000000000070 .L0 
C:\msys64\tmp\cc3NvGHF.s:110    .text:0000000000000070 .L0 
C:\msys64\tmp\cc3NvGHF.s:112    .text:0000000000000078 .L0 
C:\msys64\tmp\cc3NvGHF.s:119    .text:0000000000000078 .L0 
C:\msys64\tmp\cc3NvGHF.s:42     .text:0000000000000028 .L1
C:\msys64\tmp\cc3NvGHF.s:51     .text:0000000000000034 .L6
C:\msys64\tmp\cc3NvGHF.s:38     .text:0000000000000024 .L4
GAS LISTING C:\msys64\tmp\cc3NvGHF.s 			page 5


C:\msys64\tmp\cc3NvGHF.s:96     .text:0000000000000064 .L7
C:\msys64\tmp\cc3NvGHF.s:106    .text:0000000000000070 .L11
C:\msys64\tmp\cc3NvGHF.s:90     .text:0000000000000060 .L9
C:\msys64\tmp\cc3NvGHF.s:611    .debug_abbrev:0000000000000000 .Ldebug_abbrev0
C:\msys64\tmp\cc3NvGHF.s:1435   .debug_str:0000000000000239 .LASF43
C:\msys64\tmp\cc3NvGHF.s:1425   .debug_str:00000000000001ea .LASF44
C:\msys64\tmp\cc3NvGHF.s:1439   .debug_str:0000000000000314 .LASF45
C:\msys64\tmp\cc3NvGHF.s:8      .text:0000000000000000 .Ltext0
C:\msys64\tmp\cc3NvGHF.s:115    .text:0000000000000078 .Letext0
C:\msys64\tmp\cc3NvGHF.s:1357   .debug_line:0000000000000000 .Ldebug_line0
C:\msys64\tmp\cc3NvGHF.s:1387   .debug_str:00000000000000b5 .LASF0
C:\msys64\tmp\cc3NvGHF.s:1453   .debug_str:0000000000000399 .LASF46
C:\msys64\tmp\cc3NvGHF.s:1391   .debug_str:00000000000000d2 .LASF47
C:\msys64\tmp\cc3NvGHF.s:1409   .debug_str:0000000000000182 .LASF13
C:\msys64\tmp\cc3NvGHF.s:1469   .debug_str:0000000000000408 .LASF48
C:\msys64\tmp\cc3NvGHF.s:1457   .debug_str:00000000000003aa .LASF49
C:\msys64\tmp\cc3NvGHF.s:1431   .debug_str:0000000000000211 .LASF50
C:\msys64\tmp\cc3NvGHF.s:1371   .debug_str:0000000000000057 .LASF51
C:\msys64\tmp\cc3NvGHF.s:1423   .debug_str:00000000000001d8 .LASF19
C:\msys64\tmp\cc3NvGHF.s:1421   .debug_str:00000000000001d3 .LASF1
C:\msys64\tmp\cc3NvGHF.s:1461   .debug_str:00000000000003cc .LASF2
C:\msys64\tmp\cc3NvGHF.s:1397   .debug_str:0000000000000121 .LASF3
C:\msys64\tmp\cc3NvGHF.s:1383   .debug_str:000000000000009f .LASF52
C:\msys64\tmp\cc3NvGHF.s:1455   .debug_str:00000000000003a2 .LASF4
C:\msys64\tmp\cc3NvGHF.s:1429   .debug_str:0000000000000202 .LASF6
C:\msys64\tmp\cc3NvGHF.s:1447   .debug_str:000000000000036e .LASF5
C:\msys64\tmp\cc3NvGHF.s:1465   .debug_str:00000000000003e4 .LASF7
C:\msys64\tmp\cc3NvGHF.s:1445   .debug_str:0000000000000369 .LASF53
C:\msys64\tmp\cc3NvGHF.s:1437   .debug_str:000000000000030c .LASF54
C:\msys64\tmp\cc3NvGHF.s:1427   .debug_str:00000000000001fc .LASF8
C:\msys64\tmp\cc3NvGHF.s:1477   .debug_str:0000000000000444 .LASF10
C:\msys64\tmp\cc3NvGHF.s:1415   .debug_str:00000000000001b3 .LASF9
C:\msys64\tmp\cc3NvGHF.s:1401   .debug_str:0000000000000136 .LASF11
C:\msys64\tmp\cc3NvGHF.s:1393   .debug_str:00000000000000eb .LASF12
C:\msys64\tmp\cc3NvGHF.s:1475   .debug_str:000000000000042b .LASF14
C:\msys64\tmp\cc3NvGHF.s:1459   .debug_str:00000000000003bf .LASF15
C:\msys64\tmp\cc3NvGHF.s:1369   .debug_str:000000000000003b .LASF16
C:\msys64\tmp\cc3NvGHF.s:1441   .debug_str:0000000000000343 .LASF17
C:\msys64\tmp\cc3NvGHF.s:1443   .debug_str:000000000000034f .LASF18
C:\msys64\tmp\cc3NvGHF.s:1473   .debug_str:0000000000000417 .LASF20
C:\msys64\tmp\cc3NvGHF.s:1359   .debug_str:0000000000000000 .LASF55
C:\msys64\tmp\cc3NvGHF.s:1405   .debug_str:0000000000000157 .LASF56
C:\msys64\tmp\cc3NvGHF.s:1385   .debug_str:00000000000000a7 .LASF57
C:\msys64\tmp\cc3NvGHF.s:1395   .debug_str:00000000000000f6 .LASF58
C:\msys64\tmp\cc3NvGHF.s:1471   .debug_str:0000000000000412 .LASF21
C:\msys64\tmp\cc3NvGHF.s:1417   .debug_str:00000000000001bc .LASF22
C:\msys64\tmp\cc3NvGHF.s:1379   .debug_str:000000000000008d .LASF23
C:\msys64\tmp\cc3NvGHF.s:1451   .debug_str:0000000000000391 .LASF24
C:\msys64\tmp\cc3NvGHF.s:1363   .debug_str:000000000000001f .LASF25
C:\msys64\tmp\cc3NvGHF.s:1413   .debug_str:00000000000001aa .LASF26
C:\msys64\tmp\cc3NvGHF.s:1361   .debug_str:000000000000000e .LASF59
C:\msys64\tmp\cc3NvGHF.s:1367   .debug_str:0000000000000030 .LASF27
C:\msys64\tmp\cc3NvGHF.s:1403   .debug_str:000000000000014c .LASF28
C:\msys64\tmp\cc3NvGHF.s:1433   .debug_str:000000000000022c .LASF29
C:\msys64\tmp\cc3NvGHF.s:1411   .debug_str:0000000000000197 .LASF30
C:\msys64\tmp\cc3NvGHF.s:1399   .debug_str:0000000000000128 .LASF31
C:\msys64\tmp\cc3NvGHF.s:1375   .debug_str:0000000000000081 .LASF33
GAS LISTING C:\msys64\tmp\cc3NvGHF.s 			page 6


C:\msys64\tmp\cc3NvGHF.s:1419   .debug_str:00000000000001c1 .LASF32
C:\msys64\tmp\cc3NvGHF.s:1365   .debug_str:0000000000000029 .LASF34
C:\msys64\tmp\cc3NvGHF.s:1463   .debug_str:00000000000003d1 .LASF35
C:\msys64\tmp\cc3NvGHF.s:1389   .debug_str:00000000000000bf .LASF36
C:\msys64\tmp\cc3NvGHF.s:1407   .debug_str:0000000000000173 .LASF37
C:\msys64\tmp\cc3NvGHF.s:1381   .debug_str:0000000000000093 .LASF38
C:\msys64\tmp\cc3NvGHF.s:1373   .debug_str:000000000000006b .LASF39
C:\msys64\tmp\cc3NvGHF.s:1449   .debug_str:000000000000037b .LASF40
C:\msys64\tmp\cc3NvGHF.s:1467   .debug_str:0000000000000403 .LASF41
C:\msys64\tmp\cc3NvGHF.s:64     .text:000000000000003c .LFB14
C:\msys64\tmp\cc3NvGHF.s:113    .text:0000000000000078 .LFE14
C:\msys64\tmp\cc3NvGHF.s:1377   .debug_str:0000000000000088 .LASF42
C:\msys64\tmp\cc3NvGHF.s:1322   .debug_loc:0000000000000000 .LLST0
C:\msys64\tmp\cc3NvGHF.s:1333   .debug_loc:0000000000000036 .LLST1
C:\msys64\tmp\cc3NvGHF.s:13     .text:0000000000000000 .LFB13
C:\msys64\tmp\cc3NvGHF.s:58     .text:000000000000003c .LFE13
C:\msys64\tmp\cc3NvGHF.s:67     .text:000000000000003c .LVL1
C:\msys64\tmp\cc3NvGHF.s:78     .text:0000000000000050 .LVL2
C:\msys64\tmp\cc3NvGHF.s:82     .text:0000000000000054 .LVL3
C:\msys64\tmp\cc3NvGHF.s:95     .text:0000000000000064 .LVL4
C:\msys64\tmp\cc3NvGHF.s:105    .text:0000000000000070 .LVL5
C:\msys64\tmp\cc3NvGHF.s:120    .debug_info:0000000000000000 .Ldebug_info0

NO UNDEFINED SYMBOLS
