GAS LISTING C:\msys64\tmp\ccOsBnzE.s 			page 1


   1              		.file	"Scheduler.cpp"
   2              		.option nopic
   3              		.option norelax
   4              		.attribute arch, "rv64i2p0_m2p0_a2p0"
   5              		.attribute unaligned_access, 0
   6              		.attribute stack_align, 16
   7              		.text
   8              	.Ltext0:
   9              		.align	2
  10              		.globl	_ZN9Scheduler3putEP7_thread
  12              	_ZN9Scheduler3putEP7_thread:
  13              	.LFB11:
  14              		.file 1 "src/Scheduler.cpp"
   1:src/Scheduler.cpp **** #include "../h/Scheduler.h"
   2:src/Scheduler.cpp **** 
   3:src/Scheduler.cpp **** #include "../h/Thread.h"
   4:src/Scheduler.cpp **** #include "../h/printer.h"
   5:src/Scheduler.cpp **** 
   6:src/Scheduler.cpp **** void Scheduler::put(_thread* t) {
  15              		.loc 1 6 33
  16              		.cfi_startproc
  17              	.LVL0:
  18 0000 130101FF 		addi	sp,sp,-16
  19              		.cfi_def_cfa_offset 16
  20 0004 23348100 		sd	s0,8(sp)
  21              		.cfi_offset 8, -8
  22 0008 13040101 		addi	s0,sp,16
  23              		.cfi_def_cfa 8, 0
   7:src/Scheduler.cpp ****     if (!t) return;
  24              		.loc 1 7 5
  25 000c 638E0500 		beq	a1,zero,.L1
   8:src/Scheduler.cpp ****     t->next = nullptr;
  26              		.loc 1 8 5
  27              		.loc 1 8 13 is_stmt 0
  28 0010 23B00500 		sd	zero,0(a1)
   9:src/Scheduler.cpp **** 
  10:src/Scheduler.cpp ****     if (!head) {
  29              		.loc 1 10 5 is_stmt 1
  30              		.loc 1 10 10 is_stmt 0
  31 0014 83370500 		ld	a5,0(a0)
  32              		.loc 1 10 5
  33 0018 638E0700 		beq	a5,zero,.L6
  11:src/Scheduler.cpp ****         head = t;
  12:src/Scheduler.cpp ****     } else {
  13:src/Scheduler.cpp ****         tail->next = t;
  34              		.loc 1 13 9 is_stmt 1
  35 001c 83378500 		ld	a5,8(a0)
  36              		.loc 1 13 20 is_stmt 0
  37 0020 23B0B700 		sd	a1,0(a5)
  38              	.L4:
  14:src/Scheduler.cpp ****     }
  15:src/Scheduler.cpp ****     tail = t;
  39              		.loc 1 15 5 is_stmt 1
  40              		.loc 1 15 10 is_stmt 0
  41 0024 2334B500 		sd	a1,8(a0)
  42              	.L1:
  16:src/Scheduler.cpp **** }
GAS LISTING C:\msys64\tmp\ccOsBnzE.s 			page 2


  43              		.loc 1 16 1
  44 0028 03348100 		ld	s0,8(sp)
  45              		.cfi_remember_state
  46              		.cfi_restore 8
  47              		.cfi_def_cfa 2, 16
  48 002c 13010101 		addi	sp,sp,16
  49              		.cfi_def_cfa_offset 0
  50 0030 67800000 		jr	ra
  51              	.L6:
  52              		.cfi_restore_state
  11:src/Scheduler.cpp ****         head = t;
  53              		.loc 1 11 9 is_stmt 1
  11:src/Scheduler.cpp ****         head = t;
  54              		.loc 1 11 14 is_stmt 0
  55 0034 2330B500 		sd	a1,0(a0)
  56 0038 6FF0DFFE 		j	.L4
  57              		.cfi_endproc
  58              	.LFE11:
  60              		.align	2
  61              		.globl	_ZN9Scheduler3getEv
  63              	_ZN9Scheduler3getEv:
  64              	.LFB12:
  17:src/Scheduler.cpp **** 
  18:src/Scheduler.cpp **** _thread* Scheduler::get() {
  65              		.loc 1 18 27 is_stmt 1
  66              		.cfi_startproc
  67              	.LVL1:
  68 003c 130101FF 		addi	sp,sp,-16
  69              		.cfi_def_cfa_offset 16
  70 0040 23348100 		sd	s0,8(sp)
  71              		.cfi_offset 8, -8
  72 0044 13040101 		addi	s0,sp,16
  73              		.cfi_def_cfa 8, 0
  74 0048 93070500 		mv	a5,a0
  19:src/Scheduler.cpp ****     if (!head) {
  75              		.loc 1 19 5
  76              		.loc 1 19 10 is_stmt 0
  77 004c 03350500 		ld	a0,0(a0)
  78              	.LVL2:
  79              		.loc 1 19 5
  80 0050 630A0500 		beq	a0,zero,.L7
  20:src/Scheduler.cpp ****         return nullptr;
  21:src/Scheduler.cpp ****     }
  22:src/Scheduler.cpp **** 
  23:src/Scheduler.cpp ****     _thread* t = head;
  81              		.loc 1 23 5 is_stmt 1
  82              	.LVL3:
  24:src/Scheduler.cpp ****     head = head->next;
  83              		.loc 1 24 5
  84              		.loc 1 24 18 is_stmt 0
  85 0054 03370500 		ld	a4,0(a0)
  86              		.loc 1 24 10
  87 0058 23B0E700 		sd	a4,0(a5)
  25:src/Scheduler.cpp **** 
  26:src/Scheduler.cpp ****     if (!head) {
  88              		.loc 1 26 5 is_stmt 1
  89 005c 630A0700 		beq	a4,zero,.L11
GAS LISTING C:\msys64\tmp\ccOsBnzE.s 			page 3


  90              	.L9:
  27:src/Scheduler.cpp ****         tail = nullptr;
  28:src/Scheduler.cpp ****     }
  29:src/Scheduler.cpp **** 
  30:src/Scheduler.cpp ****     t->next = nullptr;
  91              		.loc 1 30 5
  92              		.loc 1 30 13 is_stmt 0
  93 0060 23300500 		sd	zero,0(a0)
  31:src/Scheduler.cpp ****     return t;
  94              		.loc 1 31 5 is_stmt 1
  95              	.LVL4:
  96              	.L7:
  32:src/Scheduler.cpp **** }...
  97              		.loc 1 32 1 is_stmt 0
  98 0064 03348100 		ld	s0,8(sp)
  99              		.cfi_remember_state
 100              		.cfi_restore 8
 101              		.cfi_def_cfa 2, 16
 102 0068 13010101 		addi	sp,sp,16
 103              		.cfi_def_cfa_offset 0
 104 006c 67800000 		jr	ra
 105              	.LVL5:
 106              	.L11:
 107              		.cfi_restore_state
  27:src/Scheduler.cpp ****         tail = nullptr;
 108              		.loc 1 27 9 is_stmt 1
  27:src/Scheduler.cpp ****         tail = nullptr;
 109              		.loc 1 27 14 is_stmt 0
 110 0070 23B40700 		sd	zero,8(a5)
 111 0074 6FF0DFFE 		j	.L9
 112              		.cfi_endproc
 113              	.LFE12:
 115              	.Letext0:
 116              		.file 2 "src/../h/Scheduler.h"
 117              		.file 3 "src/../h/Thread.h"
 118              		.file 4 "src/../h/../lib/hw.h"
GAS LISTING C:\msys64\tmp\ccOsBnzE.s 			page 4


DEFINED SYMBOLS
                            *ABS*:0000000000000000 Scheduler.cpp
C:\msys64\tmp\ccOsBnzE.s:12     .text:0000000000000000 _ZN9Scheduler3putEP7_thread
C:\msys64\tmp\ccOsBnzE.s:16     .text:0000000000000000 .L0 
C:\msys64\tmp\ccOsBnzE.s:18     .text:0000000000000000 .L0 
C:\msys64\tmp\ccOsBnzE.s:19     .text:0000000000000004 .L0 
C:\msys64\tmp\ccOsBnzE.s:21     .text:0000000000000008 .L0 
C:\msys64\tmp\ccOsBnzE.s:23     .text:000000000000000c .L0 
C:\msys64\tmp\ccOsBnzE.s:25     .text:000000000000000c .L0 
C:\msys64\tmp\ccOsBnzE.s:27     .text:0000000000000010 .L0 
C:\msys64\tmp\ccOsBnzE.s:28     .text:0000000000000010 .L0 
C:\msys64\tmp\ccOsBnzE.s:30     .text:0000000000000014 .L0 
C:\msys64\tmp\ccOsBnzE.s:31     .text:0000000000000014 .L0 
C:\msys64\tmp\ccOsBnzE.s:33     .text:0000000000000018 .L0 
C:\msys64\tmp\ccOsBnzE.s:35     .text:000000000000001c .L0 
C:\msys64\tmp\ccOsBnzE.s:37     .text:0000000000000020 .L0 
C:\msys64\tmp\ccOsBnzE.s:40     .text:0000000000000024 .L0 
C:\msys64\tmp\ccOsBnzE.s:41     .text:0000000000000024 .L0 
C:\msys64\tmp\ccOsBnzE.s:44     .text:0000000000000028 .L0 
C:\msys64\tmp\ccOsBnzE.s:45     .text:000000000000002c .L0 
C:\msys64\tmp\ccOsBnzE.s:46     .text:000000000000002c .L0 
C:\msys64\tmp\ccOsBnzE.s:47     .text:000000000000002c .L0 
C:\msys64\tmp\ccOsBnzE.s:49     .text:0000000000000030 .L0 
C:\msys64\tmp\ccOsBnzE.s:52     .text:0000000000000034 .L0 
C:\msys64\tmp\ccOsBnzE.s:54     .text:0000000000000034 .L0 
C:\msys64\tmp\ccOsBnzE.s:55     .text:0000000000000034 .L0 
C:\msys64\tmp\ccOsBnzE.s:57     .text:000000000000003c .L0 
C:\msys64\tmp\ccOsBnzE.s:63     .text:000000000000003c _ZN9Scheduler3getEv
C:\msys64\tmp\ccOsBnzE.s:66     .text:000000000000003c .L0 
C:\msys64\tmp\ccOsBnzE.s:68     .text:000000000000003c .L0 
C:\msys64\tmp\ccOsBnzE.s:69     .text:0000000000000040 .L0 
C:\msys64\tmp\ccOsBnzE.s:71     .text:0000000000000044 .L0 
C:\msys64\tmp\ccOsBnzE.s:73     .text:0000000000000048 .L0 
C:\msys64\tmp\ccOsBnzE.s:76     .text:000000000000004c .L0 
C:\msys64\tmp\ccOsBnzE.s:77     .text:000000000000004c .L0 
C:\msys64\tmp\ccOsBnzE.s:80     .text:0000000000000050 .L0 
C:\msys64\tmp\ccOsBnzE.s:83     .text:0000000000000054 .L0 
C:\msys64\tmp\ccOsBnzE.s:84     .text:0000000000000054 .L0 
C:\msys64\tmp\ccOsBnzE.s:85     .text:0000000000000054 .L0 
C:\msys64\tmp\ccOsBnzE.s:87     .text:0000000000000058 .L0 
C:\msys64\tmp\ccOsBnzE.s:89     .text:000000000000005c .L0 
C:\msys64\tmp\ccOsBnzE.s:92     .text:0000000000000060 .L0 
C:\msys64\tmp\ccOsBnzE.s:93     .text:0000000000000060 .L0 
C:\msys64\tmp\ccOsBnzE.s:97     .text:0000000000000064 .L0 
C:\msys64\tmp\ccOsBnzE.s:98     .text:0000000000000064 .L0 
C:\msys64\tmp\ccOsBnzE.s:99     .text:0000000000000068 .L0 
C:\msys64\tmp\ccOsBnzE.s:100    .text:0000000000000068 .L0 
C:\msys64\tmp\ccOsBnzE.s:101    .text:0000000000000068 .L0 
C:\msys64\tmp\ccOsBnzE.s:103    .text:000000000000006c .L0 
C:\msys64\tmp\ccOsBnzE.s:107    .text:0000000000000070 .L0 
C:\msys64\tmp\ccOsBnzE.s:109    .text:0000000000000070 .L0 
C:\msys64\tmp\ccOsBnzE.s:110    .text:0000000000000070 .L0 
C:\msys64\tmp\ccOsBnzE.s:112    .text:0000000000000078 .L0 
C:\msys64\tmp\ccOsBnzE.s:119    .text:0000000000000078 .L0 
C:\msys64\tmp\ccOsBnzE.s:42     .text:0000000000000028 .L1
C:\msys64\tmp\ccOsBnzE.s:51     .text:0000000000000034 .L6
C:\msys64\tmp\ccOsBnzE.s:38     .text:0000000000000024 .L4
GAS LISTING C:\msys64\tmp\ccOsBnzE.s 			page 5


C:\msys64\tmp\ccOsBnzE.s:96     .text:0000000000000064 .L7
C:\msys64\tmp\ccOsBnzE.s:106    .text:0000000000000070 .L11
C:\msys64\tmp\ccOsBnzE.s:90     .text:0000000000000060 .L9
C:\msys64\tmp\ccOsBnzE.s:677    .debug_abbrev:0000000000000000 .Ldebug_abbrev0
C:\msys64\tmp\ccOsBnzE.s:1406   .debug_str:000000000000008e .LASF49
C:\msys64\tmp\ccOsBnzE.s:1512   .debug_str:000000000000047e .LASF50
C:\msys64\tmp\ccOsBnzE.s:1484   .debug_str:0000000000000362 .LASF51
C:\msys64\tmp\ccOsBnzE.s:8      .text:0000000000000000 .Ltext0
C:\msys64\tmp\ccOsBnzE.s:115    .text:0000000000000078 .Letext0
C:\msys64\tmp\ccOsBnzE.s:1386   .debug_line:0000000000000000 .Ldebug_line0
C:\msys64\tmp\ccOsBnzE.s:1480   .debug_str:0000000000000345 .LASF0
C:\msys64\tmp\ccOsBnzE.s:1468   .debug_str:00000000000002df .LASF52
C:\msys64\tmp\ccOsBnzE.s:1444   .debug_str:000000000000024c .LASF53
C:\msys64\tmp\ccOsBnzE.s:1502   .debug_str:0000000000000422 .LASF11
C:\msys64\tmp\ccOsBnzE.s:1456   .debug_str:00000000000002a6 .LASF54
C:\msys64\tmp\ccOsBnzE.s:1510   .debug_str:0000000000000469 .LASF55
C:\msys64\tmp\ccOsBnzE.s:1506   .debug_str:0000000000000440 .LASF56
C:\msys64\tmp\ccOsBnzE.s:1448   .debug_str:000000000000026e .LASF57
C:\msys64\tmp\ccOsBnzE.s:1442   .debug_str:000000000000023a .LASF19
C:\msys64\tmp\ccOsBnzE.s:1412   .debug_str:000000000000016d .LASF1
C:\msys64\tmp\ccOsBnzE.s:1454   .debug_str:00000000000002a1 .LASF2
C:\msys64\tmp\ccOsBnzE.s:1420   .debug_str:000000000000019c .LASF3
C:\msys64\tmp\ccOsBnzE.s:1392   .debug_str:0000000000000035 .LASF58
C:\msys64\tmp\ccOsBnzE.s:1514   .debug_str:0000000000000490 .LASF4
C:\msys64\tmp\ccOsBnzE.s:1494   .debug_str:00000000000003e9 .LASF6
C:\msys64\tmp\ccOsBnzE.s:1504   .debug_str:0000000000000437 .LASF5
C:\msys64\tmp\ccOsBnzE.s:1478   .debug_str:0000000000000335 .LASF7
C:\msys64\tmp\ccOsBnzE.s:1434   .debug_str:0000000000000204 .LASF8
C:\msys64\tmp\ccOsBnzE.s:1432   .debug_str:00000000000001dd .LASF9
C:\msys64\tmp\ccOsBnzE.s:1400   .debug_str:000000000000006e .LASF59
C:\msys64\tmp\ccOsBnzE.s:1414   .debug_str:0000000000000172 .LASF60
C:\msys64\tmp\ccOsBnzE.s:1462   .debug_str:00000000000002cb .LASF61
C:\msys64\tmp\ccOsBnzE.s:1500   .debug_str:000000000000040b .LASF62
C:\msys64\tmp\ccOsBnzE.s:1496   .debug_str:00000000000003f9 .LASF10
C:\msys64\tmp\ccOsBnzE.s:1388   .debug_str:0000000000000000 .LASF12
C:\msys64\tmp\ccOsBnzE.s:1438   .debug_str:000000000000021f .LASF13
C:\msys64\tmp\ccOsBnzE.s:1486   .debug_str:0000000000000391 .LASF14
C:\msys64\tmp\ccOsBnzE.s:1450   .debug_str:0000000000000282 .LASF15
C:\msys64\tmp\ccOsBnzE.s:1390   .debug_str:000000000000001a .LASF16
C:\msys64\tmp\ccOsBnzE.s:1492   .debug_str:00000000000003de .LASF17
C:\msys64\tmp\ccOsBnzE.s:1488   .debug_str:00000000000003ae .LASF18
C:\msys64\tmp\ccOsBnzE.s:1394   .debug_str:000000000000003d .LASF20
C:\msys64\tmp\ccOsBnzE.s:1436   .debug_str:0000000000000211 .LASF63
C:\msys64\tmp\ccOsBnzE.s:1418   .debug_str:000000000000017f .LASF64
C:\msys64\tmp\ccOsBnzE.s:1396   .debug_str:0000000000000059 .LASF65
C:\msys64\tmp\ccOsBnzE.s:1476   .debug_str:0000000000000309 .LASF66
C:\msys64\tmp\ccOsBnzE.s:1520   .debug_str:00000000000004c0 .LASF21
C:\msys64\tmp\ccOsBnzE.s:1446   .debug_str:0000000000000265 .LASF22
C:\msys64\tmp\ccOsBnzE.s:1428   .debug_str:00000000000001d0 .LASF23
C:\msys64\tmp\ccOsBnzE.s:1466   .debug_str:00000000000002da .LASF24
C:\msys64\tmp\ccOsBnzE.s:1464   .debug_str:00000000000002d4 .LASF25
C:\msys64\tmp\ccOsBnzE.s:1430   .debug_str:00000000000001d5 .LASF26
C:\msys64\tmp\ccOsBnzE.s:1470   .debug_str:00000000000002e8 .LASF27
C:\msys64\tmp\ccOsBnzE.s:1460   .debug_str:00000000000002c3 .LASF28
C:\msys64\tmp\ccOsBnzE.s:1426   .debug_str:00000000000001c7 .LASF29
C:\msys64\tmp\ccOsBnzE.s:1474   .debug_str:00000000000002ff .LASF30
C:\msys64\tmp\ccOsBnzE.s:1472   .debug_str:00000000000002f2 .LASF31
GAS LISTING C:\msys64\tmp\ccOsBnzE.s 			page 6


C:\msys64\tmp\ccOsBnzE.s:1422   .debug_str:00000000000001a4 .LASF32
C:\msys64\tmp\ccOsBnzE.s:1508   .debug_str:000000000000045c .LASF33
C:\msys64\tmp\ccOsBnzE.s:1516   .debug_str:000000000000049d .LASF34
C:\msys64\tmp\ccOsBnzE.s:1482   .debug_str:000000000000034f .LASF35
C:\msys64\tmp\ccOsBnzE.s:1440   .debug_str:000000000000022c .LASF36
C:\msys64\tmp\ccOsBnzE.s:1410   .debug_str:0000000000000166 .LASF38
C:\msys64\tmp\ccOsBnzE.s:1424   .debug_str:00000000000001b5 .LASF37
C:\msys64\tmp\ccOsBnzE.s:1398   .debug_str:0000000000000067 .LASF39
C:\msys64\tmp\ccOsBnzE.s:1498   .debug_str:0000000000000404 .LASF40
C:\msys64\tmp\ccOsBnzE.s:1452   .debug_str:000000000000028e .LASF41
C:\msys64\tmp\ccOsBnzE.s:1458   .debug_str:00000000000002b0 .LASF42
C:\msys64\tmp\ccOsBnzE.s:1402   .debug_str:0000000000000073 .LASF43
C:\msys64\tmp\ccOsBnzE.s:1404   .debug_str:0000000000000082 .LASF44
C:\msys64\tmp\ccOsBnzE.s:1490   .debug_str:00000000000003c8 .LASF45
C:\msys64\tmp\ccOsBnzE.s:1518   .debug_str:00000000000004aa .LASF46
C:\msys64\tmp\ccOsBnzE.s:1416   .debug_str:000000000000017a .LASF47
C:\msys64\tmp\ccOsBnzE.s:64     .text:000000000000003c .LFB12
C:\msys64\tmp\ccOsBnzE.s:113    .text:0000000000000078 .LFE12
C:\msys64\tmp\ccOsBnzE.s:1408   .debug_str:0000000000000161 .LASF48
C:\msys64\tmp\ccOsBnzE.s:1351   .debug_loc:0000000000000000 .LLST0
C:\msys64\tmp\ccOsBnzE.s:1362   .debug_loc:0000000000000036 .LLST1
C:\msys64\tmp\ccOsBnzE.s:13     .text:0000000000000000 .LFB11
C:\msys64\tmp\ccOsBnzE.s:58     .text:000000000000003c .LFE11
C:\msys64\tmp\ccOsBnzE.s:67     .text:000000000000003c .LVL1
C:\msys64\tmp\ccOsBnzE.s:78     .text:0000000000000050 .LVL2
C:\msys64\tmp\ccOsBnzE.s:82     .text:0000000000000054 .LVL3
C:\msys64\tmp\ccOsBnzE.s:95     .text:0000000000000064 .LVL4
C:\msys64\tmp\ccOsBnzE.s:105    .text:0000000000000070 .LVL5
C:\msys64\tmp\ccOsBnzE.s:120    .debug_info:0000000000000000 .Ldebug_info0

NO UNDEFINED SYMBOLS
