GAS LISTING /tmp/ccnfibgY.s 			page 1


   1              		.file	"Scheduler.cpp"
   2              		.option pic
   3              		.option norelax
   4              		.text
   5              	.Ltext0:
   6              		.align	2
   7              		.globl	_ZN9Scheduler3putEP6Thread
   9              	_ZN9Scheduler3putEP6Thread:
  10              	.LFB12:
  11              		.file 1 "src/Scheduler.cpp"
   1:src/Scheduler.cpp **** #include "../h/Scheduler.h"
   2:src/Scheduler.cpp **** #include "../h/Thread.h"
   3:src/Scheduler.cpp **** void Scheduler::put(Thread* t) {
  12              		.loc 1 3 32
  13              		.cfi_startproc
  14              	.LVL0:
  15 0000 130101FF 		addi	sp,sp,-16
  16              		.cfi_def_cfa_offset 16
  17 0004 23348100 		sd	s0,8(sp)
  18              		.cfi_offset 8, -8
  19 0008 13040101 		addi	s0,sp,16
  20              		.cfi_def_cfa 8, 0
   4:src/Scheduler.cpp ****     if (!t) return;
  21              		.loc 1 4 5
  22 000c 638E0500 		beqz	a1,.L1
   5:src/Scheduler.cpp ****     t->next = nullptr;
  23              		.loc 1 5 5
  24              		.loc 1 5 13 is_stmt 0
  25 0010 23B00500 		sd	zero,0(a1)
   6:src/Scheduler.cpp **** 
   7:src/Scheduler.cpp ****     if (!head) {
  26              		.loc 1 7 5 is_stmt 1
  27              		.loc 1 7 10 is_stmt 0
  28 0014 83370500 		ld	a5,0(a0)
  29              		.loc 1 7 5
  30 0018 638E0700 		beqz	a5,.L6
   8:src/Scheduler.cpp ****         head = t;
   9:src/Scheduler.cpp ****     } else {
  10:src/Scheduler.cpp ****         tail->next = t;
  31              		.loc 1 10 9 is_stmt 1
  32 001c 83378500 		ld	a5,8(a0)
  33              		.loc 1 10 20 is_stmt 0
  34 0020 23B0B700 		sd	a1,0(a5)
  35              	.L4:
  11:src/Scheduler.cpp ****     }
  12:src/Scheduler.cpp ****     tail = t;
  36              		.loc 1 12 5 is_stmt 1
  37              		.loc 1 12 10 is_stmt 0
  38 0024 2334B500 		sd	a1,8(a0)
  39              	.L1:
  13:src/Scheduler.cpp **** }
  40              		.loc 1 13 1
  41 0028 03348100 		ld	s0,8(sp)
  42              		.cfi_remember_state
  43              		.cfi_restore 8
  44              		.cfi_def_cfa 2, 16
  45 002c 13010101 		addi	sp,sp,16
GAS LISTING /tmp/ccnfibgY.s 			page 2


  46              		.cfi_def_cfa_offset 0
  47 0030 67800000 		jr	ra
  48              	.L6:
  49              		.cfi_restore_state
   8:src/Scheduler.cpp ****         head = t;
  50              		.loc 1 8 9 is_stmt 1
   8:src/Scheduler.cpp ****         head = t;
  51              		.loc 1 8 14 is_stmt 0
  52 0034 2330B500 		sd	a1,0(a0)
  53 0038 6FF0DFFE 		j	.L4
  54              		.cfi_endproc
  55              	.LFE12:
  57              		.align	2
  58              		.globl	_ZN9Scheduler3getEv
  60              	_ZN9Scheduler3getEv:
  61              	.LFB13:
  14:src/Scheduler.cpp **** 
  15:src/Scheduler.cpp **** Thread* Scheduler::get() {
  62              		.loc 1 15 26 is_stmt 1
  63              		.cfi_startproc
  64              	.LVL1:
  65 003c 130101FF 		addi	sp,sp,-16
  66              		.cfi_def_cfa_offset 16
  67 0040 23348100 		sd	s0,8(sp)
  68              		.cfi_offset 8, -8
  69 0044 13040101 		addi	s0,sp,16
  70              		.cfi_def_cfa 8, 0
  71 0048 93070500 		mv	a5,a0
  16:src/Scheduler.cpp ****     if (!head) {
  72              		.loc 1 16 5
  73              		.loc 1 16 10 is_stmt 0
  74 004c 03350500 		ld	a0,0(a0)
  75              	.LVL2:
  76              		.loc 1 16 5
  77 0050 630A0500 		beqz	a0,.L7
  17:src/Scheduler.cpp ****         return nullptr;
  18:src/Scheduler.cpp ****     }
  19:src/Scheduler.cpp **** 
  20:src/Scheduler.cpp ****     Thread* t = head;
  78              		.loc 1 20 5 is_stmt 1
  79              	.LVL3:
  21:src/Scheduler.cpp ****     head = head->next;
  80              		.loc 1 21 5
  81              		.loc 1 21 18 is_stmt 0
  82 0054 03370500 		ld	a4,0(a0)
  83              		.loc 1 21 10
  84 0058 23B0E700 		sd	a4,0(a5)
  22:src/Scheduler.cpp **** 
  23:src/Scheduler.cpp ****     if (!head) {
  85              		.loc 1 23 5 is_stmt 1
  86 005c 630A0700 		beqz	a4,.L11
  87              	.L9:
  24:src/Scheduler.cpp ****         tail = nullptr;
  25:src/Scheduler.cpp ****     }
  26:src/Scheduler.cpp **** 
  27:src/Scheduler.cpp ****     t->next = nullptr;
  88              		.loc 1 27 5
GAS LISTING /tmp/ccnfibgY.s 			page 3


  89              		.loc 1 27 13 is_stmt 0
  90 0060 23300500 		sd	zero,0(a0)
  28:src/Scheduler.cpp ****     return t;
  91              		.loc 1 28 5 is_stmt 1
  92              	.LVL4:
  93              	.L7:
  29:src/Scheduler.cpp **** }...
  94              		.loc 1 29 1 is_stmt 0
  95 0064 03348100 		ld	s0,8(sp)
  96              		.cfi_remember_state
  97              		.cfi_restore 8
  98              		.cfi_def_cfa 2, 16
  99 0068 13010101 		addi	sp,sp,16
 100              		.cfi_def_cfa_offset 0
 101 006c 67800000 		jr	ra
 102              	.LVL5:
 103              	.L11:
 104              		.cfi_restore_state
  24:src/Scheduler.cpp ****         tail = nullptr;
 105              		.loc 1 24 9 is_stmt 1
  24:src/Scheduler.cpp ****         tail = nullptr;
 106              		.loc 1 24 14 is_stmt 0
 107 0070 23B40700 		sd	zero,8(a5)
 108 0074 6FF0DFFE 		j	.L9
 109              		.cfi_endproc
 110              	.LFE13:
 112              	.Letext0:
 113              		.file 2 "src/../h/Scheduler.h"
 114              		.file 3 "src/../h/Thread.h"
 115              		.file 4 "src/../h/../lib/hw.h"
GAS LISTING /tmp/ccnfibgY.s 			page 4


DEFINED SYMBOLS
                            *ABS*:0000000000000000 Scheduler.cpp
     /tmp/ccnfibgY.s:9      .text:0000000000000000 _ZN9Scheduler3putEP6Thread
     /tmp/ccnfibgY.s:13     .text:0000000000000000 .L0 
     /tmp/ccnfibgY.s:15     .text:0000000000000000 .L0 
     /tmp/ccnfibgY.s:16     .text:0000000000000004 .L0 
     /tmp/ccnfibgY.s:18     .text:0000000000000008 .L0 
     /tmp/ccnfibgY.s:20     .text:000000000000000c .L0 
     /tmp/ccnfibgY.s:22     .text:000000000000000c .L0 
     /tmp/ccnfibgY.s:24     .text:0000000000000010 .L0 
     /tmp/ccnfibgY.s:25     .text:0000000000000010 .L0 
     /tmp/ccnfibgY.s:27     .text:0000000000000014 .L0 
     /tmp/ccnfibgY.s:28     .text:0000000000000014 .L0 
     /tmp/ccnfibgY.s:30     .text:0000000000000018 .L0 
     /tmp/ccnfibgY.s:32     .text:000000000000001c .L0 
     /tmp/ccnfibgY.s:34     .text:0000000000000020 .L0 
     /tmp/ccnfibgY.s:37     .text:0000000000000024 .L0 
     /tmp/ccnfibgY.s:38     .text:0000000000000024 .L0 
     /tmp/ccnfibgY.s:41     .text:0000000000000028 .L0 
     /tmp/ccnfibgY.s:42     .text:000000000000002c .L0 
     /tmp/ccnfibgY.s:43     .text:000000000000002c .L0 
     /tmp/ccnfibgY.s:44     .text:000000000000002c .L0 
     /tmp/ccnfibgY.s:46     .text:0000000000000030 .L0 
     /tmp/ccnfibgY.s:49     .text:0000000000000034 .L0 
     /tmp/ccnfibgY.s:51     .text:0000000000000034 .L0 
     /tmp/ccnfibgY.s:52     .text:0000000000000034 .L0 
     /tmp/ccnfibgY.s:54     .text:000000000000003c .L0 
     /tmp/ccnfibgY.s:60     .text:000000000000003c _ZN9Scheduler3getEv
     /tmp/ccnfibgY.s:63     .text:000000000000003c .L0 
     /tmp/ccnfibgY.s:65     .text:000000000000003c .L0 
     /tmp/ccnfibgY.s:66     .text:0000000000000040 .L0 
     /tmp/ccnfibgY.s:68     .text:0000000000000044 .L0 
     /tmp/ccnfibgY.s:70     .text:0000000000000048 .L0 
     /tmp/ccnfibgY.s:73     .text:000000000000004c .L0 
     /tmp/ccnfibgY.s:74     .text:000000000000004c .L0 
     /tmp/ccnfibgY.s:77     .text:0000000000000050 .L0 
     /tmp/ccnfibgY.s:80     .text:0000000000000054 .L0 
     /tmp/ccnfibgY.s:81     .text:0000000000000054 .L0 
     /tmp/ccnfibgY.s:82     .text:0000000000000054 .L0 
     /tmp/ccnfibgY.s:84     .text:0000000000000058 .L0 
     /tmp/ccnfibgY.s:86     .text:000000000000005c .L0 
     /tmp/ccnfibgY.s:89     .text:0000000000000060 .L0 
     /tmp/ccnfibgY.s:90     .text:0000000000000060 .L0 
     /tmp/ccnfibgY.s:94     .text:0000000000000064 .L0 
     /tmp/ccnfibgY.s:95     .text:0000000000000064 .L0 
     /tmp/ccnfibgY.s:96     .text:0000000000000068 .L0 
     /tmp/ccnfibgY.s:97     .text:0000000000000068 .L0 
     /tmp/ccnfibgY.s:98     .text:0000000000000068 .L0 
     /tmp/ccnfibgY.s:100    .text:000000000000006c .L0 
     /tmp/ccnfibgY.s:104    .text:0000000000000070 .L0 
     /tmp/ccnfibgY.s:106    .text:0000000000000070 .L0 
     /tmp/ccnfibgY.s:107    .text:0000000000000070 .L0 
     /tmp/ccnfibgY.s:109    .text:0000000000000078 .L0 
     /tmp/ccnfibgY.s:116    .text:0000000000000078 .L0 
     /tmp/ccnfibgY.s:39     .text:0000000000000028 .L1
     /tmp/ccnfibgY.s:48     .text:0000000000000034 .L6
     /tmp/ccnfibgY.s:35     .text:0000000000000024 .L4
GAS LISTING /tmp/ccnfibgY.s 			page 5


     /tmp/ccnfibgY.s:93     .text:0000000000000064 .L7
     /tmp/ccnfibgY.s:103    .text:0000000000000070 .L11
     /tmp/ccnfibgY.s:87     .text:0000000000000060 .L9
     /tmp/ccnfibgY.s:596    .debug_abbrev:0000000000000000 .Ldebug_abbrev0
     /tmp/ccnfibgY.s:1365   .debug_str:00000000000001a4 .LASF43
     /tmp/ccnfibgY.s:1371   .debug_str:000000000000027f .LASF44
     /tmp/ccnfibgY.s:1383   .debug_str:00000000000002d6 .LASF45
     /tmp/ccnfibgY.s:5      .text:0000000000000000 .Ltext0
     /tmp/ccnfibgY.s:112    .text:0000000000000078 .Letext0
     /tmp/ccnfibgY.s:1305   .debug_line:0000000000000000 .Ldebug_line0
     /tmp/ccnfibgY.s:1333   .debug_str:00000000000000a1 .LASF0
     /tmp/ccnfibgY.s:1399   .debug_str:0000000000000359 .LASF46
     /tmp/ccnfibgY.s:1337   .debug_str:00000000000000be .LASF47
     /tmp/ccnfibgY.s:1353   .debug_str:0000000000000153 .LASF13
     /tmp/ccnfibgY.s:1413   .debug_str:00000000000003b8 .LASF48
     /tmp/ccnfibgY.s:1403   .debug_str:000000000000036a .LASF49
     /tmp/ccnfibgY.s:1377   .debug_str:00000000000002a6 .LASF50
     /tmp/ccnfibgY.s:1317   .debug_str:0000000000000041 .LASF51
     /tmp/ccnfibgY.s:1369   .debug_str:000000000000026d .LASF17
     /tmp/ccnfibgY.s:1367   .debug_str:0000000000000268 .LASF1
     /tmp/ccnfibgY.s:1405   .debug_str:000000000000037f .LASF2
     /tmp/ccnfibgY.s:1343   .debug_str:000000000000010d .LASF3
     /tmp/ccnfibgY.s:1329   .debug_str:000000000000008b .LASF52
     /tmp/ccnfibgY.s:1401   .debug_str:0000000000000362 .LASF4
     /tmp/ccnfibgY.s:1375   .debug_str:0000000000000297 .LASF6
     /tmp/ccnfibgY.s:1391   .debug_str:000000000000031e .LASF5
     /tmp/ccnfibgY.s:1407   .debug_str:0000000000000384 .LASF7
     /tmp/ccnfibgY.s:1389   .debug_str:0000000000000319 .LASF53
     /tmp/ccnfibgY.s:1381   .debug_str:00000000000002ce .LASF54
     /tmp/ccnfibgY.s:1373   .debug_str:0000000000000291 .LASF8
     /tmp/ccnfibgY.s:1421   .debug_str:00000000000003f3 .LASF10
     /tmp/ccnfibgY.s:1359   .debug_str:0000000000000184 .LASF9
     /tmp/ccnfibgY.s:1347   .debug_str:0000000000000122 .LASF11
     /tmp/ccnfibgY.s:1339   .debug_str:00000000000000d7 .LASF12
     /tmp/ccnfibgY.s:1419   .debug_str:00000000000003da .LASF14
     /tmp/ccnfibgY.s:1315   .debug_str:0000000000000035 .LASF15
     /tmp/ccnfibgY.s:1385   .debug_str:00000000000002f0 .LASF16
     /tmp/ccnfibgY.s:1415   .debug_str:00000000000003c2 .LASF18
     /tmp/ccnfibgY.s:1331   .debug_str:0000000000000093 .LASF55
     /tmp/ccnfibgY.s:1341   .debug_str:00000000000000e2 .LASF56
     /tmp/ccnfibgY.s:1417   .debug_str:00000000000003d5 .LASF19
     /tmp/ccnfibgY.s:1361   .debug_str:000000000000018d .LASF20
     /tmp/ccnfibgY.s:1325   .debug_str:000000000000006f .LASF21
     /tmp/ccnfibgY.s:1395   .debug_str:0000000000000341 .LASF22
     /tmp/ccnfibgY.s:1357   .debug_str:000000000000017b .LASF23
     /tmp/ccnfibgY.s:1313   .debug_str:000000000000002a .LASF57
     /tmp/ccnfibgY.s:1379   .debug_str:00000000000002c1 .LASF24
     /tmp/ccnfibgY.s:1355   .debug_str:0000000000000168 .LASF25
     /tmp/ccnfibgY.s:1345   .debug_str:0000000000000114 .LASF26
     /tmp/ccnfibgY.s:1321   .debug_str:0000000000000063 .LASF28
     /tmp/ccnfibgY.s:1363   .debug_str:0000000000000192 .LASF27
     /tmp/ccnfibgY.s:1309   .debug_str:0000000000000013 .LASF29
     /tmp/ccnfibgY.s:1307   .debug_str:0000000000000000 .LASF30
     /tmp/ccnfibgY.s:1335   .debug_str:00000000000000ab .LASF31
     /tmp/ccnfibgY.s:1311   .debug_str:000000000000001a .LASF32
     /tmp/ccnfibgY.s:1319   .debug_str:0000000000000055 .LASF33
     /tmp/ccnfibgY.s:1351   .debug_str:0000000000000144 .LASF34
GAS LISTING /tmp/ccnfibgY.s 			page 6


     /tmp/ccnfibgY.s:1387   .debug_str:000000000000030a .LASF35
     /tmp/ccnfibgY.s:1411   .debug_str:00000000000003a8 .LASF36
     /tmp/ccnfibgY.s:1397   .debug_str:0000000000000349 .LASF37
     /tmp/ccnfibgY.s:1349   .debug_str:0000000000000138 .LASF38
     /tmp/ccnfibgY.s:1327   .debug_str:0000000000000075 .LASF39
     /tmp/ccnfibgY.s:1393   .debug_str:000000000000032b .LASF40
     /tmp/ccnfibgY.s:1409   .debug_str:00000000000003a3 .LASF41
     /tmp/ccnfibgY.s:61     .text:000000000000003c .LFB13
     /tmp/ccnfibgY.s:110    .text:0000000000000078 .LFE13
     /tmp/ccnfibgY.s:1323   .debug_str:000000000000006a .LASF42
     /tmp/ccnfibgY.s:1270   .debug_loc:0000000000000000 .LLST0
     /tmp/ccnfibgY.s:1281   .debug_loc:0000000000000036 .LLST1
     /tmp/ccnfibgY.s:10     .text:0000000000000000 .LFB12
     /tmp/ccnfibgY.s:55     .text:000000000000003c .LFE12
     /tmp/ccnfibgY.s:64     .text:000000000000003c .LVL1
     /tmp/ccnfibgY.s:75     .text:0000000000000050 .LVL2
     /tmp/ccnfibgY.s:79     .text:0000000000000054 .LVL3
     /tmp/ccnfibgY.s:92     .text:0000000000000064 .LVL4
     /tmp/ccnfibgY.s:102    .text:0000000000000070 .LVL5
     /tmp/ccnfibgY.s:117    .debug_info:0000000000000000 .Ldebug_info0

NO UNDEFINED SYMBOLS
