GAS LISTING C:\msys64\tmp\ccOsBnzE.s 			page 1


   1              		.file	"Scheduler.cpp"
   2              		.option nopic
   3              		.option norelax
   4              		.attribute arch, "rv64i2p0_m2p0_a2p0"
   5              		.attribute unaligned_access, 0
   6              		.attribute stack_align, 16
   7              		.text
   8              	.Ltext0:
   9              		.align	2
  10              		.globl	_ZN9Scheduler3putEP7_thread
  12              	_ZN9Scheduler3putEP7_thread:
  13              	.LFB11:
  14              		.file 1 "src/Scheduler.cpp"
   1:src/Scheduler.cpp **** #include "../h/Scheduler.h"
   2:src/Scheduler.cpp **** 
   3:src/Scheduler.cpp **** #include "../h/Thread.h"
   4:src/Scheduler.cpp **** #include "../h/printer.h"
   5:src/Scheduler.cpp **** 
   6:src/Scheduler.cpp **** void Scheduler::put(_thread* t) {
  15              		.loc 1 6 33
  16              		.cfi_startproc
  17              	.LVL0:
  18 0000 130101FF 		addi	sp,sp,-16
  19              		.cfi_def_cfa_offset 16
  20 0004 23348100 		sd	s0,8(sp)
  21              		.cfi_offset 8, -8
  22 0008 13040101 		addi	s0,sp,16
  23              		.cfi_def_cfa 8, 0
   7:src/Scheduler.cpp ****     if (!t) return;
  24              		.loc 1 7 5
  25 000c 638E0500 		beq	a1,zero,.L1
   8:src/Scheduler.cpp ****     t->next = nullptr;
  26              		.loc 1 8 5
  27              		.loc 1 8 13 is_stmt 0
  28 0010 23B00500 		sd	zero,0(a1)
   9:src/Scheduler.cpp **** 
  10:src/Scheduler.cpp ****     if (!head) {
  29              		.loc 1 10 5 is_stmt 1
  30              		.loc 1 10 10 is_stmt 0
  31 0014 83370500 		ld	a5,0(a0)
  32              		.loc 1 10 5
  33 0018 638E0700 		beq	a5,zero,.L6
  11:src/Scheduler.cpp ****         head = t;
  12:src/Scheduler.cpp ****     } else {
  13:src/Scheduler.cpp ****         tail->next = t;
  34              		.loc 1 13 9 is_stmt 1
  35 001c 83378500 		ld	a5,8(a0)
  36              		.loc 1 13 20 is_stmt 0
  37 0020 23B0B700 		sd	a1,0(a5)
  38              	.L4:
  14:src/Scheduler.cpp ****     }
  15:src/Scheduler.cpp ****     tail = t;
  39              		.loc 1 15 5 is_stmt 1
  40              		.loc 1 15 10 is_stmt 0
  41 0024 2334B500 		sd	a1,8(a0)
  42              	.L1:
  16:src/Scheduler.cpp **** }
GAS LISTING C:\msys64\tmp\ccOsBnzE.s 			page 2


  43              		.loc 1 16 1
  44 0028 03348100 		ld	s0,8(sp)
  45              		.cfi_remember_state
  46              		.cfi_restore 8
  47              		.cfi_def_cfa 2, 16
  48 002c 13010101 		addi	sp,sp,16
  49              		.cfi_def_cfa_offset 0
  50 0030 67800000 		jr	ra
  51              	.L6:
  52              		.cfi_restore_state
  11:src/Scheduler.cpp ****         head = t;
  53              		.loc 1 11 9 is_stmt 1
  11:src/Scheduler.cpp ****         head = t;
  54              		.loc 1 11 14 is_stmt 0
  55 0034 2330B500 		sd	a1,0(a0)
  56 0038 6FF0DFFE 		j	.L4
  57              		.cfi_endproc
  58              	.LFE11:
  60              		.align	2
  61              		.globl	_ZN9Scheduler3getEv
  63              	_ZN9Scheduler3getEv:
  64              	.LFB12:
  17:src/Scheduler.cpp **** 
  18:src/Scheduler.cpp **** _thread* Scheduler::get() {
  65              		.loc 1 18 27 is_stmt 1
  66              		.cfi_startproc
  67              	.LVL1:
  68 003c 130101FF 		addi	sp,sp,-16
  69              		.cfi_def_cfa_offset 16
  70 0040 23348100 		sd	s0,8(sp)
  71              		.cfi_offset 8, -8
  72 0044 13040101 		addi	s0,sp,16
  73              		.cfi_def_cfa 8, 0
  74 0048 93070500 		mv	a5,a0
  19:src/Scheduler.cpp ****     if (!head) {
  75              		.loc 1 19 5
  76              		.loc 1 19 10 is_stmt 0
  77 004c 03350500 		ld	a0,0(a0)
  78              	.LVL2:
  79              		.loc 1 19 5
  80 0050 630A0500 		beq	a0,zero,.L7
  20:src/Scheduler.cpp ****         return nullptr;
  21:src/Scheduler.cpp ****     }
  22:src/Scheduler.cpp **** 
  23:src/Scheduler.cpp ****     _thread* t = head;
  81              		.loc 1 23 5 is_stmt 1
  82              	.LVL3:
  24:src/Scheduler.cpp ****     head = head->next;
  83              		.loc 1 24 5
  84              		.loc 1 24 18 is_stmt 0
  85 0054 03370500 		ld	a4,0(a0)
  86              		.loc 1 24 10
  87 0058 23B0E700 		sd	a4,0(a5)
  25:src/Scheduler.cpp **** 
  26:src/Scheduler.cpp ****     if (!head) {
  88              		.loc 1 26 5 is_stmt 1
  89 005c 630A0700 		beq	a4,zero,.L11
GAS LISTING C:\msys64\tmp\ccOsBnzE.s 			page 3


  90              	.L9:
  27:src/Scheduler.cpp ****         tail = nullptr;
  28:src/Scheduler.cpp ****     }
  29:src/Scheduler.cpp **** 
  30:src/Scheduler.cpp ****     t->next = nullptr;
  91              		.loc 1 30 5
  92              		.loc 1 30 13 is_stmt 0
  93 0060 23300500 		sd	zero,0(a0)
  31:src/Scheduler.cpp ****     return t;
  94              		.loc 1 31 5 is_stmt 1
  95              	.LVL4:
  96              	.L7:
  32:src/Scheduler.cpp **** }...
  97              		.loc 1 32 1 is_stmt 0
  98 0064 03348100 		ld	s0,8(sp)
  99              		.cfi_remember_state
 100              		.cfi_restore 8
 101              		.cfi_def_cfa 2, 16
 102 0068 13010101 		addi	sp,sp,16
 103              		.cfi_def_cfa_offset 0
 104 006c 67800000 		jr	ra
 105              	.LVL5:
 106              	.L11:
 107              		.cfi_restore_state
  27:src/Scheduler.cpp ****         tail = nullptr;
 108              		.loc 1 27 9 is_stmt 1
  27:src/Scheduler.cpp ****         tail = nullptr;
 109              		.loc 1 27 14 is_stmt 0
 110 0070 23B40700 		sd	zero,8(a5)
 111 0074 6FF0DFFE 		j	.L9
 112              		.cfi_endproc
 113              	.LFE12:
 115              	.Letext0:
 116              		.file 2 "src/../h/Scheduler.h"
 117              		.file 3 "src/../h/Thread.h"
 118              		.file 4 "src/../h/../lib/hw.h"
GAS LISTING C:\msys64\tmp\ccOsBnzE.s 			page 4

