GAS LISTING /tmp/ccPYkdTF.s 			page 1


   1              		.file	"Scheduler.cpp"
   2              		.option pic
   3              		.option norelax
   4              		.text
   5              	.Ltext0:
   6              		.align	2
   7              		.globl	_ZN9Scheduler3putEP6Thread
   9              	_ZN9Scheduler3putEP6Thread:
  10              	.LFB13:
  11              		.file 1 "src/Scheduler.cpp"
   1:src/Scheduler.cpp **** #include "../h/Scheduler.h"
   2:src/Scheduler.cpp **** #include "../h/Thread.h"
   3:src/Scheduler.cpp **** void Scheduler::put(Thread* t) {
  12              		.loc 1 3 32
  13              		.cfi_startproc
  14              	.LVL0:
  15 0000 130101FF 		addi	sp,sp,-16
  16              		.cfi_def_cfa_offset 16
  17 0004 23348100 		sd	s0,8(sp)
  18              		.cfi_offset 8, -8
  19 0008 13040101 		addi	s0,sp,16
  20              		.cfi_def_cfa 8, 0
   4:src/Scheduler.cpp ****     if (!t) return;
  21              		.loc 1 4 5
  22 000c 638E0500 		beqz	a1,.L1
   5:src/Scheduler.cpp ****     t->next = nullptr;
  23              		.loc 1 5 5
  24              		.loc 1 5 13 is_stmt 0
  25 0010 23B00500 		sd	zero,0(a1)
   6:src/Scheduler.cpp **** 
   7:src/Scheduler.cpp ****     if (!head) {
  26              		.loc 1 7 5 is_stmt 1
  27              		.loc 1 7 10 is_stmt 0
  28 0014 83370500 		ld	a5,0(a0)
  29              		.loc 1 7 5
  30 0018 638E0700 		beqz	a5,.L6
   8:src/Scheduler.cpp ****         head = t;
   9:src/Scheduler.cpp ****     } else {
  10:src/Scheduler.cpp ****         tail->next = t;
  31              		.loc 1 10 9 is_stmt 1
  32 001c 83378500 		ld	a5,8(a0)
  33              		.loc 1 10 20 is_stmt 0
  34 0020 23B0B700 		sd	a1,0(a5)
  35              	.L4:
  11:src/Scheduler.cpp ****     }
  12:src/Scheduler.cpp ****     tail = t;
  36              		.loc 1 12 5 is_stmt 1
  37              		.loc 1 12 10 is_stmt 0
  38 0024 2334B500 		sd	a1,8(a0)
  39              	.L1:
  13:src/Scheduler.cpp **** }
  40              		.loc 1 13 1
  41 0028 03348100 		ld	s0,8(sp)
  42              		.cfi_remember_state
  43              		.cfi_restore 8
  44              		.cfi_def_cfa 2, 16
  45 002c 13010101 		addi	sp,sp,16
GAS LISTING /tmp/ccPYkdTF.s 			page 2


  46              		.cfi_def_cfa_offset 0
  47 0030 67800000 		jr	ra
  48              	.L6:
  49              		.cfi_restore_state
   8:src/Scheduler.cpp ****         head = t;
  50              		.loc 1 8 9 is_stmt 1
   8:src/Scheduler.cpp ****         head = t;
  51              		.loc 1 8 14 is_stmt 0
  52 0034 2330B500 		sd	a1,0(a0)
  53 0038 6FF0DFFE 		j	.L4
  54              		.cfi_endproc
  55              	.LFE13:
  57              		.align	2
  58              		.globl	_ZN9Scheduler3getEv
  60              	_ZN9Scheduler3getEv:
  61              	.LFB14:
  14:src/Scheduler.cpp **** 
  15:src/Scheduler.cpp **** Thread* Scheduler::get() {
  62              		.loc 1 15 26 is_stmt 1
  63              		.cfi_startproc
  64              	.LVL1:
  65 003c 130101FF 		addi	sp,sp,-16
  66              		.cfi_def_cfa_offset 16
  67 0040 23348100 		sd	s0,8(sp)
  68              		.cfi_offset 8, -8
  69 0044 13040101 		addi	s0,sp,16
  70              		.cfi_def_cfa 8, 0
  71 0048 93070500 		mv	a5,a0
  16:src/Scheduler.cpp ****     if (!head) {
  72              		.loc 1 16 5
  73              		.loc 1 16 10 is_stmt 0
  74 004c 03350500 		ld	a0,0(a0)
  75              	.LVL2:
  76              		.loc 1 16 5
  77 0050 630A0500 		beqz	a0,.L7
  17:src/Scheduler.cpp ****         return nullptr;
  18:src/Scheduler.cpp ****     }
  19:src/Scheduler.cpp **** 
  20:src/Scheduler.cpp ****     Thread* t = head;
  78              		.loc 1 20 5 is_stmt 1
  79              	.LVL3:
  21:src/Scheduler.cpp ****     head = head->next;
  80              		.loc 1 21 5
  81              		.loc 1 21 18 is_stmt 0
  82 0054 03370500 		ld	a4,0(a0)
  83              		.loc 1 21 10
  84 0058 23B0E700 		sd	a4,0(a5)
  22:src/Scheduler.cpp **** 
  23:src/Scheduler.cpp ****     if (!head) {
  85              		.loc 1 23 5 is_stmt 1
  86 005c 630A0700 		beqz	a4,.L11
  87              	.L9:
  24:src/Scheduler.cpp ****         tail = nullptr;
  25:src/Scheduler.cpp ****     }
  26:src/Scheduler.cpp **** 
  27:src/Scheduler.cpp ****     t->next = nullptr;
  88              		.loc 1 27 5
GAS LISTING /tmp/ccPYkdTF.s 			page 3


  89              		.loc 1 27 13 is_stmt 0
  90 0060 23300500 		sd	zero,0(a0)
  28:src/Scheduler.cpp ****     return t;
  91              		.loc 1 28 5 is_stmt 1
  92              	.LVL4:
  93              	.L7:
  29:src/Scheduler.cpp **** }...
  94              		.loc 1 29 1 is_stmt 0
  95 0064 03348100 		ld	s0,8(sp)
  96              		.cfi_remember_state
  97              		.cfi_restore 8
  98              		.cfi_def_cfa 2, 16
  99 0068 13010101 		addi	sp,sp,16
 100              		.cfi_def_cfa_offset 0
 101 006c 67800000 		jr	ra
 102              	.LVL5:
 103              	.L11:
 104              		.cfi_restore_state
  24:src/Scheduler.cpp ****         tail = nullptr;
 105              		.loc 1 24 9 is_stmt 1
  24:src/Scheduler.cpp ****         tail = nullptr;
 106              		.loc 1 24 14 is_stmt 0
 107 0070 23B40700 		sd	zero,8(a5)
 108 0074 6FF0DFFE 		j	.L9
 109              		.cfi_endproc
 110              	.LFE14:
 112              	.Letext0:
 113              		.file 2 "src/../h/Scheduler.h"
 114              		.file 3 "src/../h/Thread.h"
 115              		.file 4 "src/../h/../lib/hw.h"
GAS LISTING /tmp/ccPYkdTF.s 			page 4


DEFINED SYMBOLS
                            *ABS*:0000000000000000 Scheduler.cpp
     /tmp/ccPYkdTF.s:9      .text:0000000000000000 _ZN9Scheduler3putEP6Thread
     /tmp/ccPYkdTF.s:13     .text:0000000000000000 .L0 
     /tmp/ccPYkdTF.s:15     .text:0000000000000000 .L0 
     /tmp/ccPYkdTF.s:16     .text:0000000000000004 .L0 
     /tmp/ccPYkdTF.s:18     .text:0000000000000008 .L0 
     /tmp/ccPYkdTF.s:20     .text:000000000000000c .L0 
     /tmp/ccPYkdTF.s:22     .text:000000000000000c .L0 
     /tmp/ccPYkdTF.s:24     .text:0000000000000010 .L0 
     /tmp/ccPYkdTF.s:25     .text:0000000000000010 .L0 
     /tmp/ccPYkdTF.s:27     .text:0000000000000014 .L0 
     /tmp/ccPYkdTF.s:28     .text:0000000000000014 .L0 
     /tmp/ccPYkdTF.s:30     .text:0000000000000018 .L0 
     /tmp/ccPYkdTF.s:32     .text:000000000000001c .L0 
     /tmp/ccPYkdTF.s:34     .text:0000000000000020 .L0 
     /tmp/ccPYkdTF.s:37     .text:0000000000000024 .L0 
     /tmp/ccPYkdTF.s:38     .text:0000000000000024 .L0 
     /tmp/ccPYkdTF.s:41     .text:0000000000000028 .L0 
     /tmp/ccPYkdTF.s:42     .text:000000000000002c .L0 
     /tmp/ccPYkdTF.s:43     .text:000000000000002c .L0 
     /tmp/ccPYkdTF.s:44     .text:000000000000002c .L0 
     /tmp/ccPYkdTF.s:46     .text:0000000000000030 .L0 
     /tmp/ccPYkdTF.s:49     .text:0000000000000034 .L0 
     /tmp/ccPYkdTF.s:51     .text:0000000000000034 .L0 
     /tmp/ccPYkdTF.s:52     .text:0000000000000034 .L0 
     /tmp/ccPYkdTF.s:54     .text:000000000000003c .L0 
     /tmp/ccPYkdTF.s:60     .text:000000000000003c _ZN9Scheduler3getEv
     /tmp/ccPYkdTF.s:63     .text:000000000000003c .L0 
     /tmp/ccPYkdTF.s:65     .text:000000000000003c .L0 
     /tmp/ccPYkdTF.s:66     .text:0000000000000040 .L0 
     /tmp/ccPYkdTF.s:68     .text:0000000000000044 .L0 
     /tmp/ccPYkdTF.s:70     .text:0000000000000048 .L0 
     /tmp/ccPYkdTF.s:73     .text:000000000000004c .L0 
     /tmp/ccPYkdTF.s:74     .text:000000000000004c .L0 
     /tmp/ccPYkdTF.s:77     .text:0000000000000050 .L0 
     /tmp/ccPYkdTF.s:80     .text:0000000000000054 .L0 
     /tmp/ccPYkdTF.s:81     .text:0000000000000054 .L0 
     /tmp/ccPYkdTF.s:82     .text:0000000000000054 .L0 
     /tmp/ccPYkdTF.s:84     .text:0000000000000058 .L0 
     /tmp/ccPYkdTF.s:86     .text:000000000000005c .L0 
     /tmp/ccPYkdTF.s:89     .text:0000000000000060 .L0 
     /tmp/ccPYkdTF.s:90     .text:0000000000000060 .L0 
     /tmp/ccPYkdTF.s:94     .text:0000000000000064 .L0 
     /tmp/ccPYkdTF.s:95     .text:0000000000000064 .L0 
     /tmp/ccPYkdTF.s:96     .text:0000000000000068 .L0 
     /tmp/ccPYkdTF.s:97     .text:0000000000000068 .L0 
     /tmp/ccPYkdTF.s:98     .text:0000000000000068 .L0 
     /tmp/ccPYkdTF.s:100    .text:000000000000006c .L0 
     /tmp/ccPYkdTF.s:104    .text:0000000000000070 .L0 
     /tmp/ccPYkdTF.s:106    .text:0000000000000070 .L0 
     /tmp/ccPYkdTF.s:107    .text:0000000000000070 .L0 
     /tmp/ccPYkdTF.s:109    .text:0000000000000078 .L0 
     /tmp/ccPYkdTF.s:116    .text:0000000000000078 .L0 
     /tmp/ccPYkdTF.s:39     .text:0000000000000028 .L1
     /tmp/ccPYkdTF.s:48     .text:0000000000000034 .L6
     /tmp/ccPYkdTF.s:35     .text:0000000000000024 .L4
GAS LISTING /tmp/ccPYkdTF.s 			page 5


     /tmp/ccPYkdTF.s:93     .text:0000000000000064 .L7
     /tmp/ccPYkdTF.s:103    .text:0000000000000070 .L11
     /tmp/ccPYkdTF.s:87     .text:0000000000000060 .L9
     /tmp/ccPYkdTF.s:642    .debug_abbrev:0000000000000000 .Ldebug_abbrev0
     /tmp/ccPYkdTF.s:1482   .debug_str:00000000000001fd .LASF48
     /tmp/ccPYkdTF.s:1488   .debug_str:00000000000002d8 .LASF49
     /tmp/ccPYkdTF.s:1500   .debug_str:000000000000032f .LASF50
     /tmp/ccPYkdTF.s:5      .text:0000000000000000 .Ltext0
     /tmp/ccPYkdTF.s:112    .text:0000000000000078 .Letext0
     /tmp/ccPYkdTF.s:1412   .debug_line:0000000000000000 .Ldebug_line0
     /tmp/ccPYkdTF.s:1448   .debug_str:00000000000000df .LASF0
     /tmp/ccPYkdTF.s:1516   .debug_str:00000000000003b2 .LASF51
     /tmp/ccPYkdTF.s:1452   .debug_str:00000000000000fc .LASF52
     /tmp/ccPYkdTF.s:1470   .debug_str:00000000000001ac .LASF13
     /tmp/ccPYkdTF.s:1534   .debug_str:0000000000000431 .LASF53
     /tmp/ccPYkdTF.s:1520   .debug_str:00000000000003c3 .LASF54
     /tmp/ccPYkdTF.s:1494   .debug_str:00000000000002ff .LASF55
     /tmp/ccPYkdTF.s:1430   .debug_str:0000000000000073 .LASF56
     /tmp/ccPYkdTF.s:1486   .debug_str:00000000000002c6 .LASF19
     /tmp/ccPYkdTF.s:1484   .debug_str:00000000000002c1 .LASF1
     /tmp/ccPYkdTF.s:1524   .debug_str:00000000000003e5 .LASF2
     /tmp/ccPYkdTF.s:1458   .debug_str:000000000000014b .LASF3
     /tmp/ccPYkdTF.s:1444   .debug_str:00000000000000c9 .LASF57
     /tmp/ccPYkdTF.s:1518   .debug_str:00000000000003bb .LASF4
     /tmp/ccPYkdTF.s:1492   .debug_str:00000000000002f0 .LASF6
     /tmp/ccPYkdTF.s:1508   .debug_str:0000000000000377 .LASF5
     /tmp/ccPYkdTF.s:1528   .debug_str:00000000000003fd .LASF7
     /tmp/ccPYkdTF.s:1506   .debug_str:0000000000000372 .LASF58
     /tmp/ccPYkdTF.s:1498   .debug_str:0000000000000327 .LASF59
     /tmp/ccPYkdTF.s:1490   .debug_str:00000000000002ea .LASF8
     /tmp/ccPYkdTF.s:1542   .debug_str:000000000000046d .LASF10
     /tmp/ccPYkdTF.s:1476   .debug_str:00000000000001dd .LASF9
     /tmp/ccPYkdTF.s:1462   .debug_str:0000000000000160 .LASF11
     /tmp/ccPYkdTF.s:1454   .debug_str:0000000000000115 .LASF12
     /tmp/ccPYkdTF.s:1540   .debug_str:0000000000000454 .LASF14
     /tmp/ccPYkdTF.s:1522   .debug_str:00000000000003d8 .LASF15
     /tmp/ccPYkdTF.s:1426   .debug_str:000000000000004b .LASF16
     /tmp/ccPYkdTF.s:1428   .debug_str:0000000000000067 .LASF17
     /tmp/ccPYkdTF.s:1502   .debug_str:0000000000000349 .LASF18
     /tmp/ccPYkdTF.s:1538   .debug_str:0000000000000440 .LASF20
     /tmp/ccPYkdTF.s:1414   .debug_str:0000000000000000 .LASF60
     /tmp/ccPYkdTF.s:1466   .debug_str:0000000000000181 .LASF61
     /tmp/ccPYkdTF.s:1446   .debug_str:00000000000000d1 .LASF62
     /tmp/ccPYkdTF.s:1456   .debug_str:0000000000000120 .LASF63
     /tmp/ccPYkdTF.s:1536   .debug_str:000000000000043b .LASF21
     /tmp/ccPYkdTF.s:1478   .debug_str:00000000000001e6 .LASF22
     /tmp/ccPYkdTF.s:1438   .debug_str:00000000000000a1 .LASF23
     /tmp/ccPYkdTF.s:1512   .debug_str:000000000000039a .LASF24
     /tmp/ccPYkdTF.s:1418   .debug_str:000000000000001f .LASF25
     /tmp/ccPYkdTF.s:1474   .debug_str:00000000000001d4 .LASF26
     /tmp/ccPYkdTF.s:1416   .debug_str:000000000000000e .LASF64
     /tmp/ccPYkdTF.s:1424   .debug_str:0000000000000040 .LASF27
     /tmp/ccPYkdTF.s:1464   .debug_str:0000000000000176 .LASF28
     /tmp/ccPYkdTF.s:1496   .debug_str:000000000000031a .LASF29
     /tmp/ccPYkdTF.s:1472   .debug_str:00000000000001c1 .LASF30
     /tmp/ccPYkdTF.s:1460   .debug_str:0000000000000152 .LASF31
     /tmp/ccPYkdTF.s:1434   .debug_str:0000000000000095 .LASF33
GAS LISTING /tmp/ccPYkdTF.s 			page 6


     /tmp/ccPYkdTF.s:1480   .debug_str:00000000000001eb .LASF32
     /tmp/ccPYkdTF.s:1420   .debug_str:0000000000000029 .LASF34
     /tmp/ccPYkdTF.s:1526   .debug_str:00000000000003ea .LASF35
     /tmp/ccPYkdTF.s:1450   .debug_str:00000000000000e9 .LASF36
     /tmp/ccPYkdTF.s:1422   .debug_str:0000000000000030 .LASF37
     /tmp/ccPYkdTF.s:1432   .debug_str:0000000000000087 .LASF38
     /tmp/ccPYkdTF.s:1468   .debug_str:000000000000019d .LASF39
     /tmp/ccPYkdTF.s:1504   .debug_str:0000000000000363 .LASF40
     /tmp/ccPYkdTF.s:1532   .debug_str:0000000000000421 .LASF41
     /tmp/ccPYkdTF.s:1514   .debug_str:00000000000003a2 .LASF42
     /tmp/ccPYkdTF.s:1442   .debug_str:00000000000000bd .LASF43
     /tmp/ccPYkdTF.s:1440   .debug_str:00000000000000a7 .LASF44
     /tmp/ccPYkdTF.s:1510   .debug_str:0000000000000384 .LASF45
     /tmp/ccPYkdTF.s:1530   .debug_str:000000000000041c .LASF46
     /tmp/ccPYkdTF.s:61     .text:000000000000003c .LFB14
     /tmp/ccPYkdTF.s:110    .text:0000000000000078 .LFE14
     /tmp/ccPYkdTF.s:1436   .debug_str:000000000000009c .LASF47
     /tmp/ccPYkdTF.s:1377   .debug_loc:0000000000000000 .LLST0
     /tmp/ccPYkdTF.s:1388   .debug_loc:0000000000000036 .LLST1
     /tmp/ccPYkdTF.s:10     .text:0000000000000000 .LFB13
     /tmp/ccPYkdTF.s:55     .text:000000000000003c .LFE13
     /tmp/ccPYkdTF.s:64     .text:000000000000003c .LVL1
     /tmp/ccPYkdTF.s:75     .text:0000000000000050 .LVL2
     /tmp/ccPYkdTF.s:79     .text:0000000000000054 .LVL3
     /tmp/ccPYkdTF.s:92     .text:0000000000000064 .LVL4
     /tmp/ccPYkdTF.s:102    .text:0000000000000070 .LVL5
     /tmp/ccPYkdTF.s:117    .debug_info:0000000000000000 .Ldebug_info0

NO UNDEFINED SYMBOLS
