GAS LISTING C:\msys64\tmp\ccmgR7o6.s 			page 1


   1              		.file	"Semaphore.cpp"
   2              		.option nopic
   3              		.option norelax
   4              		.attribute arch, "rv64i2p0_m2p0_a2p0"
   5              		.attribute unaligned_access, 0
   6              		.attribute stack_align, 16
   7              		.text
   8              	.Ltext0:
   9              		.align	2
  10              		.globl	_ZN4_semC2Ei
  12              	_ZN4_semC2Ei:
  13              	.LFB13:
  14              		.file 1 "src/Semaphore.cpp"
   1:src/Semaphore.cpp **** #include "../h/Semaphore.h"
   2:src/Semaphore.cpp **** #include "../h/Thread.h"
   3:src/Semaphore.cpp **** 
   4:src/Semaphore.cpp **** _sem::_sem(int init):val(init), head(nullptr), tail(nullptr), closed(false) {
  15              		.loc 1 4 1
  16              		.cfi_startproc
  17              	.LVL0:
  18 0000 130101FF 		addi	sp,sp,-16
  19              		.cfi_def_cfa_offset 16
  20 0004 23348100 		sd	s0,8(sp)
  21              		.cfi_offset 8, -8
  22 0008 13040101 		addi	s0,sp,16
  23              		.cfi_def_cfa 8, 0
  24              	.LBB16:
  25              		.loc 1 4 75 is_stmt 0
  26 000c 2320B500 		sw	a1,0(a0)
  27 0010 23340500 		sd	zero,8(a0)
  28 0014 23380500 		sd	zero,16(a0)
  29 0018 230C0500 		sb	zero,24(a0)
  30              	.LBE16:
   5:src/Semaphore.cpp **** }
  31              		.loc 1 5 1
  32 001c 03348100 		ld	s0,8(sp)
  33              		.cfi_restore 8
  34              		.cfi_def_cfa 2, 16
  35 0020 13010101 		addi	sp,sp,16
  36              		.cfi_def_cfa_offset 0
  37 0024 67800000 		jr	ra
  38              		.cfi_endproc
  39              	.LFE13:
  41              		.globl	_ZN4_semC1Ei
  42              		.set	_ZN4_semC1Ei,_ZN4_semC2Ei
  43              		.align	2
  44              		.globl	_ZN4_sem3addEP7_thread
  46              	_ZN4_sem3addEP7_thread:
  47              	.LFB17:
   6:src/Semaphore.cpp **** 
   7:src/Semaphore.cpp **** int _sem::wait() {
   8:src/Semaphore.cpp ****     if (!_thread::running) return -1;
   9:src/Semaphore.cpp ****     if (val > 0) {
  10:src/Semaphore.cpp ****         val--;
  11:src/Semaphore.cpp ****     } else {
  12:src/Semaphore.cpp ****         _thread::running->isReady = false;
  13:src/Semaphore.cpp ****         _thread::running->semStatus = 0;
GAS LISTING C:\msys64\tmp\ccmgR7o6.s 			page 2


  14:src/Semaphore.cpp **** 
  15:src/Semaphore.cpp ****         add(_thread::running);
  16:src/Semaphore.cpp ****         _thread::dispatch();
  17:src/Semaphore.cpp **** 
  18:src/Semaphore.cpp ****         if (_thread::running->semStatus < 0) {
  19:src/Semaphore.cpp ****             return -1;
  20:src/Semaphore.cpp ****         }
  21:src/Semaphore.cpp ****     }
  22:src/Semaphore.cpp ****     return 0;
  23:src/Semaphore.cpp **** }
  24:src/Semaphore.cpp **** 
  25:src/Semaphore.cpp **** int _sem::signal() {
  26:src/Semaphore.cpp ****     _thread* t = get();
  27:src/Semaphore.cpp ****     if (t) {
  28:src/Semaphore.cpp ****         t->isReady = true;
  29:src/Semaphore.cpp ****         Scheduler::instance().put(t);
  30:src/Semaphore.cpp ****     } else {
  31:src/Semaphore.cpp ****         val++;
  32:src/Semaphore.cpp ****     }
  33:src/Semaphore.cpp **** 
  34:src/Semaphore.cpp ****     return 0;
  35:src/Semaphore.cpp **** }
  36:src/Semaphore.cpp **** 
  37:src/Semaphore.cpp **** void _sem::add(_thread* t) {
  48              		.loc 1 37 28 is_stmt 1
  49              		.cfi_startproc
  50              	.LVL1:
  51 0028 130101FF 		addi	sp,sp,-16
  52              		.cfi_def_cfa_offset 16
  53 002c 23348100 		sd	s0,8(sp)
  54              		.cfi_offset 8, -8
  55 0030 13040101 		addi	s0,sp,16
  56              		.cfi_def_cfa 8, 0
  38:src/Semaphore.cpp ****     if (!t) return;
  57              		.loc 1 38 5
  58 0034 638E0500 		beq	a1,zero,.L3
  39:src/Semaphore.cpp ****     t->waitnext = nullptr;
  59              		.loc 1 39 5
  60              		.loc 1 39 17 is_stmt 0
  61 0038 23B40500 		sd	zero,8(a1)
  40:src/Semaphore.cpp **** 
  41:src/Semaphore.cpp ****     if (!head) {
  62              		.loc 1 41 5 is_stmt 1
  63              		.loc 1 41 10 is_stmt 0
  64 003c 83378500 		ld	a5,8(a0)
  65              		.loc 1 41 5
  66 0040 638E0700 		beq	a5,zero,.L8
  42:src/Semaphore.cpp ****         head = t;
  43:src/Semaphore.cpp ****     } else {
  44:src/Semaphore.cpp ****         tail->waitnext = t;
  67              		.loc 1 44 9 is_stmt 1
  68 0044 83370501 		ld	a5,16(a0)
  69              		.loc 1 44 24 is_stmt 0
  70 0048 23B4B700 		sd	a1,8(a5)
  71              	.L6:
  45:src/Semaphore.cpp ****     }
  46:src/Semaphore.cpp ****     tail = t;
GAS LISTING C:\msys64\tmp\ccmgR7o6.s 			page 3


  72              		.loc 1 46 5 is_stmt 1
  73              		.loc 1 46 10 is_stmt 0
  74 004c 2338B500 		sd	a1,16(a0)
  75              	.L3:
  47:src/Semaphore.cpp **** }
  76              		.loc 1 47 1
  77 0050 03348100 		ld	s0,8(sp)
  78              		.cfi_remember_state
  79              		.cfi_restore 8
  80              		.cfi_def_cfa 2, 16
  81 0054 13010101 		addi	sp,sp,16
  82              		.cfi_def_cfa_offset 0
  83 0058 67800000 		jr	ra
  84              	.L8:
  85              		.cfi_restore_state
  42:src/Semaphore.cpp ****         head = t;
  86              		.loc 1 42 9 is_stmt 1
  42:src/Semaphore.cpp ****         head = t;
  87              		.loc 1 42 14 is_stmt 0
  88 005c 2334B500 		sd	a1,8(a0)
  89 0060 6FF0DFFE 		j	.L6
  90              		.cfi_endproc
  91              	.LFE17:
  93              		.align	2
  94              		.globl	_ZN4_sem4waitEv
  96              	_ZN4_sem4waitEv:
  97              	.LFB15:
   7:src/Semaphore.cpp ****     if (!_thread::running) return -1;
  98              		.loc 1 7 18 is_stmt 1
  99              		.cfi_startproc
 100              	.LVL2:
   8:src/Semaphore.cpp ****     if (val > 0) {
 101              		.loc 1 8 5
   8:src/Semaphore.cpp ****     if (val > 0) {
 102              		.loc 1 8 9 is_stmt 0
 103 0064 97050000 		ld	a1,_ZN7_thread7runningE
 103      83B50500 
   8:src/Semaphore.cpp ****     if (val > 0) {
 104              		.loc 1 8 5
 105 006c 63840506 		beq	a1,zero,.L12
   9:src/Semaphore.cpp ****         val--;
 106              		.loc 1 9 5 is_stmt 1
   9:src/Semaphore.cpp ****         val--;
 107              		.loc 1 9 9 is_stmt 0
 108 0070 83270500 		lw	a5,0(a0)
   9:src/Semaphore.cpp ****         val--;
 109              		.loc 1 9 5
 110 0074 635AF000 		ble	a5,zero,.L11
  10:src/Semaphore.cpp ****     } else {
 111              		.loc 1 10 9 is_stmt 1
  10:src/Semaphore.cpp ****     } else {
 112              		.loc 1 10 12 is_stmt 0
 113 0078 9B87F7FF 		addiw	a5,a5,-1
 114 007c 2320F500 		sw	a5,0(a0)
  22:src/Semaphore.cpp **** }
 115              		.loc 1 22 12
 116 0080 13050000 		li	a0,0
GAS LISTING C:\msys64\tmp\ccmgR7o6.s 			page 4


 117              	.LVL3:
 118 0084 67800000 		ret
 119              	.LVL4:
 120              	.L11:
   7:src/Semaphore.cpp ****     if (!_thread::running) return -1;
 121              		.loc 1 7 18
 122 0088 130101FF 		addi	sp,sp,-16
 123              		.cfi_def_cfa_offset 16
 124 008c 23341100 		sd	ra,8(sp)
 125 0090 23308100 		sd	s0,0(sp)
 126              		.cfi_offset 1, -8
 127              		.cfi_offset 8, -16
 128 0094 13040101 		addi	s0,sp,16
 129              		.cfi_def_cfa 8, 0
  12:src/Semaphore.cpp ****         _thread::running->semStatus = 0;
 130              		.loc 1 12 9 is_stmt 1
  12:src/Semaphore.cpp ****         _thread::running->semStatus = 0;
 131              		.loc 1 12 35 is_stmt 0
 132 0098 23800504 		sb	zero,64(a1)
  13:src/Semaphore.cpp **** 
 133              		.loc 1 13 9 is_stmt 1
  13:src/Semaphore.cpp **** 
 134              		.loc 1 13 37 is_stmt 0
 135 009c 23A20504 		sw	zero,68(a1)
  15:src/Semaphore.cpp ****         _thread::dispatch();
 136              		.loc 1 15 9 is_stmt 1
  15:src/Semaphore.cpp ****         _thread::dispatch();
 137              		.loc 1 15 12 is_stmt 0
 138 00a0 97000000 		call	_ZN4_sem3addEP7_thread
 138      E7800000 
 139              	.LVL5:
  16:src/Semaphore.cpp **** 
 140              		.loc 1 16 9 is_stmt 1
  16:src/Semaphore.cpp **** 
 141              		.loc 1 16 26 is_stmt 0
 142 00a8 97000000 		call	_ZN7_thread8dispatchEv
 142      E7800000 
 143              	.LVL6:
  18:src/Semaphore.cpp ****             return -1;
 144              		.loc 1 18 9 is_stmt 1
  18:src/Semaphore.cpp ****             return -1;
 145              		.loc 1 18 31 is_stmt 0
 146 00b0 97070000 		ld	a5,_ZN7_thread7runningE
 146      83B70700 
 147 00b8 83A74704 		lw	a5,68(a5)
  18:src/Semaphore.cpp ****             return -1;
 148              		.loc 1 18 9
 149 00bc 63C00702 		blt	a5,zero,.L13
  22:src/Semaphore.cpp **** }
 150              		.loc 1 22 12
 151 00c0 13050000 		li	a0,0
 152              	.L10:
  23:src/Semaphore.cpp **** 
 153              		.loc 1 23 1
 154 00c4 83308100 		ld	ra,8(sp)
 155              		.cfi_restore 1
 156 00c8 03340100 		ld	s0,0(sp)
GAS LISTING C:\msys64\tmp\ccmgR7o6.s 			page 5


 157              		.cfi_restore 8
 158              		.cfi_def_cfa 2, 16
 159 00cc 13010101 		addi	sp,sp,16
 160              		.cfi_def_cfa_offset 0
 161 00d0 67800000 		jr	ra
 162              	.LVL7:
 163              	.L12:
   8:src/Semaphore.cpp ****     if (val > 0) {
 164              		.loc 1 8 36
 165 00d4 1305F0FF 		li	a0,-1
 166              	.LVL8:
  23:src/Semaphore.cpp **** 
 167              		.loc 1 23 1
 168 00d8 67800000 		ret
 169              	.L13:
 170              		.cfi_def_cfa_register 8
 171              		.cfi_offset 1, -8
 172              		.cfi_offset 8, -16
  19:src/Semaphore.cpp ****         }
 173              		.loc 1 19 21
 174 00dc 1305F0FF 		li	a0,-1
 175 00e0 6FF05FFE 		j	.L10
 176              		.cfi_endproc
 177              	.LFE15:
 179              		.align	2
 180              		.globl	_ZN4_sem3getEv
 182              	_ZN4_sem3getEv:
 183              	.LFB18:
  48:src/Semaphore.cpp **** _thread* _sem::get() {
 184              		.loc 1 48 22 is_stmt 1
 185              		.cfi_startproc
 186              	.LVL9:
 187 00e4 130101FF 		addi	sp,sp,-16
 188              		.cfi_def_cfa_offset 16
 189 00e8 23348100 		sd	s0,8(sp)
 190              		.cfi_offset 8, -8
 191 00ec 13040101 		addi	s0,sp,16
 192              		.cfi_def_cfa 8, 0
 193 00f0 93070500 		mv	a5,a0
  49:src/Semaphore.cpp ****     if (!head) {
 194              		.loc 1 49 5
 195              		.loc 1 49 10 is_stmt 0
 196 00f4 03358500 		ld	a0,8(a0)
 197              	.LVL10:
 198              		.loc 1 49 5
 199 00f8 630A0500 		beq	a0,zero,.L17
  50:src/Semaphore.cpp ****         return nullptr;
  51:src/Semaphore.cpp ****     }
  52:src/Semaphore.cpp **** 
  53:src/Semaphore.cpp ****     _thread* t = head;
 200              		.loc 1 53 5 is_stmt 1
 201              	.LVL11:
  54:src/Semaphore.cpp ****     head = head->waitnext;
 202              		.loc 1 54 5
 203              		.loc 1 54 18 is_stmt 0
 204 00fc 03378500 		ld	a4,8(a0)
 205              		.loc 1 54 10
GAS LISTING C:\msys64\tmp\ccmgR7o6.s 			page 6


 206 0100 23B4E700 		sd	a4,8(a5)
  55:src/Semaphore.cpp **** 
  56:src/Semaphore.cpp ****     if (!head) {
 207              		.loc 1 56 5 is_stmt 1
 208 0104 630A0700 		beq	a4,zero,.L21
 209              	.L19:
  57:src/Semaphore.cpp ****         tail = nullptr;
  58:src/Semaphore.cpp ****     }
  59:src/Semaphore.cpp **** 
  60:src/Semaphore.cpp ****     t->waitnext = nullptr;
 210              		.loc 1 60 5
 211              		.loc 1 60 17 is_stmt 0
 212 0108 23340500 		sd	zero,8(a0)
  61:src/Semaphore.cpp ****     return t;
 213              		.loc 1 61 5 is_stmt 1
 214              	.LVL12:
 215              	.L17:
  62:src/Semaphore.cpp **** }
 216              		.loc 1 62 1 is_stmt 0
 217 010c 03348100 		ld	s0,8(sp)
 218              		.cfi_remember_state
 219              		.cfi_restore 8
 220              		.cfi_def_cfa 2, 16
 221 0110 13010101 		addi	sp,sp,16
 222              		.cfi_def_cfa_offset 0
 223 0114 67800000 		jr	ra
 224              	.LVL13:
 225              	.L21:
 226              		.cfi_restore_state
  57:src/Semaphore.cpp ****         tail = nullptr;
 227              		.loc 1 57 9 is_stmt 1
  57:src/Semaphore.cpp ****         tail = nullptr;
 228              		.loc 1 57 14 is_stmt 0
 229 0118 23B80700 		sd	zero,16(a5)
 230 011c 6FF0DFFE 		j	.L19
 231              		.cfi_endproc
 232              	.LFE18:
 234              		.align	2
 235              		.globl	_ZN4_sem6signalEv
 237              	_ZN4_sem6signalEv:
 238              	.LFB16:
  25:src/Semaphore.cpp ****     _thread* t = get();
 239              		.loc 1 25 20 is_stmt 1
 240              		.cfi_startproc
 241              	.LVL14:
 242 0120 130101FE 		addi	sp,sp,-32
 243              		.cfi_def_cfa_offset 32
 244 0124 233C1100 		sd	ra,24(sp)
 245 0128 23388100 		sd	s0,16(sp)
 246 012c 23349100 		sd	s1,8(sp)
 247              		.cfi_offset 1, -8
 248              		.cfi_offset 8, -16
 249              		.cfi_offset 9, -24
 250 0130 13040102 		addi	s0,sp,32
 251              		.cfi_def_cfa 8, 0
 252 0134 93040500 		mv	s1,a0
  26:src/Semaphore.cpp ****     if (t) {
GAS LISTING C:\msys64\tmp\ccmgR7o6.s 			page 7


 253              		.loc 1 26 5
  26:src/Semaphore.cpp ****     if (t) {
 254              		.loc 1 26 21 is_stmt 0
 255 0138 97000000 		call	_ZN4_sem3getEv
 255      E7800000 
 256              	.LVL15:
  27:src/Semaphore.cpp ****         t->isReady = true;
 257              		.loc 1 27 5 is_stmt 1
 258 0140 63000506 		beq	a0,zero,.L23
 259 0144 93050500 		mv	a1,a0
  28:src/Semaphore.cpp ****         Scheduler::instance().put(t);
 260              		.loc 1 28 9
  28:src/Semaphore.cpp ****         Scheduler::instance().put(t);
 261              		.loc 1 28 20 is_stmt 0
 262 0148 93071000 		li	a5,1
 263 014c 2300F504 		sb	a5,64(a0)
  29:src/Semaphore.cpp ****     } else {
 264              		.loc 1 29 9 is_stmt 1
 265              	.LBB17:
 266              	.LBB18:
 267              		.file 2 "src/../h/Scheduler.h"
   1:src/../h/Scheduler.h **** //
   2:src/../h/Scheduler.h **** // Created by os on 4/1/26.
   3:src/../h/Scheduler.h **** //
   4:src/../h/Scheduler.h **** 
   5:src/../h/Scheduler.h **** #ifndef PROJEKAT_SCHEDULER_H
   6:src/../h/Scheduler.h **** #define PROJEKAT_SCHEDULER_H
   7:src/../h/Scheduler.h **** 
   8:src/../h/Scheduler.h **** class _thread;
   9:src/../h/Scheduler.h **** 
  10:src/../h/Scheduler.h **** class Scheduler {
  11:src/../h/Scheduler.h **** public:
  12:src/../h/Scheduler.h ****     static Scheduler& instance(){static Scheduler instance; return instance;}
 268              		.loc 2 12 34
 269              		.loc 2 12 51 is_stmt 0
 270 0150 97070000 		lbu	a5,_ZGVZN9Scheduler8instanceEvE8instance
 270      83C70700 
 271 0158 63900702 		bne	a5,zero,.L24
 272              	.LVL16:
 273              	.LBB19:
 274              	.LBB20:
 275              	.LBB21:
  13:src/../h/Scheduler.h **** 
  14:src/../h/Scheduler.h ****     Scheduler(const Scheduler&) = delete;
  15:src/../h/Scheduler.h ****     Scheduler& operator=(const Scheduler&) = delete;
  16:src/../h/Scheduler.h **** 
  17:src/../h/Scheduler.h **** 
  18:src/../h/Scheduler.h ****     void put(_thread* t);
  19:src/../h/Scheduler.h **** 
  20:src/../h/Scheduler.h ****     _thread* get();
  21:src/../h/Scheduler.h **** private:
  22:src/../h/Scheduler.h ****     Scheduler():head(nullptr), tail(nullptr){};
 276              		.loc 2 22 44
 277 015c 97070000 		lla	a5,_ZZN9Scheduler8instanceEvE8instance
 277      93870700 
 278 0164 23B00700 		sd	zero,0(a5)
 279 0168 23B40700 		sd	zero,8(a5)
GAS LISTING C:\msys64\tmp\ccmgR7o6.s 			page 8


 280              	.LVL17:
 281              	.LBE21:
 282              	.LBE20:
 283              	.LBE19:
  12:src/../h/Scheduler.h **** 
 284              		.loc 2 12 51
 285 016c 93071000 		li	a5,1
 286 0170 17070000 		sb	a5,_ZGVZN9Scheduler8instanceEvE8instance,a4
 286      2300F700 
 287              	.L24:
  12:src/../h/Scheduler.h **** 
 288              		.loc 2 12 61 is_stmt 1
 289              	.LBE18:
 290              	.LBE17:
  29:src/Semaphore.cpp ****     } else {
 291              		.loc 1 29 34 is_stmt 0
 292 0178 17050000 		lla	a0,_ZZN9Scheduler8instanceEvE8instance
 292      13050500 
 293              	.LVL18:
 294 0180 97000000 		call	_ZN9Scheduler3putEP7_thread
 294      E7800000 
 295              	.LVL19:
 296              	.L25:
  34:src/Semaphore.cpp **** }
 297              		.loc 1 34 5 is_stmt 1
  35:src/Semaphore.cpp **** 
 298              		.loc 1 35 1 is_stmt 0
 299 0188 13050000 		li	a0,0
 300 018c 83308101 		ld	ra,24(sp)
 301              		.cfi_remember_state
 302              		.cfi_restore 1
 303 0190 03340101 		ld	s0,16(sp)
 304              		.cfi_restore 8
 305              		.cfi_def_cfa 2, 32
 306 0194 83348100 		ld	s1,8(sp)
 307              		.cfi_restore 9
 308              	.LVL20:
 309 0198 13010102 		addi	sp,sp,32
 310              		.cfi_def_cfa_offset 0
 311 019c 67800000 		jr	ra
 312              	.LVL21:
 313              	.L23:
 314              		.cfi_restore_state
  31:src/Semaphore.cpp ****     }
 315              		.loc 1 31 9 is_stmt 1
 316 01a0 83A70400 		lw	a5,0(s1)
  31:src/Semaphore.cpp ****     }
 317              		.loc 1 31 12 is_stmt 0
 318 01a4 9B871700 		addiw	a5,a5,1
 319 01a8 23A0F400 		sw	a5,0(s1)
 320 01ac 6FF0DFFD 		j	.L25
 321              		.cfi_endproc
 322              	.LFE16:
 324              		.align	2
 325              		.globl	_ZN4_sem5closeEv
 327              	_ZN4_sem5closeEv:
 328              	.LFB19:
GAS LISTING C:\msys64\tmp\ccmgR7o6.s 			page 9


  63:src/Semaphore.cpp **** 
  64:src/Semaphore.cpp **** int _sem::close() {
 329              		.loc 1 64 19 is_stmt 1
 330              		.cfi_startproc
 331              	.LVL22:
 332 01b0 130101FE 		addi	sp,sp,-32
 333              		.cfi_def_cfa_offset 32
 334 01b4 233C1100 		sd	ra,24(sp)
 335 01b8 23388100 		sd	s0,16(sp)
 336 01bc 23349100 		sd	s1,8(sp)
 337              		.cfi_offset 1, -8
 338              		.cfi_offset 8, -16
 339              		.cfi_offset 9, -24
 340 01c0 13040102 		addi	s0,sp,32
 341              		.cfi_def_cfa 8, 0
 342 01c4 93040500 		mv	s1,a0
  65:src/Semaphore.cpp ****     closed = true;
 343              		.loc 1 65 5
 344              		.loc 1 65 12 is_stmt 0
 345 01c8 93071000 		li	a5,1
 346 01cc 230CF500 		sb	a5,24(a0)
 347              	.LVL23:
 348              	.L29:
  66:src/Semaphore.cpp **** 
  67:src/Semaphore.cpp ****     while (head) {
 349              		.loc 1 67 5 is_stmt 1
 350              		.loc 1 67 12
 351 01d0 83B78400 		ld	a5,8(s1)
 352 01d4 63820706 		beq	a5,zero,.L28
 353              	.LBB22:
  68:src/Semaphore.cpp ****         _thread* t = get();
 354              		.loc 1 68 9
 355              		.loc 1 68 25 is_stmt 0
 356 01d8 13850400 		mv	a0,s1
 357 01dc 97000000 		call	_ZN4_sem3getEv
 357      E7800000 
 358              	.LVL24:
  69:src/Semaphore.cpp ****         if (t) {
 359              		.loc 1 69 9 is_stmt 1
 360 01e4 E30605FE 		beq	a0,zero,.L29
  70:src/Semaphore.cpp ****             t->isReady = true;
 361              		.loc 1 70 13
 362              		.loc 1 70 24 is_stmt 0
 363 01e8 93071000 		li	a5,1
 364 01ec 2300F504 		sb	a5,64(a0)
  71:src/Semaphore.cpp **** 
  72:src/Semaphore.cpp ****             t->semStatus = -1;
 365              		.loc 1 72 13 is_stmt 1
 366              		.loc 1 72 26 is_stmt 0
 367 01f0 9307F0FF 		li	a5,-1
 368 01f4 2322F504 		sw	a5,68(a0)
  73:src/Semaphore.cpp **** 
  74:src/Semaphore.cpp ****             Scheduler::instance().put(t);
 369              		.loc 1 74 13 is_stmt 1
 370              	.LBB23:
 371              	.LBB24:
  12:src/../h/Scheduler.h **** 
GAS LISTING C:\msys64\tmp\ccmgR7o6.s 			page 10


 372              		.loc 2 12 34
  12:src/../h/Scheduler.h **** 
 373              		.loc 2 12 51 is_stmt 0
 374 01f8 97070000 		lbu	a5,_ZGVZN9Scheduler8instanceEvE8instance
 374      83C70700 
 375 0200 63900702 		bne	a5,zero,.L30
 376              	.LVL25:
 377              	.LBB25:
 378              	.LBB26:
 379              	.LBB27:
 380              		.loc 2 22 44
 381 0204 97070000 		lla	a5,_ZZN9Scheduler8instanceEvE8instance
 381      93870700 
 382 020c 23B00700 		sd	zero,0(a5)
 383 0210 23B40700 		sd	zero,8(a5)
 384              	.LVL26:
 385              	.LBE27:
 386              	.LBE26:
 387              	.LBE25:
  12:src/../h/Scheduler.h **** 
 388              		.loc 2 12 51
 389 0214 93071000 		li	a5,1
 390 0218 17070000 		sb	a5,_ZGVZN9Scheduler8instanceEvE8instance,a4
 390      2300F700 
 391              	.L30:
  12:src/../h/Scheduler.h **** 
 392              		.loc 2 12 61 is_stmt 1
 393              	.LBE24:
 394              	.LBE23:
 395              		.loc 1 74 38 is_stmt 0
 396 0220 93050500 		mv	a1,a0
 397 0224 17050000 		lla	a0,_ZZN9Scheduler8instanceEvE8instance
 397      13050500 
 398              	.LVL27:
 399 022c 97000000 		call	_ZN9Scheduler3putEP7_thread
 399      E7800000 
 400              	.LVL28:
 401 0234 6FF0DFF9 		j	.L29
 402              	.L28:
 403              	.LBE22:
  75:src/Semaphore.cpp ****         }
  76:src/Semaphore.cpp ****     }
  77:src/Semaphore.cpp **** 
  78:src/Semaphore.cpp ****     return 0;
 404              		.loc 1 78 5 is_stmt 1
  79:src/Semaphore.cpp **** }...
 405              		.loc 1 79 1 is_stmt 0
 406 0238 13050000 		li	a0,0
 407 023c 83308101 		ld	ra,24(sp)
 408              		.cfi_restore 1
 409 0240 03340101 		ld	s0,16(sp)
 410              		.cfi_restore 8
 411              		.cfi_def_cfa 2, 32
 412 0244 83348100 		ld	s1,8(sp)
 413              		.cfi_restore 9
 414              	.LVL29:
 415 0248 13010102 		addi	sp,sp,32
GAS LISTING C:\msys64\tmp\ccmgR7o6.s 			page 11


 416              		.cfi_def_cfa_offset 0
 417 024c 67800000 		jr	ra
 418              		.cfi_endproc
 419              	.LFE19:
 421              		.weak	_ZGVZN9Scheduler8instanceEvE8instance
 422              		.section	.sbss._ZGVZN9Scheduler8instanceEvE8instance,"awG",@nobits,_ZGVZN9Scheduler8instanceEvE8in
 423              		.align	3
 426              	_ZGVZN9Scheduler8instanceEvE8instance:
 427 0000 00000000 		.zero	8
 427      00000000 
 428              		.weak	_ZZN9Scheduler8instanceEvE8instance
 429              		.section	.bss._ZZN9Scheduler8instanceEvE8instance,"awG",@nobits,_ZZN9Scheduler8instanceEvE8instanc
 430              		.align	3
 433              	_ZZN9Scheduler8instanceEvE8instance:
 434 0000 00000000 		.zero	16
 434      00000000 
 434      00000000 
 434      00000000 
 435              		.text
 436              	.Letext0:
 437              		.file 3 "src/../h/../lib/hw.h"
 438              		.file 4 "src/../h/Semaphore.h"
 439              		.file 5 "src/../h/Thread.h"
GAS LISTING C:\msys64\tmp\ccmgR7o6.s 			page 12

