GAS LISTING C:\msys64\tmp\ccdfIKCc.s 			page 1


   1              		.file	"syscall_c.cpp"
   2              		.option nopic
   3              		.option norelax
   4              		.attribute arch, "rv64i2p0_m2p0_a2p0"
   5              		.attribute unaligned_access, 0
   6              		.attribute stack_align, 16
   7              		.text
   8              	.Ltext0:
   9              		.align	2
  10              		.globl	_Z9mem_allocm
  12              	_Z9mem_allocm:
  13              	.LFB18:
  14              		.file 1 "src/syscall_c.cpp"
   1:src/syscall_c.cpp **** #include "../h/syscall_c.h"
   2:src/syscall_c.cpp **** #include  "../h/riscv.h"
   3:src/syscall_c.cpp **** #include "../lib/mem.h"
   4:src/syscall_c.cpp **** void *mem_alloc(size_t size) {
  15              		.loc 1 4 30
  16              		.cfi_startproc
  17              	.LVL0:
  18 0000 130101FE 		addi	sp,sp,-32
  19              		.cfi_def_cfa_offset 32
  20 0004 233C8100 		sd	s0,24(sp)
  21              		.cfi_offset 8, -8
  22 0008 13040102 		addi	s0,sp,32
  23              		.cfi_def_cfa 8, 0
   5:src/syscall_c.cpp ****     size_t blocks = (size + MEM_BLOCK_SIZE - 1) / MEM_BLOCK_SIZE;
  24              		.loc 1 5 5
  25              		.loc 1 5 44 is_stmt 0
  26 000c 1305F503 		addi	a0,a0,63
  27              	.LVL1:
  28              		.loc 1 5 12
  29 0010 13556500 		srli	a0,a0,6
  30              	.LVL2:
   6:src/syscall_c.cpp **** 
   7:src/syscall_c.cpp ****     Riscv::writeARegister(1, blocks);
  31              		.loc 1 7 5 is_stmt 1
  32              	.LBB72:
  33              	.LBB73:
  34              		.file 2 "src/../h/riscv.h"
   1:src/../h/riscv.h ****     //
   2:src/../h/riscv.h ****     // Created by os on 3/31/26.
   3:src/../h/riscv.h ****     //
   4:src/../h/riscv.h **** 
   5:src/../h/riscv.h ****     #ifndef PROJECT_BASE_RISCB_H
   6:src/../h/riscv.h ****     #define PROJECT_BASE_RISCB_H
   7:src/../h/riscv.h ****     #include "../lib/hw.h"
   8:src/../h/riscv.h **** 
   9:src/../h/riscv.h ****     class Riscv {
  10:src/../h/riscv.h ****     public:
  11:src/../h/riscv.h **** 	
  12:src/../h/riscv.h **** 	static void popSppSpie();
  13:src/../h/riscv.h **** 	
  14:src/../h/riscv.h **** 	
  15:src/../h/riscv.h ****         static uint64 r_scause();
  16:src/../h/riscv.h **** 
  17:src/../h/riscv.h ****         static void w_scause(uint64 scause);
GAS LISTING C:\msys64\tmp\ccdfIKCc.s 			page 2


  18:src/../h/riscv.h **** 
  19:src/../h/riscv.h ****         static uint64 r_sepc();
  20:src/../h/riscv.h **** 
  21:src/../h/riscv.h ****         static void w_sepc(uint64 sepc);
  22:src/../h/riscv.h **** 
  23:src/../h/riscv.h ****         static uint64 r_stvec();
  24:src/../h/riscv.h **** 
  25:src/../h/riscv.h ****         static void w_stvec(uint64 stvec);
  26:src/../h/riscv.h **** 
  27:src/../h/riscv.h ****         static uint64 r_stval();
  28:src/../h/riscv.h **** 
  29:src/../h/riscv.h ****         static void w_stval(uint64 stval);
  30:src/../h/riscv.h **** 
  31:src/../h/riscv.h ****         enum BitMaskSip {
  32:src/../h/riscv.h ****             SIP_SSIP = (1 << 1),
  33:src/../h/riscv.h ****             SIP_STIP = (1 << 5),
  34:src/../h/riscv.h ****             SIP_SEIP = (1 << 9),
  35:src/../h/riscv.h ****         };
  36:src/../h/riscv.h **** 
  37:src/../h/riscv.h ****         static void ms_sip(uint64 mask);
  38:src/../h/riscv.h **** 
  39:src/../h/riscv.h ****         static void mc_sip(uint64 mask);
  40:src/../h/riscv.h **** 
  41:src/../h/riscv.h ****         static uint64 r_sip();
  42:src/../h/riscv.h **** 
  43:src/../h/riscv.h ****         static void w_sip(uint64 sip);
  44:src/../h/riscv.h **** 
  45:src/../h/riscv.h ****         enum BitMaskSstatus {
  46:src/../h/riscv.h ****             SSTATUS_SIE = (1 << 1),
  47:src/../h/riscv.h ****             SSTATUS_SPIE = (1 << 5),
  48:src/../h/riscv.h ****             SSTATUS_SPP = (1 <<8),
  49:src/../h/riscv.h ****         };
  50:src/../h/riscv.h **** 
  51:src/../h/riscv.h ****         static void ms_sstatus(uint64 mask);
  52:src/../h/riscv.h **** 
  53:src/../h/riscv.h ****         static void mc_sstatus(uint64 mask);
  54:src/../h/riscv.h **** 
  55:src/../h/riscv.h ****         static uint64 r_sstatus();
  56:src/../h/riscv.h **** 
  57:src/../h/riscv.h ****         static void w_sstatus(uint64 sstatus);
  58:src/../h/riscv.h **** 
  59:src/../h/riscv.h ****         static uint64 readARegister(int reg_number);
  60:src/../h/riscv.h **** 
  61:src/../h/riscv.h ****         static void writeARegister(int reg_number, uint64 value);
  62:src/../h/riscv.h **** 
  63:src/../h/riscv.h **** 
  64:src/../h/riscv.h ****         static void supervisorTrap();
  65:src/../h/riscv.h ****     private:
  66:src/../h/riscv.h ****         static void handleSupervisorTrap(uint64 a0, uint64 a1, uint64 a2, uint64 a3, uint64 a4, uin
  67:src/../h/riscv.h **** 
  68:src/../h/riscv.h ****     };
  69:src/../h/riscv.h **** 
  70:src/../h/riscv.h ****     inline uint64 Riscv::r_scause()
  71:src/../h/riscv.h ****     {
  72:src/../h/riscv.h ****         uint64 volatile scause;
  73:src/../h/riscv.h ****         __asm__ volatile ("csrr %[scause], scause" : [scause] "=r"(scause));
  74:src/../h/riscv.h ****         return scause;
GAS LISTING C:\msys64\tmp\ccdfIKCc.s 			page 3


  75:src/../h/riscv.h ****     }
  76:src/../h/riscv.h **** 
  77:src/../h/riscv.h ****     inline void Riscv::w_scause(uint64 scause)
  78:src/../h/riscv.h ****     {
  79:src/../h/riscv.h ****         __asm__ volatile ("csrw scause, %[scause]" : : [scause] "r"(scause));
  80:src/../h/riscv.h ****     }
  81:src/../h/riscv.h **** 
  82:src/../h/riscv.h ****     inline uint64 Riscv::r_sepc()
  83:src/../h/riscv.h ****     {
  84:src/../h/riscv.h ****         uint64 volatile sepc;
  85:src/../h/riscv.h ****         __asm__ volatile ("csrr %[sepc], sepc" : [sepc] "=r"(sepc));
  86:src/../h/riscv.h ****         return sepc;
  87:src/../h/riscv.h ****     }
  88:src/../h/riscv.h **** 
  89:src/../h/riscv.h ****     inline void Riscv::w_sepc(uint64 sepc)
  90:src/../h/riscv.h ****     {
  91:src/../h/riscv.h ****         __asm__ volatile ("csrw sepc, %[sepc]" : : [sepc] "r"(sepc));
  92:src/../h/riscv.h ****     }
  93:src/../h/riscv.h **** 
  94:src/../h/riscv.h ****     inline uint64 Riscv::r_stvec()
  95:src/../h/riscv.h ****     {
  96:src/../h/riscv.h ****         uint64 volatile stvec;
  97:src/../h/riscv.h ****         __asm__ volatile ("csrr %[stvec], stvec" : [stvec] "=r"(stvec));
  98:src/../h/riscv.h ****         return stvec;
  99:src/../h/riscv.h ****     }
 100:src/../h/riscv.h **** 
 101:src/../h/riscv.h ****     inline void Riscv::w_stvec(uint64 stvec)
 102:src/../h/riscv.h ****     {
 103:src/../h/riscv.h ****         __asm__ volatile ("csrw stvec, %[stvec]" : : [stvec] "r"(stvec));
 104:src/../h/riscv.h ****     }
 105:src/../h/riscv.h **** 
 106:src/../h/riscv.h ****     inline uint64 Riscv::r_stval()
 107:src/../h/riscv.h ****     {
 108:src/../h/riscv.h ****         uint64 volatile stval;
 109:src/../h/riscv.h ****         __asm__ volatile ("csrr %[stval], stval" : [stval] "=r"(stval));
 110:src/../h/riscv.h ****         return stval;
 111:src/../h/riscv.h ****     }
 112:src/../h/riscv.h **** 
 113:src/../h/riscv.h ****     inline void Riscv::w_stval(uint64 stval)
 114:src/../h/riscv.h ****     {
 115:src/../h/riscv.h ****         __asm__ volatile ("csrw stval, %[stval]" : : [stval] "r"(stval));
 116:src/../h/riscv.h ****     }
 117:src/../h/riscv.h **** 
 118:src/../h/riscv.h ****     inline void Riscv::ms_sip(uint64 mask)
 119:src/../h/riscv.h ****     {
 120:src/../h/riscv.h ****         __asm__ volatile ("csrs sip, %[mask]" : : [mask] "r"(mask));
 121:src/../h/riscv.h ****     }
 122:src/../h/riscv.h **** 
 123:src/../h/riscv.h ****     inline void Riscv::mc_sip(uint64 mask)
 124:src/../h/riscv.h ****     {
 125:src/../h/riscv.h ****         __asm__ volatile ("csrc sip, %[mask]" : : [mask] "r"(mask));
 126:src/../h/riscv.h ****     }
 127:src/../h/riscv.h **** 
 128:src/../h/riscv.h ****     inline uint64 Riscv::r_sip()
 129:src/../h/riscv.h ****     {
 130:src/../h/riscv.h ****         uint64 volatile sip;
 131:src/../h/riscv.h ****         __asm__ volatile ("csrr %[sip], sip" : [sip] "=r"(sip));
GAS LISTING C:\msys64\tmp\ccdfIKCc.s 			page 4


 132:src/../h/riscv.h ****         return sip;
 133:src/../h/riscv.h ****     }
 134:src/../h/riscv.h **** 
 135:src/../h/riscv.h ****     inline void Riscv::w_sip(uint64 sip)
 136:src/../h/riscv.h ****     {
 137:src/../h/riscv.h ****         __asm__ volatile ("csrw sip, %[sip]" : : [sip] "r"(sip));
 138:src/../h/riscv.h ****     }
 139:src/../h/riscv.h **** 
 140:src/../h/riscv.h ****     inline void Riscv::ms_sstatus(uint64 mask)
 141:src/../h/riscv.h ****     {
 142:src/../h/riscv.h ****         __asm__ volatile ("csrs sstatus, %[mask]" : : [mask] "r"(mask));
 143:src/../h/riscv.h ****     }
 144:src/../h/riscv.h **** 
 145:src/../h/riscv.h ****     inline void Riscv::mc_sstatus(uint64 mask)
 146:src/../h/riscv.h ****     {
 147:src/../h/riscv.h ****         __asm__ volatile ("csrc sstatus, %[mask]" : : [mask] "r"(mask));
 148:src/../h/riscv.h ****     }
 149:src/../h/riscv.h **** 
 150:src/../h/riscv.h ****     inline uint64 Riscv::r_sstatus()
 151:src/../h/riscv.h ****     {
 152:src/../h/riscv.h ****         uint64 volatile sstatus;
 153:src/../h/riscv.h ****         __asm__ volatile ("csrr %[sstatus], sstatus" : [sstatus] "=r"(sstatus));
 154:src/../h/riscv.h ****         return sstatus;
 155:src/../h/riscv.h ****     }
 156:src/../h/riscv.h **** 
 157:src/../h/riscv.h ****     inline void Riscv::w_sstatus(uint64 sstatus)
 158:src/../h/riscv.h ****     {
 159:src/../h/riscv.h ****         __asm__ volatile ("csrw sstatus, %[sstatus]" : : [sstatus] "r"(sstatus));
 160:src/../h/riscv.h ****     }
 161:src/../h/riscv.h **** 
 162:src/../h/riscv.h **** inline uint64 Riscv::readARegister(int reg_number) {
 163:src/../h/riscv.h ****         uint64 value;
 164:src/../h/riscv.h ****         __asm__ volatile("mv %[val], a%[reg]" : [val] "=r" (value) : [reg] "i" (reg_number));
 165:src/../h/riscv.h ****         return value;
 166:src/../h/riscv.h ****     }
 167:src/../h/riscv.h **** 
 168:src/../h/riscv.h **** 
 169:src/../h/riscv.h **** inline void Riscv::writeARegister( int reg_number, uint64 value) {
 170:src/../h/riscv.h ****         __asm__ volatile("mv a%[reg], %[val]" :: [reg] "i" (reg_number), [val] "r" (value));
  35              		.loc 2 170 9
  36              	 #APP
  37              	# 170 "src/../h/riscv.h" 1
 171              	    }
  38              		mv a1, a0
  39              	# 0 "" 2
  40              	.LVL3:
  41              	 #NO_APP
  42              	.LBE73:
  43              	.LBE72:
   8:src/syscall_c.cpp ****     Riscv::writeARegister(0, 0x01);
  44              		.loc 1 8 5
  45              	.LBB74:
  46              	.LBB75:
 170:src/../h/riscv.h ****     }
  47              		.loc 2 170 9
  48 0018 93071000 		li	a5,1
  49              	 #APP
GAS LISTING C:\msys64\tmp\ccdfIKCc.s 			page 5


  50              	# 170 "src/../h/riscv.h" 1
  51              		mv a0, a5
  52              	# 0 "" 2
  53              	.LVL4:
  54              	 #NO_APP
  55              	.LBE75:
  56              	.LBE74:
   9:src/syscall_c.cpp **** 
  10:src/syscall_c.cpp ****     __asm__ volatile("ecall");
  57              		.loc 1 10 5
  58              	 #APP
  59              	# 10 "src/syscall_c.cpp" 1
  11              	
  12:src/syscall_c.cpp ****     volatile long a0 = Riscv::readARegister(0);
  60              		ecall
  61              	# 0 "" 2
  62              		.loc 1 12 5
  63              	.LVL5:
  64              	 #NO_APP
  65              	.LBB76:
  66              	.LBB77:
 163:src/../h/riscv.h ****         __asm__ volatile("mv %[val], a%[reg]" : [val] "=r" (value) : [reg] "i" (reg_number));
  67              		.loc 2 163 9
 164:src/../h/riscv.h ****         return value;
  68              		.loc 2 164 9
  69              	 #APP
  70              	# 164 "src/../h/riscv.h" 1
  71              		mv a5, a0
  72              	# 0 "" 2
  73              	.LVL6:
 165:src/../h/riscv.h ****     }
  74              		.loc 2 165 9
  75              	 #NO_APP
  76              	.LBE77:
  77              	.LBE76:
  78              		.loc 1 12 46 is_stmt 0
  79 0028 2334F4FE 		sd	a5,-24(s0)
  13:src/syscall_c.cpp ****     return (void*) a0;
  80              		.loc 1 13 5 is_stmt 1
  81              		.loc 1 13 20 is_stmt 0
  82 002c 033584FE 		ld	a0,-24(s0)
  83              	.LVL7:
  14:src/syscall_c.cpp **** 
  15:src/syscall_c.cpp **** 
  16:src/syscall_c.cpp **** }
  84              		.loc 1 16 1
  85 0030 03348101 		ld	s0,24(sp)
  86              		.cfi_restore 8
  87              		.cfi_def_cfa 2, 32
  88 0034 13010102 		addi	sp,sp,32
  89              		.cfi_def_cfa_offset 0
  90 0038 67800000 		jr	ra
  91              		.cfi_endproc
  92              	.LFE18:
  94              		.align	2
  95              		.globl	_Z8mem_freePv
  97              	_Z8mem_freePv:
GAS LISTING C:\msys64\tmp\ccdfIKCc.s 			page 6


  98              	.LFB19:
  17:src/syscall_c.cpp **** 
  18:src/syscall_c.cpp **** int mem_free (void* ptr) {
  99              		.loc 1 18 26 is_stmt 1
 100              		.cfi_startproc
 101              	.LVL8:
 102 003c 130101FE 		addi	sp,sp,-32
 103              		.cfi_def_cfa_offset 32
 104 0040 233C8100 		sd	s0,24(sp)
 105              		.cfi_offset 8, -8
 106 0044 13040102 		addi	s0,sp,32
 107              		.cfi_def_cfa 8, 0
  19:src/syscall_c.cpp ****     Riscv::writeARegister(1, (uint64)ptr);
 108              		.loc 1 19 5
 109              	.LVL9:
 110              	.LBB78:
 111              	.LBB79:
 170:src/../h/riscv.h ****     }
 112              		.loc 2 170 9
 113              	 #APP
 114              	# 170 "src/../h/riscv.h" 1
 115              		mv a1, a0
 116              	# 0 "" 2
 117              	.LVL10:
 118              	 #NO_APP
 119              	.LBE79:
 120              	.LBE78:
  20:src/syscall_c.cpp ****     Riscv::writeARegister(0, 0x02);
 121              		.loc 1 20 5
 122              	.LBB80:
 123              	.LBB81:
 170:src/../h/riscv.h ****     }
 124              		.loc 2 170 9
 125 004c 93072000 		li	a5,2
 126              	 #APP
 127              	# 170 "src/../h/riscv.h" 1
 128              		mv a0, a5
 129              	# 0 "" 2
 130              	.LVL11:
 131              	 #NO_APP
 132              	.LBE81:
 133              	.LBE80:
  21:src/syscall_c.cpp **** 
  22:src/syscall_c.cpp ****     __asm__ volatile("ecall");
 134              		.loc 1 22 5
 135              	 #APP
 136              	# 22 "src/syscall_c.cpp" 1
  23              	
  24:src/syscall_c.cpp ****     volatile long a0 = Riscv::readARegister(0);
 137              		ecall
 138              	# 0 "" 2
 139              		.loc 1 24 5
 140              	.LVL12:
 141              	 #NO_APP
 142              	.LBB82:
 143              	.LBB83:
 163:src/../h/riscv.h ****         __asm__ volatile("mv %[val], a%[reg]" : [val] "=r" (value) : [reg] "i" (reg_number));
GAS LISTING C:\msys64\tmp\ccdfIKCc.s 			page 7


 144              		.loc 2 163 9
 164:src/../h/riscv.h ****         return value;
 145              		.loc 2 164 9
 146              	 #APP
 147              	# 164 "src/../h/riscv.h" 1
 148              		mv a5, a0
 149              	# 0 "" 2
 150              	.LVL13:
 165:src/../h/riscv.h ****     }
 151              		.loc 2 165 9
 152              	 #NO_APP
 153              	.LBE83:
 154              	.LBE82:
 155              		.loc 1 24 46 is_stmt 0
 156 005c 2334F4FE 		sd	a5,-24(s0)
  25:src/syscall_c.cpp ****     return (int) a0;
 157              		.loc 1 25 5 is_stmt 1
 158              		.loc 1 25 18 is_stmt 0
 159 0060 033584FE 		ld	a0,-24(s0)
 160              	.LVL14:
  26:src/syscall_c.cpp **** }
 161              		.loc 1 26 1
 162 0064 1B050500 		sext.w	a0,a0
 163 0068 03348101 		ld	s0,24(sp)
 164              		.cfi_restore 8
 165              		.cfi_def_cfa 2, 32
 166 006c 13010102 		addi	sp,sp,32
 167              		.cfi_def_cfa_offset 0
 168 0070 67800000 		jr	ra
 169              		.cfi_endproc
 170              	.LFE19:
 172              		.align	2
 173              		.globl	_Z13thread_createPP7_threadPFvPvES2_
 175              	_Z13thread_createPP7_threadPFvPvES2_:
 176              	.LFB20:
  27:src/syscall_c.cpp **** 
  28:src/syscall_c.cpp **** int thread_create(thread_t* handle, void(*start_routine)(void *), void *arg) {
 177              		.loc 1 28 78 is_stmt 1
 178              		.cfi_startproc
 179              	.LVL15:
 180 0074 130101FC 		addi	sp,sp,-64
 181              		.cfi_def_cfa_offset 64
 182 0078 233C1102 		sd	ra,56(sp)
 183 007c 23388102 		sd	s0,48(sp)
 184 0080 23349102 		sd	s1,40(sp)
 185 0084 23302103 		sd	s2,32(sp)
 186 0088 233C3101 		sd	s3,24(sp)
 187              		.cfi_offset 1, -8
 188              		.cfi_offset 8, -16
 189              		.cfi_offset 9, -24
 190              		.cfi_offset 18, -32
 191              		.cfi_offset 19, -40
 192 008c 13040104 		addi	s0,sp,64
 193              		.cfi_def_cfa 8, 0
 194 0090 13090500 		mv	s2,a0
 195 0094 93840500 		mv	s1,a1
 196 0098 93090600 		mv	s3,a2
GAS LISTING C:\msys64\tmp\ccdfIKCc.s 			page 8


  29:src/syscall_c.cpp ****     void* volatile stack = nullptr;
 197              		.loc 1 29 5
 198              		.loc 1 29 20 is_stmt 0
 199 009c 233404FC 		sd	zero,-56(s0)
  30:src/syscall_c.cpp ****     if (start_routine) {
 200              		.loc 1 30 5 is_stmt 1
 201 00a0 638A0500 		beq	a1,zero,.L6
  31:src/syscall_c.cpp ****         stack = mem_alloc(DEFAULT_STACK_SIZE);
 202              		.loc 1 31 9
 203              		.loc 1 31 26 is_stmt 0
 204 00a4 37150000 		li	a0,4096
 205              	.LVL16:
 206 00a8 97000000 		call	_Z9mem_allocm
 206      E7800000 
 207              	.LVL17:
 208              		.loc 1 31 15
 209 00b0 2334A4FC 		sd	a0,-56(s0)
 210              	.L6:
  32:src/syscall_c.cpp ****     }
  33:src/syscall_c.cpp **** 
  34:src/syscall_c.cpp **** 
  35:src/syscall_c.cpp ****     Riscv::writeARegister(4, (uint64)stack);
 211              		.loc 1 35 5 is_stmt 1
 212              		.loc 1 35 26 is_stmt 0
 213 00b4 833784FC 		ld	a5,-56(s0)
 214              	.LVL18:
 215              	.LBB84:
 216              	.LBB85:
 170:src/../h/riscv.h ****     }
 217              		.loc 2 170 9 is_stmt 1
 218              	 #APP
 219              	# 170 "src/../h/riscv.h" 1
 220              		mv a4, a5
 221              	# 0 "" 2
 222              	.LVL19:
 223              	 #NO_APP
 224              	.LBE85:
 225              	.LBE84:
  36:src/syscall_c.cpp ****     Riscv::writeARegister(3, (uint64)arg);
 226              		.loc 1 36 5
 227              	.LBB86:
 228              	.LBB87:
 170:src/../h/riscv.h ****     }
 229              		.loc 2 170 9
 230              	 #APP
 231              	# 170 "src/../h/riscv.h" 1
 232              		mv a3, s3
 233              	# 0 "" 2
 234              	.LVL20:
 235              	 #NO_APP
 236              	.LBE87:
 237              	.LBE86:
  37:src/syscall_c.cpp ****     Riscv::writeARegister(2, (uint64)start_routine);
 238              		.loc 1 37 5
 239              	.LBB88:
 240              	.LBB89:
 170:src/../h/riscv.h ****     }
GAS LISTING C:\msys64\tmp\ccdfIKCc.s 			page 9


 241              		.loc 2 170 9
 242              	 #APP
 243              	# 170 "src/../h/riscv.h" 1
 244              		mv a2, s1
 245              	# 0 "" 2
 246              	.LVL21:
 247              	 #NO_APP
 248              	.LBE89:
 249              	.LBE88:
  38:src/syscall_c.cpp ****     Riscv::writeARegister(1, (uint64)handle);
 250              		.loc 1 38 5
 251              	.LBB90:
 252              	.LBB91:
 170:src/../h/riscv.h ****     }
 253              		.loc 2 170 9
 254              	 #APP
 255              	# 170 "src/../h/riscv.h" 1
 256              		mv a1, s2
 257              	# 0 "" 2
 258              	.LVL22:
 259              	 #NO_APP
 260              	.LBE91:
 261              	.LBE90:
  39:src/syscall_c.cpp **** 
  40:src/syscall_c.cpp ****     Riscv::writeARegister(0, 0x11);
 262              		.loc 1 40 5
 263              	.LBB92:
 264              	.LBB93:
 170:src/../h/riscv.h ****     }
 265              		.loc 2 170 9
 266 00c8 93071001 		li	a5,17
 267              	 #APP
 268              	# 170 "src/../h/riscv.h" 1
 269              		mv a0, a5
 270              	# 0 "" 2
 271              	.LVL23:
 272              	 #NO_APP
 273              	.LBE93:
 274              	.LBE92:
  41:src/syscall_c.cpp **** 
  42:src/syscall_c.cpp ****     __asm__ volatile("ecall");
 275              		.loc 1 42 5
 276              	 #APP
 277              	# 42 "src/syscall_c.cpp" 1
  43              	
  44:src/syscall_c.cpp ****     volatile long a0 = Riscv::readARegister(0);
 278              		ecall
 279              	# 0 "" 2
 280              		.loc 1 44 5
 281              	.LVL24:
 282              	 #NO_APP
 283              	.LBB94:
 284              	.LBB95:
 163:src/../h/riscv.h ****         __asm__ volatile("mv %[val], a%[reg]" : [val] "=r" (value) : [reg] "i" (reg_number));
 285              		.loc 2 163 9
 164:src/../h/riscv.h ****         return value;
 286              		.loc 2 164 9
GAS LISTING C:\msys64\tmp\ccdfIKCc.s 			page 10


 287              	 #APP
 288              	# 164 "src/../h/riscv.h" 1
 289              		mv a5, a0
 290              	# 0 "" 2
 291              	.LVL25:
 165:src/../h/riscv.h ****     }
 292              		.loc 2 165 9
 293              	 #NO_APP
 294              	.LBE95:
 295              	.LBE94:
 296              		.loc 1 44 46 is_stmt 0
 297 00d8 2330F4FC 		sd	a5,-64(s0)
  45:src/syscall_c.cpp ****     return (int) a0;
 298              		.loc 1 45 5 is_stmt 1
 299              		.loc 1 45 18 is_stmt 0
 300 00dc 033504FC 		ld	a0,-64(s0)
  46:src/syscall_c.cpp **** }
 301              		.loc 1 46 1
 302 00e0 1B050500 		sext.w	a0,a0
 303 00e4 83308103 		ld	ra,56(sp)
 304              		.cfi_restore 1
 305 00e8 03340103 		ld	s0,48(sp)
 306              		.cfi_restore 8
 307              		.cfi_def_cfa 2, 64
 308 00ec 83348102 		ld	s1,40(sp)
 309              		.cfi_restore 9
 310              	.LVL26:
 311 00f0 03390102 		ld	s2,32(sp)
 312              		.cfi_restore 18
 313              	.LVL27:
 314 00f4 83398101 		ld	s3,24(sp)
 315              		.cfi_restore 19
 316              	.LVL28:
 317 00f8 13010104 		addi	sp,sp,64
 318              		.cfi_def_cfa_offset 0
 319 00fc 67800000 		jr	ra
 320              		.cfi_endproc
 321              	.LFE20:
 323              		.align	2
 324              		.globl	_Z15thread_dispatchv
 326              	_Z15thread_dispatchv:
 327              	.LFB21:
  47:src/syscall_c.cpp **** 
  48:src/syscall_c.cpp **** void thread_dispatch() {
 328              		.loc 1 48 24 is_stmt 1
 329              		.cfi_startproc
 330 0100 130101FF 		addi	sp,sp,-16
 331              		.cfi_def_cfa_offset 16
 332 0104 23348100 		sd	s0,8(sp)
 333              		.cfi_offset 8, -8
 334 0108 13040101 		addi	s0,sp,16
 335              		.cfi_def_cfa 8, 0
  49:src/syscall_c.cpp ****     Riscv::writeARegister(0, 0x13);
 336              		.loc 1 49 5
 337              	.LVL29:
 338              	.LBB96:
 339              	.LBB97:
GAS LISTING C:\msys64\tmp\ccdfIKCc.s 			page 11


 170:src/../h/riscv.h ****     }
 340              		.loc 2 170 9
 341 010c 93073001 		li	a5,19
 342              	 #APP
 343              	# 170 "src/../h/riscv.h" 1
 344              		mv a0, a5
 345              	# 0 "" 2
 346              	.LVL30:
 347              	 #NO_APP
 348              	.LBE97:
 349              	.LBE96:
  50:src/syscall_c.cpp **** 
  51:src/syscall_c.cpp ****     __asm__ volatile("ecall");
 350              		.loc 1 51 5
 351              	 #APP
 352              	# 51 "src/syscall_c.cpp" 1
  52              	
  53:src/syscall_c.cpp **** }
 353              		ecall
 354              	# 0 "" 2
 355              		.loc 1 53 1 is_stmt 0
 356              	 #NO_APP
 357 0118 03348100 		ld	s0,8(sp)
 358              		.cfi_restore 8
 359              		.cfi_def_cfa 2, 16
 360 011c 13010101 		addi	sp,sp,16
 361              		.cfi_def_cfa_offset 0
 362 0120 67800000 		jr	ra
 363              		.cfi_endproc
 364              	.LFE21:
 366              		.align	2
 367              		.globl	_Z11thread_exitv
 369              	_Z11thread_exitv:
 370              	.LFB22:
  54:src/syscall_c.cpp **** 
  55:src/syscall_c.cpp **** int thread_exit() {
 371              		.loc 1 55 19 is_stmt 1
 372              		.cfi_startproc
 373 0124 130101FE 		addi	sp,sp,-32
 374              		.cfi_def_cfa_offset 32
 375 0128 233C8100 		sd	s0,24(sp)
 376              		.cfi_offset 8, -8
 377 012c 13040102 		addi	s0,sp,32
 378              		.cfi_def_cfa 8, 0
  56:src/syscall_c.cpp ****     Riscv::writeARegister(0, 0x12);
 379              		.loc 1 56 5
 380              	.LVL31:
 381              	.LBB98:
 382              	.LBB99:
 170:src/../h/riscv.h ****     }
 383              		.loc 2 170 9
 384 0130 93072001 		li	a5,18
 385              	 #APP
 386              	# 170 "src/../h/riscv.h" 1
 387              		mv a0, a5
 388              	# 0 "" 2
 389              	.LVL32:
GAS LISTING C:\msys64\tmp\ccdfIKCc.s 			page 12


 390              	 #NO_APP
 391              	.LBE99:
 392              	.LBE98:
  57:src/syscall_c.cpp **** 
  58:src/syscall_c.cpp ****     __asm__ volatile("ecall");
 393              		.loc 1 58 5
 394              	 #APP
 395              	# 58 "src/syscall_c.cpp" 1
  59              	
  60:src/syscall_c.cpp ****     volatile long a0 = Riscv::readARegister(0);
 396              		ecall
 397              	# 0 "" 2
 398              		.loc 1 60 5
 399              	.LVL33:
 400              	 #NO_APP
 401              	.LBB100:
 402              	.LBB101:
 163:src/../h/riscv.h ****         __asm__ volatile("mv %[val], a%[reg]" : [val] "=r" (value) : [reg] "i" (reg_number));
 403              		.loc 2 163 9
 164:src/../h/riscv.h ****         return value;
 404              		.loc 2 164 9
 405              	 #APP
 406              	# 164 "src/../h/riscv.h" 1
 407              		mv a5, a0
 408              	# 0 "" 2
 409              	.LVL34:
 165:src/../h/riscv.h ****     }
 410              		.loc 2 165 9
 411              	 #NO_APP
 412              	.LBE101:
 413              	.LBE100:
 414              		.loc 1 60 46 is_stmt 0
 415 0140 2334F4FE 		sd	a5,-24(s0)
  61:src/syscall_c.cpp ****     return (int) a0;
 416              		.loc 1 61 5 is_stmt 1
 417              		.loc 1 61 18 is_stmt 0
 418 0144 033584FE 		ld	a0,-24(s0)
  62:src/syscall_c.cpp **** 
  63:src/syscall_c.cpp **** }
 419              		.loc 1 63 1
 420 0148 1B050500 		sext.w	a0,a0
 421 014c 03348101 		ld	s0,24(sp)
 422              		.cfi_restore 8
 423              		.cfi_def_cfa 2, 32
 424 0150 13010102 		addi	sp,sp,32
 425              		.cfi_def_cfa_offset 0
 426 0154 67800000 		jr	ra
 427              		.cfi_endproc
 428              	.LFE22:
 430              		.align	2
 431              		.globl	_Z8sem_openPP4_semj
 433              	_Z8sem_openPP4_semj:
 434              	.LFB23:
  64:src/syscall_c.cpp **** 
  65:src/syscall_c.cpp **** int sem_open(sem_t*handle, unsigned init) {
 435              		.loc 1 65 43 is_stmt 1
 436              		.cfi_startproc
GAS LISTING C:\msys64\tmp\ccdfIKCc.s 			page 13


 437              	.LVL35:
 438 0158 130101FE 		addi	sp,sp,-32
 439              		.cfi_def_cfa_offset 32
 440 015c 233C8100 		sd	s0,24(sp)
 441              		.cfi_offset 8, -8
 442 0160 13040102 		addi	s0,sp,32
 443              		.cfi_def_cfa 8, 0
  66:src/syscall_c.cpp ****     Riscv::writeARegister(2, (uint64)init);
 444              		.loc 1 66 5
 445              		.loc 1 66 26 is_stmt 0
 446 0164 93950502 		slli	a1,a1,32
 447              	.LVL36:
 448 0168 93D50502 		srli	a1,a1,32
 449              	.LVL37:
 450              	.LBB102:
 451              	.LBB103:
 170:src/../h/riscv.h ****     }
 452              		.loc 2 170 9 is_stmt 1
 453              	 #APP
 454              	# 170 "src/../h/riscv.h" 1
 455              		mv a2, a1
 456              	# 0 "" 2
 457              	.LVL38:
 458              	 #NO_APP
 459              	.LBE103:
 460              	.LBE102:
  67:src/syscall_c.cpp ****     Riscv::writeARegister(1, (uint64)handle);
 461              		.loc 1 67 5
 462              	.LBB104:
 463              	.LBB105:
 170:src/../h/riscv.h ****     }
 464              		.loc 2 170 9
 465              	 #APP
 466              	# 170 "src/../h/riscv.h" 1
 467              		mv a1, a0
 468              	# 0 "" 2
 469              	.LVL39:
 470              	 #NO_APP
 471              	.LBE105:
 472              	.LBE104:
  68:src/syscall_c.cpp **** 
  69:src/syscall_c.cpp ****     Riscv::writeARegister(0, 0x21);
 473              		.loc 1 69 5
 474              	.LBB106:
 475              	.LBB107:
 170:src/../h/riscv.h ****     }
 476              		.loc 2 170 9
 477 0174 93071002 		li	a5,33
 478              	 #APP
 479              	# 170 "src/../h/riscv.h" 1
 480              		mv a0, a5
 481              	# 0 "" 2
 482              	.LVL40:
 483              	 #NO_APP
 484              	.LBE107:
 485              	.LBE106:
  70:src/syscall_c.cpp **** 
GAS LISTING C:\msys64\tmp\ccdfIKCc.s 			page 14


  71:src/syscall_c.cpp ****     __asm__ volatile("ecall");
 486              		.loc 1 71 5
 487              	 #APP
 488              	# 71 "src/syscall_c.cpp" 1
  72              	
  73:src/syscall_c.cpp ****     volatile long a0 = Riscv::readARegister(0);
 489              		ecall
 490              	# 0 "" 2
 491              		.loc 1 73 5
 492              	.LVL41:
 493              	 #NO_APP
 494              	.LBB108:
 495              	.LBB109:
 163:src/../h/riscv.h ****         __asm__ volatile("mv %[val], a%[reg]" : [val] "=r" (value) : [reg] "i" (reg_number));
 496              		.loc 2 163 9
 164:src/../h/riscv.h ****         return value;
 497              		.loc 2 164 9
 498              	 #APP
 499              	# 164 "src/../h/riscv.h" 1
 500              		mv a5, a0
 501              	# 0 "" 2
 502              	.LVL42:
 165:src/../h/riscv.h ****     }
 503              		.loc 2 165 9
 504              	 #NO_APP
 505              	.LBE109:
 506              	.LBE108:
 507              		.loc 1 73 46 is_stmt 0
 508 0184 2334F4FE 		sd	a5,-24(s0)
  74:src/syscall_c.cpp ****     return (int) a0;
 509              		.loc 1 74 5 is_stmt 1
 510              		.loc 1 74 18 is_stmt 0
 511 0188 033584FE 		ld	a0,-24(s0)
 512              	.LVL43:
  75:src/syscall_c.cpp **** 
  76:src/syscall_c.cpp **** }
 513              		.loc 1 76 1
 514 018c 1B050500 		sext.w	a0,a0
 515 0190 03348101 		ld	s0,24(sp)
 516              		.cfi_restore 8
 517              		.cfi_def_cfa 2, 32
 518 0194 13010102 		addi	sp,sp,32
 519              		.cfi_def_cfa_offset 0
 520 0198 67800000 		jr	ra
 521              		.cfi_endproc
 522              	.LFE23:
 524              		.align	2
 525              		.globl	_Z9sem_closeP4_sem
 527              	_Z9sem_closeP4_sem:
 528              	.LFB24:
  77:src/syscall_c.cpp **** 
  78:src/syscall_c.cpp **** int sem_close(sem_t handle) {
 529              		.loc 1 78 29 is_stmt 1
 530              		.cfi_startproc
 531              	.LVL44:
 532 019c 130101FE 		addi	sp,sp,-32
 533              		.cfi_def_cfa_offset 32
GAS LISTING C:\msys64\tmp\ccdfIKCc.s 			page 15


 534 01a0 233C8100 		sd	s0,24(sp)
 535              		.cfi_offset 8, -8
 536 01a4 13040102 		addi	s0,sp,32
 537              		.cfi_def_cfa 8, 0
  79:src/syscall_c.cpp ****     Riscv::writeARegister(1, (uint64)handle);
 538              		.loc 1 79 5
 539              	.LVL45:
 540              	.LBB110:
 541              	.LBB111:
 170:src/../h/riscv.h ****     }
 542              		.loc 2 170 9
 543              	 #APP
 544              	# 170 "src/../h/riscv.h" 1
 545              		mv a1, a0
 546              	# 0 "" 2
 547              	.LVL46:
 548              	 #NO_APP
 549              	.LBE111:
 550              	.LBE110:
  80:src/syscall_c.cpp **** 
  81:src/syscall_c.cpp ****     Riscv::writeARegister(0, 0x22);
 551              		.loc 1 81 5
 552              	.LBB112:
 553              	.LBB113:
 170:src/../h/riscv.h ****     }
 554              		.loc 2 170 9
 555 01ac 93072002 		li	a5,34
 556              	 #APP
 557              	# 170 "src/../h/riscv.h" 1
 558              		mv a0, a5
 559              	# 0 "" 2
 560              	.LVL47:
 561              	 #NO_APP
 562              	.LBE113:
 563              	.LBE112:
  82:src/syscall_c.cpp **** 
  83:src/syscall_c.cpp ****     __asm__ volatile("ecall");
 564              		.loc 1 83 5
 565              	 #APP
 566              	# 83 "src/syscall_c.cpp" 1
  84              	
  85:src/syscall_c.cpp ****     volatile long a0 = Riscv::readARegister(0);
 567              		ecall
 568              	# 0 "" 2
 569              		.loc 1 85 5
 570              	.LVL48:
 571              	 #NO_APP
 572              	.LBB114:
 573              	.LBB115:
 163:src/../h/riscv.h ****         __asm__ volatile("mv %[val], a%[reg]" : [val] "=r" (value) : [reg] "i" (reg_number));
 574              		.loc 2 163 9
 164:src/../h/riscv.h ****         return value;
 575              		.loc 2 164 9
 576              	 #APP
 577              	# 164 "src/../h/riscv.h" 1
 578              		mv a5, a0
 579              	# 0 "" 2
GAS LISTING C:\msys64\tmp\ccdfIKCc.s 			page 16


 580              	.LVL49:
 165:src/../h/riscv.h ****     }
 581              		.loc 2 165 9
 582              	 #NO_APP
 583              	.LBE115:
 584              	.LBE114:
 585              		.loc 1 85 46 is_stmt 0
 586 01bc 2334F4FE 		sd	a5,-24(s0)
  86:src/syscall_c.cpp ****     return (int) a0;
 587              		.loc 1 86 5 is_stmt 1
 588              		.loc 1 86 18 is_stmt 0
 589 01c0 033584FE 		ld	a0,-24(s0)
 590              	.LVL50:
  87:src/syscall_c.cpp **** }
 591              		.loc 1 87 1
 592 01c4 1B050500 		sext.w	a0,a0
 593 01c8 03348101 		ld	s0,24(sp)
 594              		.cfi_restore 8
 595              		.cfi_def_cfa 2, 32
 596 01cc 13010102 		addi	sp,sp,32
 597              		.cfi_def_cfa_offset 0
 598 01d0 67800000 		jr	ra
 599              		.cfi_endproc
 600              	.LFE24:
 602              		.align	2
 603              		.globl	_Z8sem_waitP4_sem
 605              	_Z8sem_waitP4_sem:
 606              	.LFB25:
  88:src/syscall_c.cpp **** 
  89:src/syscall_c.cpp **** int sem_wait(sem_t id) {
 607              		.loc 1 89 24 is_stmt 1
 608              		.cfi_startproc
 609              	.LVL51:
 610 01d4 130101FE 		addi	sp,sp,-32
 611              		.cfi_def_cfa_offset 32
 612 01d8 233C8100 		sd	s0,24(sp)
 613              		.cfi_offset 8, -8
 614 01dc 13040102 		addi	s0,sp,32
 615              		.cfi_def_cfa 8, 0
  90:src/syscall_c.cpp ****     Riscv::writeARegister(1, (uint64)id);
 616              		.loc 1 90 5
 617              	.LVL52:
 618              	.LBB116:
 619              	.LBB117:
 170:src/../h/riscv.h ****     }
 620              		.loc 2 170 9
 621              	 #APP
 622              	# 170 "src/../h/riscv.h" 1
 623              		mv a1, a0
 624              	# 0 "" 2
 625              	.LVL53:
 626              	 #NO_APP
 627              	.LBE117:
 628              	.LBE116:
  91:src/syscall_c.cpp **** 
  92:src/syscall_c.cpp ****     Riscv::writeARegister(0, 0x23);
 629              		.loc 1 92 5
GAS LISTING C:\msys64\tmp\ccdfIKCc.s 			page 17


 630              	.LBB118:
 631              	.LBB119:
 170:src/../h/riscv.h ****     }
 632              		.loc 2 170 9
 633 01e4 93073002 		li	a5,35
 634              	 #APP
 635              	# 170 "src/../h/riscv.h" 1
 636              		mv a0, a5
 637              	# 0 "" 2
 638              	.LVL54:
 639              	 #NO_APP
 640              	.LBE119:
 641              	.LBE118:
  93:src/syscall_c.cpp **** 
  94:src/syscall_c.cpp ****     __asm__ volatile("ecall");
 642              		.loc 1 94 5
 643              	 #APP
 644              	# 94 "src/syscall_c.cpp" 1
  95              	
  96:src/syscall_c.cpp ****     volatile long a0 = Riscv::readARegister(0);
 645              		ecall
 646              	# 0 "" 2
 647              		.loc 1 96 5
 648              	.LVL55:
 649              	 #NO_APP
 650              	.LBB120:
 651              	.LBB121:
 163:src/../h/riscv.h ****         __asm__ volatile("mv %[val], a%[reg]" : [val] "=r" (value) : [reg] "i" (reg_number));
 652              		.loc 2 163 9
 164:src/../h/riscv.h ****         return value;
 653              		.loc 2 164 9
 654              	 #APP
 655              	# 164 "src/../h/riscv.h" 1
 656              		mv a5, a0
 657              	# 0 "" 2
 658              	.LVL56:
 165:src/../h/riscv.h ****     }
 659              		.loc 2 165 9
 660              	 #NO_APP
 661              	.LBE121:
 662              	.LBE120:
 663              		.loc 1 96 46 is_stmt 0
 664 01f4 2334F4FE 		sd	a5,-24(s0)
  97:src/syscall_c.cpp ****     return (int) a0;
 665              		.loc 1 97 5 is_stmt 1
 666              		.loc 1 97 18 is_stmt 0
 667 01f8 033584FE 		ld	a0,-24(s0)
 668              	.LVL57:
  98:src/syscall_c.cpp **** }
 669              		.loc 1 98 1
 670 01fc 1B050500 		sext.w	a0,a0
 671 0200 03348101 		ld	s0,24(sp)
 672              		.cfi_restore 8
 673              		.cfi_def_cfa 2, 32
 674 0204 13010102 		addi	sp,sp,32
 675              		.cfi_def_cfa_offset 0
 676 0208 67800000 		jr	ra
GAS LISTING C:\msys64\tmp\ccdfIKCc.s 			page 18


 677              		.cfi_endproc
 678              	.LFE25:
 680              		.align	2
 681              		.globl	_Z10sem_signalP4_sem
 683              	_Z10sem_signalP4_sem:
 684              	.LFB26:
  99:src/syscall_c.cpp **** 
 100:src/syscall_c.cpp **** int sem_signal(sem_t id) {
 685              		.loc 1 100 26 is_stmt 1
 686              		.cfi_startproc
 687              	.LVL58:
 688 020c 130101FE 		addi	sp,sp,-32
 689              		.cfi_def_cfa_offset 32
 690 0210 233C8100 		sd	s0,24(sp)
 691              		.cfi_offset 8, -8
 692 0214 13040102 		addi	s0,sp,32
 693              		.cfi_def_cfa 8, 0
 101:src/syscall_c.cpp ****     Riscv::writeARegister(1, (uint64)id);
 694              		.loc 1 101 5
 695              	.LVL59:
 696              	.LBB122:
 697              	.LBB123:
 170:src/../h/riscv.h ****     }
 698              		.loc 2 170 9
 699              	 #APP
 700              	# 170 "src/../h/riscv.h" 1
 701              		mv a1, a0
 702              	# 0 "" 2
 703              	.LVL60:
 704              	 #NO_APP
 705              	.LBE123:
 706              	.LBE122:
 102:src/syscall_c.cpp **** 
 103:src/syscall_c.cpp ****     Riscv::writeARegister(0, 0x24);
 707              		.loc 1 103 5
 708              	.LBB124:
 709              	.LBB125:
 170:src/../h/riscv.h ****     }
 710              		.loc 2 170 9
 711 021c 93074002 		li	a5,36
 712              	 #APP
 713              	# 170 "src/../h/riscv.h" 1
 714              		mv a0, a5
 715              	# 0 "" 2
 716              	.LVL61:
 717              	 #NO_APP
 718              	.LBE125:
 719              	.LBE124:
 104:src/syscall_c.cpp **** 
 105:src/syscall_c.cpp ****     __asm__ volatile("ecall");
 720              		.loc 1 105 5
 721              	 #APP
 722              	# 105 "src/syscall_c.cpp" 1
 106              	
 107:src/syscall_c.cpp ****     volatile long a0 = Riscv::readARegister(0);
 723              		ecall
 724              	# 0 "" 2
GAS LISTING C:\msys64\tmp\ccdfIKCc.s 			page 19


 725              		.loc 1 107 5
 726              	.LVL62:
 727              	 #NO_APP
 728              	.LBB126:
 729              	.LBB127:
 163:src/../h/riscv.h ****         __asm__ volatile("mv %[val], a%[reg]" : [val] "=r" (value) : [reg] "i" (reg_number));
 730              		.loc 2 163 9
 164:src/../h/riscv.h ****         return value;
 731              		.loc 2 164 9
 732              	 #APP
 733              	# 164 "src/../h/riscv.h" 1
 734              		mv a5, a0
 735              	# 0 "" 2
 736              	.LVL63:
 165:src/../h/riscv.h ****     }
 737              		.loc 2 165 9
 738              	 #NO_APP
 739              	.LBE127:
 740              	.LBE126:
 741              		.loc 1 107 46 is_stmt 0
 742 022c 2334F4FE 		sd	a5,-24(s0)
 108:src/syscall_c.cpp ****     return (int) a0;
 743              		.loc 1 108 5 is_stmt 1
 744              		.loc 1 108 18 is_stmt 0
 745 0230 033584FE 		ld	a0,-24(s0)
 746              	.LVL64:
 109:src/syscall_c.cpp **** }
 747              		.loc 1 109 1
 748 0234 1B050500 		sext.w	a0,a0
 749 0238 03348101 		ld	s0,24(sp)
 750              		.cfi_restore 8
 751              		.cfi_def_cfa 2, 32
 752 023c 13010102 		addi	sp,sp,32
 753              		.cfi_def_cfa_offset 0
 754 0240 67800000 		jr	ra
 755              		.cfi_endproc
 756              	.LFE26:
 758              		.align	2
 759              		.globl	_Z10time_sleepm
 761              	_Z10time_sleepm:
 762              	.LFB27:
 110:src/syscall_c.cpp **** 
 111:src/syscall_c.cpp **** int time_sleep(time_t t) {
 763              		.loc 1 111 26 is_stmt 1
 764              		.cfi_startproc
 765              	.LVL65:
 766 0244 130101FE 		addi	sp,sp,-32
 767              		.cfi_def_cfa_offset 32
 768 0248 233C8100 		sd	s0,24(sp)
 769              		.cfi_offset 8, -8
 770 024c 13040102 		addi	s0,sp,32
 771              		.cfi_def_cfa 8, 0
 112:src/syscall_c.cpp ****     Riscv::writeARegister(1, (uint64)t);
 772              		.loc 1 112 5
 773              	.LVL66:
 774              	.LBB128:
 775              	.LBB129:
GAS LISTING C:\msys64\tmp\ccdfIKCc.s 			page 20


 170:src/../h/riscv.h ****     }
 776              		.loc 2 170 9
 777              	 #APP
 778              	# 170 "src/../h/riscv.h" 1
 779              		mv a1, a0
 780              	# 0 "" 2
 781              	.LVL67:
 782              	 #NO_APP
 783              	.LBE129:
 784              	.LBE128:
 113:src/syscall_c.cpp ****     Riscv::writeARegister(0, 0x31);
 785              		.loc 1 113 5
 786              	.LBB130:
 787              	.LBB131:
 170:src/../h/riscv.h ****     }
 788              		.loc 2 170 9
 789 0254 93071003 		li	a5,49
 790              	 #APP
 791              	# 170 "src/../h/riscv.h" 1
 792              		mv a0, a5
 793              	# 0 "" 2
 794              	.LVL68:
 795              	 #NO_APP
 796              	.LBE131:
 797              	.LBE130:
 114:src/syscall_c.cpp **** 
 115:src/syscall_c.cpp ****     __asm__ volatile("ecall");
 798              		.loc 1 115 5
 799              	 #APP
 800              	# 115 "src/syscall_c.cpp" 1
 116              	
 117:src/syscall_c.cpp ****     volatile long a0 = Riscv::readARegister(0);
 801              		ecall
 802              	# 0 "" 2
 803              		.loc 1 117 5
 804              	.LVL69:
 805              	 #NO_APP
 806              	.LBB132:
 807              	.LBB133:
 163:src/../h/riscv.h ****         __asm__ volatile("mv %[val], a%[reg]" : [val] "=r" (value) : [reg] "i" (reg_number));
 808              		.loc 2 163 9
 164:src/../h/riscv.h ****         return value;
 809              		.loc 2 164 9
 810              	 #APP
 811              	# 164 "src/../h/riscv.h" 1
 812              		mv a5, a0
 813              	# 0 "" 2
 814              	.LVL70:
 165:src/../h/riscv.h ****     }
 815              		.loc 2 165 9
 816              	 #NO_APP
 817              	.LBE133:
 818              	.LBE132:
 819              		.loc 1 117 46 is_stmt 0
 820 0264 2334F4FE 		sd	a5,-24(s0)
 118:src/syscall_c.cpp ****     return (int) a0;
 821              		.loc 1 118 5 is_stmt 1
GAS LISTING C:\msys64\tmp\ccdfIKCc.s 			page 21


 822              		.loc 1 118 18 is_stmt 0
 823 0268 033584FE 		ld	a0,-24(s0)
 824              	.LVL71:
 119:src/syscall_c.cpp **** }
 825              		.loc 1 119 1
 826 026c 1B050500 		sext.w	a0,a0
 827 0270 03348101 		ld	s0,24(sp)
 828              		.cfi_restore 8
 829              		.cfi_def_cfa 2, 32
 830 0274 13010102 		addi	sp,sp,32
 831              		.cfi_def_cfa_offset 0
 832 0278 67800000 		jr	ra
 833              		.cfi_endproc
 834              	.LFE27:
 836              		.align	2
 837              		.globl	_Z4getcv
 839              	_Z4getcv:
 840              	.LFB28:
 120:src/syscall_c.cpp **** 
 121:src/syscall_c.cpp **** char getc() {
 841              		.loc 1 121 13 is_stmt 1
 842              		.cfi_startproc
 843 027c 130101FE 		addi	sp,sp,-32
 844              		.cfi_def_cfa_offset 32
 845 0280 233C8100 		sd	s0,24(sp)
 846              		.cfi_offset 8, -8
 847 0284 13040102 		addi	s0,sp,32
 848              		.cfi_def_cfa 8, 0
 122:src/syscall_c.cpp ****     Riscv::writeARegister(0, 0x41);
 849              		.loc 1 122 5
 850              	.LVL72:
 851              	.LBB134:
 852              	.LBB135:
 170:src/../h/riscv.h ****     }
 853              		.loc 2 170 9
 854 0288 93071004 		li	a5,65
 855              	 #APP
 856              	# 170 "src/../h/riscv.h" 1
 857              		mv a0, a5
 858              	# 0 "" 2
 859              	.LVL73:
 860              	 #NO_APP
 861              	.LBE135:
 862              	.LBE134:
 123:src/syscall_c.cpp **** 
 124:src/syscall_c.cpp ****     __asm__ volatile("ecall");
 863              		.loc 1 124 5
 864              	 #APP
 865              	# 124 "src/syscall_c.cpp" 1
 125              	
 126:src/syscall_c.cpp ****     volatile long a0 = Riscv::readARegister(0);
 866              		ecall
 867              	# 0 "" 2
 868              		.loc 1 126 5
 869              	.LVL74:
 870              	 #NO_APP
 871              	.LBB136:
GAS LISTING C:\msys64\tmp\ccdfIKCc.s 			page 22


 872              	.LBB137:
 163:src/../h/riscv.h ****         __asm__ volatile("mv %[val], a%[reg]" : [val] "=r" (value) : [reg] "i" (reg_number));
 873              		.loc 2 163 9
 164:src/../h/riscv.h ****         return value;
 874              		.loc 2 164 9
 875              	 #APP
 876              	# 164 "src/../h/riscv.h" 1
 877              		mv a5, a0
 878              	# 0 "" 2
 879              	.LVL75:
 165:src/../h/riscv.h ****     }
 880              		.loc 2 165 9
 881              	 #NO_APP
 882              	.LBE137:
 883              	.LBE136:
 884              		.loc 1 126 46 is_stmt 0
 885 0298 2334F4FE 		sd	a5,-24(s0)
 127:src/syscall_c.cpp ****     return (char) a0;
 886              		.loc 1 127 5 is_stmt 1
 887              		.loc 1 127 19 is_stmt 0
 888 029c 033584FE 		ld	a0,-24(s0)
 128:src/syscall_c.cpp **** }
 889              		.loc 1 128 1
 890 02a0 1375F50F 		andi	a0,a0,0xff
 891 02a4 03348101 		ld	s0,24(sp)
 892              		.cfi_restore 8
 893              		.cfi_def_cfa 2, 32
 894 02a8 13010102 		addi	sp,sp,32
 895              		.cfi_def_cfa_offset 0
 896 02ac 67800000 		jr	ra
 897              		.cfi_endproc
 898              	.LFE28:
 900              		.align	2
 901              		.globl	_Z4putcc
 903              	_Z4putcc:
 904              	.LFB29:
 129:src/syscall_c.cpp **** 
 130:src/syscall_c.cpp **** void putc(char c) {
 905              		.loc 1 130 19 is_stmt 1
 906              		.cfi_startproc
 907              	.LVL76:
 908 02b0 130101FF 		addi	sp,sp,-16
 909              		.cfi_def_cfa_offset 16
 910 02b4 23348100 		sd	s0,8(sp)
 911              		.cfi_offset 8, -8
 912 02b8 13040101 		addi	s0,sp,16
 913              		.cfi_def_cfa 8, 0
 131:src/syscall_c.cpp **** 
 132:src/syscall_c.cpp ****     Riscv::writeARegister(1, (uint64)c);
 914              		.loc 1 132 5
 915              	.LVL77:
 916              	.LBB138:
 917              	.LBB139:
 170:src/../h/riscv.h ****     }
 918              		.loc 2 170 9
 919              	 #APP
 920              	# 170 "src/../h/riscv.h" 1
GAS LISTING C:\msys64\tmp\ccdfIKCc.s 			page 23


 921              		mv a1, a0
 922              	# 0 "" 2
 923              	.LVL78:
 924              	 #NO_APP
 925              	.LBE139:
 926              	.LBE138:
 133:src/syscall_c.cpp ****     Riscv::writeARegister(0, 0x42);
 927              		.loc 1 133 5
 928              	.LBB140:
 929              	.LBB141:
 170:src/../h/riscv.h ****     }
 930              		.loc 2 170 9
 931 02c0 93072004 		li	a5,66
 932              	 #APP
 933              	# 170 "src/../h/riscv.h" 1
 934              		mv a0, a5
 935              	# 0 "" 2
 936              	.LVL79:
 937              	 #NO_APP
 938              	.LBE141:
 939              	.LBE140:
 134:src/syscall_c.cpp **** 
 135:src/syscall_c.cpp ****     __asm__ volatile("ecall");
 940              		.loc 1 135 5
 941              	 #APP
 942              	# 135 "src/syscall_c.cpp" 1
 136              	
 137:src/syscall_c.cpp **** }
 943              		ecall
 944              	# 0 "" 2
 945              		.loc 1 137 1 is_stmt 0
 946              	 #NO_APP
 947 02cc 03348100 		ld	s0,8(sp)
 948              		.cfi_restore 8
 949              		.cfi_def_cfa 2, 16
 950 02d0 13010101 		addi	sp,sp,16
 951              		.cfi_def_cfa_offset 0
 952 02d4 67800000 		jr	ra
 953              		.cfi_endproc
 954              	.LFE29:
 956              		.align	2
 957              		.globl	_Znwm
 959              	_Znwm:
 960              	.LFB30:
 138:src/syscall_c.cpp **** 
 139:src/syscall_c.cpp **** void* operator new(size_t size) {
 961              		.loc 1 139 33 is_stmt 1
 962              		.cfi_startproc
 963              	.LVL80:
 964 02d8 130101FF 		addi	sp,sp,-16
 965              		.cfi_def_cfa_offset 16
 966 02dc 23341100 		sd	ra,8(sp)
 967 02e0 23308100 		sd	s0,0(sp)
 968              		.cfi_offset 1, -8
 969              		.cfi_offset 8, -16
 970 02e4 13040101 		addi	s0,sp,16
 971              		.cfi_def_cfa 8, 0
GAS LISTING C:\msys64\tmp\ccdfIKCc.s 			page 24


 140:src/syscall_c.cpp ****     return mem_alloc(size);
 972              		.loc 1 140 5
 973              		.loc 1 140 21 is_stmt 0
 974 02e8 97000000 		call	_Z9mem_allocm
 974      E7800000 
 975              	.LVL81:
 141:src/syscall_c.cpp **** }
 976              		.loc 1 141 1
 977 02f0 83308100 		ld	ra,8(sp)
 978              		.cfi_restore 1
 979 02f4 03340100 		ld	s0,0(sp)
 980              		.cfi_restore 8
 981              		.cfi_def_cfa 2, 16
 982 02f8 13010101 		addi	sp,sp,16
 983              		.cfi_def_cfa_offset 0
 984 02fc 67800000 		jr	ra
 985              		.cfi_endproc
 986              	.LFE30:
 988              		.align	2
 989              		.globl	_Znam
 991              	_Znam:
 992              	.LFB31:
 142:src/syscall_c.cpp **** 
 143:src/syscall_c.cpp **** 
 144:src/syscall_c.cpp **** void* operator new[](size_t size) {
 993              		.loc 1 144 35 is_stmt 1
 994              		.cfi_startproc
 995              	.LVL82:
 996 0300 130101FF 		addi	sp,sp,-16
 997              		.cfi_def_cfa_offset 16
 998 0304 23341100 		sd	ra,8(sp)
 999 0308 23308100 		sd	s0,0(sp)
 1000              		.cfi_offset 1, -8
 1001              		.cfi_offset 8, -16
 1002 030c 13040101 		addi	s0,sp,16
 1003              		.cfi_def_cfa 8, 0
 145:src/syscall_c.cpp ****     return mem_alloc(size);
 1004              		.loc 1 145 5
 1005              		.loc 1 145 21 is_stmt 0
 1006 0310 97000000 		call	_Z9mem_allocm
 1006      E7800000 
 1007              	.LVL83:
 146:src/syscall_c.cpp **** }
 1008              		.loc 1 146 1
 1009 0318 83308100 		ld	ra,8(sp)
 1010              		.cfi_restore 1
 1011 031c 03340100 		ld	s0,0(sp)
 1012              		.cfi_restore 8
 1013              		.cfi_def_cfa 2, 16
 1014 0320 13010101 		addi	sp,sp,16
 1015              		.cfi_def_cfa_offset 0
 1016 0324 67800000 		jr	ra
 1017              		.cfi_endproc
 1018              	.LFE31:
 1020              		.align	2
 1021              		.globl	_ZdlPv
 1023              	_ZdlPv:
GAS LISTING C:\msys64\tmp\ccdfIKCc.s 			page 25


 1024              	.LFB32:
 147:src/syscall_c.cpp **** 
 148:src/syscall_c.cpp **** 
 149:src/syscall_c.cpp **** void operator delete(void* ptr) noexcept {
 1025              		.loc 1 149 42 is_stmt 1
 1026              		.cfi_startproc
 1027              	.LVL84:
 1028 0328 130101FF 		addi	sp,sp,-16
 1029              		.cfi_def_cfa_offset 16
 1030 032c 23341100 		sd	ra,8(sp)
 1031 0330 23308100 		sd	s0,0(sp)
 1032              		.cfi_offset 1, -8
 1033              		.cfi_offset 8, -16
 1034 0334 13040101 		addi	s0,sp,16
 1035              		.cfi_def_cfa 8, 0
 150:src/syscall_c.cpp ****     mem_free(ptr);
 1036              		.loc 1 150 5
 1037              		.loc 1 150 13 is_stmt 0
 1038 0338 97000000 		call	_Z8mem_freePv
 1038      E7800000 
 1039              	.LVL85:
 151:src/syscall_c.cpp **** }
 1040              		.loc 1 151 1
 1041 0340 83308100 		ld	ra,8(sp)
 1042              		.cfi_restore 1
 1043 0344 03340100 		ld	s0,0(sp)
 1044              		.cfi_restore 8
 1045              		.cfi_def_cfa 2, 16
 1046 0348 13010101 		addi	sp,sp,16
 1047              		.cfi_def_cfa_offset 0
 1048 034c 67800000 		jr	ra
 1049              		.cfi_endproc
 1050              	.LFE32:
 1052              		.align	2
 1053              		.globl	_ZdaPv
 1055              	_ZdaPv:
 1056              	.LFB33:
 152:src/syscall_c.cpp **** 
 153:src/syscall_c.cpp **** void operator delete[](void* ptr) noexcept {
 1057              		.loc 1 153 44 is_stmt 1
 1058              		.cfi_startproc
 1059              	.LVL86:
 1060 0350 130101FF 		addi	sp,sp,-16
 1061              		.cfi_def_cfa_offset 16
 1062 0354 23341100 		sd	ra,8(sp)
 1063 0358 23308100 		sd	s0,0(sp)
 1064              		.cfi_offset 1, -8
 1065              		.cfi_offset 8, -16
 1066 035c 13040101 		addi	s0,sp,16
 1067              		.cfi_def_cfa 8, 0
 154:src/syscall_c.cpp ****     mem_free(ptr);
 1068              		.loc 1 154 5
 1069              		.loc 1 154 13 is_stmt 0
 1070 0360 97000000 		call	_Z8mem_freePv
 1070      E7800000 
 1071              	.LVL87:
 155:src/syscall_c.cpp **** }...
GAS LISTING C:\msys64\tmp\ccdfIKCc.s 			page 26


 1072              		.loc 1 155 1
 1073 0368 83308100 		ld	ra,8(sp)
 1074              		.cfi_restore 1
 1075 036c 03340100 		ld	s0,0(sp)
 1076              		.cfi_restore 8
 1077              		.cfi_def_cfa 2, 16
 1078 0370 13010101 		addi	sp,sp,16
 1079              		.cfi_def_cfa_offset 0
 1080 0374 67800000 		jr	ra
 1081              		.cfi_endproc
 1082              	.LFE33:
 1084              	.Letext0:
 1085              		.file 3 "src/../h/../lib/hw.h"
 1086              		.file 4 "src/../h/syscall_c.h"
GAS LISTING C:\msys64\tmp\ccdfIKCc.s 			page 27


DEFINED SYMBOLS
                            *ABS*:0000000000000000 syscall_c.cpp
C:\msys64\tmp\ccdfIKCc.s:12     .text:0000000000000000 _Z9mem_allocm
C:\msys64\tmp\ccdfIKCc.s:16     .text:0000000000000000 .L0 
C:\msys64\tmp\ccdfIKCc.s:18     .text:0000000000000000 .L0 
C:\msys64\tmp\ccdfIKCc.s:19     .text:0000000000000004 .L0 
C:\msys64\tmp\ccdfIKCc.s:21     .text:0000000000000008 .L0 
C:\msys64\tmp\ccdfIKCc.s:23     .text:000000000000000c .L0 
C:\msys64\tmp\ccdfIKCc.s:25     .text:000000000000000c .L0 
C:\msys64\tmp\ccdfIKCc.s:26     .text:000000000000000c .L0 
C:\msys64\tmp\ccdfIKCc.s:29     .text:0000000000000010 .L0 
C:\msys64\tmp\ccdfIKCc.s:35     .text:0000000000000014 .L0 
    src/../h/riscv.h:170    .text:0000000000000014 .L0 
C:\msys64\tmp\ccdfIKCc.s:47     .text:0000000000000018 .L0 
C:\msys64\tmp\ccdfIKCc.s:48     .text:0000000000000018 .L0 
   src/syscall_c.cpp:10     .text:0000000000000020 .L0 
C:\msys64\tmp\ccdfIKCc.s:67     .text:0000000000000024 .L0 
C:\msys64\tmp\ccdfIKCc.s:68     .text:0000000000000024 .L0 
    src/../h/riscv.h:164    .text:0000000000000024 .L0 
C:\msys64\tmp\ccdfIKCc.s:78     .text:0000000000000028 .L0 
C:\msys64\tmp\ccdfIKCc.s:79     .text:0000000000000028 .L0 
C:\msys64\tmp\ccdfIKCc.s:81     .text:000000000000002c .L0 
C:\msys64\tmp\ccdfIKCc.s:82     .text:000000000000002c .L0 
C:\msys64\tmp\ccdfIKCc.s:85     .text:0000000000000030 .L0 
C:\msys64\tmp\ccdfIKCc.s:86     .text:0000000000000034 .L0 
C:\msys64\tmp\ccdfIKCc.s:87     .text:0000000000000034 .L0 
C:\msys64\tmp\ccdfIKCc.s:89     .text:0000000000000038 .L0 
C:\msys64\tmp\ccdfIKCc.s:91     .text:000000000000003c .L0 
C:\msys64\tmp\ccdfIKCc.s:97     .text:000000000000003c _Z8mem_freePv
C:\msys64\tmp\ccdfIKCc.s:100    .text:000000000000003c .L0 
C:\msys64\tmp\ccdfIKCc.s:102    .text:000000000000003c .L0 
C:\msys64\tmp\ccdfIKCc.s:103    .text:0000000000000040 .L0 
C:\msys64\tmp\ccdfIKCc.s:105    .text:0000000000000044 .L0 
C:\msys64\tmp\ccdfIKCc.s:107    .text:0000000000000048 .L0 
C:\msys64\tmp\ccdfIKCc.s:112    .text:0000000000000048 .L0 
    src/../h/riscv.h:170    .text:0000000000000048 .L0 
C:\msys64\tmp\ccdfIKCc.s:124    .text:000000000000004c .L0 
C:\msys64\tmp\ccdfIKCc.s:125    .text:000000000000004c .L0 
   src/syscall_c.cpp:22     .text:0000000000000054 .L0 
C:\msys64\tmp\ccdfIKCc.s:144    .text:0000000000000058 .L0 
C:\msys64\tmp\ccdfIKCc.s:145    .text:0000000000000058 .L0 
    src/../h/riscv.h:164    .text:0000000000000058 .L0 
C:\msys64\tmp\ccdfIKCc.s:155    .text:000000000000005c .L0 
C:\msys64\tmp\ccdfIKCc.s:156    .text:000000000000005c .L0 
C:\msys64\tmp\ccdfIKCc.s:158    .text:0000000000000060 .L0 
C:\msys64\tmp\ccdfIKCc.s:159    .text:0000000000000060 .L0 
C:\msys64\tmp\ccdfIKCc.s:162    .text:0000000000000064 .L0 
C:\msys64\tmp\ccdfIKCc.s:164    .text:000000000000006c .L0 
C:\msys64\tmp\ccdfIKCc.s:165    .text:000000000000006c .L0 
C:\msys64\tmp\ccdfIKCc.s:167    .text:0000000000000070 .L0 
C:\msys64\tmp\ccdfIKCc.s:169    .text:0000000000000074 .L0 
C:\msys64\tmp\ccdfIKCc.s:175    .text:0000000000000074 _Z13thread_createPP7_threadPFvPvES2_
C:\msys64\tmp\ccdfIKCc.s:178    .text:0000000000000074 .L0 
C:\msys64\tmp\ccdfIKCc.s:180    .text:0000000000000074 .L0 
C:\msys64\tmp\ccdfIKCc.s:181    .text:0000000000000078 .L0 
C:\msys64\tmp\ccdfIKCc.s:187    .text:000000000000008c .L0 
C:\msys64\tmp\ccdfIKCc.s:188    .text:000000000000008c .L0 
GAS LISTING C:\msys64\tmp\ccdfIKCc.s 			page 28


C:\msys64\tmp\ccdfIKCc.s:189    .text:000000000000008c .L0 
C:\msys64\tmp\ccdfIKCc.s:190    .text:000000000000008c .L0 
C:\msys64\tmp\ccdfIKCc.s:191    .text:000000000000008c .L0 
C:\msys64\tmp\ccdfIKCc.s:193    .text:0000000000000090 .L0 
C:\msys64\tmp\ccdfIKCc.s:198    .text:000000000000009c .L0 
C:\msys64\tmp\ccdfIKCc.s:199    .text:000000000000009c .L0 
C:\msys64\tmp\ccdfIKCc.s:201    .text:00000000000000a0 .L0 
C:\msys64\tmp\ccdfIKCc.s:203    .text:00000000000000a4 .L0 
C:\msys64\tmp\ccdfIKCc.s:204    .text:00000000000000a4 .L0 
C:\msys64\tmp\ccdfIKCc.s:209    .text:00000000000000b0 .L0 
C:\msys64\tmp\ccdfIKCc.s:212    .text:00000000000000b4 .L0 
C:\msys64\tmp\ccdfIKCc.s:213    .text:00000000000000b4 .L0 
    src/../h/riscv.h:170    .text:00000000000000b8 .L0 
C:\msys64\tmp\ccdfIKCc.s:229    .text:00000000000000bc .L0 
    src/../h/riscv.h:170    .text:00000000000000bc .L0 
C:\msys64\tmp\ccdfIKCc.s:241    .text:00000000000000c0 .L0 
    src/../h/riscv.h:170    .text:00000000000000c0 .L0 
C:\msys64\tmp\ccdfIKCc.s:253    .text:00000000000000c4 .L0 
    src/../h/riscv.h:170    .text:00000000000000c4 .L0 
C:\msys64\tmp\ccdfIKCc.s:265    .text:00000000000000c8 .L0 
C:\msys64\tmp\ccdfIKCc.s:266    .text:00000000000000c8 .L0 
   src/syscall_c.cpp:42     .text:00000000000000d0 .L0 
C:\msys64\tmp\ccdfIKCc.s:285    .text:00000000000000d4 .L0 
C:\msys64\tmp\ccdfIKCc.s:286    .text:00000000000000d4 .L0 
    src/../h/riscv.h:164    .text:00000000000000d4 .L0 
C:\msys64\tmp\ccdfIKCc.s:296    .text:00000000000000d8 .L0 
C:\msys64\tmp\ccdfIKCc.s:297    .text:00000000000000d8 .L0 
C:\msys64\tmp\ccdfIKCc.s:299    .text:00000000000000dc .L0 
C:\msys64\tmp\ccdfIKCc.s:300    .text:00000000000000dc .L0 
C:\msys64\tmp\ccdfIKCc.s:302    .text:00000000000000e0 .L0 
C:\msys64\tmp\ccdfIKCc.s:304    .text:00000000000000e8 .L0 
C:\msys64\tmp\ccdfIKCc.s:306    .text:00000000000000ec .L0 
C:\msys64\tmp\ccdfIKCc.s:307    .text:00000000000000ec .L0 
C:\msys64\tmp\ccdfIKCc.s:309    .text:00000000000000f0 .L0 
C:\msys64\tmp\ccdfIKCc.s:312    .text:00000000000000f4 .L0 
C:\msys64\tmp\ccdfIKCc.s:315    .text:00000000000000f8 .L0 
C:\msys64\tmp\ccdfIKCc.s:318    .text:00000000000000fc .L0 
C:\msys64\tmp\ccdfIKCc.s:320    .text:0000000000000100 .L0 
C:\msys64\tmp\ccdfIKCc.s:326    .text:0000000000000100 _Z15thread_dispatchv
C:\msys64\tmp\ccdfIKCc.s:329    .text:0000000000000100 .L0 
C:\msys64\tmp\ccdfIKCc.s:330    .text:0000000000000100 .L0 
C:\msys64\tmp\ccdfIKCc.s:331    .text:0000000000000104 .L0 
C:\msys64\tmp\ccdfIKCc.s:333    .text:0000000000000108 .L0 
C:\msys64\tmp\ccdfIKCc.s:335    .text:000000000000010c .L0 
C:\msys64\tmp\ccdfIKCc.s:340    .text:000000000000010c .L0 
C:\msys64\tmp\ccdfIKCc.s:341    .text:000000000000010c .L0 
   src/syscall_c.cpp:51     .text:0000000000000114 .L0 
C:\msys64\tmp\ccdfIKCc.s:357    .text:0000000000000118 .L0 
C:\msys64\tmp\ccdfIKCc.s:358    .text:000000000000011c .L0 
C:\msys64\tmp\ccdfIKCc.s:359    .text:000000000000011c .L0 
C:\msys64\tmp\ccdfIKCc.s:361    .text:0000000000000120 .L0 
C:\msys64\tmp\ccdfIKCc.s:363    .text:0000000000000124 .L0 
C:\msys64\tmp\ccdfIKCc.s:369    .text:0000000000000124 _Z11thread_exitv
C:\msys64\tmp\ccdfIKCc.s:372    .text:0000000000000124 .L0 
C:\msys64\tmp\ccdfIKCc.s:373    .text:0000000000000124 .L0 
C:\msys64\tmp\ccdfIKCc.s:374    .text:0000000000000128 .L0 
C:\msys64\tmp\ccdfIKCc.s:376    .text:000000000000012c .L0 
GAS LISTING C:\msys64\tmp\ccdfIKCc.s 			page 29


C:\msys64\tmp\ccdfIKCc.s:378    .text:0000000000000130 .L0 
C:\msys64\tmp\ccdfIKCc.s:383    .text:0000000000000130 .L0 
C:\msys64\tmp\ccdfIKCc.s:384    .text:0000000000000130 .L0 
   src/syscall_c.cpp:58     .text:0000000000000138 .L0 
C:\msys64\tmp\ccdfIKCc.s:403    .text:000000000000013c .L0 
C:\msys64\tmp\ccdfIKCc.s:404    .text:000000000000013c .L0 
    src/../h/riscv.h:164    .text:000000000000013c .L0 
C:\msys64\tmp\ccdfIKCc.s:414    .text:0000000000000140 .L0 
C:\msys64\tmp\ccdfIKCc.s:415    .text:0000000000000140 .L0 
C:\msys64\tmp\ccdfIKCc.s:417    .text:0000000000000144 .L0 
C:\msys64\tmp\ccdfIKCc.s:418    .text:0000000000000144 .L0 
C:\msys64\tmp\ccdfIKCc.s:420    .text:0000000000000148 .L0 
C:\msys64\tmp\ccdfIKCc.s:422    .text:0000000000000150 .L0 
C:\msys64\tmp\ccdfIKCc.s:423    .text:0000000000000150 .L0 
C:\msys64\tmp\ccdfIKCc.s:425    .text:0000000000000154 .L0 
C:\msys64\tmp\ccdfIKCc.s:427    .text:0000000000000158 .L0 
C:\msys64\tmp\ccdfIKCc.s:433    .text:0000000000000158 _Z8sem_openPP4_semj
C:\msys64\tmp\ccdfIKCc.s:436    .text:0000000000000158 .L0 
C:\msys64\tmp\ccdfIKCc.s:438    .text:0000000000000158 .L0 
C:\msys64\tmp\ccdfIKCc.s:439    .text:000000000000015c .L0 
C:\msys64\tmp\ccdfIKCc.s:441    .text:0000000000000160 .L0 
C:\msys64\tmp\ccdfIKCc.s:443    .text:0000000000000164 .L0 
C:\msys64\tmp\ccdfIKCc.s:445    .text:0000000000000164 .L0 
C:\msys64\tmp\ccdfIKCc.s:446    .text:0000000000000164 .L0 
    src/../h/riscv.h:170    .text:000000000000016c .L0 
C:\msys64\tmp\ccdfIKCc.s:464    .text:0000000000000170 .L0 
    src/../h/riscv.h:170    .text:0000000000000170 .L0 
C:\msys64\tmp\ccdfIKCc.s:476    .text:0000000000000174 .L0 
C:\msys64\tmp\ccdfIKCc.s:477    .text:0000000000000174 .L0 
   src/syscall_c.cpp:71     .text:000000000000017c .L0 
C:\msys64\tmp\ccdfIKCc.s:496    .text:0000000000000180 .L0 
C:\msys64\tmp\ccdfIKCc.s:497    .text:0000000000000180 .L0 
    src/../h/riscv.h:164    .text:0000000000000180 .L0 
C:\msys64\tmp\ccdfIKCc.s:507    .text:0000000000000184 .L0 
C:\msys64\tmp\ccdfIKCc.s:508    .text:0000000000000184 .L0 
C:\msys64\tmp\ccdfIKCc.s:510    .text:0000000000000188 .L0 
C:\msys64\tmp\ccdfIKCc.s:511    .text:0000000000000188 .L0 
C:\msys64\tmp\ccdfIKCc.s:514    .text:000000000000018c .L0 
C:\msys64\tmp\ccdfIKCc.s:516    .text:0000000000000194 .L0 
C:\msys64\tmp\ccdfIKCc.s:517    .text:0000000000000194 .L0 
C:\msys64\tmp\ccdfIKCc.s:519    .text:0000000000000198 .L0 
C:\msys64\tmp\ccdfIKCc.s:521    .text:000000000000019c .L0 
C:\msys64\tmp\ccdfIKCc.s:527    .text:000000000000019c _Z9sem_closeP4_sem
C:\msys64\tmp\ccdfIKCc.s:530    .text:000000000000019c .L0 
C:\msys64\tmp\ccdfIKCc.s:532    .text:000000000000019c .L0 
C:\msys64\tmp\ccdfIKCc.s:533    .text:00000000000001a0 .L0 
C:\msys64\tmp\ccdfIKCc.s:535    .text:00000000000001a4 .L0 
C:\msys64\tmp\ccdfIKCc.s:537    .text:00000000000001a8 .L0 
C:\msys64\tmp\ccdfIKCc.s:542    .text:00000000000001a8 .L0 
    src/../h/riscv.h:170    .text:00000000000001a8 .L0 
C:\msys64\tmp\ccdfIKCc.s:554    .text:00000000000001ac .L0 
C:\msys64\tmp\ccdfIKCc.s:555    .text:00000000000001ac .L0 
   src/syscall_c.cpp:83     .text:00000000000001b4 .L0 
C:\msys64\tmp\ccdfIKCc.s:574    .text:00000000000001b8 .L0 
C:\msys64\tmp\ccdfIKCc.s:575    .text:00000000000001b8 .L0 
    src/../h/riscv.h:164    .text:00000000000001b8 .L0 
C:\msys64\tmp\ccdfIKCc.s:585    .text:00000000000001bc .L0 
GAS LISTING C:\msys64\tmp\ccdfIKCc.s 			page 30


C:\msys64\tmp\ccdfIKCc.s:586    .text:00000000000001bc .L0 
C:\msys64\tmp\ccdfIKCc.s:588    .text:00000000000001c0 .L0 
C:\msys64\tmp\ccdfIKCc.s:589    .text:00000000000001c0 .L0 
C:\msys64\tmp\ccdfIKCc.s:592    .text:00000000000001c4 .L0 
C:\msys64\tmp\ccdfIKCc.s:594    .text:00000000000001cc .L0 
C:\msys64\tmp\ccdfIKCc.s:595    .text:00000000000001cc .L0 
C:\msys64\tmp\ccdfIKCc.s:597    .text:00000000000001d0 .L0 
C:\msys64\tmp\ccdfIKCc.s:599    .text:00000000000001d4 .L0 
C:\msys64\tmp\ccdfIKCc.s:605    .text:00000000000001d4 _Z8sem_waitP4_sem
C:\msys64\tmp\ccdfIKCc.s:608    .text:00000000000001d4 .L0 
C:\msys64\tmp\ccdfIKCc.s:610    .text:00000000000001d4 .L0 
C:\msys64\tmp\ccdfIKCc.s:611    .text:00000000000001d8 .L0 
C:\msys64\tmp\ccdfIKCc.s:613    .text:00000000000001dc .L0 
C:\msys64\tmp\ccdfIKCc.s:615    .text:00000000000001e0 .L0 
C:\msys64\tmp\ccdfIKCc.s:620    .text:00000000000001e0 .L0 
    src/../h/riscv.h:170    .text:00000000000001e0 .L0 
C:\msys64\tmp\ccdfIKCc.s:632    .text:00000000000001e4 .L0 
C:\msys64\tmp\ccdfIKCc.s:633    .text:00000000000001e4 .L0 
   src/syscall_c.cpp:94     .text:00000000000001ec .L0 
C:\msys64\tmp\ccdfIKCc.s:652    .text:00000000000001f0 .L0 
C:\msys64\tmp\ccdfIKCc.s:653    .text:00000000000001f0 .L0 
    src/../h/riscv.h:164    .text:00000000000001f0 .L0 
C:\msys64\tmp\ccdfIKCc.s:663    .text:00000000000001f4 .L0 
C:\msys64\tmp\ccdfIKCc.s:664    .text:00000000000001f4 .L0 
C:\msys64\tmp\ccdfIKCc.s:666    .text:00000000000001f8 .L0 
C:\msys64\tmp\ccdfIKCc.s:667    .text:00000000000001f8 .L0 
C:\msys64\tmp\ccdfIKCc.s:670    .text:00000000000001fc .L0 
C:\msys64\tmp\ccdfIKCc.s:672    .text:0000000000000204 .L0 
C:\msys64\tmp\ccdfIKCc.s:673    .text:0000000000000204 .L0 
C:\msys64\tmp\ccdfIKCc.s:675    .text:0000000000000208 .L0 
C:\msys64\tmp\ccdfIKCc.s:677    .text:000000000000020c .L0 
C:\msys64\tmp\ccdfIKCc.s:683    .text:000000000000020c _Z10sem_signalP4_sem
C:\msys64\tmp\ccdfIKCc.s:686    .text:000000000000020c .L0 
C:\msys64\tmp\ccdfIKCc.s:688    .text:000000000000020c .L0 
C:\msys64\tmp\ccdfIKCc.s:689    .text:0000000000000210 .L0 
C:\msys64\tmp\ccdfIKCc.s:691    .text:0000000000000214 .L0 
C:\msys64\tmp\ccdfIKCc.s:693    .text:0000000000000218 .L0 
C:\msys64\tmp\ccdfIKCc.s:698    .text:0000000000000218 .L0 
    src/../h/riscv.h:170    .text:0000000000000218 .L0 
C:\msys64\tmp\ccdfIKCc.s:710    .text:000000000000021c .L0 
C:\msys64\tmp\ccdfIKCc.s:711    .text:000000000000021c .L0 
   src/syscall_c.cpp:105    .text:0000000000000224 .L0 
C:\msys64\tmp\ccdfIKCc.s:730    .text:0000000000000228 .L0 
C:\msys64\tmp\ccdfIKCc.s:731    .text:0000000000000228 .L0 
    src/../h/riscv.h:164    .text:0000000000000228 .L0 
C:\msys64\tmp\ccdfIKCc.s:741    .text:000000000000022c .L0 
C:\msys64\tmp\ccdfIKCc.s:742    .text:000000000000022c .L0 
C:\msys64\tmp\ccdfIKCc.s:744    .text:0000000000000230 .L0 
C:\msys64\tmp\ccdfIKCc.s:745    .text:0000000000000230 .L0 
C:\msys64\tmp\ccdfIKCc.s:748    .text:0000000000000234 .L0 
C:\msys64\tmp\ccdfIKCc.s:750    .text:000000000000023c .L0 
C:\msys64\tmp\ccdfIKCc.s:751    .text:000000000000023c .L0 
C:\msys64\tmp\ccdfIKCc.s:753    .text:0000000000000240 .L0 
C:\msys64\tmp\ccdfIKCc.s:755    .text:0000000000000244 .L0 
C:\msys64\tmp\ccdfIKCc.s:761    .text:0000000000000244 _Z10time_sleepm
C:\msys64\tmp\ccdfIKCc.s:764    .text:0000000000000244 .L0 
C:\msys64\tmp\ccdfIKCc.s:766    .text:0000000000000244 .L0 
GAS LISTING C:\msys64\tmp\ccdfIKCc.s 			page 31


C:\msys64\tmp\ccdfIKCc.s:767    .text:0000000000000248 .L0 
C:\msys64\tmp\ccdfIKCc.s:769    .text:000000000000024c .L0 
C:\msys64\tmp\ccdfIKCc.s:771    .text:0000000000000250 .L0 
C:\msys64\tmp\ccdfIKCc.s:776    .text:0000000000000250 .L0 
    src/../h/riscv.h:170    .text:0000000000000250 .L0 
C:\msys64\tmp\ccdfIKCc.s:788    .text:0000000000000254 .L0 
C:\msys64\tmp\ccdfIKCc.s:789    .text:0000000000000254 .L0 
   src/syscall_c.cpp:115    .text:000000000000025c .L0 
C:\msys64\tmp\ccdfIKCc.s:808    .text:0000000000000260 .L0 
C:\msys64\tmp\ccdfIKCc.s:809    .text:0000000000000260 .L0 
    src/../h/riscv.h:164    .text:0000000000000260 .L0 
C:\msys64\tmp\ccdfIKCc.s:819    .text:0000000000000264 .L0 
C:\msys64\tmp\ccdfIKCc.s:820    .text:0000000000000264 .L0 
C:\msys64\tmp\ccdfIKCc.s:822    .text:0000000000000268 .L0 
C:\msys64\tmp\ccdfIKCc.s:823    .text:0000000000000268 .L0 
C:\msys64\tmp\ccdfIKCc.s:826    .text:000000000000026c .L0 
C:\msys64\tmp\ccdfIKCc.s:828    .text:0000000000000274 .L0 
C:\msys64\tmp\ccdfIKCc.s:829    .text:0000000000000274 .L0 
C:\msys64\tmp\ccdfIKCc.s:831    .text:0000000000000278 .L0 
C:\msys64\tmp\ccdfIKCc.s:833    .text:000000000000027c .L0 
C:\msys64\tmp\ccdfIKCc.s:839    .text:000000000000027c _Z4getcv
C:\msys64\tmp\ccdfIKCc.s:842    .text:000000000000027c .L0 
C:\msys64\tmp\ccdfIKCc.s:843    .text:000000000000027c .L0 
C:\msys64\tmp\ccdfIKCc.s:844    .text:0000000000000280 .L0 
C:\msys64\tmp\ccdfIKCc.s:846    .text:0000000000000284 .L0 
C:\msys64\tmp\ccdfIKCc.s:848    .text:0000000000000288 .L0 
C:\msys64\tmp\ccdfIKCc.s:853    .text:0000000000000288 .L0 
C:\msys64\tmp\ccdfIKCc.s:854    .text:0000000000000288 .L0 
   src/syscall_c.cpp:124    .text:0000000000000290 .L0 
C:\msys64\tmp\ccdfIKCc.s:873    .text:0000000000000294 .L0 
C:\msys64\tmp\ccdfIKCc.s:874    .text:0000000000000294 .L0 
    src/../h/riscv.h:164    .text:0000000000000294 .L0 
C:\msys64\tmp\ccdfIKCc.s:884    .text:0000000000000298 .L0 
C:\msys64\tmp\ccdfIKCc.s:885    .text:0000000000000298 .L0 
C:\msys64\tmp\ccdfIKCc.s:887    .text:000000000000029c .L0 
C:\msys64\tmp\ccdfIKCc.s:888    .text:000000000000029c .L0 
C:\msys64\tmp\ccdfIKCc.s:890    .text:00000000000002a0 .L0 
C:\msys64\tmp\ccdfIKCc.s:892    .text:00000000000002a8 .L0 
C:\msys64\tmp\ccdfIKCc.s:893    .text:00000000000002a8 .L0 
C:\msys64\tmp\ccdfIKCc.s:895    .text:00000000000002ac .L0 
C:\msys64\tmp\ccdfIKCc.s:897    .text:00000000000002b0 .L0 
C:\msys64\tmp\ccdfIKCc.s:903    .text:00000000000002b0 _Z4putcc
C:\msys64\tmp\ccdfIKCc.s:906    .text:00000000000002b0 .L0 
C:\msys64\tmp\ccdfIKCc.s:908    .text:00000000000002b0 .L0 
C:\msys64\tmp\ccdfIKCc.s:909    .text:00000000000002b4 .L0 
C:\msys64\tmp\ccdfIKCc.s:911    .text:00000000000002b8 .L0 
C:\msys64\tmp\ccdfIKCc.s:913    .text:00000000000002bc .L0 
C:\msys64\tmp\ccdfIKCc.s:918    .text:00000000000002bc .L0 
    src/../h/riscv.h:170    .text:00000000000002bc .L0 
C:\msys64\tmp\ccdfIKCc.s:930    .text:00000000000002c0 .L0 
C:\msys64\tmp\ccdfIKCc.s:931    .text:00000000000002c0 .L0 
   src/syscall_c.cpp:135    .text:00000000000002c8 .L0 
C:\msys64\tmp\ccdfIKCc.s:947    .text:00000000000002cc .L0 
C:\msys64\tmp\ccdfIKCc.s:948    .text:00000000000002d0 .L0 
C:\msys64\tmp\ccdfIKCc.s:949    .text:00000000000002d0 .L0 
C:\msys64\tmp\ccdfIKCc.s:951    .text:00000000000002d4 .L0 
C:\msys64\tmp\ccdfIKCc.s:953    .text:00000000000002d8 .L0 
GAS LISTING C:\msys64\tmp\ccdfIKCc.s 			page 32


C:\msys64\tmp\ccdfIKCc.s:959    .text:00000000000002d8 _Znwm
C:\msys64\tmp\ccdfIKCc.s:962    .text:00000000000002d8 .L0 
C:\msys64\tmp\ccdfIKCc.s:964    .text:00000000000002d8 .L0 
C:\msys64\tmp\ccdfIKCc.s:965    .text:00000000000002dc .L0 
C:\msys64\tmp\ccdfIKCc.s:968    .text:00000000000002e4 .L0 
C:\msys64\tmp\ccdfIKCc.s:969    .text:00000000000002e4 .L0 
C:\msys64\tmp\ccdfIKCc.s:971    .text:00000000000002e8 .L0 
C:\msys64\tmp\ccdfIKCc.s:973    .text:00000000000002e8 .L0 
C:\msys64\tmp\ccdfIKCc.s:974    .text:00000000000002e8 .L0 
C:\msys64\tmp\ccdfIKCc.s:977    .text:00000000000002f0 .L0 
C:\msys64\tmp\ccdfIKCc.s:978    .text:00000000000002f4 .L0 
C:\msys64\tmp\ccdfIKCc.s:980    .text:00000000000002f8 .L0 
C:\msys64\tmp\ccdfIKCc.s:981    .text:00000000000002f8 .L0 
C:\msys64\tmp\ccdfIKCc.s:983    .text:00000000000002fc .L0 
C:\msys64\tmp\ccdfIKCc.s:985    .text:0000000000000300 .L0 
C:\msys64\tmp\ccdfIKCc.s:991    .text:0000000000000300 _Znam
C:\msys64\tmp\ccdfIKCc.s:994    .text:0000000000000300 .L0 
C:\msys64\tmp\ccdfIKCc.s:996    .text:0000000000000300 .L0 
C:\msys64\tmp\ccdfIKCc.s:997    .text:0000000000000304 .L0 
C:\msys64\tmp\ccdfIKCc.s:1000   .text:000000000000030c .L0 
C:\msys64\tmp\ccdfIKCc.s:1001   .text:000000000000030c .L0 
C:\msys64\tmp\ccdfIKCc.s:1003   .text:0000000000000310 .L0 
C:\msys64\tmp\ccdfIKCc.s:1005   .text:0000000000000310 .L0 
C:\msys64\tmp\ccdfIKCc.s:1006   .text:0000000000000310 .L0 
C:\msys64\tmp\ccdfIKCc.s:1009   .text:0000000000000318 .L0 
C:\msys64\tmp\ccdfIKCc.s:1010   .text:000000000000031c .L0 
C:\msys64\tmp\ccdfIKCc.s:1012   .text:0000000000000320 .L0 
C:\msys64\tmp\ccdfIKCc.s:1013   .text:0000000000000320 .L0 
C:\msys64\tmp\ccdfIKCc.s:1015   .text:0000000000000324 .L0 
C:\msys64\tmp\ccdfIKCc.s:1017   .text:0000000000000328 .L0 
C:\msys64\tmp\ccdfIKCc.s:1023   .text:0000000000000328 _ZdlPv
C:\msys64\tmp\ccdfIKCc.s:1026   .text:0000000000000328 .L0 
C:\msys64\tmp\ccdfIKCc.s:1028   .text:0000000000000328 .L0 
C:\msys64\tmp\ccdfIKCc.s:1029   .text:000000000000032c .L0 
C:\msys64\tmp\ccdfIKCc.s:1032   .text:0000000000000334 .L0 
C:\msys64\tmp\ccdfIKCc.s:1033   .text:0000000000000334 .L0 
C:\msys64\tmp\ccdfIKCc.s:1035   .text:0000000000000338 .L0 
C:\msys64\tmp\ccdfIKCc.s:1037   .text:0000000000000338 .L0 
C:\msys64\tmp\ccdfIKCc.s:1038   .text:0000000000000338 .L0 
C:\msys64\tmp\ccdfIKCc.s:1041   .text:0000000000000340 .L0 
C:\msys64\tmp\ccdfIKCc.s:1042   .text:0000000000000344 .L0 
C:\msys64\tmp\ccdfIKCc.s:1044   .text:0000000000000348 .L0 
C:\msys64\tmp\ccdfIKCc.s:1045   .text:0000000000000348 .L0 
C:\msys64\tmp\ccdfIKCc.s:1047   .text:000000000000034c .L0 
C:\msys64\tmp\ccdfIKCc.s:1049   .text:0000000000000350 .L0 
C:\msys64\tmp\ccdfIKCc.s:1055   .text:0000000000000350 _ZdaPv
C:\msys64\tmp\ccdfIKCc.s:1058   .text:0000000000000350 .L0 
C:\msys64\tmp\ccdfIKCc.s:1060   .text:0000000000000350 .L0 
C:\msys64\tmp\ccdfIKCc.s:1061   .text:0000000000000354 .L0 
C:\msys64\tmp\ccdfIKCc.s:1064   .text:000000000000035c .L0 
C:\msys64\tmp\ccdfIKCc.s:1065   .text:000000000000035c .L0 
C:\msys64\tmp\ccdfIKCc.s:1067   .text:0000000000000360 .L0 
C:\msys64\tmp\ccdfIKCc.s:1069   .text:0000000000000360 .L0 
C:\msys64\tmp\ccdfIKCc.s:1070   .text:0000000000000360 .L0 
C:\msys64\tmp\ccdfIKCc.s:1073   .text:0000000000000368 .L0 
C:\msys64\tmp\ccdfIKCc.s:1074   .text:000000000000036c .L0 
C:\msys64\tmp\ccdfIKCc.s:1076   .text:0000000000000370 .L0 
GAS LISTING C:\msys64\tmp\ccdfIKCc.s 			page 33


C:\msys64\tmp\ccdfIKCc.s:1077   .text:0000000000000370 .L0 
C:\msys64\tmp\ccdfIKCc.s:1079   .text:0000000000000374 .L0 
C:\msys64\tmp\ccdfIKCc.s:1081   .text:0000000000000378 .L0 
C:\msys64\tmp\ccdfIKCc.s:1087   .text:0000000000000378 .L0 
C:\msys64\tmp\ccdfIKCc.s:210    .text:00000000000000b4 .L6
C:\msys64\tmp\ccdfIKCc.s:2492   .debug_abbrev:0000000000000000 .Ldebug_abbrev0
C:\msys64\tmp\ccdfIKCc.s:3835   .debug_str:00000000000000a3 .LASF97
C:\msys64\tmp\ccdfIKCc.s:3889   .debug_str:00000000000002d7 .LASF98
C:\msys64\tmp\ccdfIKCc.s:3939   .debug_str:0000000000000443 .LASF99
C:\msys64\tmp\ccdfIKCc.s:8      .text:0000000000000000 .Ltext0
C:\msys64\tmp\ccdfIKCc.s:1084   .text:0000000000000378 .Letext0
C:\msys64\tmp\ccdfIKCc.s:3803   .debug_line:0000000000000000 .Ldebug_line0
C:\msys64\tmp\ccdfIKCc.s:3913   .debug_str:0000000000000386 .LASF0
C:\msys64\tmp\ccdfIKCc.s:3921   .debug_str:00000000000003c5 .LASF1
C:\msys64\tmp\ccdfIKCc.s:3905   .debug_str:0000000000000356 .LASF2
C:\msys64\tmp\ccdfIKCc.s:3885   .debug_str:00000000000002bd .LASF4
C:\msys64\tmp\ccdfIKCc.s:3965   .debug_str:0000000000000536 .LASF3
C:\msys64\tmp\ccdfIKCc.s:3821   .debug_str:0000000000000047 .LASF5
C:\msys64\tmp\ccdfIKCc.s:3849   .debug_str:00000000000001d0 .LASF6
C:\msys64\tmp\ccdfIKCc.s:3925   .debug_str:00000000000003e9 .LASF7
C:\msys64\tmp\ccdfIKCc.s:3911   .debug_str:0000000000000373 .LASF8
C:\msys64\tmp\ccdfIKCc.s:3937   .debug_str:0000000000000434 .LASF9
C:\msys64\tmp\ccdfIKCc.s:3833   .debug_str:0000000000000097 .LASF10
C:\msys64\tmp\ccdfIKCc.s:3955   .debug_str:00000000000004e6 .LASF11
C:\msys64\tmp\ccdfIKCc.s:3843   .debug_str:0000000000000198 .LASF12
C:\msys64\tmp\ccdfIKCc.s:3805   .debug_str:0000000000000000 .LASF13
C:\msys64\tmp\ccdfIKCc.s:3881   .debug_str:00000000000002b0 .LASF15
C:\msys64\tmp\ccdfIKCc.s:3855   .debug_str:00000000000001f5 .LASF14
C:\msys64\tmp\ccdfIKCc.s:3883   .debug_str:00000000000002b8 .LASF16
C:\msys64\tmp\ccdfIKCc.s:3919   .debug_str:00000000000003bf .LASF100
C:\msys64\tmp\ccdfIKCc.s:3953   .debug_str:00000000000004db .LASF51
C:\msys64\tmp\ccdfIKCc.s:4003   .debug_str:0000000000000645 .LASF53
C:\msys64\tmp\ccdfIKCc.s:3811   .debug_str:000000000000001f .LASF17
C:\msys64\tmp\ccdfIKCc.s:3973   .debug_str:000000000000056e .LASF19
C:\msys64\tmp\ccdfIKCc.s:3853   .debug_str:00000000000001ec .LASF21
C:\msys64\tmp\ccdfIKCc.s:3851   .debug_str:00000000000001d7 .LASF23
C:\msys64\tmp\ccdfIKCc.s:3967   .debug_str:0000000000000548 .LASF18
C:\msys64\tmp\ccdfIKCc.s:3943   .debug_str:0000000000000487 .LASF20
C:\msys64\tmp\ccdfIKCc.s:3983   .debug_str:00000000000005c7 .LASF22
C:\msys64\tmp\ccdfIKCc.s:3979   .debug_str:00000000000005a2 .LASF24
C:\msys64\tmp\ccdfIKCc.s:3867   .debug_str:0000000000000239 .LASF25
C:\msys64\tmp\ccdfIKCc.s:3845   .debug_str:00000000000001ae .LASF26
C:\msys64\tmp\ccdfIKCc.s:3807   .debug_str:0000000000000009 .LASF27
C:\msys64\tmp\ccdfIKCc.s:3877   .debug_str:0000000000000286 .LASF28
C:\msys64\tmp\ccdfIKCc.s:3857   .debug_str:00000000000001fb .LASF29
C:\msys64\tmp\ccdfIKCc.s:3825   .debug_str:0000000000000057 .LASF30
C:\msys64\tmp\ccdfIKCc.s:4011   .debug_str:000000000000067e .LASF31
C:\msys64\tmp\ccdfIKCc.s:3859   .debug_str:0000000000000203 .LASF32
C:\msys64\tmp\ccdfIKCc.s:3915   .debug_str:0000000000000393 .LASF33
C:\msys64\tmp\ccdfIKCc.s:3999   .debug_str:0000000000000624 .LASF34
C:\msys64\tmp\ccdfIKCc.s:3819   .debug_str:0000000000000040 .LASF35
C:\msys64\tmp\ccdfIKCc.s:3865   .debug_str:0000000000000226 .LASF36
C:\msys64\tmp\ccdfIKCc.s:3871   .debug_str:0000000000000256 .LASF37
C:\msys64\tmp\ccdfIKCc.s:3981   .debug_str:00000000000005b5 .LASF38
C:\msys64\tmp\ccdfIKCc.s:3817   .debug_str:000000000000003a .LASF39
C:\msys64\tmp\ccdfIKCc.s:4013   .debug_str:0000000000000686 .LASF40
C:\msys64\tmp\ccdfIKCc.s:4009   .debug_str:0000000000000673 .LASF41
GAS LISTING C:\msys64\tmp\ccdfIKCc.s 			page 34


C:\msys64\tmp\ccdfIKCc.s:3961   .debug_str:0000000000000517 .LASF42
C:\msys64\tmp\ccdfIKCc.s:3891   .debug_str:00000000000002e9 .LASF43
C:\msys64\tmp\ccdfIKCc.s:3975   .debug_str:0000000000000583 .LASF44
C:\msys64\tmp\ccdfIKCc.s:3831   .debug_str:000000000000008d .LASF45
C:\msys64\tmp\ccdfIKCc.s:3879   .debug_str:000000000000029a .LASF46
C:\msys64\tmp\ccdfIKCc.s:3907   .debug_str:0000000000000364 .LASF47
C:\msys64\tmp\ccdfIKCc.s:3875   .debug_str:0000000000000270 .LASF48
C:\msys64\tmp\ccdfIKCc.s:3809   .debug_str:0000000000000011 .LASF101
C:\msys64\tmp\ccdfIKCc.s:3901   .debug_str:0000000000000334 .LASF102
C:\msys64\tmp\ccdfIKCc.s:3987   .debug_str:00000000000005d5 .LASF49
C:\msys64\tmp\ccdfIKCc.s:3899   .debug_str:0000000000000317 .LASF50
C:\msys64\tmp\ccdfIKCc.s:3969   .debug_str:000000000000054f .LASF52
C:\msys64\tmp\ccdfIKCc.s:3827   .debug_str:000000000000006b .LASF54
C:\msys64\tmp\ccdfIKCc.s:3995   .debug_str:0000000000000602 .LASF103
C:\msys64\tmp\ccdfIKCc.s:3951   .debug_str:00000000000004b2 .LASF104
C:\msys64\tmp\ccdfIKCc.s:3887   .debug_str:00000000000002c4 .LASF55
C:\msys64\tmp\ccdfIKCc.s:3963   .debug_str:000000000000052f .LASF57
C:\msys64\tmp\ccdfIKCc.s:1056   .text:0000000000000350 .LFB33
C:\msys64\tmp\ccdfIKCc.s:1082   .text:0000000000000378 .LFE33
C:\msys64\tmp\ccdfIKCc.s:3070   .debug_loc:0000000000000000 .LLST75
C:\msys64\tmp\ccdfIKCc.s:1071   .text:0000000000000368 .LVL87
C:\msys64\tmp\ccdfIKCc.s:3971   .debug_str:000000000000055e .LASF56
C:\msys64\tmp\ccdfIKCc.s:3903   .debug_str:000000000000034f .LASF58
C:\msys64\tmp\ccdfIKCc.s:1024   .text:0000000000000328 .LFB32
C:\msys64\tmp\ccdfIKCc.s:1050   .text:0000000000000350 .LFE32
C:\msys64\tmp\ccdfIKCc.s:3084   .debug_loc:0000000000000039 .LLST74
C:\msys64\tmp\ccdfIKCc.s:1039   .text:0000000000000340 .LVL85
C:\msys64\tmp\ccdfIKCc.s:3959   .debug_str:0000000000000507 .LASF60
C:\msys64\tmp\ccdfIKCc.s:3861   .debug_str:0000000000000217 .LASF62
C:\msys64\tmp\ccdfIKCc.s:992    .text:0000000000000300 .LFB31
C:\msys64\tmp\ccdfIKCc.s:1018   .text:0000000000000328 .LFE31
C:\msys64\tmp\ccdfIKCc.s:3949   .debug_str:00000000000004ad .LASF59
C:\msys64\tmp\ccdfIKCc.s:3098   .debug_loc:0000000000000072 .LLST73
C:\msys64\tmp\ccdfIKCc.s:1007   .text:0000000000000318 .LVL83
C:\msys64\tmp\ccdfIKCc.s:3997   .debug_str:0000000000000617 .LASF61
C:\msys64\tmp\ccdfIKCc.s:3813   .debug_str:0000000000000028 .LASF63
C:\msys64\tmp\ccdfIKCc.s:960    .text:00000000000002d8 .LFB30
C:\msys64\tmp\ccdfIKCc.s:986    .text:0000000000000300 .LFE30
C:\msys64\tmp\ccdfIKCc.s:3112   .debug_loc:00000000000000ab .LLST72
C:\msys64\tmp\ccdfIKCc.s:975    .text:00000000000002f0 .LVL81
C:\msys64\tmp\ccdfIKCc.s:3909   .debug_str:000000000000036e .LASF64
C:\msys64\tmp\ccdfIKCc.s:3863   .debug_str:000000000000021d .LASF65
C:\msys64\tmp\ccdfIKCc.s:904    .text:00000000000002b0 .LFB29
C:\msys64\tmp\ccdfIKCc.s:954    .text:00000000000002d8 .LFE29
C:\msys64\tmp\ccdfIKCc.s:916    .text:00000000000002bc .LBB138
C:\msys64\tmp\ccdfIKCc.s:926    .text:00000000000002c0 .LBE138
C:\msys64\tmp\ccdfIKCc.s:3126   .debug_loc:00000000000000e4 .LLST68
C:\msys64\tmp\ccdfIKCc.s:3133   .debug_loc:0000000000000107 .LLST69
C:\msys64\tmp\ccdfIKCc.s:928    .text:00000000000002c0 .LBB140
C:\msys64\tmp\ccdfIKCc.s:939    .text:00000000000002c8 .LBE140
C:\msys64\tmp\ccdfIKCc.s:3141   .debug_loc:000000000000012b .LLST70
C:\msys64\tmp\ccdfIKCc.s:3150   .debug_loc:0000000000000150 .LLST71
C:\msys64\tmp\ccdfIKCc.s:3929   .debug_str:000000000000040e .LASF66
C:\msys64\tmp\ccdfIKCc.s:3947   .debug_str:00000000000004a8 .LASF67
C:\msys64\tmp\ccdfIKCc.s:3895   .debug_str:00000000000002fe .LASF68
C:\msys64\tmp\ccdfIKCc.s:840    .text:000000000000027c .LFB28
C:\msys64\tmp\ccdfIKCc.s:898    .text:00000000000002b0 .LFE28
GAS LISTING C:\msys64\tmp\ccdfIKCc.s 			page 35


C:\msys64\tmp\ccdfIKCc.s:851    .text:0000000000000288 .LBB134
C:\msys64\tmp\ccdfIKCc.s:862    .text:0000000000000290 .LBE134
C:\msys64\tmp\ccdfIKCc.s:3158   .debug_loc:0000000000000174 .LLST65
C:\msys64\tmp\ccdfIKCc.s:3167   .debug_loc:0000000000000199 .LLST66
C:\msys64\tmp\ccdfIKCc.s:871    .text:0000000000000294 .LBB136
C:\msys64\tmp\ccdfIKCc.s:883    .text:0000000000000298 .LBE136
C:\msys64\tmp\ccdfIKCc.s:3175   .debug_loc:00000000000001bd .LLST67
C:\msys64\tmp\ccdfIKCc.s:3933   .debug_str:0000000000000418 .LASF69
C:\msys64\tmp\ccdfIKCc.s:3957   .debug_str:00000000000004fc .LASF70
C:\msys64\tmp\ccdfIKCc.s:4005   .debug_str:000000000000065d .LASF71
C:\msys64\tmp\ccdfIKCc.s:762    .text:0000000000000244 .LFB27
C:\msys64\tmp\ccdfIKCc.s:834    .text:000000000000027c .LFE27
C:\msys64\tmp\ccdfIKCc.s:3183   .debug_loc:00000000000001e1 .LLST59
C:\msys64\tmp\ccdfIKCc.s:774    .text:0000000000000250 .LBB128
C:\msys64\tmp\ccdfIKCc.s:784    .text:0000000000000254 .LBE128
C:\msys64\tmp\ccdfIKCc.s:3197   .debug_loc:000000000000021a .LLST60
C:\msys64\tmp\ccdfIKCc.s:3204   .debug_loc:000000000000023d .LLST61
C:\msys64\tmp\ccdfIKCc.s:786    .text:0000000000000254 .LBB130
C:\msys64\tmp\ccdfIKCc.s:797    .text:000000000000025c .LBE130
C:\msys64\tmp\ccdfIKCc.s:3212   .debug_loc:0000000000000261 .LLST62
C:\msys64\tmp\ccdfIKCc.s:3221   .debug_loc:0000000000000286 .LLST63
C:\msys64\tmp\ccdfIKCc.s:806    .text:0000000000000260 .LBB132
C:\msys64\tmp\ccdfIKCc.s:818    .text:0000000000000264 .LBE132
C:\msys64\tmp\ccdfIKCc.s:3229   .debug_loc:00000000000002aa .LLST64
C:\msys64\tmp\ccdfIKCc.s:3989   .debug_str:00000000000005e4 .LASF72
C:\msys64\tmp\ccdfIKCc.s:3869   .debug_str:0000000000000241 .LASF73
C:\msys64\tmp\ccdfIKCc.s:684    .text:000000000000020c .LFB26
C:\msys64\tmp\ccdfIKCc.s:756    .text:0000000000000244 .LFE26
C:\msys64\tmp\ccdfIKCc.s:3237   .debug_loc:00000000000002ce .LLST53
C:\msys64\tmp\ccdfIKCc.s:696    .text:0000000000000218 .LBB122
C:\msys64\tmp\ccdfIKCc.s:706    .text:000000000000021c .LBE122
C:\msys64\tmp\ccdfIKCc.s:3251   .debug_loc:0000000000000307 .LLST54
C:\msys64\tmp\ccdfIKCc.s:3258   .debug_loc:000000000000032a .LLST55
C:\msys64\tmp\ccdfIKCc.s:708    .text:000000000000021c .LBB124
C:\msys64\tmp\ccdfIKCc.s:719    .text:0000000000000224 .LBE124
C:\msys64\tmp\ccdfIKCc.s:3266   .debug_loc:000000000000034e .LLST56
C:\msys64\tmp\ccdfIKCc.s:3275   .debug_loc:0000000000000373 .LLST57
C:\msys64\tmp\ccdfIKCc.s:728    .text:0000000000000228 .LBB126
C:\msys64\tmp\ccdfIKCc.s:740    .text:000000000000022c .LBE126
C:\msys64\tmp\ccdfIKCc.s:3283   .debug_loc:0000000000000397 .LLST58
C:\msys64\tmp\ccdfIKCc.s:3837   .debug_str:0000000000000176 .LASF74
C:\msys64\tmp\ccdfIKCc.s:3927   .debug_str:00000000000003fc .LASF75
C:\msys64\tmp\ccdfIKCc.s:606    .text:00000000000001d4 .LFB25
C:\msys64\tmp\ccdfIKCc.s:678    .text:000000000000020c .LFE25
C:\msys64\tmp\ccdfIKCc.s:3291   .debug_loc:00000000000003bb .LLST47
C:\msys64\tmp\ccdfIKCc.s:618    .text:00000000000001e0 .LBB116
C:\msys64\tmp\ccdfIKCc.s:628    .text:00000000000001e4 .LBE116
C:\msys64\tmp\ccdfIKCc.s:3305   .debug_loc:00000000000003f4 .LLST48
C:\msys64\tmp\ccdfIKCc.s:3312   .debug_loc:0000000000000417 .LLST49
C:\msys64\tmp\ccdfIKCc.s:630    .text:00000000000001e4 .LBB118
C:\msys64\tmp\ccdfIKCc.s:641    .text:00000000000001ec .LBE118
C:\msys64\tmp\ccdfIKCc.s:3320   .debug_loc:000000000000043b .LLST50
C:\msys64\tmp\ccdfIKCc.s:3329   .debug_loc:0000000000000460 .LLST51
C:\msys64\tmp\ccdfIKCc.s:650    .text:00000000000001f0 .LBB120
C:\msys64\tmp\ccdfIKCc.s:662    .text:00000000000001f4 .LBE120
C:\msys64\tmp\ccdfIKCc.s:3337   .debug_loc:0000000000000484 .LLST52
C:\msys64\tmp\ccdfIKCc.s:3893   .debug_str:00000000000002f4 .LASF76
GAS LISTING C:\msys64\tmp\ccdfIKCc.s 			page 36


C:\msys64\tmp\ccdfIKCc.s:3935   .debug_str:0000000000000421 .LASF77
C:\msys64\tmp\ccdfIKCc.s:528    .text:000000000000019c .LFB24
C:\msys64\tmp\ccdfIKCc.s:600    .text:00000000000001d4 .LFE24
C:\msys64\tmp\ccdfIKCc.s:3977   .debug_str:000000000000059b .LASF78
C:\msys64\tmp\ccdfIKCc.s:3345   .debug_loc:00000000000004a8 .LLST41
C:\msys64\tmp\ccdfIKCc.s:540    .text:00000000000001a8 .LBB110
C:\msys64\tmp\ccdfIKCc.s:550    .text:00000000000001ac .LBE110
C:\msys64\tmp\ccdfIKCc.s:3359   .debug_loc:00000000000004e1 .LLST42
C:\msys64\tmp\ccdfIKCc.s:3366   .debug_loc:0000000000000504 .LLST43
C:\msys64\tmp\ccdfIKCc.s:552    .text:00000000000001ac .LBB112
C:\msys64\tmp\ccdfIKCc.s:563    .text:00000000000001b4 .LBE112
C:\msys64\tmp\ccdfIKCc.s:3374   .debug_loc:0000000000000528 .LLST44
C:\msys64\tmp\ccdfIKCc.s:3383   .debug_loc:000000000000054d .LLST45
C:\msys64\tmp\ccdfIKCc.s:572    .text:00000000000001b8 .LBB114
C:\msys64\tmp\ccdfIKCc.s:584    .text:00000000000001bc .LBE114
C:\msys64\tmp\ccdfIKCc.s:3391   .debug_loc:0000000000000571 .LLST46
C:\msys64\tmp\ccdfIKCc.s:3993   .debug_str:00000000000005f9 .LASF79
C:\msys64\tmp\ccdfIKCc.s:3873   .debug_str:000000000000025c .LASF80
C:\msys64\tmp\ccdfIKCc.s:434    .text:0000000000000158 .LFB23
C:\msys64\tmp\ccdfIKCc.s:522    .text:000000000000019c .LFE23
C:\msys64\tmp\ccdfIKCc.s:3399   .debug_loc:0000000000000595 .LLST32
C:\msys64\tmp\ccdfIKCc.s:3931   .debug_str:0000000000000413 .LASF81
C:\msys64\tmp\ccdfIKCc.s:3413   .debug_loc:00000000000005ce .LLST33
C:\msys64\tmp\ccdfIKCc.s:450    .text:000000000000016c .LBB102
C:\msys64\tmp\ccdfIKCc.s:460    .text:0000000000000170 .LBE102
C:\msys64\tmp\ccdfIKCc.s:3427   .debug_loc:0000000000000607 .LLST34
C:\msys64\tmp\ccdfIKCc.s:3434   .debug_loc:000000000000062a .LLST35
C:\msys64\tmp\ccdfIKCc.s:462    .text:0000000000000170 .LBB104
C:\msys64\tmp\ccdfIKCc.s:472    .text:0000000000000174 .LBE104
C:\msys64\tmp\ccdfIKCc.s:3442   .debug_loc:000000000000064e .LLST36
C:\msys64\tmp\ccdfIKCc.s:3449   .debug_loc:0000000000000671 .LLST37
C:\msys64\tmp\ccdfIKCc.s:474    .text:0000000000000174 .LBB106
C:\msys64\tmp\ccdfIKCc.s:485    .text:000000000000017c .LBE106
C:\msys64\tmp\ccdfIKCc.s:3457   .debug_loc:0000000000000695 .LLST38
C:\msys64\tmp\ccdfIKCc.s:3466   .debug_loc:00000000000006ba .LLST39
C:\msys64\tmp\ccdfIKCc.s:494    .text:0000000000000180 .LBB108
C:\msys64\tmp\ccdfIKCc.s:506    .text:0000000000000184 .LBE108
C:\msys64\tmp\ccdfIKCc.s:3474   .debug_loc:00000000000006de .LLST40
C:\msys64\tmp\ccdfIKCc.s:3815   .debug_str:000000000000002e .LASF82
C:\msys64\tmp\ccdfIKCc.s:3923   .debug_str:00000000000003d8 .LASF83
C:\msys64\tmp\ccdfIKCc.s:370    .text:0000000000000124 .LFB22
C:\msys64\tmp\ccdfIKCc.s:428    .text:0000000000000158 .LFE22
C:\msys64\tmp\ccdfIKCc.s:381    .text:0000000000000130 .LBB98
C:\msys64\tmp\ccdfIKCc.s:392    .text:0000000000000138 .LBE98
C:\msys64\tmp\ccdfIKCc.s:3482   .debug_loc:0000000000000702 .LLST29
C:\msys64\tmp\ccdfIKCc.s:3490   .debug_loc:0000000000000726 .LLST30
C:\msys64\tmp\ccdfIKCc.s:401    .text:000000000000013c .LBB100
C:\msys64\tmp\ccdfIKCc.s:413    .text:0000000000000140 .LBE100
C:\msys64\tmp\ccdfIKCc.s:3498   .debug_loc:000000000000074a .LLST31
C:\msys64\tmp\ccdfIKCc.s:3897   .debug_str:0000000000000307 .LASF84
C:\msys64\tmp\ccdfIKCc.s:3941   .debug_str:0000000000000472 .LASF85
C:\msys64\tmp\ccdfIKCc.s:327    .text:0000000000000100 .LFB21
C:\msys64\tmp\ccdfIKCc.s:364    .text:0000000000000124 .LFE21
C:\msys64\tmp\ccdfIKCc.s:338    .text:000000000000010c .LBB96
C:\msys64\tmp\ccdfIKCc.s:349    .text:0000000000000114 .LBE96
C:\msys64\tmp\ccdfIKCc.s:3506   .debug_loc:000000000000076e .LLST27
C:\msys64\tmp\ccdfIKCc.s:3514   .debug_loc:0000000000000792 .LLST28
GAS LISTING C:\msys64\tmp\ccdfIKCc.s 			page 37


C:\msys64\tmp\ccdfIKCc.s:3847   .debug_str:00000000000001c2 .LASF86
C:\msys64\tmp\ccdfIKCc.s:3917   .debug_str:000000000000039a .LASF87
C:\msys64\tmp\ccdfIKCc.s:176    .text:0000000000000074 .LFB20
C:\msys64\tmp\ccdfIKCc.s:321    .text:0000000000000100 .LFE20
C:\msys64\tmp\ccdfIKCc.s:3522   .debug_loc:00000000000007b6 .LLST13
C:\msys64\tmp\ccdfIKCc.s:3945   .debug_str:000000000000049a .LASF88
C:\msys64\tmp\ccdfIKCc.s:3540   .debug_loc:0000000000000802 .LLST14
C:\msys64\tmp\ccdfIKCc.s:3558   .debug_loc:000000000000084e .LLST15
C:\msys64\tmp\ccdfIKCc.s:4007   .debug_str:000000000000066d .LASF89
C:\msys64\tmp\ccdfIKCc.s:215    .text:00000000000000b8 .LBB84
C:\msys64\tmp\ccdfIKCc.s:225    .text:00000000000000bc .LBE84
C:\msys64\tmp\ccdfIKCc.s:3576   .debug_loc:000000000000089a .LLST16
C:\msys64\tmp\ccdfIKCc.s:3583   .debug_loc:00000000000008bd .LLST17
C:\msys64\tmp\ccdfIKCc.s:227    .text:00000000000000bc .LBB86
C:\msys64\tmp\ccdfIKCc.s:237    .text:00000000000000c0 .LBE86
C:\msys64\tmp\ccdfIKCc.s:3591   .debug_loc:00000000000008e1 .LLST18
C:\msys64\tmp\ccdfIKCc.s:3598   .debug_loc:0000000000000904 .LLST19
C:\msys64\tmp\ccdfIKCc.s:239    .text:00000000000000c0 .LBB88
C:\msys64\tmp\ccdfIKCc.s:249    .text:00000000000000c4 .LBE88
C:\msys64\tmp\ccdfIKCc.s:3606   .debug_loc:0000000000000928 .LLST20
C:\msys64\tmp\ccdfIKCc.s:3613   .debug_loc:000000000000094b .LLST21
C:\msys64\tmp\ccdfIKCc.s:251    .text:00000000000000c4 .LBB90
C:\msys64\tmp\ccdfIKCc.s:261    .text:00000000000000c8 .LBE90
C:\msys64\tmp\ccdfIKCc.s:3621   .debug_loc:000000000000096f .LLST22
C:\msys64\tmp\ccdfIKCc.s:3628   .debug_loc:0000000000000992 .LLST23
C:\msys64\tmp\ccdfIKCc.s:263    .text:00000000000000c8 .LBB92
C:\msys64\tmp\ccdfIKCc.s:274    .text:00000000000000d0 .LBE92
C:\msys64\tmp\ccdfIKCc.s:3636   .debug_loc:00000000000009b6 .LLST24
C:\msys64\tmp\ccdfIKCc.s:3644   .debug_loc:00000000000009da .LLST25
C:\msys64\tmp\ccdfIKCc.s:283    .text:00000000000000d4 .LBB94
C:\msys64\tmp\ccdfIKCc.s:295    .text:00000000000000d8 .LBE94
C:\msys64\tmp\ccdfIKCc.s:3652   .debug_loc:00000000000009fe .LLST26
C:\msys64\tmp\ccdfIKCc.s:207    .text:00000000000000b0 .LVL17
C:\msys64\tmp\ccdfIKCc.s:3823   .debug_str:000000000000004e .LASF90
C:\msys64\tmp\ccdfIKCc.s:4001   .debug_str:0000000000000637 .LASF91
C:\msys64\tmp\ccdfIKCc.s:98     .text:000000000000003c .LFB19
C:\msys64\tmp\ccdfIKCc.s:170    .text:0000000000000074 .LFE19
C:\msys64\tmp\ccdfIKCc.s:3660   .debug_loc:0000000000000a22 .LLST7
C:\msys64\tmp\ccdfIKCc.s:110    .text:0000000000000048 .LBB78
C:\msys64\tmp\ccdfIKCc.s:120    .text:000000000000004c .LBE78
C:\msys64\tmp\ccdfIKCc.s:3674   .debug_loc:0000000000000a5b .LLST8
C:\msys64\tmp\ccdfIKCc.s:3681   .debug_loc:0000000000000a7e .LLST9
C:\msys64\tmp\ccdfIKCc.s:122    .text:000000000000004c .LBB80
C:\msys64\tmp\ccdfIKCc.s:133    .text:0000000000000054 .LBE80
C:\msys64\tmp\ccdfIKCc.s:3689   .debug_loc:0000000000000aa2 .LLST10
C:\msys64\tmp\ccdfIKCc.s:3697   .debug_loc:0000000000000ac6 .LLST11
C:\msys64\tmp\ccdfIKCc.s:142    .text:0000000000000058 .LBB82
C:\msys64\tmp\ccdfIKCc.s:154    .text:000000000000005c .LBE82
C:\msys64\tmp\ccdfIKCc.s:3705   .debug_loc:0000000000000aea .LLST12
C:\msys64\tmp\ccdfIKCc.s:3991   .debug_str:00000000000005ef .LASF92
C:\msys64\tmp\ccdfIKCc.s:3841   .debug_str:000000000000018a .LASF93
C:\msys64\tmp\ccdfIKCc.s:13     .text:0000000000000000 .LFB18
C:\msys64\tmp\ccdfIKCc.s:92     .text:000000000000003c .LFE18
C:\msys64\tmp\ccdfIKCc.s:3713   .debug_loc:0000000000000b0e .LLST0
C:\msys64\tmp\ccdfIKCc.s:3985   .debug_str:00000000000005ce .LASF94
C:\msys64\tmp\ccdfIKCc.s:3733   .debug_loc:0000000000000b5c .LLST1
C:\msys64\tmp\ccdfIKCc.s:32     .text:0000000000000014 .LBB72
GAS LISTING C:\msys64\tmp\ccdfIKCc.s 			page 38


C:\msys64\tmp\ccdfIKCc.s:43     .text:0000000000000018 .LBE72
C:\msys64\tmp\ccdfIKCc.s:3751   .debug_loc:0000000000000b99 .LLST2
C:\msys64\tmp\ccdfIKCc.s:3758   .debug_loc:0000000000000bbc .LLST3
C:\msys64\tmp\ccdfIKCc.s:45     .text:0000000000000018 .LBB74
C:\msys64\tmp\ccdfIKCc.s:56     .text:0000000000000020 .LBE74
C:\msys64\tmp\ccdfIKCc.s:3766   .debug_loc:0000000000000be0 .LLST4
C:\msys64\tmp\ccdfIKCc.s:3774   .debug_loc:0000000000000c04 .LLST5
C:\msys64\tmp\ccdfIKCc.s:65     .text:0000000000000024 .LBB76
C:\msys64\tmp\ccdfIKCc.s:77     .text:0000000000000028 .LBE76
C:\msys64\tmp\ccdfIKCc.s:3782   .debug_loc:0000000000000c28 .LLST6
C:\msys64\tmp\ccdfIKCc.s:3839   .debug_str:000000000000017f .LASF95
C:\msys64\tmp\ccdfIKCc.s:3829   .debug_str:0000000000000087 .LASF96
C:\msys64\tmp\ccdfIKCc.s:1059   .text:0000000000000350 .LVL86
C:\msys64\tmp\ccdfIKCc.s:1027   .text:0000000000000328 .LVL84
C:\msys64\tmp\ccdfIKCc.s:995    .text:0000000000000300 .LVL82
C:\msys64\tmp\ccdfIKCc.s:963    .text:00000000000002d8 .LVL80
C:\msys64\tmp\ccdfIKCc.s:915    .text:00000000000002bc .LVL77
C:\msys64\tmp\ccdfIKCc.s:923    .text:00000000000002c0 .LVL78
C:\msys64\tmp\ccdfIKCc.s:936    .text:00000000000002c8 .LVL79
C:\msys64\tmp\ccdfIKCc.s:850    .text:0000000000000288 .LVL72
C:\msys64\tmp\ccdfIKCc.s:859    .text:0000000000000290 .LVL73
C:\msys64\tmp\ccdfIKCc.s:869    .text:0000000000000294 .LVL74
C:\msys64\tmp\ccdfIKCc.s:879    .text:0000000000000298 .LVL75
C:\msys64\tmp\ccdfIKCc.s:765    .text:0000000000000244 .LVL65
C:\msys64\tmp\ccdfIKCc.s:824    .text:000000000000026c .LVL71
C:\msys64\tmp\ccdfIKCc.s:773    .text:0000000000000250 .LVL66
C:\msys64\tmp\ccdfIKCc.s:781    .text:0000000000000254 .LVL67
C:\msys64\tmp\ccdfIKCc.s:794    .text:000000000000025c .LVL68
C:\msys64\tmp\ccdfIKCc.s:804    .text:0000000000000260 .LVL69
C:\msys64\tmp\ccdfIKCc.s:814    .text:0000000000000264 .LVL70
C:\msys64\tmp\ccdfIKCc.s:687    .text:000000000000020c .LVL58
C:\msys64\tmp\ccdfIKCc.s:746    .text:0000000000000234 .LVL64
C:\msys64\tmp\ccdfIKCc.s:695    .text:0000000000000218 .LVL59
C:\msys64\tmp\ccdfIKCc.s:703    .text:000000000000021c .LVL60
C:\msys64\tmp\ccdfIKCc.s:716    .text:0000000000000224 .LVL61
C:\msys64\tmp\ccdfIKCc.s:726    .text:0000000000000228 .LVL62
C:\msys64\tmp\ccdfIKCc.s:736    .text:000000000000022c .LVL63
C:\msys64\tmp\ccdfIKCc.s:609    .text:00000000000001d4 .LVL51
C:\msys64\tmp\ccdfIKCc.s:668    .text:00000000000001fc .LVL57
C:\msys64\tmp\ccdfIKCc.s:617    .text:00000000000001e0 .LVL52
C:\msys64\tmp\ccdfIKCc.s:625    .text:00000000000001e4 .LVL53
C:\msys64\tmp\ccdfIKCc.s:638    .text:00000000000001ec .LVL54
C:\msys64\tmp\ccdfIKCc.s:648    .text:00000000000001f0 .LVL55
C:\msys64\tmp\ccdfIKCc.s:658    .text:00000000000001f4 .LVL56
C:\msys64\tmp\ccdfIKCc.s:531    .text:000000000000019c .LVL44
C:\msys64\tmp\ccdfIKCc.s:590    .text:00000000000001c4 .LVL50
C:\msys64\tmp\ccdfIKCc.s:539    .text:00000000000001a8 .LVL45
C:\msys64\tmp\ccdfIKCc.s:547    .text:00000000000001ac .LVL46
C:\msys64\tmp\ccdfIKCc.s:560    .text:00000000000001b4 .LVL47
C:\msys64\tmp\ccdfIKCc.s:570    .text:00000000000001b8 .LVL48
C:\msys64\tmp\ccdfIKCc.s:580    .text:00000000000001bc .LVL49
C:\msys64\tmp\ccdfIKCc.s:437    .text:0000000000000158 .LVL35
C:\msys64\tmp\ccdfIKCc.s:512    .text:000000000000018c .LVL43
C:\msys64\tmp\ccdfIKCc.s:447    .text:0000000000000168 .LVL36
C:\msys64\tmp\ccdfIKCc.s:449    .text:000000000000016c .LVL37
C:\msys64\tmp\ccdfIKCc.s:457    .text:0000000000000170 .LVL38
C:\msys64\tmp\ccdfIKCc.s:469    .text:0000000000000174 .LVL39
GAS LISTING C:\msys64\tmp\ccdfIKCc.s 			page 39


C:\msys64\tmp\ccdfIKCc.s:482    .text:000000000000017c .LVL40
C:\msys64\tmp\ccdfIKCc.s:492    .text:0000000000000180 .LVL41
C:\msys64\tmp\ccdfIKCc.s:502    .text:0000000000000184 .LVL42
C:\msys64\tmp\ccdfIKCc.s:380    .text:0000000000000130 .LVL31
C:\msys64\tmp\ccdfIKCc.s:389    .text:0000000000000138 .LVL32
C:\msys64\tmp\ccdfIKCc.s:399    .text:000000000000013c .LVL33
C:\msys64\tmp\ccdfIKCc.s:409    .text:0000000000000140 .LVL34
C:\msys64\tmp\ccdfIKCc.s:337    .text:000000000000010c .LVL29
C:\msys64\tmp\ccdfIKCc.s:346    .text:0000000000000114 .LVL30
C:\msys64\tmp\ccdfIKCc.s:179    .text:0000000000000074 .LVL15
C:\msys64\tmp\ccdfIKCc.s:205    .text:00000000000000a8 .LVL16
C:\msys64\tmp\ccdfIKCc.s:313    .text:00000000000000f4 .LVL27
C:\msys64\tmp\ccdfIKCc.s:310    .text:00000000000000f0 .LVL26
C:\msys64\tmp\ccdfIKCc.s:316    .text:00000000000000f8 .LVL28
C:\msys64\tmp\ccdfIKCc.s:214    .text:00000000000000b8 .LVL18
C:\msys64\tmp\ccdfIKCc.s:222    .text:00000000000000bc .LVL19
C:\msys64\tmp\ccdfIKCc.s:234    .text:00000000000000c0 .LVL20
C:\msys64\tmp\ccdfIKCc.s:246    .text:00000000000000c4 .LVL21
C:\msys64\tmp\ccdfIKCc.s:258    .text:00000000000000c8 .LVL22
C:\msys64\tmp\ccdfIKCc.s:271    .text:00000000000000d0 .LVL23
C:\msys64\tmp\ccdfIKCc.s:281    .text:00000000000000d4 .LVL24
C:\msys64\tmp\ccdfIKCc.s:291    .text:00000000000000d8 .LVL25
C:\msys64\tmp\ccdfIKCc.s:101    .text:000000000000003c .LVL8
C:\msys64\tmp\ccdfIKCc.s:160    .text:0000000000000064 .LVL14
C:\msys64\tmp\ccdfIKCc.s:109    .text:0000000000000048 .LVL9
C:\msys64\tmp\ccdfIKCc.s:117    .text:000000000000004c .LVL10
C:\msys64\tmp\ccdfIKCc.s:130    .text:0000000000000054 .LVL11
C:\msys64\tmp\ccdfIKCc.s:140    .text:0000000000000058 .LVL12
C:\msys64\tmp\ccdfIKCc.s:150    .text:000000000000005c .LVL13
C:\msys64\tmp\ccdfIKCc.s:17     .text:0000000000000000 .LVL0
C:\msys64\tmp\ccdfIKCc.s:27     .text:0000000000000010 .LVL1
C:\msys64\tmp\ccdfIKCc.s:30     .text:0000000000000014 .LVL2
C:\msys64\tmp\ccdfIKCc.s:83     .text:0000000000000030 .LVL7
C:\msys64\tmp\ccdfIKCc.s:40     .text:0000000000000018 .LVL3
C:\msys64\tmp\ccdfIKCc.s:53     .text:0000000000000020 .LVL4
C:\msys64\tmp\ccdfIKCc.s:63     .text:0000000000000024 .LVL5
C:\msys64\tmp\ccdfIKCc.s:73     .text:0000000000000028 .LVL6
C:\msys64\tmp\ccdfIKCc.s:1088   .debug_info:0000000000000000 .Ldebug_info0

NO UNDEFINED SYMBOLS
