GAS LISTING C:\msys64\tmp\ccyzHjwt.s 			page 1


   1              		.file	"syscall_c.cpp"
   2              		.option nopic
   3              		.option norelax
   4              		.attribute arch, "rv64i2p0_m2p0_a2p0"
   5              		.attribute unaligned_access, 0
   6              		.attribute stack_align, 16
   7              		.text
   8              	.Ltext0:
   9              		.align	2
  10              		.globl	_Z9mem_allocm
  12              	_Z9mem_allocm:
  13              	.LFB16:
  14              		.file 1 "src/syscall_c.cpp"
   1:src/syscall_c.cpp **** #include "../h/syscall_c.h"
   2:src/syscall_c.cpp **** #include  "../h/riscv.h"
   3:src/syscall_c.cpp **** 
   4:src/syscall_c.cpp **** void *mem_alloc(size_t size) {
  15              		.loc 1 4 30
  16              		.cfi_startproc
  17              	.LVL0:
  18 0000 130101FE 		addi	sp,sp,-32
  19              		.cfi_def_cfa_offset 32
  20 0004 233C8100 		sd	s0,24(sp)
  21              		.cfi_offset 8, -8
  22 0008 13040102 		addi	s0,sp,32
  23              		.cfi_def_cfa 8, 0
   5:src/syscall_c.cpp ****     size_t blocks = (size + MEM_BLOCK_SIZE - 1) / MEM_BLOCK_SIZE;
  24              		.loc 1 5 5
  25              		.loc 1 5 44 is_stmt 0
  26 000c 1305F503 		addi	a0,a0,63
  27              	.LVL1:
  28              		.loc 1 5 12
  29 0010 13556500 		srli	a0,a0,6
  30              	.LVL2:
   6:src/syscall_c.cpp **** 
   7:src/syscall_c.cpp ****      __asm__ volatile ("mv a0, %0" :: "r"(0x01));
  31              		.loc 1 7 6 is_stmt 1
  32 0014 93071000 		li	a5,1
  33              	 #APP
  34              	# 7 "src/syscall_c.cpp" 1
   8              	     __asm__ volatile ("mv a1, %0" :: "r"(blocks));
  35              		mv a0, a5
  36              	# 0 "" 2
  37              		.loc 1 8 6
  38              	# 8 "src/syscall_c.cpp" 1
   9              	
  10:src/syscall_c.cpp ****     __asm__ volatile("ecall");
  39              		mv a1, a0
  40              	# 0 "" 2
  41              		.loc 1 10 5
  42              	# 10 "src/syscall_c.cpp" 1
  11              	
  12:src/syscall_c.cpp ****     volatile long ret;
  43              		ecall
  44              	# 0 "" 2
  45              		.loc 1 12 5
  13:src/syscall_c.cpp ****     __asm__ volatile ("mv %0, a0" : "=r"(ret));
GAS LISTING C:\msys64\tmp\ccyzHjwt.s 			page 2


  46              		.loc 1 13 5
  47              	# 13 "src/syscall_c.cpp" 1
  14              	    return (void*) ret;
  48              		mv a5, a0
  49              	# 0 "" 2
  50              	 #NO_APP
  51 0028 2334F4FE 		sd	a5,-24(s0)
  52              		.loc 1 14 5
  53              		.loc 1 14 20 is_stmt 0
  54 002c 033584FE 		ld	a0,-24(s0)
  55              	.LVL3:
  15:src/syscall_c.cpp **** 
  16:src/syscall_c.cpp **** 
  17:src/syscall_c.cpp **** }
  56              		.loc 1 17 1
  57 0030 03348101 		ld	s0,24(sp)
  58              		.cfi_restore 8
  59              		.cfi_def_cfa 2, 32
  60 0034 13010102 		addi	sp,sp,32
  61              		.cfi_def_cfa_offset 0
  62 0038 67800000 		jr	ra
  63              		.cfi_endproc
  64              	.LFE16:
  66              		.align	2
  67              		.globl	_Z8mem_freePv
  69              	_Z8mem_freePv:
  70              	.LFB17:
  18:src/syscall_c.cpp **** 
  19:src/syscall_c.cpp **** int mem_free (void* ptr) {
  71              		.loc 1 19 26 is_stmt 1
  72              		.cfi_startproc
  73              	.LVL4:
  74 003c 130101FE 		addi	sp,sp,-32
  75              		.cfi_def_cfa_offset 32
  76 0040 233C8100 		sd	s0,24(sp)
  77              		.cfi_offset 8, -8
  78 0044 13040102 		addi	s0,sp,32
  79              		.cfi_def_cfa 8, 0
  20:src/syscall_c.cpp ****      __asm__ volatile ("mv a0, %0" :: "r"(0x02));
  80              		.loc 1 20 6
  81 0048 93072000 		li	a5,2
  82              	 #APP
  83              	# 20 "src/syscall_c.cpp" 1
  21              	     __asm__ volatile ("mv a1, %0" :: "r"(ptr));
  84              		mv a0, a5
  85              	# 0 "" 2
  86              		.loc 1 21 6
  87              	# 21 "src/syscall_c.cpp" 1
  22              	
  23:src/syscall_c.cpp ****     __asm__ volatile("ecall");
  88              		mv a1, a0
  89              	# 0 "" 2
  90              		.loc 1 23 5
  91              	# 23 "src/syscall_c.cpp" 1
  24              	
  25:src/syscall_c.cpp ****     volatile long ret;
  92              		ecall
GAS LISTING C:\msys64\tmp\ccyzHjwt.s 			page 3


  93              	# 0 "" 2
  94              		.loc 1 25 5
  26:src/syscall_c.cpp ****     __asm__ volatile ("mv %0, a0" : "=r"(ret));
  95              		.loc 1 26 5
  96              	# 26 "src/syscall_c.cpp" 1
  27              	    return (int) ret;
  97              		mv a5, a0
  98              	# 0 "" 2
  99              	 #NO_APP
 100 005c 2334F4FE 		sd	a5,-24(s0)
 101              		.loc 1 27 5
 102              		.loc 1 27 18 is_stmt 0
 103 0060 033584FE 		ld	a0,-24(s0)
 104              	.LVL5:
  28:src/syscall_c.cpp **** }
 105              		.loc 1 28 1
 106 0064 1B050500 		sext.w	a0,a0
 107 0068 03348101 		ld	s0,24(sp)
 108              		.cfi_restore 8
 109              		.cfi_def_cfa 2, 32
 110 006c 13010102 		addi	sp,sp,32
 111              		.cfi_def_cfa_offset 0
 112 0070 67800000 		jr	ra
 113              		.cfi_endproc
 114              	.LFE17:
 116              		.align	2
 117              		.globl	_Znwm
 119              	_Znwm:
 120              	.LFB18:
  29:src/syscall_c.cpp **** 
  30:src/syscall_c.cpp **** void* operator new(size_t size) {
 121              		.loc 1 30 33 is_stmt 1
 122              		.cfi_startproc
 123              	.LVL6:
 124 0074 130101FF 		addi	sp,sp,-16
 125              		.cfi_def_cfa_offset 16
 126 0078 23341100 		sd	ra,8(sp)
 127 007c 23308100 		sd	s0,0(sp)
 128              		.cfi_offset 1, -8
 129              		.cfi_offset 8, -16
 130 0080 13040101 		addi	s0,sp,16
 131              		.cfi_def_cfa 8, 0
  31:src/syscall_c.cpp ****     return mem_alloc(size);
 132              		.loc 1 31 5
 133              		.loc 1 31 21 is_stmt 0
 134 0084 97000000 		call	_Z9mem_allocm
 134      E7800000 
 135              	.LVL7:
  32:src/syscall_c.cpp **** }
 136              		.loc 1 32 1
 137 008c 83308100 		ld	ra,8(sp)
 138              		.cfi_restore 1
 139 0090 03340100 		ld	s0,0(sp)
 140              		.cfi_restore 8
 141              		.cfi_def_cfa 2, 16
 142 0094 13010101 		addi	sp,sp,16
 143              		.cfi_def_cfa_offset 0
GAS LISTING C:\msys64\tmp\ccyzHjwt.s 			page 4


 144 0098 67800000 		jr	ra
 145              		.cfi_endproc
 146              	.LFE18:
 148              		.align	2
 149              		.globl	_Znam
 151              	_Znam:
 152              	.LFB19:
  33:src/syscall_c.cpp **** 
  34:src/syscall_c.cpp **** 
  35:src/syscall_c.cpp **** void* operator new[](size_t size) {
 153              		.loc 1 35 35 is_stmt 1
 154              		.cfi_startproc
 155              	.LVL8:
 156 009c 130101FF 		addi	sp,sp,-16
 157              		.cfi_def_cfa_offset 16
 158 00a0 23341100 		sd	ra,8(sp)
 159 00a4 23308100 		sd	s0,0(sp)
 160              		.cfi_offset 1, -8
 161              		.cfi_offset 8, -16
 162 00a8 13040101 		addi	s0,sp,16
 163              		.cfi_def_cfa 8, 0
  36:src/syscall_c.cpp ****     return mem_alloc(size);
 164              		.loc 1 36 5
 165              		.loc 1 36 21 is_stmt 0
 166 00ac 97000000 		call	_Z9mem_allocm
 166      E7800000 
 167              	.LVL9:
  37:src/syscall_c.cpp **** }
 168              		.loc 1 37 1
 169 00b4 83308100 		ld	ra,8(sp)
 170              		.cfi_restore 1
 171 00b8 03340100 		ld	s0,0(sp)
 172              		.cfi_restore 8
 173              		.cfi_def_cfa 2, 16
 174 00bc 13010101 		addi	sp,sp,16
 175              		.cfi_def_cfa_offset 0
 176 00c0 67800000 		jr	ra
 177              		.cfi_endproc
 178              	.LFE19:
 180              		.align	2
 181              		.globl	_ZdlPv
 183              	_ZdlPv:
 184              	.LFB20:
  38:src/syscall_c.cpp **** 
  39:src/syscall_c.cpp **** 
  40:src/syscall_c.cpp **** void operator delete(void* ptr) noexcept {
 185              		.loc 1 40 42 is_stmt 1
 186              		.cfi_startproc
 187              	.LVL10:
 188 00c4 130101FF 		addi	sp,sp,-16
 189              		.cfi_def_cfa_offset 16
 190 00c8 23341100 		sd	ra,8(sp)
 191 00cc 23308100 		sd	s0,0(sp)
 192              		.cfi_offset 1, -8
 193              		.cfi_offset 8, -16
 194 00d0 13040101 		addi	s0,sp,16
 195              		.cfi_def_cfa 8, 0
GAS LISTING C:\msys64\tmp\ccyzHjwt.s 			page 5


  41:src/syscall_c.cpp ****     mem_free(ptr);
 196              		.loc 1 41 5
 197              		.loc 1 41 13 is_stmt 0
 198 00d4 97000000 		call	_Z8mem_freePv
 198      E7800000 
 199              	.LVL11:
  42:src/syscall_c.cpp **** }
 200              		.loc 1 42 1
 201 00dc 83308100 		ld	ra,8(sp)
 202              		.cfi_restore 1
 203 00e0 03340100 		ld	s0,0(sp)
 204              		.cfi_restore 8
 205              		.cfi_def_cfa 2, 16
 206 00e4 13010101 		addi	sp,sp,16
 207              		.cfi_def_cfa_offset 0
 208 00e8 67800000 		jr	ra
 209              		.cfi_endproc
 210              	.LFE20:
 212              		.align	2
 213              		.globl	_ZdaPv
 215              	_ZdaPv:
 216              	.LFB21:
  43:src/syscall_c.cpp **** 
  44:src/syscall_c.cpp **** void operator delete[](void* ptr) noexcept {
 217              		.loc 1 44 44 is_stmt 1
 218              		.cfi_startproc
 219              	.LVL12:
 220 00ec 130101FF 		addi	sp,sp,-16
 221              		.cfi_def_cfa_offset 16
 222 00f0 23341100 		sd	ra,8(sp)
 223 00f4 23308100 		sd	s0,0(sp)
 224              		.cfi_offset 1, -8
 225              		.cfi_offset 8, -16
 226 00f8 13040101 		addi	s0,sp,16
 227              		.cfi_def_cfa 8, 0
  45:src/syscall_c.cpp ****     mem_free(ptr);
 228              		.loc 1 45 5
 229              		.loc 1 45 13 is_stmt 0
 230 00fc 97000000 		call	_Z8mem_freePv
 230      E7800000 
 231              	.LVL13:
  46:src/syscall_c.cpp **** }...
 232              		.loc 1 46 1
 233 0104 83308100 		ld	ra,8(sp)
 234              		.cfi_restore 1
 235 0108 03340100 		ld	s0,0(sp)
 236              		.cfi_restore 8
 237              		.cfi_def_cfa 2, 16
 238 010c 13010101 		addi	sp,sp,16
 239              		.cfi_def_cfa_offset 0
 240 0110 67800000 		jr	ra
 241              		.cfi_endproc
 242              	.LFE21:
 244              	.Letext0:
 245              		.file 2 "src/../h/../lib/hw.h"
GAS LISTING C:\msys64\tmp\ccyzHjwt.s 			page 6

