GAS LISTING C:\msys64\tmp\ccyzHjwt.s 			page 1


   1              		.file	"syscall_c.cpp"
   2              		.option nopic
   3              		.option norelax
   4              		.attribute arch, "rv64i2p0_m2p0_a2p0"
   5              		.attribute unaligned_access, 0
   6              		.attribute stack_align, 16
   7              		.text
   8              	.Ltext0:
   9              		.align	2
  10              		.globl	_Z9mem_allocm
  12              	_Z9mem_allocm:
  13              	.LFB16:
  14              		.file 1 "src/syscall_c.cpp"
   1:src/syscall_c.cpp **** #include "../h/syscall_c.h"
   2:src/syscall_c.cpp **** #include  "../h/riscv.h"
   3:src/syscall_c.cpp **** 
   4:src/syscall_c.cpp **** void *mem_alloc(size_t size) {
  15              		.loc 1 4 30
  16              		.cfi_startproc
  17              	.LVL0:
  18 0000 130101FE 		addi	sp,sp,-32
  19              		.cfi_def_cfa_offset 32
  20 0004 233C8100 		sd	s0,24(sp)
  21              		.cfi_offset 8, -8
  22 0008 13040102 		addi	s0,sp,32
  23              		.cfi_def_cfa 8, 0
   5:src/syscall_c.cpp ****     size_t blocks = (size + MEM_BLOCK_SIZE - 1) / MEM_BLOCK_SIZE;
  24              		.loc 1 5 5
  25              		.loc 1 5 44 is_stmt 0
  26 000c 1305F503 		addi	a0,a0,63
  27              	.LVL1:
  28              		.loc 1 5 12
  29 0010 13556500 		srli	a0,a0,6
  30              	.LVL2:
   6:src/syscall_c.cpp **** 
   7:src/syscall_c.cpp ****      __asm__ volatile ("mv a0, %0" :: "r"(0x01));
  31              		.loc 1 7 6 is_stmt 1
  32 0014 93071000 		li	a5,1
  33              	 #APP
  34              	# 7 "src/syscall_c.cpp" 1
   8              	     __asm__ volatile ("mv a1, %0" :: "r"(blocks));
  35              		mv a0, a5
  36              	# 0 "" 2
  37              		.loc 1 8 6
  38              	# 8 "src/syscall_c.cpp" 1
   9              	
  10:src/syscall_c.cpp ****     __asm__ volatile("ecall");
  39              		mv a1, a0
  40              	# 0 "" 2
  41              		.loc 1 10 5
  42              	# 10 "src/syscall_c.cpp" 1
  11              	
  12:src/syscall_c.cpp ****     volatile long ret;
  43              		ecall
  44              	# 0 "" 2
  45              		.loc 1 12 5
  13:src/syscall_c.cpp ****     __asm__ volatile ("mv %0, a0" : "=r"(ret));
GAS LISTING C:\msys64\tmp\ccyzHjwt.s 			page 2


  46              		.loc 1 13 5
  47              	# 13 "src/syscall_c.cpp" 1
  14              	    return (void*) ret;
  48              		mv a5, a0
  49              	# 0 "" 2
  50              	 #NO_APP
  51 0028 2334F4FE 		sd	a5,-24(s0)
  52              		.loc 1 14 5
  53              		.loc 1 14 20 is_stmt 0
  54 002c 033584FE 		ld	a0,-24(s0)
  55              	.LVL3:
  15:src/syscall_c.cpp **** 
  16:src/syscall_c.cpp **** 
  17:src/syscall_c.cpp **** }
  56              		.loc 1 17 1
  57 0030 03348101 		ld	s0,24(sp)
  58              		.cfi_restore 8
  59              		.cfi_def_cfa 2, 32
  60 0034 13010102 		addi	sp,sp,32
  61              		.cfi_def_cfa_offset 0
  62 0038 67800000 		jr	ra
  63              		.cfi_endproc
  64              	.LFE16:
  66              		.align	2
  67              		.globl	_Z8mem_freePv
  69              	_Z8mem_freePv:
  70              	.LFB17:
  18:src/syscall_c.cpp **** 
  19:src/syscall_c.cpp **** int mem_free (void* ptr) {
  71              		.loc 1 19 26 is_stmt 1
  72              		.cfi_startproc
  73              	.LVL4:
  74 003c 130101FE 		addi	sp,sp,-32
  75              		.cfi_def_cfa_offset 32
  76 0040 233C8100 		sd	s0,24(sp)
  77              		.cfi_offset 8, -8
  78 0044 13040102 		addi	s0,sp,32
  79              		.cfi_def_cfa 8, 0
  20:src/syscall_c.cpp ****      __asm__ volatile ("mv a0, %0" :: "r"(0x02));
  80              		.loc 1 20 6
  81 0048 93072000 		li	a5,2
  82              	 #APP
  83              	# 20 "src/syscall_c.cpp" 1
  21              	     __asm__ volatile ("mv a1, %0" :: "r"(ptr));
  84              		mv a0, a5
  85              	# 0 "" 2
  86              		.loc 1 21 6
  87              	# 21 "src/syscall_c.cpp" 1
  22              	
  23:src/syscall_c.cpp ****     __asm__ volatile("ecall");
  88              		mv a1, a0
  89              	# 0 "" 2
  90              		.loc 1 23 5
  91              	# 23 "src/syscall_c.cpp" 1
  24              	
  25:src/syscall_c.cpp ****     volatile long ret;
  92              		ecall
GAS LISTING C:\msys64\tmp\ccyzHjwt.s 			page 3


  93              	# 0 "" 2
  94              		.loc 1 25 5
  26:src/syscall_c.cpp ****     __asm__ volatile ("mv %0, a0" : "=r"(ret));
  95              		.loc 1 26 5
  96              	# 26 "src/syscall_c.cpp" 1
  27              	    return (int) ret;
  97              		mv a5, a0
  98              	# 0 "" 2
  99              	 #NO_APP
 100 005c 2334F4FE 		sd	a5,-24(s0)
 101              		.loc 1 27 5
 102              		.loc 1 27 18 is_stmt 0
 103 0060 033584FE 		ld	a0,-24(s0)
 104              	.LVL5:
  28:src/syscall_c.cpp **** }
 105              		.loc 1 28 1
 106 0064 1B050500 		sext.w	a0,a0
 107 0068 03348101 		ld	s0,24(sp)
 108              		.cfi_restore 8
 109              		.cfi_def_cfa 2, 32
 110 006c 13010102 		addi	sp,sp,32
 111              		.cfi_def_cfa_offset 0
 112 0070 67800000 		jr	ra
 113              		.cfi_endproc
 114              	.LFE17:
 116              		.align	2
 117              		.globl	_Znwm
 119              	_Znwm:
 120              	.LFB18:
  29:src/syscall_c.cpp **** 
  30:src/syscall_c.cpp **** void* operator new(size_t size) {
 121              		.loc 1 30 33 is_stmt 1
 122              		.cfi_startproc
 123              	.LVL6:
 124 0074 130101FF 		addi	sp,sp,-16
 125              		.cfi_def_cfa_offset 16
 126 0078 23341100 		sd	ra,8(sp)
 127 007c 23308100 		sd	s0,0(sp)
 128              		.cfi_offset 1, -8
 129              		.cfi_offset 8, -16
 130 0080 13040101 		addi	s0,sp,16
 131              		.cfi_def_cfa 8, 0
  31:src/syscall_c.cpp ****     return mem_alloc(size);
 132              		.loc 1 31 5
 133              		.loc 1 31 21 is_stmt 0
 134 0084 97000000 		call	_Z9mem_allocm
 134      E7800000 
 135              	.LVL7:
  32:src/syscall_c.cpp **** }
 136              		.loc 1 32 1
 137 008c 83308100 		ld	ra,8(sp)
 138              		.cfi_restore 1
 139 0090 03340100 		ld	s0,0(sp)
 140              		.cfi_restore 8
 141              		.cfi_def_cfa 2, 16
 142 0094 13010101 		addi	sp,sp,16
 143              		.cfi_def_cfa_offset 0
GAS LISTING C:\msys64\tmp\ccyzHjwt.s 			page 4


 144 0098 67800000 		jr	ra
 145              		.cfi_endproc
 146              	.LFE18:
 148              		.align	2
 149              		.globl	_Znam
 151              	_Znam:
 152              	.LFB19:
  33:src/syscall_c.cpp **** 
  34:src/syscall_c.cpp **** 
  35:src/syscall_c.cpp **** void* operator new[](size_t size) {
 153              		.loc 1 35 35 is_stmt 1
 154              		.cfi_startproc
 155              	.LVL8:
 156 009c 130101FF 		addi	sp,sp,-16
 157              		.cfi_def_cfa_offset 16
 158 00a0 23341100 		sd	ra,8(sp)
 159 00a4 23308100 		sd	s0,0(sp)
 160              		.cfi_offset 1, -8
 161              		.cfi_offset 8, -16
 162 00a8 13040101 		addi	s0,sp,16
 163              		.cfi_def_cfa 8, 0
  36:src/syscall_c.cpp ****     return mem_alloc(size);
 164              		.loc 1 36 5
 165              		.loc 1 36 21 is_stmt 0
 166 00ac 97000000 		call	_Z9mem_allocm
 166      E7800000 
 167              	.LVL9:
  37:src/syscall_c.cpp **** }
 168              		.loc 1 37 1
 169 00b4 83308100 		ld	ra,8(sp)
 170              		.cfi_restore 1
 171 00b8 03340100 		ld	s0,0(sp)
 172              		.cfi_restore 8
 173              		.cfi_def_cfa 2, 16
 174 00bc 13010101 		addi	sp,sp,16
 175              		.cfi_def_cfa_offset 0
 176 00c0 67800000 		jr	ra
 177              		.cfi_endproc
 178              	.LFE19:
 180              		.align	2
 181              		.globl	_ZdlPv
 183              	_ZdlPv:
 184              	.LFB20:
  38:src/syscall_c.cpp **** 
  39:src/syscall_c.cpp **** 
  40:src/syscall_c.cpp **** void operator delete(void* ptr) noexcept {
 185              		.loc 1 40 42 is_stmt 1
 186              		.cfi_startproc
 187              	.LVL10:
 188 00c4 130101FF 		addi	sp,sp,-16
 189              		.cfi_def_cfa_offset 16
 190 00c8 23341100 		sd	ra,8(sp)
 191 00cc 23308100 		sd	s0,0(sp)
 192              		.cfi_offset 1, -8
 193              		.cfi_offset 8, -16
 194 00d0 13040101 		addi	s0,sp,16
 195              		.cfi_def_cfa 8, 0
GAS LISTING C:\msys64\tmp\ccyzHjwt.s 			page 5


  41:src/syscall_c.cpp ****     mem_free(ptr);
 196              		.loc 1 41 5
 197              		.loc 1 41 13 is_stmt 0
 198 00d4 97000000 		call	_Z8mem_freePv
 198      E7800000 
 199              	.LVL11:
  42:src/syscall_c.cpp **** }
 200              		.loc 1 42 1
 201 00dc 83308100 		ld	ra,8(sp)
 202              		.cfi_restore 1
 203 00e0 03340100 		ld	s0,0(sp)
 204              		.cfi_restore 8
 205              		.cfi_def_cfa 2, 16
 206 00e4 13010101 		addi	sp,sp,16
 207              		.cfi_def_cfa_offset 0
 208 00e8 67800000 		jr	ra
 209              		.cfi_endproc
 210              	.LFE20:
 212              		.align	2
 213              		.globl	_ZdaPv
 215              	_ZdaPv:
 216              	.LFB21:
  43:src/syscall_c.cpp **** 
  44:src/syscall_c.cpp **** void operator delete[](void* ptr) noexcept {
 217              		.loc 1 44 44 is_stmt 1
 218              		.cfi_startproc
 219              	.LVL12:
 220 00ec 130101FF 		addi	sp,sp,-16
 221              		.cfi_def_cfa_offset 16
 222 00f0 23341100 		sd	ra,8(sp)
 223 00f4 23308100 		sd	s0,0(sp)
 224              		.cfi_offset 1, -8
 225              		.cfi_offset 8, -16
 226 00f8 13040101 		addi	s0,sp,16
 227              		.cfi_def_cfa 8, 0
  45:src/syscall_c.cpp ****     mem_free(ptr);
 228              		.loc 1 45 5
 229              		.loc 1 45 13 is_stmt 0
 230 00fc 97000000 		call	_Z8mem_freePv
 230      E7800000 
 231              	.LVL13:
  46:src/syscall_c.cpp **** }...
 232              		.loc 1 46 1
 233 0104 83308100 		ld	ra,8(sp)
 234              		.cfi_restore 1
 235 0108 03340100 		ld	s0,0(sp)
 236              		.cfi_restore 8
 237              		.cfi_def_cfa 2, 16
 238 010c 13010101 		addi	sp,sp,16
 239              		.cfi_def_cfa_offset 0
 240 0110 67800000 		jr	ra
 241              		.cfi_endproc
 242              	.LFE21:
 244              	.Letext0:
 245              		.file 2 "src/../h/../lib/hw.h"
GAS LISTING C:\msys64\tmp\ccyzHjwt.s 			page 6


DEFINED SYMBOLS
                            *ABS*:0000000000000000 syscall_c.cpp
C:\msys64\tmp\ccyzHjwt.s:12     .text:0000000000000000 _Z9mem_allocm
C:\msys64\tmp\ccyzHjwt.s:16     .text:0000000000000000 .L0 
C:\msys64\tmp\ccyzHjwt.s:18     .text:0000000000000000 .L0 
C:\msys64\tmp\ccyzHjwt.s:19     .text:0000000000000004 .L0 
C:\msys64\tmp\ccyzHjwt.s:21     .text:0000000000000008 .L0 
C:\msys64\tmp\ccyzHjwt.s:23     .text:000000000000000c .L0 
C:\msys64\tmp\ccyzHjwt.s:25     .text:000000000000000c .L0 
C:\msys64\tmp\ccyzHjwt.s:26     .text:000000000000000c .L0 
C:\msys64\tmp\ccyzHjwt.s:29     .text:0000000000000010 .L0 
C:\msys64\tmp\ccyzHjwt.s:32     .text:0000000000000014 .L0 
   src/syscall_c.cpp:8      .text:000000000000001c .L0 
   src/syscall_c.cpp:10     .text:0000000000000020 .L0 
C:\msys64\tmp\ccyzHjwt.s:46     .text:0000000000000024 .L0 
   src/syscall_c.cpp:13     .text:0000000000000024 .L0 
C:\msys64\tmp\ccyzHjwt.s:53     .text:000000000000002c .L0 
C:\msys64\tmp\ccyzHjwt.s:54     .text:000000000000002c .L0 
C:\msys64\tmp\ccyzHjwt.s:57     .text:0000000000000030 .L0 
C:\msys64\tmp\ccyzHjwt.s:58     .text:0000000000000034 .L0 
C:\msys64\tmp\ccyzHjwt.s:59     .text:0000000000000034 .L0 
C:\msys64\tmp\ccyzHjwt.s:61     .text:0000000000000038 .L0 
C:\msys64\tmp\ccyzHjwt.s:63     .text:000000000000003c .L0 
C:\msys64\tmp\ccyzHjwt.s:69     .text:000000000000003c _Z8mem_freePv
C:\msys64\tmp\ccyzHjwt.s:72     .text:000000000000003c .L0 
C:\msys64\tmp\ccyzHjwt.s:74     .text:000000000000003c .L0 
C:\msys64\tmp\ccyzHjwt.s:75     .text:0000000000000040 .L0 
C:\msys64\tmp\ccyzHjwt.s:77     .text:0000000000000044 .L0 
C:\msys64\tmp\ccyzHjwt.s:79     .text:0000000000000048 .L0 
C:\msys64\tmp\ccyzHjwt.s:81     .text:0000000000000048 .L0 
   src/syscall_c.cpp:21     .text:0000000000000050 .L0 
   src/syscall_c.cpp:23     .text:0000000000000054 .L0 
C:\msys64\tmp\ccyzHjwt.s:95     .text:0000000000000058 .L0 
   src/syscall_c.cpp:26     .text:0000000000000058 .L0 
C:\msys64\tmp\ccyzHjwt.s:102    .text:0000000000000060 .L0 
C:\msys64\tmp\ccyzHjwt.s:103    .text:0000000000000060 .L0 
C:\msys64\tmp\ccyzHjwt.s:106    .text:0000000000000064 .L0 
C:\msys64\tmp\ccyzHjwt.s:108    .text:000000000000006c .L0 
C:\msys64\tmp\ccyzHjwt.s:109    .text:000000000000006c .L0 
C:\msys64\tmp\ccyzHjwt.s:111    .text:0000000000000070 .L0 
C:\msys64\tmp\ccyzHjwt.s:113    .text:0000000000000074 .L0 
C:\msys64\tmp\ccyzHjwt.s:119    .text:0000000000000074 _Znwm
C:\msys64\tmp\ccyzHjwt.s:122    .text:0000000000000074 .L0 
C:\msys64\tmp\ccyzHjwt.s:124    .text:0000000000000074 .L0 
C:\msys64\tmp\ccyzHjwt.s:125    .text:0000000000000078 .L0 
C:\msys64\tmp\ccyzHjwt.s:128    .text:0000000000000080 .L0 
C:\msys64\tmp\ccyzHjwt.s:129    .text:0000000000000080 .L0 
C:\msys64\tmp\ccyzHjwt.s:131    .text:0000000000000084 .L0 
C:\msys64\tmp\ccyzHjwt.s:133    .text:0000000000000084 .L0 
C:\msys64\tmp\ccyzHjwt.s:134    .text:0000000000000084 .L0 
C:\msys64\tmp\ccyzHjwt.s:137    .text:000000000000008c .L0 
C:\msys64\tmp\ccyzHjwt.s:138    .text:0000000000000090 .L0 
C:\msys64\tmp\ccyzHjwt.s:140    .text:0000000000000094 .L0 
C:\msys64\tmp\ccyzHjwt.s:141    .text:0000000000000094 .L0 
C:\msys64\tmp\ccyzHjwt.s:143    .text:0000000000000098 .L0 
C:\msys64\tmp\ccyzHjwt.s:145    .text:000000000000009c .L0 
C:\msys64\tmp\ccyzHjwt.s:151    .text:000000000000009c _Znam
GAS LISTING C:\msys64\tmp\ccyzHjwt.s 			page 7


C:\msys64\tmp\ccyzHjwt.s:154    .text:000000000000009c .L0 
C:\msys64\tmp\ccyzHjwt.s:156    .text:000000000000009c .L0 
C:\msys64\tmp\ccyzHjwt.s:157    .text:00000000000000a0 .L0 
C:\msys64\tmp\ccyzHjwt.s:160    .text:00000000000000a8 .L0 
C:\msys64\tmp\ccyzHjwt.s:161    .text:00000000000000a8 .L0 
C:\msys64\tmp\ccyzHjwt.s:163    .text:00000000000000ac .L0 
C:\msys64\tmp\ccyzHjwt.s:165    .text:00000000000000ac .L0 
C:\msys64\tmp\ccyzHjwt.s:166    .text:00000000000000ac .L0 
C:\msys64\tmp\ccyzHjwt.s:169    .text:00000000000000b4 .L0 
C:\msys64\tmp\ccyzHjwt.s:170    .text:00000000000000b8 .L0 
C:\msys64\tmp\ccyzHjwt.s:172    .text:00000000000000bc .L0 
C:\msys64\tmp\ccyzHjwt.s:173    .text:00000000000000bc .L0 
C:\msys64\tmp\ccyzHjwt.s:175    .text:00000000000000c0 .L0 
C:\msys64\tmp\ccyzHjwt.s:177    .text:00000000000000c4 .L0 
C:\msys64\tmp\ccyzHjwt.s:183    .text:00000000000000c4 _ZdlPv
C:\msys64\tmp\ccyzHjwt.s:186    .text:00000000000000c4 .L0 
C:\msys64\tmp\ccyzHjwt.s:188    .text:00000000000000c4 .L0 
C:\msys64\tmp\ccyzHjwt.s:189    .text:00000000000000c8 .L0 
C:\msys64\tmp\ccyzHjwt.s:192    .text:00000000000000d0 .L0 
C:\msys64\tmp\ccyzHjwt.s:193    .text:00000000000000d0 .L0 
C:\msys64\tmp\ccyzHjwt.s:195    .text:00000000000000d4 .L0 
C:\msys64\tmp\ccyzHjwt.s:197    .text:00000000000000d4 .L0 
C:\msys64\tmp\ccyzHjwt.s:198    .text:00000000000000d4 .L0 
C:\msys64\tmp\ccyzHjwt.s:201    .text:00000000000000dc .L0 
C:\msys64\tmp\ccyzHjwt.s:202    .text:00000000000000e0 .L0 
C:\msys64\tmp\ccyzHjwt.s:204    .text:00000000000000e4 .L0 
C:\msys64\tmp\ccyzHjwt.s:205    .text:00000000000000e4 .L0 
C:\msys64\tmp\ccyzHjwt.s:207    .text:00000000000000e8 .L0 
C:\msys64\tmp\ccyzHjwt.s:209    .text:00000000000000ec .L0 
C:\msys64\tmp\ccyzHjwt.s:215    .text:00000000000000ec _ZdaPv
C:\msys64\tmp\ccyzHjwt.s:218    .text:00000000000000ec .L0 
C:\msys64\tmp\ccyzHjwt.s:220    .text:00000000000000ec .L0 
C:\msys64\tmp\ccyzHjwt.s:221    .text:00000000000000f0 .L0 
C:\msys64\tmp\ccyzHjwt.s:224    .text:00000000000000f8 .L0 
C:\msys64\tmp\ccyzHjwt.s:225    .text:00000000000000f8 .L0 
C:\msys64\tmp\ccyzHjwt.s:227    .text:00000000000000fc .L0 
C:\msys64\tmp\ccyzHjwt.s:229    .text:00000000000000fc .L0 
C:\msys64\tmp\ccyzHjwt.s:230    .text:00000000000000fc .L0 
C:\msys64\tmp\ccyzHjwt.s:233    .text:0000000000000104 .L0 
C:\msys64\tmp\ccyzHjwt.s:234    .text:0000000000000108 .L0 
C:\msys64\tmp\ccyzHjwt.s:236    .text:000000000000010c .L0 
C:\msys64\tmp\ccyzHjwt.s:237    .text:000000000000010c .L0 
C:\msys64\tmp\ccyzHjwt.s:239    .text:0000000000000110 .L0 
C:\msys64\tmp\ccyzHjwt.s:241    .text:0000000000000114 .L0 
C:\msys64\tmp\ccyzHjwt.s:246    .text:0000000000000114 .L0 
C:\msys64\tmp\ccyzHjwt.s:534    .debug_abbrev:0000000000000000 .Ldebug_abbrev0
C:\msys64\tmp\ccyzHjwt.s:971    .debug_str:00000000000000ee .LASF27
C:\msys64\tmp\ccyzHjwt.s:997    .debug_str:000000000000024c .LASF28
C:\msys64\tmp\ccyzHjwt.s:967    .debug_str:00000000000000b2 .LASF29
C:\msys64\tmp\ccyzHjwt.s:8      .text:0000000000000000 .Ltext0
C:\msys64\tmp\ccyzHjwt.s:244    .text:0000000000000114 .Letext0
C:\msys64\tmp\ccyzHjwt.s:939    .debug_line:0000000000000000 .Ldebug_line0
C:\msys64\tmp\ccyzHjwt.s:969    .debug_str:00000000000000e1 .LASF0
C:\msys64\tmp\ccyzHjwt.s:961    .debug_str:0000000000000085 .LASF1
C:\msys64\tmp\ccyzHjwt.s:955    .debug_str:000000000000005f .LASF2
C:\msys64\tmp\ccyzHjwt.s:951    .debug_str:0000000000000045 .LASF4
C:\msys64\tmp\ccyzHjwt.s:959    .debug_str:0000000000000073 .LASF3
GAS LISTING C:\msys64\tmp\ccyzHjwt.s 			page 8


C:\msys64\tmp\ccyzHjwt.s:945    .debug_str:0000000000000021 .LASF5
C:\msys64\tmp\ccyzHjwt.s:943    .debug_str:000000000000000e .LASF6
C:\msys64\tmp\ccyzHjwt.s:953    .debug_str:000000000000004c .LASF7
C:\msys64\tmp\ccyzHjwt.s:999    .debug_str:000000000000025e .LASF8
C:\msys64\tmp\ccyzHjwt.s:963    .debug_str:0000000000000098 .LASF9
C:\msys64\tmp\ccyzHjwt.s:949    .debug_str:000000000000002f .LASF10
C:\msys64\tmp\ccyzHjwt.s:977    .debug_str:00000000000001d8 .LASF11
C:\msys64\tmp\ccyzHjwt.s:981    .debug_str:00000000000001f7 .LASF12
C:\msys64\tmp\ccyzHjwt.s:947    .debug_str:0000000000000028 .LASF14
C:\msys64\tmp\ccyzHjwt.s:216    .text:00000000000000ec .LFB21
C:\msys64\tmp\ccyzHjwt.s:242    .text:0000000000000114 .LFE21
C:\msys64\tmp\ccyzHjwt.s:818    .debug_loc:0000000000000000 .LLST6
C:\msys64\tmp\ccyzHjwt.s:231    .text:0000000000000104 .LVL13
C:\msys64\tmp\ccyzHjwt.s:973    .debug_str:00000000000001c1 .LASF13
C:\msys64\tmp\ccyzHjwt.s:985    .debug_str:0000000000000213 .LASF15
C:\msys64\tmp\ccyzHjwt.s:184    .text:00000000000000c4 .LFB20
C:\msys64\tmp\ccyzHjwt.s:210    .text:00000000000000ec .LFE20
C:\msys64\tmp\ccyzHjwt.s:832    .debug_loc:0000000000000039 .LLST5
C:\msys64\tmp\ccyzHjwt.s:199    .text:00000000000000dc .LVL11
C:\msys64\tmp\ccyzHjwt.s:991    .debug_str:0000000000000231 .LASF17
C:\msys64\tmp\ccyzHjwt.s:957    .debug_str:000000000000006d .LASF19
C:\msys64\tmp\ccyzHjwt.s:152    .text:000000000000009c .LFB19
C:\msys64\tmp\ccyzHjwt.s:178    .text:00000000000000c4 .LFE19
C:\msys64\tmp\ccyzHjwt.s:993    .debug_str:0000000000000241 .LASF16
C:\msys64\tmp\ccyzHjwt.s:846    .debug_loc:0000000000000072 .LLST4
C:\msys64\tmp\ccyzHjwt.s:167    .text:00000000000000b4 .LVL9
C:\msys64\tmp\ccyzHjwt.s:987    .debug_str:000000000000021a .LASF18
C:\msys64\tmp\ccyzHjwt.s:995    .debug_str:0000000000000246 .LASF20
C:\msys64\tmp\ccyzHjwt.s:120    .text:0000000000000074 .LFB18
C:\msys64\tmp\ccyzHjwt.s:146    .text:000000000000009c .LFE18
C:\msys64\tmp\ccyzHjwt.s:860    .debug_loc:00000000000000ab .LLST3
C:\msys64\tmp\ccyzHjwt.s:135    .text:000000000000008c .LVL7
C:\msys64\tmp\ccyzHjwt.s:979    .debug_str:00000000000001ee .LASF21
C:\msys64\tmp\ccyzHjwt.s:941    .debug_str:0000000000000000 .LASF22
C:\msys64\tmp\ccyzHjwt.s:70     .text:000000000000003c .LFB17
C:\msys64\tmp\ccyzHjwt.s:114    .text:0000000000000074 .LFE17
C:\msys64\tmp\ccyzHjwt.s:874    .debug_loc:00000000000000e4 .LLST2
C:\msys64\tmp\ccyzHjwt.s:983    .debug_str:000000000000020a .LASF23
C:\msys64\tmp\ccyzHjwt.s:989    .debug_str:0000000000000227 .LASF24
C:\msys64\tmp\ccyzHjwt.s:965    .debug_str:00000000000000a4 .LASF25
C:\msys64\tmp\ccyzHjwt.s:13     .text:0000000000000000 .LFB16
C:\msys64\tmp\ccyzHjwt.s:64     .text:000000000000003c .LFE16
C:\msys64\tmp\ccyzHjwt.s:888    .debug_loc:000000000000011d .LLST0
C:\msys64\tmp\ccyzHjwt.s:975    .debug_str:00000000000001d1 .LASF26
C:\msys64\tmp\ccyzHjwt.s:908    .debug_loc:000000000000016b .LLST1
C:\msys64\tmp\ccyzHjwt.s:219    .text:00000000000000ec .LVL12
C:\msys64\tmp\ccyzHjwt.s:187    .text:00000000000000c4 .LVL10
C:\msys64\tmp\ccyzHjwt.s:155    .text:000000000000009c .LVL8
C:\msys64\tmp\ccyzHjwt.s:123    .text:0000000000000074 .LVL6
C:\msys64\tmp\ccyzHjwt.s:73     .text:000000000000003c .LVL4
C:\msys64\tmp\ccyzHjwt.s:104    .text:0000000000000064 .LVL5
C:\msys64\tmp\ccyzHjwt.s:17     .text:0000000000000000 .LVL0
C:\msys64\tmp\ccyzHjwt.s:27     .text:0000000000000010 .LVL1
C:\msys64\tmp\ccyzHjwt.s:30     .text:0000000000000014 .LVL2
C:\msys64\tmp\ccyzHjwt.s:55     .text:0000000000000030 .LVL3
C:\msys64\tmp\ccyzHjwt.s:247    .debug_info:0000000000000000 .Ldebug_info0

GAS LISTING C:\msys64\tmp\ccyzHjwt.s 			page 9


NO UNDEFINED SYMBOLS
