GAS LISTING C:\msys64\tmp\cczwVG08.s 			page 1


   1              		.file	"syscall_c.cpp"
   2              		.option nopic
   3              		.option norelax
   4              		.attribute arch, "rv64i2p0_m2p0_a2p0"
   5              		.attribute unaligned_access, 0
   6              		.attribute stack_align, 16
   7              		.text
   8              	.Ltext0:
   9              		.align	2
  10              		.globl	_Z9mem_allocm
  12              	_Z9mem_allocm:
  13              	.LFB23:
  14              		.file 1 "src/syscall_c.cpp"
   1:src/syscall_c.cpp **** #include "../h/syscall_c.h"
   2:src/syscall_c.cpp **** #include  "../h/riscv.h"
   3:src/syscall_c.cpp **** #include "../h/Console.h"
   4:src/syscall_c.cpp **** 
   5:src/syscall_c.cpp **** void *mem_alloc(size_t size) {
  15              		.loc 1 5 30
  16              		.cfi_startproc
  17              	.LVL0:
  18 0000 130101FE 		addi	sp,sp,-32
  19              		.cfi_def_cfa_offset 32
  20 0004 233C8100 		sd	s0,24(sp)
  21              		.cfi_offset 8, -8
  22 0008 13040102 		addi	s0,sp,32
  23              		.cfi_def_cfa 8, 0
   6:src/syscall_c.cpp ****     size_t blocks = (size + MEM_BLOCK_SIZE - 1) / MEM_BLOCK_SIZE;
  24              		.loc 1 6 5
  25              		.loc 1 6 44 is_stmt 0
  26 000c 1305F503 		addi	a0,a0,63
  27              	.LVL1:
  28              		.loc 1 6 12
  29 0010 13556500 		srli	a0,a0,6
  30              	.LVL2:
   7:src/syscall_c.cpp **** 
   8:src/syscall_c.cpp ****     Riscv::writeARegister(1, blocks);
  31              		.loc 1 8 5 is_stmt 1
  32              	.LBB92:
  33              	.LBB93:
  34              		.file 2 "src/../h/riscv.h"
   1:src/../h/riscv.h **** //
   2:src/../h/riscv.h **** // Created by os on 3/31/26.
   3:src/../h/riscv.h **** //
   4:src/../h/riscv.h **** 
   5:src/../h/riscv.h **** #ifndef PROJECT_BASE_RISCB_H
   6:src/../h/riscv.h **** #define PROJECT_BASE_RISCB_H
   7:src/../h/riscv.h **** #include "../lib/hw.h"
   8:src/../h/riscv.h **** 
   9:src/../h/riscv.h **** class Riscv
  10:src/../h/riscv.h **** {
  11:src/../h/riscv.h **** public:
  12:src/../h/riscv.h ****     static void popSppSpie();
  13:src/../h/riscv.h **** 
  14:src/../h/riscv.h ****     static uint64 r_scause();
  15:src/../h/riscv.h **** 
  16:src/../h/riscv.h ****     static void w_scause(uint64 scause);
GAS LISTING C:\msys64\tmp\cczwVG08.s 			page 2


  17:src/../h/riscv.h **** 
  18:src/../h/riscv.h ****     static uint64 r_sepc();
  19:src/../h/riscv.h **** 
  20:src/../h/riscv.h ****     static void w_sepc(uint64 sepc);
  21:src/../h/riscv.h **** 
  22:src/../h/riscv.h ****     static uint64 r_stvec();
  23:src/../h/riscv.h **** 
  24:src/../h/riscv.h ****     static void w_stvec(uint64 stvec);
  25:src/../h/riscv.h **** 
  26:src/../h/riscv.h ****     static uint64 r_stval();
  27:src/../h/riscv.h **** 
  28:src/../h/riscv.h ****     static void w_stval(uint64 stval);
  29:src/../h/riscv.h **** 
  30:src/../h/riscv.h ****     enum BitMaskSip
  31:src/../h/riscv.h ****     {
  32:src/../h/riscv.h ****         SIP_SSIP = (1 << 1),
  33:src/../h/riscv.h ****         SIP_STIP = (1 << 5),
  34:src/../h/riscv.h ****         SIP_SEIP = (1 << 9),
  35:src/../h/riscv.h ****     };
  36:src/../h/riscv.h **** 
  37:src/../h/riscv.h ****     static void ms_sip(uint64 mask);
  38:src/../h/riscv.h **** 
  39:src/../h/riscv.h ****     static void mc_sip(uint64 mask);
  40:src/../h/riscv.h **** 
  41:src/../h/riscv.h ****     static uint64 r_sip();
  42:src/../h/riscv.h **** 
  43:src/../h/riscv.h ****     static void w_sip(uint64 sip);
  44:src/../h/riscv.h **** 
  45:src/../h/riscv.h ****     enum BitMaskSstatus
  46:src/../h/riscv.h ****     {
  47:src/../h/riscv.h ****         SSTATUS_SIE = (1 << 1),
  48:src/../h/riscv.h ****         SSTATUS_SPIE = (1 << 5),
  49:src/../h/riscv.h ****         SSTATUS_SPP = (1 << 8),
  50:src/../h/riscv.h ****     };
  51:src/../h/riscv.h **** 
  52:src/../h/riscv.h ****     static void ms_sstatus(uint64 mask);
  53:src/../h/riscv.h **** 
  54:src/../h/riscv.h ****     static void mc_sstatus(uint64 mask);
  55:src/../h/riscv.h **** 
  56:src/../h/riscv.h ****     static uint64 r_sstatus();
  57:src/../h/riscv.h **** 
  58:src/../h/riscv.h ****     static void w_sstatus(uint64 sstatus);
  59:src/../h/riscv.h **** 
  60:src/../h/riscv.h ****     static uint64 readARegister(int reg_number);
  61:src/../h/riscv.h **** 
  62:src/../h/riscv.h ****     static void writeARegister(int reg_number, uint64 value);
  63:src/../h/riscv.h **** 
  64:src/../h/riscv.h ****     static void supervisorTrap();
  65:src/../h/riscv.h **** 
  66:src/../h/riscv.h **** private:
  67:src/../h/riscv.h ****     static void handleSupervisorTrap(uint64 a0, uint64 a1, uint64 a2, uint64 a3, uint64 a4, uint64 
  68:src/../h/riscv.h **** };
  69:src/../h/riscv.h **** 
  70:src/../h/riscv.h **** inline uint64 Riscv::r_scause()
  71:src/../h/riscv.h **** {
  72:src/../h/riscv.h ****     uint64 volatile scause;
  73:src/../h/riscv.h ****     __asm__ volatile("csrr %[scause], scause" : [scause] "=r"(scause));
GAS LISTING C:\msys64\tmp\cczwVG08.s 			page 3


  74:src/../h/riscv.h ****     return scause;
  75:src/../h/riscv.h **** }
  76:src/../h/riscv.h **** 
  77:src/../h/riscv.h **** inline void Riscv::w_scause(uint64 scause)
  78:src/../h/riscv.h **** {
  79:src/../h/riscv.h ****     __asm__ volatile("csrw scause, %[scause]" : : [scause] "r"(scause));
  80:src/../h/riscv.h **** }
  81:src/../h/riscv.h **** 
  82:src/../h/riscv.h **** inline uint64 Riscv::r_sepc()
  83:src/../h/riscv.h **** {
  84:src/../h/riscv.h ****     uint64 volatile sepc;
  85:src/../h/riscv.h ****     __asm__ volatile("csrr %[sepc], sepc" : [sepc] "=r"(sepc));
  86:src/../h/riscv.h ****     return sepc;
  87:src/../h/riscv.h **** }
  88:src/../h/riscv.h **** 
  89:src/../h/riscv.h **** inline void Riscv::w_sepc(uint64 sepc)
  90:src/../h/riscv.h **** {
  91:src/../h/riscv.h ****     __asm__ volatile("csrw sepc, %[sepc]" : : [sepc] "r"(sepc));
  92:src/../h/riscv.h **** }
  93:src/../h/riscv.h **** 
  94:src/../h/riscv.h **** inline uint64 Riscv::r_stvec()
  95:src/../h/riscv.h **** {
  96:src/../h/riscv.h ****     uint64 volatile stvec;
  97:src/../h/riscv.h ****     __asm__ volatile("csrr %[stvec], stvec" : [stvec] "=r"(stvec));
  98:src/../h/riscv.h ****     return stvec;
  99:src/../h/riscv.h **** }
 100:src/../h/riscv.h **** 
 101:src/../h/riscv.h **** inline void Riscv::w_stvec(uint64 stvec)
 102:src/../h/riscv.h **** {
 103:src/../h/riscv.h ****     __asm__ volatile("csrw stvec, %[stvec]" : : [stvec] "r"(stvec));
 104:src/../h/riscv.h **** }
 105:src/../h/riscv.h **** 
 106:src/../h/riscv.h **** inline uint64 Riscv::r_stval()
 107:src/../h/riscv.h **** {
 108:src/../h/riscv.h ****     uint64 volatile stval;
 109:src/../h/riscv.h ****     __asm__ volatile("csrr %[stval], stval" : [stval] "=r"(stval));
 110:src/../h/riscv.h ****     return stval;
 111:src/../h/riscv.h **** }
 112:src/../h/riscv.h **** 
 113:src/../h/riscv.h **** inline void Riscv::w_stval(uint64 stval)
 114:src/../h/riscv.h **** {
 115:src/../h/riscv.h ****     __asm__ volatile("csrw stval, %[stval]" : : [stval] "r"(stval));
 116:src/../h/riscv.h **** }
 117:src/../h/riscv.h **** 
 118:src/../h/riscv.h **** inline void Riscv::ms_sip(uint64 mask)
 119:src/../h/riscv.h **** {
 120:src/../h/riscv.h ****     __asm__ volatile("csrs sip, %[mask]" : : [mask] "r"(mask));
 121:src/../h/riscv.h **** }
 122:src/../h/riscv.h **** 
 123:src/../h/riscv.h **** inline void Riscv::mc_sip(uint64 mask)
 124:src/../h/riscv.h **** {
 125:src/../h/riscv.h ****     __asm__ volatile("csrc sip, %[mask]" : : [mask] "r"(mask));
 126:src/../h/riscv.h **** }
 127:src/../h/riscv.h **** 
 128:src/../h/riscv.h **** inline uint64 Riscv::r_sip()
 129:src/../h/riscv.h **** {
 130:src/../h/riscv.h ****     uint64 volatile sip;
GAS LISTING C:\msys64\tmp\cczwVG08.s 			page 4


 131:src/../h/riscv.h ****     __asm__ volatile("csrr %[sip], sip" : [sip] "=r"(sip));
 132:src/../h/riscv.h ****     return sip;
 133:src/../h/riscv.h **** }
 134:src/../h/riscv.h **** 
 135:src/../h/riscv.h **** inline void Riscv::w_sip(uint64 sip)
 136:src/../h/riscv.h **** {
 137:src/../h/riscv.h ****     __asm__ volatile("csrw sip, %[sip]" : : [sip] "r"(sip));
 138:src/../h/riscv.h **** }
 139:src/../h/riscv.h **** 
 140:src/../h/riscv.h **** inline void Riscv::ms_sstatus(uint64 mask)
 141:src/../h/riscv.h **** {
 142:src/../h/riscv.h ****     __asm__ volatile("csrs sstatus, %[mask]" : : [mask] "r"(mask));
 143:src/../h/riscv.h **** }
 144:src/../h/riscv.h **** 
 145:src/../h/riscv.h **** inline void Riscv::mc_sstatus(uint64 mask)
 146:src/../h/riscv.h **** {
 147:src/../h/riscv.h ****     __asm__ volatile("csrc sstatus, %[mask]" : : [mask] "r"(mask));
 148:src/../h/riscv.h **** }
 149:src/../h/riscv.h **** 
 150:src/../h/riscv.h **** inline uint64 Riscv::r_sstatus()
 151:src/../h/riscv.h **** {
 152:src/../h/riscv.h ****     uint64 volatile sstatus;
 153:src/../h/riscv.h ****     __asm__ volatile("csrr %[sstatus], sstatus" : [sstatus] "=r"(sstatus));
 154:src/../h/riscv.h ****     return sstatus;
 155:src/../h/riscv.h **** }
 156:src/../h/riscv.h **** 
 157:src/../h/riscv.h **** inline void Riscv::w_sstatus(uint64 sstatus)
 158:src/../h/riscv.h **** {
 159:src/../h/riscv.h ****     __asm__ volatile("csrw sstatus, %[sstatus]" : : [sstatus] "r"(sstatus));
 160:src/../h/riscv.h **** }
 161:src/../h/riscv.h **** 
 162:src/../h/riscv.h **** inline uint64 Riscv::readARegister(int reg_number)
 163:src/../h/riscv.h **** {
 164:src/../h/riscv.h ****     uint64 value;
 165:src/../h/riscv.h ****     __asm__ volatile("mv %[val], a%[reg]" : [val] "=r"(value) : [reg] "i"(reg_number));
 166:src/../h/riscv.h ****     return value;
 167:src/../h/riscv.h **** }
 168:src/../h/riscv.h **** 
 169:src/../h/riscv.h **** inline void Riscv::writeARegister(int reg_number, uint64 value)
 170:src/../h/riscv.h **** {
 171:src/../h/riscv.h ****     __asm__ volatile("mv a%[reg], %[val]" ::[reg] "i"(reg_number), [val] "r"(value));
  35              		.loc 2 171 5
  36              	 #APP
  37              	# 171 "src/../h/riscv.h" 1
 172              	}
  38              		mv a1, a0
  39              	# 0 "" 2
  40              	.LVL3:
  41              	 #NO_APP
  42              	.LBE93:
  43              	.LBE92:
   9:src/syscall_c.cpp ****     Riscv::writeARegister(0, 0x01);
  44              		.loc 1 9 5
  45              	.LBB94:
  46              	.LBB95:
 171:src/../h/riscv.h **** }
  47              		.loc 2 171 5
GAS LISTING C:\msys64\tmp\cczwVG08.s 			page 5


  48 0018 93071000 		li	a5,1
  49              	 #APP
  50              	# 171 "src/../h/riscv.h" 1
  51              		mv a0, a5
  52              	# 0 "" 2
  53              	.LVL4:
  54              	 #NO_APP
  55              	.LBE95:
  56              	.LBE94:
  10:src/syscall_c.cpp **** 
  11:src/syscall_c.cpp ****     __asm__ volatile("ecall");
  57              		.loc 1 11 5
  58              	 #APP
  59              	# 11 "src/syscall_c.cpp" 1
  12              	
  13:src/syscall_c.cpp ****     volatile long a0 = Riscv::readARegister(0);
  60              		ecall
  61              	# 0 "" 2
  62              		.loc 1 13 5
  63              	.LVL5:
  64              	 #NO_APP
  65              	.LBB96:
  66              	.LBB97:
 164:src/../h/riscv.h ****     __asm__ volatile("mv %[val], a%[reg]" : [val] "=r"(value) : [reg] "i"(reg_number));
  67              		.loc 2 164 5
 165:src/../h/riscv.h ****     return value;
  68              		.loc 2 165 5
  69              	 #APP
  70              	# 165 "src/../h/riscv.h" 1
  71              		mv a5, a0
  72              	# 0 "" 2
  73              	.LVL6:
 166:src/../h/riscv.h **** }
  74              		.loc 2 166 5
  75              	 #NO_APP
  76              	.LBE97:
  77              	.LBE96:
  78              		.loc 1 13 46 is_stmt 0
  79 0028 2334F4FE 		sd	a5,-24(s0)
  14:src/syscall_c.cpp ****     return (void*) a0;
  80              		.loc 1 14 5 is_stmt 1
  81              		.loc 1 14 20 is_stmt 0
  82 002c 033584FE 		ld	a0,-24(s0)
  83              	.LVL7:
  15:src/syscall_c.cpp **** 
  16:src/syscall_c.cpp **** 
  17:src/syscall_c.cpp **** }
  84              		.loc 1 17 1
  85 0030 03348101 		ld	s0,24(sp)
  86              		.cfi_restore 8
  87              		.cfi_def_cfa 2, 32
  88 0034 13010102 		addi	sp,sp,32
  89              		.cfi_def_cfa_offset 0
  90 0038 67800000 		jr	ra
  91              		.cfi_endproc
  92              	.LFE23:
  94              		.align	2
GAS LISTING C:\msys64\tmp\cczwVG08.s 			page 6


  95              		.globl	_Z8mem_freePv
  97              	_Z8mem_freePv:
  98              	.LFB24:
  18:src/syscall_c.cpp **** 
  19:src/syscall_c.cpp **** int mem_free (void* ptr) {
  99              		.loc 1 19 26 is_stmt 1
 100              		.cfi_startproc
 101              	.LVL8:
 102 003c 130101FE 		addi	sp,sp,-32
 103              		.cfi_def_cfa_offset 32
 104 0040 233C8100 		sd	s0,24(sp)
 105              		.cfi_offset 8, -8
 106 0044 13040102 		addi	s0,sp,32
 107              		.cfi_def_cfa 8, 0
  20:src/syscall_c.cpp ****     Riscv::writeARegister(1, (uint64)ptr);
 108              		.loc 1 20 5
 109              	.LVL9:
 110              	.LBB98:
 111              	.LBB99:
 171:src/../h/riscv.h **** }
 112              		.loc 2 171 5
 113              	 #APP
 114              	# 171 "src/../h/riscv.h" 1
 115              		mv a1, a0
 116              	# 0 "" 2
 117              	.LVL10:
 118              	 #NO_APP
 119              	.LBE99:
 120              	.LBE98:
  21:src/syscall_c.cpp ****     Riscv::writeARegister(0, 0x02);
 121              		.loc 1 21 5
 122              	.LBB100:
 123              	.LBB101:
 171:src/../h/riscv.h **** }
 124              		.loc 2 171 5
 125 004c 93072000 		li	a5,2
 126              	 #APP
 127              	# 171 "src/../h/riscv.h" 1
 128              		mv a0, a5
 129              	# 0 "" 2
 130              	.LVL11:
 131              	 #NO_APP
 132              	.LBE101:
 133              	.LBE100:
  22:src/syscall_c.cpp **** 
  23:src/syscall_c.cpp ****     __asm__ volatile("ecall");
 134              		.loc 1 23 5
 135              	 #APP
 136              	# 23 "src/syscall_c.cpp" 1
  24              	
  25:src/syscall_c.cpp ****     volatile long a0 = Riscv::readARegister(0);
 137              		ecall
 138              	# 0 "" 2
 139              		.loc 1 25 5
 140              	.LVL12:
 141              	 #NO_APP
 142              	.LBB102:
GAS LISTING C:\msys64\tmp\cczwVG08.s 			page 7


 143              	.LBB103:
 164:src/../h/riscv.h ****     __asm__ volatile("mv %[val], a%[reg]" : [val] "=r"(value) : [reg] "i"(reg_number));
 144              		.loc 2 164 5
 165:src/../h/riscv.h ****     return value;
 145              		.loc 2 165 5
 146              	 #APP
 147              	# 165 "src/../h/riscv.h" 1
 148              		mv a5, a0
 149              	# 0 "" 2
 150              	.LVL13:
 166:src/../h/riscv.h **** }
 151              		.loc 2 166 5
 152              	 #NO_APP
 153              	.LBE103:
 154              	.LBE102:
 155              		.loc 1 25 46 is_stmt 0
 156 005c 2334F4FE 		sd	a5,-24(s0)
  26:src/syscall_c.cpp ****     return (int) a0;
 157              		.loc 1 26 5 is_stmt 1
 158              		.loc 1 26 18 is_stmt 0
 159 0060 033584FE 		ld	a0,-24(s0)
 160              	.LVL14:
  27:src/syscall_c.cpp **** }
 161              		.loc 1 27 1
 162 0064 1B050500 		sext.w	a0,a0
 163 0068 03348101 		ld	s0,24(sp)
 164              		.cfi_restore 8
 165              		.cfi_def_cfa 2, 32
 166 006c 13010102 		addi	sp,sp,32
 167              		.cfi_def_cfa_offset 0
 168 0070 67800000 		jr	ra
 169              		.cfi_endproc
 170              	.LFE24:
 172              		.align	2
 173              		.globl	_Z13thread_createPP7_threadPFvPvES2_
 175              	_Z13thread_createPP7_threadPFvPvES2_:
 176              	.LFB25:
  28:src/syscall_c.cpp **** 
  29:src/syscall_c.cpp **** int thread_create(thread_t* handle, void(*start_routine)(void *), void *arg) {
 177              		.loc 1 29 78 is_stmt 1
 178              		.cfi_startproc
 179              	.LVL15:
 180 0074 130101FC 		addi	sp,sp,-64
 181              		.cfi_def_cfa_offset 64
 182 0078 233C1102 		sd	ra,56(sp)
 183 007c 23388102 		sd	s0,48(sp)
 184 0080 23349102 		sd	s1,40(sp)
 185 0084 23302103 		sd	s2,32(sp)
 186 0088 233C3101 		sd	s3,24(sp)
 187              		.cfi_offset 1, -8
 188              		.cfi_offset 8, -16
 189              		.cfi_offset 9, -24
 190              		.cfi_offset 18, -32
 191              		.cfi_offset 19, -40
 192 008c 13040104 		addi	s0,sp,64
 193              		.cfi_def_cfa 8, 0
 194 0090 13090500 		mv	s2,a0
GAS LISTING C:\msys64\tmp\cczwVG08.s 			page 8


 195 0094 93840500 		mv	s1,a1
 196 0098 93090600 		mv	s3,a2
  30:src/syscall_c.cpp ****     void* volatile stack = nullptr;
 197              		.loc 1 30 5
 198              		.loc 1 30 20 is_stmt 0
 199 009c 233404FC 		sd	zero,-56(s0)
  31:src/syscall_c.cpp ****     if (start_routine) {
 200              		.loc 1 31 5 is_stmt 1
 201 00a0 638A0500 		beq	a1,zero,.L6
  32:src/syscall_c.cpp ****         stack = mem_alloc(DEFAULT_STACK_SIZE);
 202              		.loc 1 32 9
 203              		.loc 1 32 26 is_stmt 0
 204 00a4 37150000 		li	a0,4096
 205              	.LVL16:
 206 00a8 97000000 		call	_Z9mem_allocm
 206      E7800000 
 207              	.LVL17:
 208              		.loc 1 32 15
 209 00b0 2334A4FC 		sd	a0,-56(s0)
 210              	.L6:
  33:src/syscall_c.cpp ****     }
  34:src/syscall_c.cpp **** 
  35:src/syscall_c.cpp **** 
  36:src/syscall_c.cpp ****     Riscv::writeARegister(4, (uint64)stack);
 211              		.loc 1 36 5 is_stmt 1
 212              		.loc 1 36 26 is_stmt 0
 213 00b4 833784FC 		ld	a5,-56(s0)
 214              	.LVL18:
 215              	.LBB104:
 216              	.LBB105:
 171:src/../h/riscv.h **** }
 217              		.loc 2 171 5 is_stmt 1
 218              	 #APP
 219              	# 171 "src/../h/riscv.h" 1
 220              		mv a4, a5
 221              	# 0 "" 2
 222              	.LVL19:
 223              	 #NO_APP
 224              	.LBE105:
 225              	.LBE104:
  37:src/syscall_c.cpp ****     Riscv::writeARegister(3, (uint64)arg);
 226              		.loc 1 37 5
 227              	.LBB106:
 228              	.LBB107:
 171:src/../h/riscv.h **** }
 229              		.loc 2 171 5
 230              	 #APP
 231              	# 171 "src/../h/riscv.h" 1
 232              		mv a3, s3
 233              	# 0 "" 2
 234              	.LVL20:
 235              	 #NO_APP
 236              	.LBE107:
 237              	.LBE106:
  38:src/syscall_c.cpp ****     Riscv::writeARegister(2, (uint64)start_routine);
 238              		.loc 1 38 5
 239              	.LBB108:
GAS LISTING C:\msys64\tmp\cczwVG08.s 			page 9


 240              	.LBB109:
 171:src/../h/riscv.h **** }
 241              		.loc 2 171 5
 242              	 #APP
 243              	# 171 "src/../h/riscv.h" 1
 244              		mv a2, s1
 245              	# 0 "" 2
 246              	.LVL21:
 247              	 #NO_APP
 248              	.LBE109:
 249              	.LBE108:
  39:src/syscall_c.cpp ****     Riscv::writeARegister(1, (uint64)handle);
 250              		.loc 1 39 5
 251              	.LBB110:
 252              	.LBB111:
 171:src/../h/riscv.h **** }
 253              		.loc 2 171 5
 254              	 #APP
 255              	# 171 "src/../h/riscv.h" 1
 256              		mv a1, s2
 257              	# 0 "" 2
 258              	.LVL22:
 259              	 #NO_APP
 260              	.LBE111:
 261              	.LBE110:
  40:src/syscall_c.cpp **** 
  41:src/syscall_c.cpp ****     Riscv::writeARegister(0, 0x11);
 262              		.loc 1 41 5
 263              	.LBB112:
 264              	.LBB113:
 171:src/../h/riscv.h **** }
 265              		.loc 2 171 5
 266 00c8 93071001 		li	a5,17
 267              	 #APP
 268              	# 171 "src/../h/riscv.h" 1
 269              		mv a0, a5
 270              	# 0 "" 2
 271              	.LVL23:
 272              	 #NO_APP
 273              	.LBE113:
 274              	.LBE112:
  42:src/syscall_c.cpp **** 
  43:src/syscall_c.cpp ****     __asm__ volatile("ecall");
 275              		.loc 1 43 5
 276              	 #APP
 277              	# 43 "src/syscall_c.cpp" 1
  44              	
  45:src/syscall_c.cpp ****     volatile long a0 = Riscv::readARegister(0);
 278              		ecall
 279              	# 0 "" 2
 280              		.loc 1 45 5
 281              	.LVL24:
 282              	 #NO_APP
 283              	.LBB114:
 284              	.LBB115:
 164:src/../h/riscv.h ****     __asm__ volatile("mv %[val], a%[reg]" : [val] "=r"(value) : [reg] "i"(reg_number));
 285              		.loc 2 164 5
GAS LISTING C:\msys64\tmp\cczwVG08.s 			page 10


 165:src/../h/riscv.h ****     return value;
 286              		.loc 2 165 5
 287              	 #APP
 288              	# 165 "src/../h/riscv.h" 1
 289              		mv a5, a0
 290              	# 0 "" 2
 291              	.LVL25:
 166:src/../h/riscv.h **** }
 292              		.loc 2 166 5
 293              	 #NO_APP
 294              	.LBE115:
 295              	.LBE114:
 296              		.loc 1 45 46 is_stmt 0
 297 00d8 2330F4FC 		sd	a5,-64(s0)
  46:src/syscall_c.cpp ****     return (int) a0;
 298              		.loc 1 46 5 is_stmt 1
 299              		.loc 1 46 18 is_stmt 0
 300 00dc 033504FC 		ld	a0,-64(s0)
  47:src/syscall_c.cpp **** }
 301              		.loc 1 47 1
 302 00e0 1B050500 		sext.w	a0,a0
 303 00e4 83308103 		ld	ra,56(sp)
 304              		.cfi_restore 1
 305 00e8 03340103 		ld	s0,48(sp)
 306              		.cfi_restore 8
 307              		.cfi_def_cfa 2, 64
 308 00ec 83348102 		ld	s1,40(sp)
 309              		.cfi_restore 9
 310              	.LVL26:
 311 00f0 03390102 		ld	s2,32(sp)
 312              		.cfi_restore 18
 313              	.LVL27:
 314 00f4 83398101 		ld	s3,24(sp)
 315              		.cfi_restore 19
 316              	.LVL28:
 317 00f8 13010104 		addi	sp,sp,64
 318              		.cfi_def_cfa_offset 0
 319 00fc 67800000 		jr	ra
 320              		.cfi_endproc
 321              	.LFE25:
 323              		.align	2
 324              		.globl	_Z15thread_dispatchv
 326              	_Z15thread_dispatchv:
 327              	.LFB26:
  48:src/syscall_c.cpp **** 
  49:src/syscall_c.cpp **** void thread_dispatch() {
 328              		.loc 1 49 24 is_stmt 1
 329              		.cfi_startproc
 330 0100 130101FF 		addi	sp,sp,-16
 331              		.cfi_def_cfa_offset 16
 332 0104 23348100 		sd	s0,8(sp)
 333              		.cfi_offset 8, -8
 334 0108 13040101 		addi	s0,sp,16
 335              		.cfi_def_cfa 8, 0
  50:src/syscall_c.cpp ****     Riscv::writeARegister(0, 0x13);
 336              		.loc 1 50 5
 337              	.LVL29:
GAS LISTING C:\msys64\tmp\cczwVG08.s 			page 11


 338              	.LBB116:
 339              	.LBB117:
 171:src/../h/riscv.h **** }
 340              		.loc 2 171 5
 341 010c 93073001 		li	a5,19
 342              	 #APP
 343              	# 171 "src/../h/riscv.h" 1
 344              		mv a0, a5
 345              	# 0 "" 2
 346              	.LVL30:
 347              	 #NO_APP
 348              	.LBE117:
 349              	.LBE116:
  51:src/syscall_c.cpp **** 
  52:src/syscall_c.cpp ****     __asm__ volatile("ecall");
 350              		.loc 1 52 5
 351              	 #APP
 352              	# 52 "src/syscall_c.cpp" 1
  53              	
  54:src/syscall_c.cpp **** }
 353              		ecall
 354              	# 0 "" 2
 355              		.loc 1 54 1 is_stmt 0
 356              	 #NO_APP
 357 0118 03348100 		ld	s0,8(sp)
 358              		.cfi_restore 8
 359              		.cfi_def_cfa 2, 16
 360 011c 13010101 		addi	sp,sp,16
 361              		.cfi_def_cfa_offset 0
 362 0120 67800000 		jr	ra
 363              		.cfi_endproc
 364              	.LFE26:
 366              		.align	2
 367              		.globl	_Z11thread_exitv
 369              	_Z11thread_exitv:
 370              	.LFB27:
  55:src/syscall_c.cpp **** 
  56:src/syscall_c.cpp **** int thread_exit() {
 371              		.loc 1 56 19 is_stmt 1
 372              		.cfi_startproc
 373 0124 130101FE 		addi	sp,sp,-32
 374              		.cfi_def_cfa_offset 32
 375 0128 233C8100 		sd	s0,24(sp)
 376              		.cfi_offset 8, -8
 377 012c 13040102 		addi	s0,sp,32
 378              		.cfi_def_cfa 8, 0
  57:src/syscall_c.cpp ****     Riscv::writeARegister(0, 0x12);
 379              		.loc 1 57 5
 380              	.LVL31:
 381              	.LBB118:
 382              	.LBB119:
 171:src/../h/riscv.h **** }
 383              		.loc 2 171 5
 384 0130 93072001 		li	a5,18
 385              	 #APP
 386              	# 171 "src/../h/riscv.h" 1
 387              		mv a0, a5
GAS LISTING C:\msys64\tmp\cczwVG08.s 			page 12


 388              	# 0 "" 2
 389              	.LVL32:
 390              	 #NO_APP
 391              	.LBE119:
 392              	.LBE118:
  58:src/syscall_c.cpp **** 
  59:src/syscall_c.cpp ****     __asm__ volatile("ecall");
 393              		.loc 1 59 5
 394              	 #APP
 395              	# 59 "src/syscall_c.cpp" 1
  60              	
  61:src/syscall_c.cpp ****     volatile long a0 = Riscv::readARegister(0);
 396              		ecall
 397              	# 0 "" 2
 398              		.loc 1 61 5
 399              	.LVL33:
 400              	 #NO_APP
 401              	.LBB120:
 402              	.LBB121:
 164:src/../h/riscv.h ****     __asm__ volatile("mv %[val], a%[reg]" : [val] "=r"(value) : [reg] "i"(reg_number));
 403              		.loc 2 164 5
 165:src/../h/riscv.h ****     return value;
 404              		.loc 2 165 5
 405              	 #APP
 406              	# 165 "src/../h/riscv.h" 1
 407              		mv a5, a0
 408              	# 0 "" 2
 409              	.LVL34:
 166:src/../h/riscv.h **** }
 410              		.loc 2 166 5
 411              	 #NO_APP
 412              	.LBE121:
 413              	.LBE120:
 414              		.loc 1 61 46 is_stmt 0
 415 0140 2334F4FE 		sd	a5,-24(s0)
  62:src/syscall_c.cpp ****     return (int) a0;
 416              		.loc 1 62 5 is_stmt 1
 417              		.loc 1 62 18 is_stmt 0
 418 0144 033584FE 		ld	a0,-24(s0)
  63:src/syscall_c.cpp **** 
  64:src/syscall_c.cpp **** }
 419              		.loc 1 64 1
 420 0148 1B050500 		sext.w	a0,a0
 421 014c 03348101 		ld	s0,24(sp)
 422              		.cfi_restore 8
 423              		.cfi_def_cfa 2, 32
 424 0150 13010102 		addi	sp,sp,32
 425              		.cfi_def_cfa_offset 0
 426 0154 67800000 		jr	ra
 427              		.cfi_endproc
 428              	.LFE27:
 430              		.align	2
 431              		.globl	_Z8sem_openPP4_semj
 433              	_Z8sem_openPP4_semj:
 434              	.LFB28:
  65:src/syscall_c.cpp **** 
  66:src/syscall_c.cpp **** int sem_open(sem_t*handle, unsigned init) {
GAS LISTING C:\msys64\tmp\cczwVG08.s 			page 13


 435              		.loc 1 66 43 is_stmt 1
 436              		.cfi_startproc
 437              	.LVL35:
 438 0158 130101FE 		addi	sp,sp,-32
 439              		.cfi_def_cfa_offset 32
 440 015c 233C8100 		sd	s0,24(sp)
 441              		.cfi_offset 8, -8
 442 0160 13040102 		addi	s0,sp,32
 443              		.cfi_def_cfa 8, 0
  67:src/syscall_c.cpp ****     Riscv::writeARegister(2, (uint64)init);
 444              		.loc 1 67 5
 445              		.loc 1 67 26 is_stmt 0
 446 0164 93950502 		slli	a1,a1,32
 447              	.LVL36:
 448 0168 93D50502 		srli	a1,a1,32
 449              	.LVL37:
 450              	.LBB122:
 451              	.LBB123:
 171:src/../h/riscv.h **** }
 452              		.loc 2 171 5 is_stmt 1
 453              	 #APP
 454              	# 171 "src/../h/riscv.h" 1
 455              		mv a2, a1
 456              	# 0 "" 2
 457              	.LVL38:
 458              	 #NO_APP
 459              	.LBE123:
 460              	.LBE122:
  68:src/syscall_c.cpp ****     Riscv::writeARegister(1, (uint64)handle);
 461              		.loc 1 68 5
 462              	.LBB124:
 463              	.LBB125:
 171:src/../h/riscv.h **** }
 464              		.loc 2 171 5
 465              	 #APP
 466              	# 171 "src/../h/riscv.h" 1
 467              		mv a1, a0
 468              	# 0 "" 2
 469              	.LVL39:
 470              	 #NO_APP
 471              	.LBE125:
 472              	.LBE124:
  69:src/syscall_c.cpp **** 
  70:src/syscall_c.cpp ****     Riscv::writeARegister(0, 0x21);
 473              		.loc 1 70 5
 474              	.LBB126:
 475              	.LBB127:
 171:src/../h/riscv.h **** }
 476              		.loc 2 171 5
 477 0174 93071002 		li	a5,33
 478              	 #APP
 479              	# 171 "src/../h/riscv.h" 1
 480              		mv a0, a5
 481              	# 0 "" 2
 482              	.LVL40:
 483              	 #NO_APP
 484              	.LBE127:
GAS LISTING C:\msys64\tmp\cczwVG08.s 			page 14


 485              	.LBE126:
  71:src/syscall_c.cpp **** 
  72:src/syscall_c.cpp ****     __asm__ volatile("ecall");
 486              		.loc 1 72 5
 487              	 #APP
 488              	# 72 "src/syscall_c.cpp" 1
  73              	
  74:src/syscall_c.cpp ****     volatile long a0 = Riscv::readARegister(0);
 489              		ecall
 490              	# 0 "" 2
 491              		.loc 1 74 5
 492              	.LVL41:
 493              	 #NO_APP
 494              	.LBB128:
 495              	.LBB129:
 164:src/../h/riscv.h ****     __asm__ volatile("mv %[val], a%[reg]" : [val] "=r"(value) : [reg] "i"(reg_number));
 496              		.loc 2 164 5
 165:src/../h/riscv.h ****     return value;
 497              		.loc 2 165 5
 498              	 #APP
 499              	# 165 "src/../h/riscv.h" 1
 500              		mv a5, a0
 501              	# 0 "" 2
 502              	.LVL42:
 166:src/../h/riscv.h **** }
 503              		.loc 2 166 5
 504              	 #NO_APP
 505              	.LBE129:
 506              	.LBE128:
 507              		.loc 1 74 46 is_stmt 0
 508 0184 2334F4FE 		sd	a5,-24(s0)
  75:src/syscall_c.cpp ****     return (int) a0;
 509              		.loc 1 75 5 is_stmt 1
 510              		.loc 1 75 18 is_stmt 0
 511 0188 033584FE 		ld	a0,-24(s0)
 512              	.LVL43:
  76:src/syscall_c.cpp **** 
  77:src/syscall_c.cpp **** }
 513              		.loc 1 77 1
 514 018c 1B050500 		sext.w	a0,a0
 515 0190 03348101 		ld	s0,24(sp)
 516              		.cfi_restore 8
 517              		.cfi_def_cfa 2, 32
 518 0194 13010102 		addi	sp,sp,32
 519              		.cfi_def_cfa_offset 0
 520 0198 67800000 		jr	ra
 521              		.cfi_endproc
 522              	.LFE28:
 524              		.align	2
 525              		.globl	_Z9sem_closeP4_sem
 527              	_Z9sem_closeP4_sem:
 528              	.LFB29:
  78:src/syscall_c.cpp **** 
  79:src/syscall_c.cpp **** int sem_close(sem_t handle) {
 529              		.loc 1 79 29 is_stmt 1
 530              		.cfi_startproc
 531              	.LVL44:
GAS LISTING C:\msys64\tmp\cczwVG08.s 			page 15


 532 019c 130101FE 		addi	sp,sp,-32
 533              		.cfi_def_cfa_offset 32
 534 01a0 233C8100 		sd	s0,24(sp)
 535              		.cfi_offset 8, -8
 536 01a4 13040102 		addi	s0,sp,32
 537              		.cfi_def_cfa 8, 0
  80:src/syscall_c.cpp ****     Riscv::writeARegister(1, (uint64)handle);
 538              		.loc 1 80 5
 539              	.LVL45:
 540              	.LBB130:
 541              	.LBB131:
 171:src/../h/riscv.h **** }
 542              		.loc 2 171 5
 543              	 #APP
 544              	# 171 "src/../h/riscv.h" 1
 545              		mv a1, a0
 546              	# 0 "" 2
 547              	.LVL46:
 548              	 #NO_APP
 549              	.LBE131:
 550              	.LBE130:
  81:src/syscall_c.cpp **** 
  82:src/syscall_c.cpp ****     Riscv::writeARegister(0, 0x22);
 551              		.loc 1 82 5
 552              	.LBB132:
 553              	.LBB133:
 171:src/../h/riscv.h **** }
 554              		.loc 2 171 5
 555 01ac 93072002 		li	a5,34
 556              	 #APP
 557              	# 171 "src/../h/riscv.h" 1
 558              		mv a0, a5
 559              	# 0 "" 2
 560              	.LVL47:
 561              	 #NO_APP
 562              	.LBE133:
 563              	.LBE132:
  83:src/syscall_c.cpp **** 
  84:src/syscall_c.cpp ****     __asm__ volatile("ecall");
 564              		.loc 1 84 5
 565              	 #APP
 566              	# 84 "src/syscall_c.cpp" 1
  85              	
  86:src/syscall_c.cpp ****     volatile long a0 = Riscv::readARegister(0);
 567              		ecall
 568              	# 0 "" 2
 569              		.loc 1 86 5
 570              	.LVL48:
 571              	 #NO_APP
 572              	.LBB134:
 573              	.LBB135:
 164:src/../h/riscv.h ****     __asm__ volatile("mv %[val], a%[reg]" : [val] "=r"(value) : [reg] "i"(reg_number));
 574              		.loc 2 164 5
 165:src/../h/riscv.h ****     return value;
 575              		.loc 2 165 5
 576              	 #APP
 577              	# 165 "src/../h/riscv.h" 1
GAS LISTING C:\msys64\tmp\cczwVG08.s 			page 16


 578              		mv a5, a0
 579              	# 0 "" 2
 580              	.LVL49:
 166:src/../h/riscv.h **** }
 581              		.loc 2 166 5
 582              	 #NO_APP
 583              	.LBE135:
 584              	.LBE134:
 585              		.loc 1 86 46 is_stmt 0
 586 01bc 2334F4FE 		sd	a5,-24(s0)
  87:src/syscall_c.cpp ****     return (int) a0;
 587              		.loc 1 87 5 is_stmt 1
 588              		.loc 1 87 18 is_stmt 0
 589 01c0 033584FE 		ld	a0,-24(s0)
 590              	.LVL50:
  88:src/syscall_c.cpp **** }
 591              		.loc 1 88 1
 592 01c4 1B050500 		sext.w	a0,a0
 593 01c8 03348101 		ld	s0,24(sp)
 594              		.cfi_restore 8
 595              		.cfi_def_cfa 2, 32
 596 01cc 13010102 		addi	sp,sp,32
 597              		.cfi_def_cfa_offset 0
 598 01d0 67800000 		jr	ra
 599              		.cfi_endproc
 600              	.LFE29:
 602              		.align	2
 603              		.globl	_Z8sem_waitP4_sem
 605              	_Z8sem_waitP4_sem:
 606              	.LFB30:
  89:src/syscall_c.cpp **** 
  90:src/syscall_c.cpp **** int sem_wait(sem_t id) {
 607              		.loc 1 90 24 is_stmt 1
 608              		.cfi_startproc
 609              	.LVL51:
 610 01d4 130101FE 		addi	sp,sp,-32
 611              		.cfi_def_cfa_offset 32
 612 01d8 233C8100 		sd	s0,24(sp)
 613              		.cfi_offset 8, -8
 614 01dc 13040102 		addi	s0,sp,32
 615              		.cfi_def_cfa 8, 0
  91:src/syscall_c.cpp ****     Riscv::writeARegister(1, (uint64)id);
 616              		.loc 1 91 5
 617              	.LVL52:
 618              	.LBB136:
 619              	.LBB137:
 171:src/../h/riscv.h **** }
 620              		.loc 2 171 5
 621              	 #APP
 622              	# 171 "src/../h/riscv.h" 1
 623              		mv a1, a0
 624              	# 0 "" 2
 625              	.LVL53:
 626              	 #NO_APP
 627              	.LBE137:
 628              	.LBE136:
  92:src/syscall_c.cpp **** 
GAS LISTING C:\msys64\tmp\cczwVG08.s 			page 17


  93:src/syscall_c.cpp ****     Riscv::writeARegister(0, 0x23);
 629              		.loc 1 93 5
 630              	.LBB138:
 631              	.LBB139:
 171:src/../h/riscv.h **** }
 632              		.loc 2 171 5
 633 01e4 93073002 		li	a5,35
 634              	 #APP
 635              	# 171 "src/../h/riscv.h" 1
 636              		mv a0, a5
 637              	# 0 "" 2
 638              	.LVL54:
 639              	 #NO_APP
 640              	.LBE139:
 641              	.LBE138:
  94:src/syscall_c.cpp **** 
  95:src/syscall_c.cpp ****     __asm__ volatile("ecall");
 642              		.loc 1 95 5
 643              	 #APP
 644              	# 95 "src/syscall_c.cpp" 1
  96              	
  97:src/syscall_c.cpp ****     volatile long a0 = Riscv::readARegister(0);
 645              		ecall
 646              	# 0 "" 2
 647              		.loc 1 97 5
 648              	.LVL55:
 649              	 #NO_APP
 650              	.LBB140:
 651              	.LBB141:
 164:src/../h/riscv.h ****     __asm__ volatile("mv %[val], a%[reg]" : [val] "=r"(value) : [reg] "i"(reg_number));
 652              		.loc 2 164 5
 165:src/../h/riscv.h ****     return value;
 653              		.loc 2 165 5
 654              	 #APP
 655              	# 165 "src/../h/riscv.h" 1
 656              		mv a5, a0
 657              	# 0 "" 2
 658              	.LVL56:
 166:src/../h/riscv.h **** }
 659              		.loc 2 166 5
 660              	 #NO_APP
 661              	.LBE141:
 662              	.LBE140:
 663              		.loc 1 97 46 is_stmt 0
 664 01f4 2334F4FE 		sd	a5,-24(s0)
  98:src/syscall_c.cpp ****     return (int) a0;
 665              		.loc 1 98 5 is_stmt 1
 666              		.loc 1 98 18 is_stmt 0
 667 01f8 033584FE 		ld	a0,-24(s0)
 668              	.LVL57:
  99:src/syscall_c.cpp **** }
 669              		.loc 1 99 1
 670 01fc 1B050500 		sext.w	a0,a0
 671 0200 03348101 		ld	s0,24(sp)
 672              		.cfi_restore 8
 673              		.cfi_def_cfa 2, 32
 674 0204 13010102 		addi	sp,sp,32
GAS LISTING C:\msys64\tmp\cczwVG08.s 			page 18


 675              		.cfi_def_cfa_offset 0
 676 0208 67800000 		jr	ra
 677              		.cfi_endproc
 678              	.LFE30:
 680              		.align	2
 681              		.globl	_Z10sem_signalP4_sem
 683              	_Z10sem_signalP4_sem:
 684              	.LFB31:
 100:src/syscall_c.cpp **** 
 101:src/syscall_c.cpp **** int sem_signal(sem_t id) {
 685              		.loc 1 101 26 is_stmt 1
 686              		.cfi_startproc
 687              	.LVL58:
 688 020c 130101FE 		addi	sp,sp,-32
 689              		.cfi_def_cfa_offset 32
 690 0210 233C8100 		sd	s0,24(sp)
 691              		.cfi_offset 8, -8
 692 0214 13040102 		addi	s0,sp,32
 693              		.cfi_def_cfa 8, 0
 102:src/syscall_c.cpp ****     Riscv::writeARegister(1, (uint64)id);
 694              		.loc 1 102 5
 695              	.LVL59:
 696              	.LBB142:
 697              	.LBB143:
 171:src/../h/riscv.h **** }
 698              		.loc 2 171 5
 699              	 #APP
 700              	# 171 "src/../h/riscv.h" 1
 701              		mv a1, a0
 702              	# 0 "" 2
 703              	.LVL60:
 704              	 #NO_APP
 705              	.LBE143:
 706              	.LBE142:
 103:src/syscall_c.cpp **** 
 104:src/syscall_c.cpp ****     Riscv::writeARegister(0, 0x24);
 707              		.loc 1 104 5
 708              	.LBB144:
 709              	.LBB145:
 171:src/../h/riscv.h **** }
 710              		.loc 2 171 5
 711 021c 93074002 		li	a5,36
 712              	 #APP
 713              	# 171 "src/../h/riscv.h" 1
 714              		mv a0, a5
 715              	# 0 "" 2
 716              	.LVL61:
 717              	 #NO_APP
 718              	.LBE145:
 719              	.LBE144:
 105:src/syscall_c.cpp **** 
 106:src/syscall_c.cpp ****     __asm__ volatile("ecall");
 720              		.loc 1 106 5
 721              	 #APP
 722              	# 106 "src/syscall_c.cpp" 1
 107              	
 108:src/syscall_c.cpp ****     volatile long a0 = Riscv::readARegister(0);
GAS LISTING C:\msys64\tmp\cczwVG08.s 			page 19


 723              		ecall
 724              	# 0 "" 2
 725              		.loc 1 108 5
 726              	.LVL62:
 727              	 #NO_APP
 728              	.LBB146:
 729              	.LBB147:
 164:src/../h/riscv.h ****     __asm__ volatile("mv %[val], a%[reg]" : [val] "=r"(value) : [reg] "i"(reg_number));
 730              		.loc 2 164 5
 165:src/../h/riscv.h ****     return value;
 731              		.loc 2 165 5
 732              	 #APP
 733              	# 165 "src/../h/riscv.h" 1
 734              		mv a5, a0
 735              	# 0 "" 2
 736              	.LVL63:
 166:src/../h/riscv.h **** }
 737              		.loc 2 166 5
 738              	 #NO_APP
 739              	.LBE147:
 740              	.LBE146:
 741              		.loc 1 108 46 is_stmt 0
 742 022c 2334F4FE 		sd	a5,-24(s0)
 109:src/syscall_c.cpp ****     return (int) a0;
 743              		.loc 1 109 5 is_stmt 1
 744              		.loc 1 109 18 is_stmt 0
 745 0230 033584FE 		ld	a0,-24(s0)
 746              	.LVL64:
 110:src/syscall_c.cpp **** }
 747              		.loc 1 110 1
 748 0234 1B050500 		sext.w	a0,a0
 749 0238 03348101 		ld	s0,24(sp)
 750              		.cfi_restore 8
 751              		.cfi_def_cfa 2, 32
 752 023c 13010102 		addi	sp,sp,32
 753              		.cfi_def_cfa_offset 0
 754 0240 67800000 		jr	ra
 755              		.cfi_endproc
 756              	.LFE31:
 758              		.align	2
 759              		.globl	_Z10sem_wait_nP4_semj
 761              	_Z10sem_wait_nP4_semj:
 762              	.LFB32:
 111:src/syscall_c.cpp **** 
 112:src/syscall_c.cpp **** int sem_wait_n(sem_t id, unsigned n)
 113:src/syscall_c.cpp **** {
 763              		.loc 1 113 1 is_stmt 1
 764              		.cfi_startproc
 765              	.LVL65:
 766 0244 130101FE 		addi	sp,sp,-32
 767              		.cfi_def_cfa_offset 32
 768 0248 233C8100 		sd	s0,24(sp)
 769              		.cfi_offset 8, -8
 770 024c 13040102 		addi	s0,sp,32
 771              		.cfi_def_cfa 8, 0
 114:src/syscall_c.cpp ****     Riscv::writeARegister(2, (uint64)n);
 772              		.loc 1 114 5
GAS LISTING C:\msys64\tmp\cczwVG08.s 			page 20


 773              		.loc 1 114 26 is_stmt 0
 774 0250 93950502 		slli	a1,a1,32
 775              	.LVL66:
 776 0254 93D50502 		srli	a1,a1,32
 777              	.LVL67:
 778              	.LBB148:
 779              	.LBB149:
 171:src/../h/riscv.h **** }
 780              		.loc 2 171 5 is_stmt 1
 781              	 #APP
 782              	# 171 "src/../h/riscv.h" 1
 783              		mv a2, a1
 784              	# 0 "" 2
 785              	.LVL68:
 786              	 #NO_APP
 787              	.LBE149:
 788              	.LBE148:
 115:src/syscall_c.cpp ****     Riscv::writeARegister(1, (uint64)id);
 789              		.loc 1 115 5
 790              	.LBB150:
 791              	.LBB151:
 171:src/../h/riscv.h **** }
 792              		.loc 2 171 5
 793              	 #APP
 794              	# 171 "src/../h/riscv.h" 1
 795              		mv a1, a0
 796              	# 0 "" 2
 797              	.LVL69:
 798              	 #NO_APP
 799              	.LBE151:
 800              	.LBE150:
 116:src/syscall_c.cpp **** 
 117:src/syscall_c.cpp ****     Riscv::writeARegister(0, 0x25);
 801              		.loc 1 117 5
 802              	.LBB152:
 803              	.LBB153:
 171:src/../h/riscv.h **** }
 804              		.loc 2 171 5
 805 0260 93075002 		li	a5,37
 806              	 #APP
 807              	# 171 "src/../h/riscv.h" 1
 808              		mv a0, a5
 809              	# 0 "" 2
 810              	.LVL70:
 811              	 #NO_APP
 812              	.LBE153:
 813              	.LBE152:
 118:src/syscall_c.cpp **** 
 119:src/syscall_c.cpp ****     __asm__ volatile("ecall");
 814              		.loc 1 119 5
 815              	 #APP
 816              	# 119 "src/syscall_c.cpp" 1
 120              	
 121:src/syscall_c.cpp ****     volatile long a0 = Riscv::readARegister(0);
 817              		ecall
 818              	# 0 "" 2
 819              		.loc 1 121 5
GAS LISTING C:\msys64\tmp\cczwVG08.s 			page 21


 820              	.LVL71:
 821              	 #NO_APP
 822              	.LBB154:
 823              	.LBB155:
 164:src/../h/riscv.h ****     __asm__ volatile("mv %[val], a%[reg]" : [val] "=r"(value) : [reg] "i"(reg_number));
 824              		.loc 2 164 5
 165:src/../h/riscv.h ****     return value;
 825              		.loc 2 165 5
 826              	 #APP
 827              	# 165 "src/../h/riscv.h" 1
 828              		mv a5, a0
 829              	# 0 "" 2
 830              	.LVL72:
 166:src/../h/riscv.h **** }
 831              		.loc 2 166 5
 832              	 #NO_APP
 833              	.LBE155:
 834              	.LBE154:
 835              		.loc 1 121 46 is_stmt 0
 836 0270 2334F4FE 		sd	a5,-24(s0)
 122:src/syscall_c.cpp ****     return (int) a0;
 837              		.loc 1 122 5 is_stmt 1
 838              		.loc 1 122 18 is_stmt 0
 839 0274 033584FE 		ld	a0,-24(s0)
 840              	.LVL73:
 123:src/syscall_c.cpp **** }
 841              		.loc 1 123 1
 842 0278 1B050500 		sext.w	a0,a0
 843 027c 03348101 		ld	s0,24(sp)
 844              		.cfi_restore 8
 845              		.cfi_def_cfa 2, 32
 846 0280 13010102 		addi	sp,sp,32
 847              		.cfi_def_cfa_offset 0
 848 0284 67800000 		jr	ra
 849              		.cfi_endproc
 850              	.LFE32:
 852              		.align	2
 853              		.globl	_Z12sem_signal_nP4_semj
 855              	_Z12sem_signal_nP4_semj:
 856              	.LFB33:
 124:src/syscall_c.cpp **** int sem_signal_n(sem_t id, unsigned n)
 125:src/syscall_c.cpp **** {   
 857              		.loc 1 125 1 is_stmt 1
 858              		.cfi_startproc
 859              	.LVL74:
 860 0288 130101FE 		addi	sp,sp,-32
 861              		.cfi_def_cfa_offset 32
 862 028c 233C8100 		sd	s0,24(sp)
 863              		.cfi_offset 8, -8
 864 0290 13040102 		addi	s0,sp,32
 865              		.cfi_def_cfa 8, 0
 126:src/syscall_c.cpp ****     Riscv::writeARegister(2, (uint64)n);
 866              		.loc 1 126 5
 867              		.loc 1 126 26 is_stmt 0
 868 0294 93950502 		slli	a1,a1,32
 869              	.LVL75:
 870 0298 93D50502 		srli	a1,a1,32
GAS LISTING C:\msys64\tmp\cczwVG08.s 			page 22


 871              	.LVL76:
 872              	.LBB156:
 873              	.LBB157:
 171:src/../h/riscv.h **** }
 874              		.loc 2 171 5 is_stmt 1
 875              	 #APP
 876              	# 171 "src/../h/riscv.h" 1
 877              		mv a2, a1
 878              	# 0 "" 2
 879              	.LVL77:
 880              	 #NO_APP
 881              	.LBE157:
 882              	.LBE156:
 127:src/syscall_c.cpp ****     Riscv::writeARegister(1, (uint64)id);
 883              		.loc 1 127 5
 884              	.LBB158:
 885              	.LBB159:
 171:src/../h/riscv.h **** }
 886              		.loc 2 171 5
 887              	 #APP
 888              	# 171 "src/../h/riscv.h" 1
 889              		mv a1, a0
 890              	# 0 "" 2
 891              	.LVL78:
 892              	 #NO_APP
 893              	.LBE159:
 894              	.LBE158:
 128:src/syscall_c.cpp **** 
 129:src/syscall_c.cpp ****     Riscv::writeARegister(0, 0x26);
 895              		.loc 1 129 5
 896              	.LBB160:
 897              	.LBB161:
 171:src/../h/riscv.h **** }
 898              		.loc 2 171 5
 899 02a4 93076002 		li	a5,38
 900              	 #APP
 901              	# 171 "src/../h/riscv.h" 1
 902              		mv a0, a5
 903              	# 0 "" 2
 904              	.LVL79:
 905              	 #NO_APP
 906              	.LBE161:
 907              	.LBE160:
 130:src/syscall_c.cpp **** 
 131:src/syscall_c.cpp ****     __asm__ volatile("ecall");
 908              		.loc 1 131 5
 909              	 #APP
 910              	# 131 "src/syscall_c.cpp" 1
 132              	
 133:src/syscall_c.cpp ****     volatile long a0 = Riscv::readARegister(0);
 911              		ecall
 912              	# 0 "" 2
 913              		.loc 1 133 5
 914              	.LVL80:
 915              	 #NO_APP
 916              	.LBB162:
 917              	.LBB163:
GAS LISTING C:\msys64\tmp\cczwVG08.s 			page 23


 164:src/../h/riscv.h ****     __asm__ volatile("mv %[val], a%[reg]" : [val] "=r"(value) : [reg] "i"(reg_number));
 918              		.loc 2 164 5
 165:src/../h/riscv.h ****     return value;
 919              		.loc 2 165 5
 920              	 #APP
 921              	# 165 "src/../h/riscv.h" 1
 922              		mv a5, a0
 923              	# 0 "" 2
 924              	.LVL81:
 166:src/../h/riscv.h **** }
 925              		.loc 2 166 5
 926              	 #NO_APP
 927              	.LBE163:
 928              	.LBE162:
 929              		.loc 1 133 46 is_stmt 0
 930 02b4 2334F4FE 		sd	a5,-24(s0)
 134:src/syscall_c.cpp ****     return (int) a0;
 931              		.loc 1 134 5 is_stmt 1
 932              		.loc 1 134 18 is_stmt 0
 933 02b8 033584FE 		ld	a0,-24(s0)
 934              	.LVL82:
 135:src/syscall_c.cpp **** }
 935              		.loc 1 135 1
 936 02bc 1B050500 		sext.w	a0,a0
 937 02c0 03348101 		ld	s0,24(sp)
 938              		.cfi_restore 8
 939              		.cfi_def_cfa 2, 32
 940 02c4 13010102 		addi	sp,sp,32
 941              		.cfi_def_cfa_offset 0
 942 02c8 67800000 		jr	ra
 943              		.cfi_endproc
 944              	.LFE33:
 946              		.align	2
 947              		.globl	_Z10time_sleepm
 949              	_Z10time_sleepm:
 950              	.LFB34:
 136:src/syscall_c.cpp **** int time_sleep(time_t t)
 137:src/syscall_c.cpp **** {
 951              		.loc 1 137 1 is_stmt 1
 952              		.cfi_startproc
 953              	.LVL83:
 954 02cc 130101FE 		addi	sp,sp,-32
 955              		.cfi_def_cfa_offset 32
 956 02d0 233C8100 		sd	s0,24(sp)
 957              		.cfi_offset 8, -8
 958 02d4 13040102 		addi	s0,sp,32
 959              		.cfi_def_cfa 8, 0
 138:src/syscall_c.cpp ****     Riscv::writeARegister(1, (uint64)t);
 960              		.loc 1 138 5
 961              	.LVL84:
 962              	.LBB164:
 963              	.LBB165:
 171:src/../h/riscv.h **** }
 964              		.loc 2 171 5
 965              	 #APP
 966              	# 171 "src/../h/riscv.h" 1
 967              		mv a1, a0
GAS LISTING C:\msys64\tmp\cczwVG08.s 			page 24


 968              	# 0 "" 2
 969              	.LVL85:
 970              	 #NO_APP
 971              	.LBE165:
 972              	.LBE164:
 139:src/syscall_c.cpp ****     Riscv::writeARegister(0, 0x31);
 973              		.loc 1 139 5
 974              	.LBB166:
 975              	.LBB167:
 171:src/../h/riscv.h **** }
 976              		.loc 2 171 5
 977 02dc 93071003 		li	a5,49
 978              	 #APP
 979              	# 171 "src/../h/riscv.h" 1
 980              		mv a0, a5
 981              	# 0 "" 2
 982              	.LVL86:
 983              	 #NO_APP
 984              	.LBE167:
 985              	.LBE166:
 140:src/syscall_c.cpp **** 
 141:src/syscall_c.cpp ****     __asm__ volatile("ecall");
 986              		.loc 1 141 5
 987              	 #APP
 988              	# 141 "src/syscall_c.cpp" 1
 142              	
 143:src/syscall_c.cpp ****     volatile long a0 = Riscv::readARegister(0);
 989              		ecall
 990              	# 0 "" 2
 991              		.loc 1 143 5
 992              	.LVL87:
 993              	 #NO_APP
 994              	.LBB168:
 995              	.LBB169:
 164:src/../h/riscv.h ****     __asm__ volatile("mv %[val], a%[reg]" : [val] "=r"(value) : [reg] "i"(reg_number));
 996              		.loc 2 164 5
 165:src/../h/riscv.h ****     return value;
 997              		.loc 2 165 5
 998              	 #APP
 999              	# 165 "src/../h/riscv.h" 1
 1000              		mv a5, a0
 1001              	# 0 "" 2
 1002              	.LVL88:
 166:src/../h/riscv.h **** }
 1003              		.loc 2 166 5
 1004              	 #NO_APP
 1005              	.LBE169:
 1006              	.LBE168:
 1007              		.loc 1 143 46 is_stmt 0
 1008 02ec 2334F4FE 		sd	a5,-24(s0)
 144:src/syscall_c.cpp ****     return (int) a0;
 1009              		.loc 1 144 5 is_stmt 1
 1010              		.loc 1 144 18 is_stmt 0
 1011 02f0 033584FE 		ld	a0,-24(s0)
 1012              	.LVL89:
 145:src/syscall_c.cpp **** }
 1013              		.loc 1 145 1
GAS LISTING C:\msys64\tmp\cczwVG08.s 			page 25


 1014 02f4 1B050500 		sext.w	a0,a0
 1015 02f8 03348101 		ld	s0,24(sp)
 1016              		.cfi_restore 8
 1017              		.cfi_def_cfa 2, 32
 1018 02fc 13010102 		addi	sp,sp,32
 1019              		.cfi_def_cfa_offset 0
 1020 0300 67800000 		jr	ra
 1021              		.cfi_endproc
 1022              	.LFE34:
 1024              		.align	2
 1025              		.globl	_Z4getcv
 1027              	_Z4getcv:
 1028              	.LFB35:
 146:src/syscall_c.cpp **** 
 147:src/syscall_c.cpp **** char getc() {
 1029              		.loc 1 147 13 is_stmt 1
 1030              		.cfi_startproc
 1031 0304 130101FE 		addi	sp,sp,-32
 1032              		.cfi_def_cfa_offset 32
 1033 0308 233C1100 		sd	ra,24(sp)
 1034 030c 23388100 		sd	s0,16(sp)
 1035              		.cfi_offset 1, -8
 1036              		.cfi_offset 8, -16
 1037 0310 13040102 		addi	s0,sp,32
 1038              		.cfi_def_cfa 8, 0
 148:src/syscall_c.cpp ****      sem_wait(reinterpret_cast<sem_t>(_console::getInSem()));
 1039              		.loc 1 148 6
 1040              	.LBB170:
 1041              	.LBB171:
 1042              		.file 3 "src/../h/Console.h"
   1:src/../h/Console.h **** #ifndef PROJEKAT_CONSOLE_H
   2:src/../h/Console.h **** #define PROJEKAT_CONSOLE_H
   3:src/../h/Console.h **** 
   4:src/../h/Console.h **** #include "../h/Semaphore.h"
   5:src/../h/Console.h **** #include "../h/Buffer.h"
   6:src/../h/Console.h **** 
   7:src/../h/Console.h **** class _console
   8:src/../h/Console.h **** {
   9:src/../h/Console.h **** public:
  10:src/../h/Console.h ****     _console() = delete;
  11:src/../h/Console.h ****     _console(const _console &) = delete;
  12:src/../h/Console.h ****     _console &operator=(const _console &) = delete;
  13:src/../h/Console.h **** 
  14:src/../h/Console.h ****     static char getc();
  15:src/../h/Console.h ****     static void putc(char c);
  16:src/../h/Console.h **** 
  17:src/../h/Console.h ****     static kBuffer *getInBuff()
  18:src/../h/Console.h ****     {
  19:src/../h/Console.h ****         ensureInit();
  20:src/../h/Console.h ****         return inbuff;
  21:src/../h/Console.h ****     }
  22:src/../h/Console.h ****     static kBuffer *getOutBuff()
  23:src/../h/Console.h ****     {
  24:src/../h/Console.h ****         ensureInit();
  25:src/../h/Console.h ****         return outbuff;
  26:src/../h/Console.h ****     }
  27:src/../h/Console.h ****     static _sem *getInSem()
GAS LISTING C:\msys64\tmp\cczwVG08.s 			page 26


  28:src/../h/Console.h ****     {
  29:src/../h/Console.h ****         ensureInit();
 1043              		.loc 3 29 9
 1044              		.loc 3 29 19 is_stmt 0
 1045 0314 97000000 		call	_ZN8_console10ensureInitEv
 1045      E7800000 
 1046              	.LVL90:
  30:src/../h/Console.h ****         return inSem;
 1047              		.loc 3 30 9 is_stmt 1
 1048              	.LBE171:
 1049              	.LBE170:
 1050              		.loc 1 148 14 is_stmt 0
 1051 031c 17050000 		ld	a0,_ZN8_console5inSemE
 1051      03350500 
 1052 0324 97000000 		call	_Z8sem_waitP4_sem
 1052      E7800000 
 1053              	.LVL91:
 149:src/syscall_c.cpp ****     Riscv::writeARegister(0, 0x41);
 1054              		.loc 1 149 5 is_stmt 1
 1055              	.LBB172:
 1056              	.LBB173:
 171:src/../h/riscv.h **** }
 1057              		.loc 2 171 5
 1058 032c 93071004 		li	a5,65
 1059              	 #APP
 1060              	# 171 "src/../h/riscv.h" 1
 1061              		mv a0, a5
 1062              	# 0 "" 2
 1063              	.LVL92:
 1064              	 #NO_APP
 1065              	.LBE173:
 1066              	.LBE172:
 150:src/syscall_c.cpp **** 
 151:src/syscall_c.cpp ****     __asm__ volatile("ecall");
 1067              		.loc 1 151 5
 1068              	 #APP
 1069              	# 151 "src/syscall_c.cpp" 1
 152              	
 153:src/syscall_c.cpp ****     volatile long a0 = Riscv::readARegister(0);
 1070              		ecall
 1071              	# 0 "" 2
 1072              		.loc 1 153 5
 1073              	.LVL93:
 1074              	 #NO_APP
 1075              	.LBB174:
 1076              	.LBB175:
 164:src/../h/riscv.h ****     __asm__ volatile("mv %[val], a%[reg]" : [val] "=r"(value) : [reg] "i"(reg_number));
 1077              		.loc 2 164 5
 165:src/../h/riscv.h ****     return value;
 1078              		.loc 2 165 5
 1079              	 #APP
 1080              	# 165 "src/../h/riscv.h" 1
 1081              		mv a5, a0
 1082              	# 0 "" 2
 1083              	.LVL94:
 166:src/../h/riscv.h **** }
 1084              		.loc 2 166 5
GAS LISTING C:\msys64\tmp\cczwVG08.s 			page 27


 1085              	 #NO_APP
 1086              	.LBE175:
 1087              	.LBE174:
 1088              		.loc 1 153 46 is_stmt 0
 1089 033c 2334F4FE 		sd	a5,-24(s0)
 154:src/syscall_c.cpp ****     return (char) a0;
 1090              		.loc 1 154 5 is_stmt 1
 1091              		.loc 1 154 19 is_stmt 0
 1092 0340 033584FE 		ld	a0,-24(s0)
 155:src/syscall_c.cpp **** }
 1093              		.loc 1 155 1
 1094 0344 1375F50F 		andi	a0,a0,0xff
 1095 0348 83308101 		ld	ra,24(sp)
 1096              		.cfi_restore 1
 1097 034c 03340101 		ld	s0,16(sp)
 1098              		.cfi_restore 8
 1099              		.cfi_def_cfa 2, 32
 1100 0350 13010102 		addi	sp,sp,32
 1101              		.cfi_def_cfa_offset 0
 1102 0354 67800000 		jr	ra
 1103              		.cfi_endproc
 1104              	.LFE35:
 1106              		.align	2
 1107              		.globl	_Z4putcc
 1109              	_Z4putcc:
 1110              	.LFB36:
 156:src/syscall_c.cpp **** 
 157:src/syscall_c.cpp **** void putc(char c) {
 1111              		.loc 1 157 19 is_stmt 1
 1112              		.cfi_startproc
 1113              	.LVL95:
 1114 0358 130101FE 		addi	sp,sp,-32
 1115              		.cfi_def_cfa_offset 32
 1116 035c 233C1100 		sd	ra,24(sp)
 1117 0360 23388100 		sd	s0,16(sp)
 1118 0364 23349100 		sd	s1,8(sp)
 1119              		.cfi_offset 1, -8
 1120              		.cfi_offset 8, -16
 1121              		.cfi_offset 9, -24
 1122 0368 13040102 		addi	s0,sp,32
 1123              		.cfi_def_cfa 8, 0
 1124 036c 93040500 		mv	s1,a0
 158:src/syscall_c.cpp ****     sem_wait(reinterpret_cast<sem_t>(_console::getOutSem()));
 1125              		.loc 1 158 5
 1126              	.LBB176:
 1127              	.LBB177:
  31:src/../h/Console.h ****     }
  32:src/../h/Console.h ****     static _sem *getOutSem()
  33:src/../h/Console.h ****     {
  34:src/../h/Console.h ****         ensureInit();
 1128              		.loc 3 34 9
 1129              		.loc 3 34 19 is_stmt 0
 1130 0370 97000000 		call	_ZN8_console10ensureInitEv
 1130      E7800000 
 1131              	.LVL96:
  35:src/../h/Console.h ****         return outSem;
 1132              		.loc 3 35 9 is_stmt 1
GAS LISTING C:\msys64\tmp\cczwVG08.s 			page 28


 1133              	.LBE177:
 1134              	.LBE176:
 1135              		.loc 1 158 13 is_stmt 0
 1136 0378 17050000 		ld	a0,_ZN8_console6outSemE
 1136      03350500 
 1137 0380 97000000 		call	_Z8sem_waitP4_sem
 1137      E7800000 
 1138              	.LVL97:
 159:src/syscall_c.cpp ****     Riscv::writeARegister(1, (uint64)c);
 1139              		.loc 1 159 5 is_stmt 1
 1140              	.LBB178:
 1141              	.LBB179:
 171:src/../h/riscv.h **** }
 1142              		.loc 2 171 5
 1143              	 #APP
 1144              	# 171 "src/../h/riscv.h" 1
 1145              		mv a1, s1
 1146              	# 0 "" 2
 1147              	.LVL98:
 1148              	 #NO_APP
 1149              	.LBE179:
 1150              	.LBE178:
 160:src/syscall_c.cpp ****     Riscv::writeARegister(0, 0x42);
 1151              		.loc 1 160 5
 1152              	.LBB180:
 1153              	.LBB181:
 171:src/../h/riscv.h **** }
 1154              		.loc 2 171 5
 1155 038c 93072004 		li	a5,66
 1156              	 #APP
 1157              	# 171 "src/../h/riscv.h" 1
 1158              		mv a0, a5
 1159              	# 0 "" 2
 1160              	.LVL99:
 1161              	 #NO_APP
 1162              	.LBE181:
 1163              	.LBE180:
 161:src/syscall_c.cpp **** 
 162:src/syscall_c.cpp ****     __asm__ volatile("ecall");
 1164              		.loc 1 162 5
 1165              	 #APP
 1166              	# 162 "src/syscall_c.cpp" 1
 163              	
 164:src/syscall_c.cpp **** }
 1167              		ecall
 1168              	# 0 "" 2
 1169              		.loc 1 164 1 is_stmt 0
 1170              	 #NO_APP
 1171 0398 83308101 		ld	ra,24(sp)
 1172              		.cfi_restore 1
 1173 039c 03340101 		ld	s0,16(sp)
 1174              		.cfi_restore 8
 1175              		.cfi_def_cfa 2, 32
 1176 03a0 83348100 		ld	s1,8(sp)
 1177              		.cfi_restore 9
 1178 03a4 13010102 		addi	sp,sp,32
 1179              		.cfi_def_cfa_offset 0
GAS LISTING C:\msys64\tmp\cczwVG08.s 			page 29


 1180 03a8 67800000 		jr	ra
 1181              		.cfi_endproc
 1182              	.LFE36:
 1184              	.Letext0:
 1185              		.file 4 "src/../h/../lib/hw.h"
 1186              		.file 5 "src/../h/syscall_c.h"
 1187              		.file 6 "src/../h/../h/Semaphore.h"
 1188              		.file 7 "src/../h/../h/Buffer.h"
GAS LISTING C:\msys64\tmp\cczwVG08.s 			page 30


DEFINED SYMBOLS
                            *ABS*:0000000000000000 syscall_c.cpp
C:\msys64\tmp\cczwVG08.s:12     .text:0000000000000000 _Z9mem_allocm
C:\msys64\tmp\cczwVG08.s:16     .text:0000000000000000 .L0 
C:\msys64\tmp\cczwVG08.s:18     .text:0000000000000000 .L0 
C:\msys64\tmp\cczwVG08.s:19     .text:0000000000000004 .L0 
C:\msys64\tmp\cczwVG08.s:21     .text:0000000000000008 .L0 
C:\msys64\tmp\cczwVG08.s:23     .text:000000000000000c .L0 
C:\msys64\tmp\cczwVG08.s:25     .text:000000000000000c .L0 
C:\msys64\tmp\cczwVG08.s:26     .text:000000000000000c .L0 
C:\msys64\tmp\cczwVG08.s:29     .text:0000000000000010 .L0 
C:\msys64\tmp\cczwVG08.s:35     .text:0000000000000014 .L0 
    src/../h/riscv.h:171    .text:0000000000000014 .L0 
C:\msys64\tmp\cczwVG08.s:47     .text:0000000000000018 .L0 
C:\msys64\tmp\cczwVG08.s:48     .text:0000000000000018 .L0 
   src/syscall_c.cpp:11     .text:0000000000000020 .L0 
C:\msys64\tmp\cczwVG08.s:67     .text:0000000000000024 .L0 
C:\msys64\tmp\cczwVG08.s:68     .text:0000000000000024 .L0 
    src/../h/riscv.h:165    .text:0000000000000024 .L0 
C:\msys64\tmp\cczwVG08.s:78     .text:0000000000000028 .L0 
C:\msys64\tmp\cczwVG08.s:79     .text:0000000000000028 .L0 
C:\msys64\tmp\cczwVG08.s:81     .text:000000000000002c .L0 
C:\msys64\tmp\cczwVG08.s:82     .text:000000000000002c .L0 
C:\msys64\tmp\cczwVG08.s:85     .text:0000000000000030 .L0 
C:\msys64\tmp\cczwVG08.s:86     .text:0000000000000034 .L0 
C:\msys64\tmp\cczwVG08.s:87     .text:0000000000000034 .L0 
C:\msys64\tmp\cczwVG08.s:89     .text:0000000000000038 .L0 
C:\msys64\tmp\cczwVG08.s:91     .text:000000000000003c .L0 
C:\msys64\tmp\cczwVG08.s:97     .text:000000000000003c _Z8mem_freePv
C:\msys64\tmp\cczwVG08.s:100    .text:000000000000003c .L0 
C:\msys64\tmp\cczwVG08.s:102    .text:000000000000003c .L0 
C:\msys64\tmp\cczwVG08.s:103    .text:0000000000000040 .L0 
C:\msys64\tmp\cczwVG08.s:105    .text:0000000000000044 .L0 
C:\msys64\tmp\cczwVG08.s:107    .text:0000000000000048 .L0 
C:\msys64\tmp\cczwVG08.s:112    .text:0000000000000048 .L0 
    src/../h/riscv.h:171    .text:0000000000000048 .L0 
C:\msys64\tmp\cczwVG08.s:124    .text:000000000000004c .L0 
C:\msys64\tmp\cczwVG08.s:125    .text:000000000000004c .L0 
   src/syscall_c.cpp:23     .text:0000000000000054 .L0 
C:\msys64\tmp\cczwVG08.s:144    .text:0000000000000058 .L0 
C:\msys64\tmp\cczwVG08.s:145    .text:0000000000000058 .L0 
    src/../h/riscv.h:165    .text:0000000000000058 .L0 
C:\msys64\tmp\cczwVG08.s:155    .text:000000000000005c .L0 
C:\msys64\tmp\cczwVG08.s:156    .text:000000000000005c .L0 
C:\msys64\tmp\cczwVG08.s:158    .text:0000000000000060 .L0 
C:\msys64\tmp\cczwVG08.s:159    .text:0000000000000060 .L0 
C:\msys64\tmp\cczwVG08.s:162    .text:0000000000000064 .L0 
C:\msys64\tmp\cczwVG08.s:164    .text:000000000000006c .L0 
C:\msys64\tmp\cczwVG08.s:165    .text:000000000000006c .L0 
C:\msys64\tmp\cczwVG08.s:167    .text:0000000000000070 .L0 
C:\msys64\tmp\cczwVG08.s:169    .text:0000000000000074 .L0 
C:\msys64\tmp\cczwVG08.s:175    .text:0000000000000074 _Z13thread_createPP7_threadPFvPvES2_
C:\msys64\tmp\cczwVG08.s:178    .text:0000000000000074 .L0 
C:\msys64\tmp\cczwVG08.s:180    .text:0000000000000074 .L0 
C:\msys64\tmp\cczwVG08.s:181    .text:0000000000000078 .L0 
C:\msys64\tmp\cczwVG08.s:187    .text:000000000000008c .L0 
C:\msys64\tmp\cczwVG08.s:188    .text:000000000000008c .L0 
GAS LISTING C:\msys64\tmp\cczwVG08.s 			page 31


C:\msys64\tmp\cczwVG08.s:189    .text:000000000000008c .L0 
C:\msys64\tmp\cczwVG08.s:190    .text:000000000000008c .L0 
C:\msys64\tmp\cczwVG08.s:191    .text:000000000000008c .L0 
C:\msys64\tmp\cczwVG08.s:193    .text:0000000000000090 .L0 
C:\msys64\tmp\cczwVG08.s:198    .text:000000000000009c .L0 
C:\msys64\tmp\cczwVG08.s:199    .text:000000000000009c .L0 
C:\msys64\tmp\cczwVG08.s:201    .text:00000000000000a0 .L0 
C:\msys64\tmp\cczwVG08.s:203    .text:00000000000000a4 .L0 
C:\msys64\tmp\cczwVG08.s:204    .text:00000000000000a4 .L0 
C:\msys64\tmp\cczwVG08.s:209    .text:00000000000000b0 .L0 
C:\msys64\tmp\cczwVG08.s:212    .text:00000000000000b4 .L0 
C:\msys64\tmp\cczwVG08.s:213    .text:00000000000000b4 .L0 
    src/../h/riscv.h:171    .text:00000000000000b8 .L0 
C:\msys64\tmp\cczwVG08.s:229    .text:00000000000000bc .L0 
    src/../h/riscv.h:171    .text:00000000000000bc .L0 
C:\msys64\tmp\cczwVG08.s:241    .text:00000000000000c0 .L0 
    src/../h/riscv.h:171    .text:00000000000000c0 .L0 
C:\msys64\tmp\cczwVG08.s:253    .text:00000000000000c4 .L0 
    src/../h/riscv.h:171    .text:00000000000000c4 .L0 
C:\msys64\tmp\cczwVG08.s:265    .text:00000000000000c8 .L0 
C:\msys64\tmp\cczwVG08.s:266    .text:00000000000000c8 .L0 
   src/syscall_c.cpp:43     .text:00000000000000d0 .L0 
C:\msys64\tmp\cczwVG08.s:285    .text:00000000000000d4 .L0 
C:\msys64\tmp\cczwVG08.s:286    .text:00000000000000d4 .L0 
    src/../h/riscv.h:165    .text:00000000000000d4 .L0 
C:\msys64\tmp\cczwVG08.s:296    .text:00000000000000d8 .L0 
C:\msys64\tmp\cczwVG08.s:297    .text:00000000000000d8 .L0 
C:\msys64\tmp\cczwVG08.s:299    .text:00000000000000dc .L0 
C:\msys64\tmp\cczwVG08.s:300    .text:00000000000000dc .L0 
C:\msys64\tmp\cczwVG08.s:302    .text:00000000000000e0 .L0 
C:\msys64\tmp\cczwVG08.s:304    .text:00000000000000e8 .L0 
C:\msys64\tmp\cczwVG08.s:306    .text:00000000000000ec .L0 
C:\msys64\tmp\cczwVG08.s:307    .text:00000000000000ec .L0 
C:\msys64\tmp\cczwVG08.s:309    .text:00000000000000f0 .L0 
C:\msys64\tmp\cczwVG08.s:312    .text:00000000000000f4 .L0 
C:\msys64\tmp\cczwVG08.s:315    .text:00000000000000f8 .L0 
C:\msys64\tmp\cczwVG08.s:318    .text:00000000000000fc .L0 
C:\msys64\tmp\cczwVG08.s:320    .text:0000000000000100 .L0 
C:\msys64\tmp\cczwVG08.s:326    .text:0000000000000100 _Z15thread_dispatchv
C:\msys64\tmp\cczwVG08.s:329    .text:0000000000000100 .L0 
C:\msys64\tmp\cczwVG08.s:330    .text:0000000000000100 .L0 
C:\msys64\tmp\cczwVG08.s:331    .text:0000000000000104 .L0 
C:\msys64\tmp\cczwVG08.s:333    .text:0000000000000108 .L0 
C:\msys64\tmp\cczwVG08.s:335    .text:000000000000010c .L0 
C:\msys64\tmp\cczwVG08.s:340    .text:000000000000010c .L0 
C:\msys64\tmp\cczwVG08.s:341    .text:000000000000010c .L0 
   src/syscall_c.cpp:52     .text:0000000000000114 .L0 
C:\msys64\tmp\cczwVG08.s:357    .text:0000000000000118 .L0 
C:\msys64\tmp\cczwVG08.s:358    .text:000000000000011c .L0 
C:\msys64\tmp\cczwVG08.s:359    .text:000000000000011c .L0 
C:\msys64\tmp\cczwVG08.s:361    .text:0000000000000120 .L0 
C:\msys64\tmp\cczwVG08.s:363    .text:0000000000000124 .L0 
C:\msys64\tmp\cczwVG08.s:369    .text:0000000000000124 _Z11thread_exitv
C:\msys64\tmp\cczwVG08.s:372    .text:0000000000000124 .L0 
C:\msys64\tmp\cczwVG08.s:373    .text:0000000000000124 .L0 
C:\msys64\tmp\cczwVG08.s:374    .text:0000000000000128 .L0 
C:\msys64\tmp\cczwVG08.s:376    .text:000000000000012c .L0 
GAS LISTING C:\msys64\tmp\cczwVG08.s 			page 32


C:\msys64\tmp\cczwVG08.s:378    .text:0000000000000130 .L0 
C:\msys64\tmp\cczwVG08.s:383    .text:0000000000000130 .L0 
C:\msys64\tmp\cczwVG08.s:384    .text:0000000000000130 .L0 
   src/syscall_c.cpp:59     .text:0000000000000138 .L0 
C:\msys64\tmp\cczwVG08.s:403    .text:000000000000013c .L0 
C:\msys64\tmp\cczwVG08.s:404    .text:000000000000013c .L0 
    src/../h/riscv.h:165    .text:000000000000013c .L0 
C:\msys64\tmp\cczwVG08.s:414    .text:0000000000000140 .L0 
C:\msys64\tmp\cczwVG08.s:415    .text:0000000000000140 .L0 
C:\msys64\tmp\cczwVG08.s:417    .text:0000000000000144 .L0 
C:\msys64\tmp\cczwVG08.s:418    .text:0000000000000144 .L0 
C:\msys64\tmp\cczwVG08.s:420    .text:0000000000000148 .L0 
C:\msys64\tmp\cczwVG08.s:422    .text:0000000000000150 .L0 
C:\msys64\tmp\cczwVG08.s:423    .text:0000000000000150 .L0 
C:\msys64\tmp\cczwVG08.s:425    .text:0000000000000154 .L0 
C:\msys64\tmp\cczwVG08.s:427    .text:0000000000000158 .L0 
C:\msys64\tmp\cczwVG08.s:433    .text:0000000000000158 _Z8sem_openPP4_semj
C:\msys64\tmp\cczwVG08.s:436    .text:0000000000000158 .L0 
C:\msys64\tmp\cczwVG08.s:438    .text:0000000000000158 .L0 
C:\msys64\tmp\cczwVG08.s:439    .text:000000000000015c .L0 
C:\msys64\tmp\cczwVG08.s:441    .text:0000000000000160 .L0 
C:\msys64\tmp\cczwVG08.s:443    .text:0000000000000164 .L0 
C:\msys64\tmp\cczwVG08.s:445    .text:0000000000000164 .L0 
C:\msys64\tmp\cczwVG08.s:446    .text:0000000000000164 .L0 
    src/../h/riscv.h:171    .text:000000000000016c .L0 
C:\msys64\tmp\cczwVG08.s:464    .text:0000000000000170 .L0 
    src/../h/riscv.h:171    .text:0000000000000170 .L0 
C:\msys64\tmp\cczwVG08.s:476    .text:0000000000000174 .L0 
C:\msys64\tmp\cczwVG08.s:477    .text:0000000000000174 .L0 
   src/syscall_c.cpp:72     .text:000000000000017c .L0 
C:\msys64\tmp\cczwVG08.s:496    .text:0000000000000180 .L0 
C:\msys64\tmp\cczwVG08.s:497    .text:0000000000000180 .L0 
    src/../h/riscv.h:165    .text:0000000000000180 .L0 
C:\msys64\tmp\cczwVG08.s:507    .text:0000000000000184 .L0 
C:\msys64\tmp\cczwVG08.s:508    .text:0000000000000184 .L0 
C:\msys64\tmp\cczwVG08.s:510    .text:0000000000000188 .L0 
C:\msys64\tmp\cczwVG08.s:511    .text:0000000000000188 .L0 
C:\msys64\tmp\cczwVG08.s:514    .text:000000000000018c .L0 
C:\msys64\tmp\cczwVG08.s:516    .text:0000000000000194 .L0 
C:\msys64\tmp\cczwVG08.s:517    .text:0000000000000194 .L0 
C:\msys64\tmp\cczwVG08.s:519    .text:0000000000000198 .L0 
C:\msys64\tmp\cczwVG08.s:521    .text:000000000000019c .L0 
C:\msys64\tmp\cczwVG08.s:527    .text:000000000000019c _Z9sem_closeP4_sem
C:\msys64\tmp\cczwVG08.s:530    .text:000000000000019c .L0 
C:\msys64\tmp\cczwVG08.s:532    .text:000000000000019c .L0 
C:\msys64\tmp\cczwVG08.s:533    .text:00000000000001a0 .L0 
C:\msys64\tmp\cczwVG08.s:535    .text:00000000000001a4 .L0 
C:\msys64\tmp\cczwVG08.s:537    .text:00000000000001a8 .L0 
C:\msys64\tmp\cczwVG08.s:542    .text:00000000000001a8 .L0 
    src/../h/riscv.h:171    .text:00000000000001a8 .L0 
C:\msys64\tmp\cczwVG08.s:554    .text:00000000000001ac .L0 
C:\msys64\tmp\cczwVG08.s:555    .text:00000000000001ac .L0 
   src/syscall_c.cpp:84     .text:00000000000001b4 .L0 
C:\msys64\tmp\cczwVG08.s:574    .text:00000000000001b8 .L0 
C:\msys64\tmp\cczwVG08.s:575    .text:00000000000001b8 .L0 
    src/../h/riscv.h:165    .text:00000000000001b8 .L0 
C:\msys64\tmp\cczwVG08.s:585    .text:00000000000001bc .L0 
GAS LISTING C:\msys64\tmp\cczwVG08.s 			page 33


C:\msys64\tmp\cczwVG08.s:586    .text:00000000000001bc .L0 
C:\msys64\tmp\cczwVG08.s:588    .text:00000000000001c0 .L0 
C:\msys64\tmp\cczwVG08.s:589    .text:00000000000001c0 .L0 
C:\msys64\tmp\cczwVG08.s:592    .text:00000000000001c4 .L0 
C:\msys64\tmp\cczwVG08.s:594    .text:00000000000001cc .L0 
C:\msys64\tmp\cczwVG08.s:595    .text:00000000000001cc .L0 
C:\msys64\tmp\cczwVG08.s:597    .text:00000000000001d0 .L0 
C:\msys64\tmp\cczwVG08.s:599    .text:00000000000001d4 .L0 
C:\msys64\tmp\cczwVG08.s:605    .text:00000000000001d4 _Z8sem_waitP4_sem
C:\msys64\tmp\cczwVG08.s:608    .text:00000000000001d4 .L0 
C:\msys64\tmp\cczwVG08.s:610    .text:00000000000001d4 .L0 
C:\msys64\tmp\cczwVG08.s:611    .text:00000000000001d8 .L0 
C:\msys64\tmp\cczwVG08.s:613    .text:00000000000001dc .L0 
C:\msys64\tmp\cczwVG08.s:615    .text:00000000000001e0 .L0 
C:\msys64\tmp\cczwVG08.s:620    .text:00000000000001e0 .L0 
    src/../h/riscv.h:171    .text:00000000000001e0 .L0 
C:\msys64\tmp\cczwVG08.s:632    .text:00000000000001e4 .L0 
C:\msys64\tmp\cczwVG08.s:633    .text:00000000000001e4 .L0 
   src/syscall_c.cpp:95     .text:00000000000001ec .L0 
C:\msys64\tmp\cczwVG08.s:652    .text:00000000000001f0 .L0 
C:\msys64\tmp\cczwVG08.s:653    .text:00000000000001f0 .L0 
    src/../h/riscv.h:165    .text:00000000000001f0 .L0 
C:\msys64\tmp\cczwVG08.s:663    .text:00000000000001f4 .L0 
C:\msys64\tmp\cczwVG08.s:664    .text:00000000000001f4 .L0 
C:\msys64\tmp\cczwVG08.s:666    .text:00000000000001f8 .L0 
C:\msys64\tmp\cczwVG08.s:667    .text:00000000000001f8 .L0 
C:\msys64\tmp\cczwVG08.s:670    .text:00000000000001fc .L0 
C:\msys64\tmp\cczwVG08.s:672    .text:0000000000000204 .L0 
C:\msys64\tmp\cczwVG08.s:673    .text:0000000000000204 .L0 
C:\msys64\tmp\cczwVG08.s:675    .text:0000000000000208 .L0 
C:\msys64\tmp\cczwVG08.s:677    .text:000000000000020c .L0 
C:\msys64\tmp\cczwVG08.s:683    .text:000000000000020c _Z10sem_signalP4_sem
C:\msys64\tmp\cczwVG08.s:686    .text:000000000000020c .L0 
C:\msys64\tmp\cczwVG08.s:688    .text:000000000000020c .L0 
C:\msys64\tmp\cczwVG08.s:689    .text:0000000000000210 .L0 
C:\msys64\tmp\cczwVG08.s:691    .text:0000000000000214 .L0 
C:\msys64\tmp\cczwVG08.s:693    .text:0000000000000218 .L0 
C:\msys64\tmp\cczwVG08.s:698    .text:0000000000000218 .L0 
    src/../h/riscv.h:171    .text:0000000000000218 .L0 
C:\msys64\tmp\cczwVG08.s:710    .text:000000000000021c .L0 
C:\msys64\tmp\cczwVG08.s:711    .text:000000000000021c .L0 
   src/syscall_c.cpp:106    .text:0000000000000224 .L0 
C:\msys64\tmp\cczwVG08.s:730    .text:0000000000000228 .L0 
C:\msys64\tmp\cczwVG08.s:731    .text:0000000000000228 .L0 
    src/../h/riscv.h:165    .text:0000000000000228 .L0 
C:\msys64\tmp\cczwVG08.s:741    .text:000000000000022c .L0 
C:\msys64\tmp\cczwVG08.s:742    .text:000000000000022c .L0 
C:\msys64\tmp\cczwVG08.s:744    .text:0000000000000230 .L0 
C:\msys64\tmp\cczwVG08.s:745    .text:0000000000000230 .L0 
C:\msys64\tmp\cczwVG08.s:748    .text:0000000000000234 .L0 
C:\msys64\tmp\cczwVG08.s:750    .text:000000000000023c .L0 
C:\msys64\tmp\cczwVG08.s:751    .text:000000000000023c .L0 
C:\msys64\tmp\cczwVG08.s:753    .text:0000000000000240 .L0 
C:\msys64\tmp\cczwVG08.s:755    .text:0000000000000244 .L0 
C:\msys64\tmp\cczwVG08.s:761    .text:0000000000000244 _Z10sem_wait_nP4_semj
C:\msys64\tmp\cczwVG08.s:764    .text:0000000000000244 .L0 
C:\msys64\tmp\cczwVG08.s:766    .text:0000000000000244 .L0 
GAS LISTING C:\msys64\tmp\cczwVG08.s 			page 34


C:\msys64\tmp\cczwVG08.s:767    .text:0000000000000248 .L0 
C:\msys64\tmp\cczwVG08.s:769    .text:000000000000024c .L0 
C:\msys64\tmp\cczwVG08.s:771    .text:0000000000000250 .L0 
C:\msys64\tmp\cczwVG08.s:773    .text:0000000000000250 .L0 
C:\msys64\tmp\cczwVG08.s:774    .text:0000000000000250 .L0 
    src/../h/riscv.h:171    .text:0000000000000258 .L0 
C:\msys64\tmp\cczwVG08.s:792    .text:000000000000025c .L0 
    src/../h/riscv.h:171    .text:000000000000025c .L0 
C:\msys64\tmp\cczwVG08.s:804    .text:0000000000000260 .L0 
C:\msys64\tmp\cczwVG08.s:805    .text:0000000000000260 .L0 
   src/syscall_c.cpp:119    .text:0000000000000268 .L0 
C:\msys64\tmp\cczwVG08.s:824    .text:000000000000026c .L0 
C:\msys64\tmp\cczwVG08.s:825    .text:000000000000026c .L0 
    src/../h/riscv.h:165    .text:000000000000026c .L0 
C:\msys64\tmp\cczwVG08.s:835    .text:0000000000000270 .L0 
C:\msys64\tmp\cczwVG08.s:836    .text:0000000000000270 .L0 
C:\msys64\tmp\cczwVG08.s:838    .text:0000000000000274 .L0 
C:\msys64\tmp\cczwVG08.s:839    .text:0000000000000274 .L0 
C:\msys64\tmp\cczwVG08.s:842    .text:0000000000000278 .L0 
C:\msys64\tmp\cczwVG08.s:844    .text:0000000000000280 .L0 
C:\msys64\tmp\cczwVG08.s:845    .text:0000000000000280 .L0 
C:\msys64\tmp\cczwVG08.s:847    .text:0000000000000284 .L0 
C:\msys64\tmp\cczwVG08.s:849    .text:0000000000000288 .L0 
C:\msys64\tmp\cczwVG08.s:855    .text:0000000000000288 _Z12sem_signal_nP4_semj
C:\msys64\tmp\cczwVG08.s:858    .text:0000000000000288 .L0 
C:\msys64\tmp\cczwVG08.s:860    .text:0000000000000288 .L0 
C:\msys64\tmp\cczwVG08.s:861    .text:000000000000028c .L0 
C:\msys64\tmp\cczwVG08.s:863    .text:0000000000000290 .L0 
C:\msys64\tmp\cczwVG08.s:865    .text:0000000000000294 .L0 
C:\msys64\tmp\cczwVG08.s:867    .text:0000000000000294 .L0 
C:\msys64\tmp\cczwVG08.s:868    .text:0000000000000294 .L0 
    src/../h/riscv.h:171    .text:000000000000029c .L0 
C:\msys64\tmp\cczwVG08.s:886    .text:00000000000002a0 .L0 
    src/../h/riscv.h:171    .text:00000000000002a0 .L0 
C:\msys64\tmp\cczwVG08.s:898    .text:00000000000002a4 .L0 
C:\msys64\tmp\cczwVG08.s:899    .text:00000000000002a4 .L0 
   src/syscall_c.cpp:131    .text:00000000000002ac .L0 
C:\msys64\tmp\cczwVG08.s:918    .text:00000000000002b0 .L0 
C:\msys64\tmp\cczwVG08.s:919    .text:00000000000002b0 .L0 
    src/../h/riscv.h:165    .text:00000000000002b0 .L0 
C:\msys64\tmp\cczwVG08.s:929    .text:00000000000002b4 .L0 
C:\msys64\tmp\cczwVG08.s:930    .text:00000000000002b4 .L0 
C:\msys64\tmp\cczwVG08.s:932    .text:00000000000002b8 .L0 
C:\msys64\tmp\cczwVG08.s:933    .text:00000000000002b8 .L0 
C:\msys64\tmp\cczwVG08.s:936    .text:00000000000002bc .L0 
C:\msys64\tmp\cczwVG08.s:938    .text:00000000000002c4 .L0 
C:\msys64\tmp\cczwVG08.s:939    .text:00000000000002c4 .L0 
C:\msys64\tmp\cczwVG08.s:941    .text:00000000000002c8 .L0 
C:\msys64\tmp\cczwVG08.s:943    .text:00000000000002cc .L0 
C:\msys64\tmp\cczwVG08.s:949    .text:00000000000002cc _Z10time_sleepm
C:\msys64\tmp\cczwVG08.s:952    .text:00000000000002cc .L0 
C:\msys64\tmp\cczwVG08.s:954    .text:00000000000002cc .L0 
C:\msys64\tmp\cczwVG08.s:955    .text:00000000000002d0 .L0 
C:\msys64\tmp\cczwVG08.s:957    .text:00000000000002d4 .L0 
C:\msys64\tmp\cczwVG08.s:959    .text:00000000000002d8 .L0 
C:\msys64\tmp\cczwVG08.s:964    .text:00000000000002d8 .L0 
    src/../h/riscv.h:171    .text:00000000000002d8 .L0 
GAS LISTING C:\msys64\tmp\cczwVG08.s 			page 35


C:\msys64\tmp\cczwVG08.s:976    .text:00000000000002dc .L0 
C:\msys64\tmp\cczwVG08.s:977    .text:00000000000002dc .L0 
   src/syscall_c.cpp:141    .text:00000000000002e4 .L0 
C:\msys64\tmp\cczwVG08.s:996    .text:00000000000002e8 .L0 
C:\msys64\tmp\cczwVG08.s:997    .text:00000000000002e8 .L0 
    src/../h/riscv.h:165    .text:00000000000002e8 .L0 
C:\msys64\tmp\cczwVG08.s:1007   .text:00000000000002ec .L0 
C:\msys64\tmp\cczwVG08.s:1008   .text:00000000000002ec .L0 
C:\msys64\tmp\cczwVG08.s:1010   .text:00000000000002f0 .L0 
C:\msys64\tmp\cczwVG08.s:1011   .text:00000000000002f0 .L0 
C:\msys64\tmp\cczwVG08.s:1014   .text:00000000000002f4 .L0 
C:\msys64\tmp\cczwVG08.s:1016   .text:00000000000002fc .L0 
C:\msys64\tmp\cczwVG08.s:1017   .text:00000000000002fc .L0 
C:\msys64\tmp\cczwVG08.s:1019   .text:0000000000000300 .L0 
C:\msys64\tmp\cczwVG08.s:1021   .text:0000000000000304 .L0 
C:\msys64\tmp\cczwVG08.s:1027   .text:0000000000000304 _Z4getcv
C:\msys64\tmp\cczwVG08.s:1030   .text:0000000000000304 .L0 
C:\msys64\tmp\cczwVG08.s:1031   .text:0000000000000304 .L0 
C:\msys64\tmp\cczwVG08.s:1032   .text:0000000000000308 .L0 
C:\msys64\tmp\cczwVG08.s:1035   .text:0000000000000310 .L0 
C:\msys64\tmp\cczwVG08.s:1036   .text:0000000000000310 .L0 
C:\msys64\tmp\cczwVG08.s:1038   .text:0000000000000314 .L0 
C:\msys64\tmp\cczwVG08.s:1043   .text:0000000000000314 .L0 
C:\msys64\tmp\cczwVG08.s:1044   .text:0000000000000314 .L0 
C:\msys64\tmp\cczwVG08.s:1045   .text:0000000000000314 .L0 
C:\msys64\tmp\cczwVG08.s:1050   .text:000000000000031c .L0 
C:\msys64\tmp\cczwVG08.s:1051   .text:000000000000031c .L0 
C:\msys64\tmp\cczwVG08.s:1057   .text:000000000000032c .L0 
C:\msys64\tmp\cczwVG08.s:1058   .text:000000000000032c .L0 
   src/syscall_c.cpp:151    .text:0000000000000334 .L0 
C:\msys64\tmp\cczwVG08.s:1077   .text:0000000000000338 .L0 
C:\msys64\tmp\cczwVG08.s:1078   .text:0000000000000338 .L0 
    src/../h/riscv.h:165    .text:0000000000000338 .L0 
C:\msys64\tmp\cczwVG08.s:1088   .text:000000000000033c .L0 
C:\msys64\tmp\cczwVG08.s:1089   .text:000000000000033c .L0 
C:\msys64\tmp\cczwVG08.s:1091   .text:0000000000000340 .L0 
C:\msys64\tmp\cczwVG08.s:1092   .text:0000000000000340 .L0 
C:\msys64\tmp\cczwVG08.s:1094   .text:0000000000000344 .L0 
C:\msys64\tmp\cczwVG08.s:1096   .text:000000000000034c .L0 
C:\msys64\tmp\cczwVG08.s:1098   .text:0000000000000350 .L0 
C:\msys64\tmp\cczwVG08.s:1099   .text:0000000000000350 .L0 
C:\msys64\tmp\cczwVG08.s:1101   .text:0000000000000354 .L0 
C:\msys64\tmp\cczwVG08.s:1103   .text:0000000000000358 .L0 
C:\msys64\tmp\cczwVG08.s:1109   .text:0000000000000358 _Z4putcc
C:\msys64\tmp\cczwVG08.s:1112   .text:0000000000000358 .L0 
C:\msys64\tmp\cczwVG08.s:1114   .text:0000000000000358 .L0 
C:\msys64\tmp\cczwVG08.s:1115   .text:000000000000035c .L0 
C:\msys64\tmp\cczwVG08.s:1119   .text:0000000000000368 .L0 
C:\msys64\tmp\cczwVG08.s:1120   .text:0000000000000368 .L0 
C:\msys64\tmp\cczwVG08.s:1121   .text:0000000000000368 .L0 
C:\msys64\tmp\cczwVG08.s:1123   .text:000000000000036c .L0 
C:\msys64\tmp\cczwVG08.s:1128   .text:0000000000000370 .L0 
C:\msys64\tmp\cczwVG08.s:1129   .text:0000000000000370 .L0 
C:\msys64\tmp\cczwVG08.s:1130   .text:0000000000000370 .L0 
C:\msys64\tmp\cczwVG08.s:1135   .text:0000000000000378 .L0 
C:\msys64\tmp\cczwVG08.s:1136   .text:0000000000000378 .L0 
C:\msys64\tmp\cczwVG08.s:1142   .text:0000000000000388 .L0 
GAS LISTING C:\msys64\tmp\cczwVG08.s 			page 36


    src/../h/riscv.h:171    .text:0000000000000388 .L0 
C:\msys64\tmp\cczwVG08.s:1154   .text:000000000000038c .L0 
C:\msys64\tmp\cczwVG08.s:1155   .text:000000000000038c .L0 
   src/syscall_c.cpp:162    .text:0000000000000394 .L0 
C:\msys64\tmp\cczwVG08.s:1171   .text:0000000000000398 .L0 
C:\msys64\tmp\cczwVG08.s:1172   .text:000000000000039c .L0 
C:\msys64\tmp\cczwVG08.s:1174   .text:00000000000003a0 .L0 
C:\msys64\tmp\cczwVG08.s:1175   .text:00000000000003a0 .L0 
C:\msys64\tmp\cczwVG08.s:1177   .text:00000000000003a4 .L0 
C:\msys64\tmp\cczwVG08.s:1179   .text:00000000000003a8 .L0 
C:\msys64\tmp\cczwVG08.s:1181   .text:00000000000003ac .L0 
C:\msys64\tmp\cczwVG08.s:1189   .text:00000000000003ac .L0 
C:\msys64\tmp\cczwVG08.s:1051   .text:000000000000031c .L0 
C:\msys64\tmp\cczwVG08.s:1136   .text:0000000000000378 .L0 
C:\msys64\tmp\cczwVG08.s:210    .text:00000000000000b4 .L6
C:\msys64\tmp\cczwVG08.s:3120   .debug_abbrev:0000000000000000 .Ldebug_abbrev0
C:\msys64\tmp\cczwVG08.s:5184   .debug_str:000000000000076e .LASF142
C:\msys64\tmp\cczwVG08.s:5028   .debug_str:000000000000034b .LASF143
C:\msys64\tmp\cczwVG08.s:5200   .debug_str:000000000000089b .LASF144
C:\msys64\tmp\cczwVG08.s:8      .text:0000000000000000 .Ltext0
C:\msys64\tmp\cczwVG08.s:1184   .text:00000000000003ac .Letext0
C:\msys64\tmp\cczwVG08.s:4910   .debug_line:0000000000000000 .Ldebug_line0
C:\msys64\tmp\cczwVG08.s:4984   .debug_str:0000000000000211 .LASF0
C:\msys64\tmp\cczwVG08.s:5012   .debug_str:00000000000002d7 .LASF1
C:\msys64\tmp\cczwVG08.s:5106   .debug_str:0000000000000563 .LASF2
C:\msys64\tmp\cczwVG08.s:5114   .debug_str:00000000000005a7 .LASF4
C:\msys64\tmp\cczwVG08.s:4998   .debug_str:0000000000000275 .LASF3
C:\msys64\tmp\cczwVG08.s:4920   .debug_str:0000000000000033 .LASF5
C:\msys64\tmp\cczwVG08.s:5072   .debug_str:000000000000048d .LASF6
C:\msys64\tmp\cczwVG08.s:5064   .debug_str:000000000000044e .LASF7
C:\msys64\tmp\cczwVG08.s:5004   .debug_str:000000000000029e .LASF8
C:\msys64\tmp\cczwVG08.s:4940   .debug_str:00000000000000b0 .LASF9
C:\msys64\tmp\cczwVG08.s:5144   .debug_str:0000000000000673 .LASF10
C:\msys64\tmp\cczwVG08.s:4960   .debug_str:0000000000000155 .LASF11
C:\msys64\tmp\cczwVG08.s:5130   .debug_str:000000000000060e .LASF12
C:\msys64\tmp\cczwVG08.s:5160   .debug_str:00000000000006da .LASF13
C:\msys64\tmp\cczwVG08.s:4928   .debug_str:0000000000000060 .LASF145
C:\msys64\tmp\cczwVG08.s:5196   .debug_str:000000000000088e .LASF14
C:\msys64\tmp\cczwVG08.s:5140   .debug_str:0000000000000660 .LASF16
C:\msys64\tmp\cczwVG08.s:5210   .debug_str:0000000000000907 .LASF15
C:\msys64\tmp\cczwVG08.s:5128   .debug_str:0000000000000601 .LASF17
C:\msys64\tmp\cczwVG08.s:5060   .debug_str:000000000000042f .LASF18
C:\msys64\tmp\cczwVG08.s:4950   .debug_str:0000000000000105 .LASF19
C:\msys64\tmp\cczwVG08.s:5048   .debug_str:00000000000003e2 .LASF21
C:\msys64\tmp\cczwVG08.s:5150   .debug_str:000000000000069c .LASF20
C:\msys64\tmp\cczwVG08.s:5134   .debug_str:0000000000000633 .LASF22
C:\msys64\tmp\cczwVG08.s:4926   .debug_str:000000000000005a .LASF23
C:\msys64\tmp\cczwVG08.s:4930   .debug_str:0000000000000068 .LASF24
C:\msys64\tmp\cczwVG08.s:5066   .debug_str:0000000000000461 .LASF25
C:\msys64\tmp\cczwVG08.s:5062   .debug_str:000000000000043c .LASF26
C:\msys64\tmp\cczwVG08.s:4966   .debug_str:000000000000017d .LASF27
C:\msys64\tmp\cczwVG08.s:4986   .debug_str:000000000000021e .LASF28
C:\msys64\tmp\cczwVG08.s:4942   .debug_str:00000000000000bf .LASF146
C:\msys64\tmp\cczwVG08.s:5132   .debug_str:0000000000000624 .LASF76
C:\msys64\tmp\cczwVG08.s:5138   .debug_str:000000000000065b .LASF29
C:\msys64\tmp\cczwVG08.s:5052   .debug_str:00000000000003fa .LASF30
C:\msys64\tmp\cczwVG08.s:5176   .debug_str:000000000000073e .LASF31
GAS LISTING C:\msys64\tmp\cczwVG08.s 			page 37


C:\msys64\tmp\cczwVG08.s:5178   .debug_str:0000000000000745 .LASF32
C:\msys64\tmp\cczwVG08.s:4976   .debug_str:00000000000001d6 .LASF69
C:\msys64\tmp\cczwVG08.s:4982   .debug_str:00000000000001f9 .LASF71
C:\msys64\tmp\cczwVG08.s:5168   .debug_str:0000000000000712 .LASF34
C:\msys64\tmp\cczwVG08.s:5164   .debug_str:00000000000006f7 .LASF36
C:\msys64\tmp\cczwVG08.s:5100   .debug_str:0000000000000534 .LASF33
C:\msys64\tmp\cczwVG08.s:5058   .debug_str:000000000000041a .LASF39
C:\msys64\tmp\cczwVG08.s:5078   .debug_str:00000000000004b7 .LASF35
C:\msys64\tmp\cczwVG08.s:5082   .debug_str:00000000000004c3 .LASF37
C:\msys64\tmp\cczwVG08.s:5054   .debug_str:00000000000003ff .LASF38
C:\msys64\tmp\cczwVG08.s:5006   .debug_str:00000000000002b1 .LASF40
C:\msys64\tmp\cczwVG08.s:5190   .debug_str:0000000000000875 .LASF41
C:\msys64\tmp\cczwVG08.s:5162   .debug_str:00000000000006e3 .LASF42
C:\msys64\tmp\cczwVG08.s:5050   .debug_str:00000000000003f2 .LASF43
C:\msys64\tmp\cczwVG08.s:5056   .debug_str:0000000000000406 .LASF44
C:\msys64\tmp\cczwVG08.s:5014   .debug_str:00000000000002ea .LASF45
C:\msys64\tmp\cczwVG08.s:5086   .debug_str:00000000000004e0 .LASF46
C:\msys64\tmp\cczwVG08.s:5214   .debug_str:000000000000092c .LASF47
C:\msys64\tmp\cczwVG08.s:4992   .debug_str:000000000000023d .LASF48
C:\msys64\tmp\cczwVG08.s:4946   .debug_str:00000000000000ec .LASF49
C:\msys64\tmp\cczwVG08.s:5118   .debug_str:00000000000005b8 .LASF50
C:\msys64\tmp\cczwVG08.s:5120   .debug_str:00000000000005cb .LASF51
C:\msys64\tmp\cczwVG08.s:4956   .debug_str:0000000000000119 .LASF52
C:\msys64\tmp\cczwVG08.s:4952   .debug_str:000000000000010a .LASF53
C:\msys64\tmp\cczwVG08.s:4980   .debug_str:00000000000001e7 .LASF54
C:\msys64\tmp\cczwVG08.s:4990   .debug_str:0000000000000237 .LASF55
C:\msys64\tmp\cczwVG08.s:4948   .debug_str:00000000000000f3 .LASF56
C:\msys64\tmp\cczwVG08.s:4922   .debug_str:000000000000003a .LASF57
C:\msys64\tmp\cczwVG08.s:5110   .debug_str:000000000000057b .LASF58
C:\msys64\tmp\cczwVG08.s:5104   .debug_str:0000000000000558 .LASF59
C:\msys64\tmp\cczwVG08.s:5208   .debug_str:00000000000008ef .LASF60
C:\msys64\tmp\cczwVG08.s:5180   .debug_str:000000000000074b .LASF61
C:\msys64\tmp\cczwVG08.s:4944   .debug_str:00000000000000d6 .LASF62
C:\msys64\tmp\cczwVG08.s:5174   .debug_str:0000000000000734 .LASF63
C:\msys64\tmp\cczwVG08.s:5030   .debug_str:000000000000035d .LASF64
C:\msys64\tmp\cczwVG08.s:5002   .debug_str:0000000000000290 .LASF65
C:\msys64\tmp\cczwVG08.s:4970   .debug_str:00000000000001a2 .LASF66
C:\msys64\tmp\cczwVG08.s:5098   .debug_str:0000000000000525 .LASF67
C:\msys64\tmp\cczwVG08.s:4918   .debug_str:0000000000000016 .LASF68
C:\msys64\tmp\cczwVG08.s:5188   .debug_str:0000000000000866 .LASF70
C:\msys64\tmp\cczwVG08.s:4968   .debug_str:0000000000000186 .LASF72
C:\msys64\tmp\cczwVG08.s:5068   .debug_str:0000000000000468 .LASF147
C:\msys64\tmp\cczwVG08.s:4958   .debug_str:000000000000012c .LASF148
C:\msys64\tmp\cczwVG08.s:5020   .debug_str:0000000000000321 .LASF73
C:\msys64\tmp\cczwVG08.s:5042   .debug_str:00000000000003ba .LASF74
C:\msys64\tmp\cczwVG08.s:5032   .debug_str:0000000000000373 .LASF75
C:\msys64\tmp\cczwVG08.s:4994   .debug_str:0000000000000251 .LASF77
C:\msys64\tmp\cczwVG08.s:5040   .debug_str:00000000000003a8 .LASF149
C:\msys64\tmp\cczwVG08.s:4916   .debug_str:000000000000000f .LASF78
C:\msys64\tmp\cczwVG08.s:5044   .debug_str:00000000000003c2 .LASF79
C:\msys64\tmp\cczwVG08.s:5096   .debug_str:000000000000051d .LASF80
C:\msys64\tmp\cczwVG08.s:5136   .debug_str:0000000000000645 .LASF81
C:\msys64\tmp\cczwVG08.s:4912   .debug_str:0000000000000000 .LASF82
C:\msys64\tmp\cczwVG08.s:4914   .debug_str:0000000000000006 .LASF150
C:\msys64\tmp\cczwVG08.s:4964   .debug_str:0000000000000176 .LASF83
C:\msys64\tmp\cczwVG08.s:5154   .debug_str:00000000000006ac .LASF84
C:\msys64\tmp\cczwVG08.s:5000   .debug_str:0000000000000287 .LASF85
GAS LISTING C:\msys64\tmp\cczwVG08.s 			page 38


C:\msys64\tmp\cczwVG08.s:4934   .debug_str:000000000000008c .LASF86
C:\msys64\tmp\cczwVG08.s:5022   .debug_str:0000000000000326 .LASF87
C:\msys64\tmp\cczwVG08.s:5108   .debug_str:0000000000000571 .LASF106
C:\msys64\tmp\cczwVG08.s:5036   .debug_str:000000000000038d .LASF107
C:\msys64\tmp\cczwVG08.s:4988   .debug_str:0000000000000232 .LASF88
C:\msys64\tmp\cczwVG08.s:5158   .debug_str:00000000000006c6 .LASF89
C:\msys64\tmp\cczwVG08.s:5026   .debug_str:0000000000000346 .LASF90
C:\msys64\tmp\cczwVG08.s:5148   .debug_str:0000000000000688 .LASF91
C:\msys64\tmp\cczwVG08.s:5116   .debug_str:00000000000005ae .LASF92
C:\msys64\tmp\cczwVG08.s:5016   .debug_str:00000000000002f2 .LASF93
C:\msys64\tmp\cczwVG08.s:4938   .debug_str:00000000000000a5 .LASF94
C:\msys64\tmp\cczwVG08.s:5122   .debug_str:00000000000005d2 .LASF95
C:\msys64\tmp\cczwVG08.s:5092   .debug_str:0000000000000509 .LASF96
C:\msys64\tmp\cczwVG08.s:5212   .debug_str:0000000000000914 .LASF97
C:\msys64\tmp\cczwVG08.s:5192   .debug_str:000000000000087d .LASF98
C:\msys64\tmp\cczwVG08.s:5182   .debug_str:0000000000000755 .LASF99
C:\msys64\tmp\cczwVG08.s:5124   .debug_str:00000000000005ed .LASF100
C:\msys64\tmp\cczwVG08.s:4936   .debug_str:000000000000009d .LASF101
C:\msys64\tmp\cczwVG08.s:5166   .debug_str:000000000000070c .LASF102
C:\msys64\tmp\cczwVG08.s:5038   .debug_str:00000000000003a1 .LASF103
C:\msys64\tmp\cczwVG08.s:5088   .debug_str:00000000000004f4 .LASF104
C:\msys64\tmp\cczwVG08.s:5076   .debug_str:00000000000004ac .LASF151
C:\msys64\tmp\cczwVG08.s:5102   .debug_str:000000000000053d .LASF152
C:\msys64\tmp\cczwVG08.s:5146   .debug_str:000000000000067f .LASF105
C:\msys64\tmp\cczwVG08.s:1110   .text:0000000000000358 .LFB36
C:\msys64\tmp\cczwVG08.s:1182   .text:00000000000003ac .LFE36
C:\msys64\tmp\cczwVG08.s:4053   .debug_loc:0000000000000000 .LLST86
C:\msys64\tmp\cczwVG08.s:1126   .text:0000000000000370 .LBB176
C:\msys64\tmp\cczwVG08.s:1134   .text:0000000000000378 .LBE176
C:\msys64\tmp\cczwVG08.s:1131   .text:0000000000000378 .LVL96
C:\msys64\tmp\cczwVG08.s:1140   .text:0000000000000388 .LBB178
C:\msys64\tmp\cczwVG08.s:1150   .text:000000000000038c .LBE178
C:\msys64\tmp\cczwVG08.s:4067   .debug_loc:0000000000000039 .LLST87
C:\msys64\tmp\cczwVG08.s:4074   .debug_loc:000000000000005c .LLST88
C:\msys64\tmp\cczwVG08.s:1152   .text:000000000000038c .LBB180
C:\msys64\tmp\cczwVG08.s:1163   .text:0000000000000394 .LBE180
C:\msys64\tmp\cczwVG08.s:4082   .debug_loc:0000000000000080 .LLST89
C:\msys64\tmp\cczwVG08.s:4091   .debug_loc:00000000000000a5 .LLST90
C:\msys64\tmp\cczwVG08.s:1138   .text:0000000000000388 .LVL97
C:\msys64\tmp\cczwVG08.s:5172   .debug_str:000000000000072b .LASF108
C:\msys64\tmp\cczwVG08.s:1028   .text:0000000000000304 .LFB35
C:\msys64\tmp\cczwVG08.s:1104   .text:0000000000000358 .LFE35
C:\msys64\tmp\cczwVG08.s:1040   .text:0000000000000314 .LBB170
C:\msys64\tmp\cczwVG08.s:1049   .text:000000000000031c .LBE170
C:\msys64\tmp\cczwVG08.s:1046   .text:000000000000031c .LVL90
C:\msys64\tmp\cczwVG08.s:1055   .text:000000000000032c .LBB172
C:\msys64\tmp\cczwVG08.s:1066   .text:0000000000000334 .LBE172
C:\msys64\tmp\cczwVG08.s:4099   .debug_loc:00000000000000c9 .LLST83
C:\msys64\tmp\cczwVG08.s:4108   .debug_loc:00000000000000ee .LLST84
C:\msys64\tmp\cczwVG08.s:1075   .text:0000000000000338 .LBB174
C:\msys64\tmp\cczwVG08.s:1087   .text:000000000000033c .LBE174
C:\msys64\tmp\cczwVG08.s:4116   .debug_loc:0000000000000112 .LLST85
C:\msys64\tmp\cczwVG08.s:1053   .text:000000000000032c .LVL91
C:\msys64\tmp\cczwVG08.s:4954   .debug_str:0000000000000110 .LASF109
C:\msys64\tmp\cczwVG08.s:5094   .debug_str:0000000000000512 .LASF110
C:\msys64\tmp\cczwVG08.s:5070   .debug_str:000000000000047d .LASF111
C:\msys64\tmp\cczwVG08.s:950    .text:00000000000002cc .LFB34
GAS LISTING C:\msys64\tmp\cczwVG08.s 			page 39


C:\msys64\tmp\cczwVG08.s:1022   .text:0000000000000304 .LFE34
C:\msys64\tmp\cczwVG08.s:4124   .debug_loc:0000000000000136 .LLST77
C:\msys64\tmp\cczwVG08.s:962    .text:00000000000002d8 .LBB164
C:\msys64\tmp\cczwVG08.s:972    .text:00000000000002dc .LBE164
C:\msys64\tmp\cczwVG08.s:4138   .debug_loc:000000000000016f .LLST78
C:\msys64\tmp\cczwVG08.s:4145   .debug_loc:0000000000000192 .LLST79
C:\msys64\tmp\cczwVG08.s:974    .text:00000000000002dc .LBB166
C:\msys64\tmp\cczwVG08.s:985    .text:00000000000002e4 .LBE166
C:\msys64\tmp\cczwVG08.s:4153   .debug_loc:00000000000001b6 .LLST80
C:\msys64\tmp\cczwVG08.s:4162   .debug_loc:00000000000001db .LLST81
C:\msys64\tmp\cczwVG08.s:994    .text:00000000000002e8 .LBB168
C:\msys64\tmp\cczwVG08.s:1006   .text:00000000000002ec .LBE168
C:\msys64\tmp\cczwVG08.s:4170   .debug_loc:00000000000001ff .LLST82
C:\msys64\tmp\cczwVG08.s:5126   .debug_str:00000000000005f4 .LASF112
C:\msys64\tmp\cczwVG08.s:5074   .debug_str:0000000000000494 .LASF113
C:\msys64\tmp\cczwVG08.s:856    .text:0000000000000288 .LFB33
C:\msys64\tmp\cczwVG08.s:944    .text:00000000000002cc .LFE33
C:\msys64\tmp\cczwVG08.s:4178   .debug_loc:0000000000000223 .LLST68
C:\msys64\tmp\cczwVG08.s:4192   .debug_loc:000000000000025c .LLST69
C:\msys64\tmp\cczwVG08.s:872    .text:000000000000029c .LBB156
C:\msys64\tmp\cczwVG08.s:882    .text:00000000000002a0 .LBE156
C:\msys64\tmp\cczwVG08.s:4206   .debug_loc:0000000000000295 .LLST70
C:\msys64\tmp\cczwVG08.s:4213   .debug_loc:00000000000002b8 .LLST71
C:\msys64\tmp\cczwVG08.s:884    .text:00000000000002a0 .LBB158
C:\msys64\tmp\cczwVG08.s:894    .text:00000000000002a4 .LBE158
C:\msys64\tmp\cczwVG08.s:4221   .debug_loc:00000000000002dc .LLST72
C:\msys64\tmp\cczwVG08.s:4228   .debug_loc:00000000000002ff .LLST73
C:\msys64\tmp\cczwVG08.s:896    .text:00000000000002a4 .LBB160
C:\msys64\tmp\cczwVG08.s:907    .text:00000000000002ac .LBE160
C:\msys64\tmp\cczwVG08.s:4236   .debug_loc:0000000000000323 .LLST74
C:\msys64\tmp\cczwVG08.s:4245   .debug_loc:0000000000000348 .LLST75
C:\msys64\tmp\cczwVG08.s:916    .text:00000000000002b0 .LBB162
C:\msys64\tmp\cczwVG08.s:928    .text:00000000000002b4 .LBE162
C:\msys64\tmp\cczwVG08.s:4253   .debug_loc:000000000000036c .LLST76
C:\msys64\tmp\cczwVG08.s:4962   .debug_str:000000000000016b .LASF114
C:\msys64\tmp\cczwVG08.s:5018   .debug_str:000000000000030b .LASF115
C:\msys64\tmp\cczwVG08.s:762    .text:0000000000000244 .LFB32
C:\msys64\tmp\cczwVG08.s:850    .text:0000000000000288 .LFE32
C:\msys64\tmp\cczwVG08.s:4261   .debug_loc:0000000000000390 .LLST59
C:\msys64\tmp\cczwVG08.s:4275   .debug_loc:00000000000003c9 .LLST60
C:\msys64\tmp\cczwVG08.s:778    .text:0000000000000258 .LBB148
C:\msys64\tmp\cczwVG08.s:788    .text:000000000000025c .LBE148
C:\msys64\tmp\cczwVG08.s:4289   .debug_loc:0000000000000402 .LLST61
C:\msys64\tmp\cczwVG08.s:4296   .debug_loc:0000000000000425 .LLST62
C:\msys64\tmp\cczwVG08.s:790    .text:000000000000025c .LBB150
C:\msys64\tmp\cczwVG08.s:800    .text:0000000000000260 .LBE150
C:\msys64\tmp\cczwVG08.s:4304   .debug_loc:0000000000000449 .LLST63
C:\msys64\tmp\cczwVG08.s:4311   .debug_loc:000000000000046c .LLST64
C:\msys64\tmp\cczwVG08.s:802    .text:0000000000000260 .LBB152
C:\msys64\tmp\cczwVG08.s:813    .text:0000000000000268 .LBE152
C:\msys64\tmp\cczwVG08.s:4319   .debug_loc:0000000000000490 .LLST65
C:\msys64\tmp\cczwVG08.s:4328   .debug_loc:00000000000004b5 .LLST66
C:\msys64\tmp\cczwVG08.s:822    .text:000000000000026c .LBB154
C:\msys64\tmp\cczwVG08.s:834    .text:0000000000000270 .LBE154
C:\msys64\tmp\cczwVG08.s:4336   .debug_loc:00000000000004d9 .LLST67
C:\msys64\tmp\cczwVG08.s:4974   .debug_str:00000000000001cb .LASF116
C:\msys64\tmp\cczwVG08.s:5156   .debug_str:00000000000006b1 .LASF117
GAS LISTING C:\msys64\tmp\cczwVG08.s 			page 40


C:\msys64\tmp\cczwVG08.s:684    .text:000000000000020c .LFB31
C:\msys64\tmp\cczwVG08.s:756    .text:0000000000000244 .LFE31
C:\msys64\tmp\cczwVG08.s:4344   .debug_loc:00000000000004fd .LLST53
C:\msys64\tmp\cczwVG08.s:696    .text:0000000000000218 .LBB142
C:\msys64\tmp\cczwVG08.s:706    .text:000000000000021c .LBE142
C:\msys64\tmp\cczwVG08.s:4358   .debug_loc:0000000000000536 .LLST54
C:\msys64\tmp\cczwVG08.s:4365   .debug_loc:0000000000000559 .LLST55
C:\msys64\tmp\cczwVG08.s:708    .text:000000000000021c .LBB144
C:\msys64\tmp\cczwVG08.s:719    .text:0000000000000224 .LBE144
C:\msys64\tmp\cczwVG08.s:4373   .debug_loc:000000000000057d .LLST56
C:\msys64\tmp\cczwVG08.s:4382   .debug_loc:00000000000005a2 .LLST57
C:\msys64\tmp\cczwVG08.s:728    .text:0000000000000228 .LBB146
C:\msys64\tmp\cczwVG08.s:740    .text:000000000000022c .LBE146
C:\msys64\tmp\cczwVG08.s:4390   .debug_loc:00000000000005c6 .LLST58
C:\msys64\tmp\cczwVG08.s:5216   .debug_str:0000000000000934 .LASF118
C:\msys64\tmp\cczwVG08.s:4996   .debug_str:0000000000000263 .LASF119
C:\msys64\tmp\cczwVG08.s:606    .text:00000000000001d4 .LFB30
C:\msys64\tmp\cczwVG08.s:678    .text:000000000000020c .LFE30
C:\msys64\tmp\cczwVG08.s:4398   .debug_loc:00000000000005ea .LLST47
C:\msys64\tmp\cczwVG08.s:618    .text:00000000000001e0 .LBB136
C:\msys64\tmp\cczwVG08.s:628    .text:00000000000001e4 .LBE136
C:\msys64\tmp\cczwVG08.s:4412   .debug_loc:0000000000000623 .LLST48
C:\msys64\tmp\cczwVG08.s:4419   .debug_loc:0000000000000646 .LLST49
C:\msys64\tmp\cczwVG08.s:630    .text:00000000000001e4 .LBB138
C:\msys64\tmp\cczwVG08.s:641    .text:00000000000001ec .LBE138
C:\msys64\tmp\cczwVG08.s:4427   .debug_loc:000000000000066a .LLST50
C:\msys64\tmp\cczwVG08.s:4436   .debug_loc:000000000000068f .LLST51
C:\msys64\tmp\cczwVG08.s:650    .text:00000000000001f0 .LBB140
C:\msys64\tmp\cczwVG08.s:662    .text:00000000000001f4 .LBE140
C:\msys64\tmp\cczwVG08.s:4444   .debug_loc:00000000000006b3 .LLST52
C:\msys64\tmp\cczwVG08.s:5084   .debug_str:00000000000004d6 .LASF120
C:\msys64\tmp\cczwVG08.s:4932   .debug_str:0000000000000079 .LASF121
C:\msys64\tmp\cczwVG08.s:528    .text:000000000000019c .LFB29
C:\msys64\tmp\cczwVG08.s:600    .text:00000000000001d4 .LFE29
C:\msys64\tmp\cczwVG08.s:5194   .debug_str:0000000000000887 .LASF122
C:\msys64\tmp\cczwVG08.s:4452   .debug_loc:00000000000006d7 .LLST41
C:\msys64\tmp\cczwVG08.s:540    .text:00000000000001a8 .LBB130
C:\msys64\tmp\cczwVG08.s:550    .text:00000000000001ac .LBE130
C:\msys64\tmp\cczwVG08.s:4466   .debug_loc:0000000000000710 .LLST42
C:\msys64\tmp\cczwVG08.s:4473   .debug_loc:0000000000000733 .LLST43
C:\msys64\tmp\cczwVG08.s:552    .text:00000000000001ac .LBB132
C:\msys64\tmp\cczwVG08.s:563    .text:00000000000001b4 .LBE132
C:\msys64\tmp\cczwVG08.s:4481   .debug_loc:0000000000000757 .LLST44
C:\msys64\tmp\cczwVG08.s:4490   .debug_loc:000000000000077c .LLST45
C:\msys64\tmp\cczwVG08.s:572    .text:00000000000001b8 .LBB134
C:\msys64\tmp\cczwVG08.s:584    .text:00000000000001bc .LBE134
C:\msys64\tmp\cczwVG08.s:4498   .debug_loc:00000000000007a0 .LLST46
C:\msys64\tmp\cczwVG08.s:5090   .debug_str:0000000000000500 .LASF123
C:\msys64\tmp\cczwVG08.s:5112   .debug_str:0000000000000593 .LASF124
C:\msys64\tmp\cczwVG08.s:434    .text:0000000000000158 .LFB28
C:\msys64\tmp\cczwVG08.s:522    .text:000000000000019c .LFE28
C:\msys64\tmp\cczwVG08.s:4506   .debug_loc:00000000000007c4 .LLST32
C:\msys64\tmp\cczwVG08.s:5080   .debug_str:00000000000004be .LASF125
C:\msys64\tmp\cczwVG08.s:4520   .debug_loc:00000000000007fd .LLST33
C:\msys64\tmp\cczwVG08.s:450    .text:000000000000016c .LBB122
C:\msys64\tmp\cczwVG08.s:460    .text:0000000000000170 .LBE122
C:\msys64\tmp\cczwVG08.s:4534   .debug_loc:0000000000000836 .LLST34
GAS LISTING C:\msys64\tmp\cczwVG08.s 			page 41


C:\msys64\tmp\cczwVG08.s:4541   .debug_loc:0000000000000859 .LLST35
C:\msys64\tmp\cczwVG08.s:462    .text:0000000000000170 .LBB124
C:\msys64\tmp\cczwVG08.s:472    .text:0000000000000174 .LBE124
C:\msys64\tmp\cczwVG08.s:4549   .debug_loc:000000000000087d .LLST36
C:\msys64\tmp\cczwVG08.s:4556   .debug_loc:00000000000008a0 .LLST37
C:\msys64\tmp\cczwVG08.s:474    .text:0000000000000174 .LBB126
C:\msys64\tmp\cczwVG08.s:485    .text:000000000000017c .LBE126
C:\msys64\tmp\cczwVG08.s:4564   .debug_loc:00000000000008c4 .LLST38
C:\msys64\tmp\cczwVG08.s:4573   .debug_loc:00000000000008e9 .LLST39
C:\msys64\tmp\cczwVG08.s:494    .text:0000000000000180 .LBB128
C:\msys64\tmp\cczwVG08.s:506    .text:0000000000000184 .LBE128
C:\msys64\tmp\cczwVG08.s:4581   .debug_loc:000000000000090d .LLST40
C:\msys64\tmp\cczwVG08.s:5024   .debug_str:000000000000033a .LASF126
C:\msys64\tmp\cczwVG08.s:5204   .debug_str:00000000000008d8 .LASF127
C:\msys64\tmp\cczwVG08.s:370    .text:0000000000000124 .LFB27
C:\msys64\tmp\cczwVG08.s:428    .text:0000000000000158 .LFE27
C:\msys64\tmp\cczwVG08.s:381    .text:0000000000000130 .LBB118
C:\msys64\tmp\cczwVG08.s:392    .text:0000000000000138 .LBE118
C:\msys64\tmp\cczwVG08.s:4589   .debug_loc:0000000000000931 .LLST29
C:\msys64\tmp\cczwVG08.s:4597   .debug_loc:0000000000000955 .LLST30
C:\msys64\tmp\cczwVG08.s:401    .text:000000000000013c .LBB120
C:\msys64\tmp\cczwVG08.s:413    .text:0000000000000140 .LBE120
C:\msys64\tmp\cczwVG08.s:4605   .debug_loc:0000000000000979 .LLST31
C:\msys64\tmp\cczwVG08.s:5170   .debug_str:000000000000071b .LASF128
C:\msys64\tmp\cczwVG08.s:4924   .debug_str:0000000000000045 .LASF129
C:\msys64\tmp\cczwVG08.s:327    .text:0000000000000100 .LFB26
C:\msys64\tmp\cczwVG08.s:364    .text:0000000000000124 .LFE26
C:\msys64\tmp\cczwVG08.s:338    .text:000000000000010c .LBB116
C:\msys64\tmp\cczwVG08.s:349    .text:0000000000000114 .LBE116
C:\msys64\tmp\cczwVG08.s:4613   .debug_loc:000000000000099d .LLST27
C:\msys64\tmp\cczwVG08.s:4621   .debug_loc:00000000000009c1 .LLST28
C:\msys64\tmp\cczwVG08.s:5142   .debug_str:0000000000000665 .LASF130
C:\msys64\tmp\cczwVG08.s:5186   .debug_str:0000000000000841 .LASF131
C:\msys64\tmp\cczwVG08.s:176    .text:0000000000000074 .LFB25
C:\msys64\tmp\cczwVG08.s:321    .text:0000000000000100 .LFE25
C:\msys64\tmp\cczwVG08.s:4629   .debug_loc:00000000000009e5 .LLST13
C:\msys64\tmp\cczwVG08.s:5008   .debug_str:00000000000002c4 .LASF132
C:\msys64\tmp\cczwVG08.s:4647   .debug_loc:0000000000000a31 .LLST14
C:\msys64\tmp\cczwVG08.s:4665   .debug_loc:0000000000000a7d .LLST15
C:\msys64\tmp\cczwVG08.s:5206   .debug_str:00000000000008e9 .LASF133
C:\msys64\tmp\cczwVG08.s:215    .text:00000000000000b8 .LBB104
C:\msys64\tmp\cczwVG08.s:225    .text:00000000000000bc .LBE104
C:\msys64\tmp\cczwVG08.s:4683   .debug_loc:0000000000000ac9 .LLST16
C:\msys64\tmp\cczwVG08.s:4690   .debug_loc:0000000000000aec .LLST17
C:\msys64\tmp\cczwVG08.s:227    .text:00000000000000bc .LBB106
C:\msys64\tmp\cczwVG08.s:237    .text:00000000000000c0 .LBE106
C:\msys64\tmp\cczwVG08.s:4698   .debug_loc:0000000000000b10 .LLST18
C:\msys64\tmp\cczwVG08.s:4705   .debug_loc:0000000000000b33 .LLST19
C:\msys64\tmp\cczwVG08.s:239    .text:00000000000000c0 .LBB108
C:\msys64\tmp\cczwVG08.s:249    .text:00000000000000c4 .LBE108
C:\msys64\tmp\cczwVG08.s:4713   .debug_loc:0000000000000b57 .LLST20
C:\msys64\tmp\cczwVG08.s:4720   .debug_loc:0000000000000b7a .LLST21
C:\msys64\tmp\cczwVG08.s:251    .text:00000000000000c4 .LBB110
C:\msys64\tmp\cczwVG08.s:261    .text:00000000000000c8 .LBE110
C:\msys64\tmp\cczwVG08.s:4728   .debug_loc:0000000000000b9e .LLST22
C:\msys64\tmp\cczwVG08.s:4735   .debug_loc:0000000000000bc1 .LLST23
C:\msys64\tmp\cczwVG08.s:263    .text:00000000000000c8 .LBB112
GAS LISTING C:\msys64\tmp\cczwVG08.s 			page 42


C:\msys64\tmp\cczwVG08.s:274    .text:00000000000000d0 .LBE112
C:\msys64\tmp\cczwVG08.s:4743   .debug_loc:0000000000000be5 .LLST24
C:\msys64\tmp\cczwVG08.s:4751   .debug_loc:0000000000000c09 .LLST25
C:\msys64\tmp\cczwVG08.s:283    .text:00000000000000d4 .LBB114
C:\msys64\tmp\cczwVG08.s:295    .text:00000000000000d8 .LBE114
C:\msys64\tmp\cczwVG08.s:4759   .debug_loc:0000000000000c2d .LLST26
C:\msys64\tmp\cczwVG08.s:207    .text:00000000000000b0 .LVL17
C:\msys64\tmp\cczwVG08.s:5152   .debug_str:00000000000006a3 .LASF134
C:\msys64\tmp\cczwVG08.s:5202   .debug_str:00000000000008ca .LASF135
C:\msys64\tmp\cczwVG08.s:98     .text:000000000000003c .LFB24
C:\msys64\tmp\cczwVG08.s:170    .text:0000000000000074 .LFE24
C:\msys64\tmp\cczwVG08.s:4767   .debug_loc:0000000000000c51 .LLST7
C:\msys64\tmp\cczwVG08.s:110    .text:0000000000000048 .LBB98
C:\msys64\tmp\cczwVG08.s:120    .text:000000000000004c .LBE98
C:\msys64\tmp\cczwVG08.s:4781   .debug_loc:0000000000000c8a .LLST8
C:\msys64\tmp\cczwVG08.s:4788   .debug_loc:0000000000000cad .LLST9
C:\msys64\tmp\cczwVG08.s:122    .text:000000000000004c .LBB100
C:\msys64\tmp\cczwVG08.s:133    .text:0000000000000054 .LBE100
C:\msys64\tmp\cczwVG08.s:4796   .debug_loc:0000000000000cd1 .LLST10
C:\msys64\tmp\cczwVG08.s:4804   .debug_loc:0000000000000cf5 .LLST11
C:\msys64\tmp\cczwVG08.s:142    .text:0000000000000058 .LBB102
C:\msys64\tmp\cczwVG08.s:154    .text:000000000000005c .LBE102
C:\msys64\tmp\cczwVG08.s:4812   .debug_loc:0000000000000d19 .LLST12
C:\msys64\tmp\cczwVG08.s:5034   .debug_str:0000000000000383 .LASF136
C:\msys64\tmp\cczwVG08.s:4972   .debug_str:00000000000001bd .LASF137
C:\msys64\tmp\cczwVG08.s:13     .text:0000000000000000 .LFB23
C:\msys64\tmp\cczwVG08.s:92     .text:000000000000003c .LFE23
C:\msys64\tmp\cczwVG08.s:5010   .debug_str:00000000000002d2 .LASF138
C:\msys64\tmp\cczwVG08.s:4820   .debug_loc:0000000000000d3d .LLST0
C:\msys64\tmp\cczwVG08.s:5198   .debug_str:0000000000000894 .LASF139
C:\msys64\tmp\cczwVG08.s:4840   .debug_loc:0000000000000d8b .LLST1
C:\msys64\tmp\cczwVG08.s:32     .text:0000000000000014 .LBB92
C:\msys64\tmp\cczwVG08.s:43     .text:0000000000000018 .LBE92
C:\msys64\tmp\cczwVG08.s:4858   .debug_loc:0000000000000dc8 .LLST2
C:\msys64\tmp\cczwVG08.s:4865   .debug_loc:0000000000000deb .LLST3
C:\msys64\tmp\cczwVG08.s:45     .text:0000000000000018 .LBB94
C:\msys64\tmp\cczwVG08.s:56     .text:0000000000000020 .LBE94
C:\msys64\tmp\cczwVG08.s:4873   .debug_loc:0000000000000e0f .LLST4
C:\msys64\tmp\cczwVG08.s:4881   .debug_loc:0000000000000e33 .LLST5
C:\msys64\tmp\cczwVG08.s:65     .text:0000000000000024 .LBB96
C:\msys64\tmp\cczwVG08.s:77     .text:0000000000000028 .LBE96
C:\msys64\tmp\cczwVG08.s:4889   .debug_loc:0000000000000e57 .LLST6
C:\msys64\tmp\cczwVG08.s:5046   .debug_str:00000000000003d7 .LASF140
C:\msys64\tmp\cczwVG08.s:4978   .debug_str:00000000000001e1 .LASF141
C:\msys64\tmp\cczwVG08.s:1113   .text:0000000000000358 .LVL95
C:\msys64\tmp\cczwVG08.s:1147   .text:000000000000038c .LVL98
C:\msys64\tmp\cczwVG08.s:1160   .text:0000000000000394 .LVL99
C:\msys64\tmp\cczwVG08.s:1063   .text:0000000000000334 .LVL92
C:\msys64\tmp\cczwVG08.s:1073   .text:0000000000000338 .LVL93
C:\msys64\tmp\cczwVG08.s:1083   .text:000000000000033c .LVL94
C:\msys64\tmp\cczwVG08.s:953    .text:00000000000002cc .LVL83
C:\msys64\tmp\cczwVG08.s:1012   .text:00000000000002f4 .LVL89
C:\msys64\tmp\cczwVG08.s:961    .text:00000000000002d8 .LVL84
C:\msys64\tmp\cczwVG08.s:969    .text:00000000000002dc .LVL85
C:\msys64\tmp\cczwVG08.s:982    .text:00000000000002e4 .LVL86
C:\msys64\tmp\cczwVG08.s:992    .text:00000000000002e8 .LVL87
C:\msys64\tmp\cczwVG08.s:1002   .text:00000000000002ec .LVL88
GAS LISTING C:\msys64\tmp\cczwVG08.s 			page 43


C:\msys64\tmp\cczwVG08.s:859    .text:0000000000000288 .LVL74
C:\msys64\tmp\cczwVG08.s:934    .text:00000000000002bc .LVL82
C:\msys64\tmp\cczwVG08.s:869    .text:0000000000000298 .LVL75
C:\msys64\tmp\cczwVG08.s:871    .text:000000000000029c .LVL76
C:\msys64\tmp\cczwVG08.s:879    .text:00000000000002a0 .LVL77
C:\msys64\tmp\cczwVG08.s:891    .text:00000000000002a4 .LVL78
C:\msys64\tmp\cczwVG08.s:904    .text:00000000000002ac .LVL79
C:\msys64\tmp\cczwVG08.s:914    .text:00000000000002b0 .LVL80
C:\msys64\tmp\cczwVG08.s:924    .text:00000000000002b4 .LVL81
C:\msys64\tmp\cczwVG08.s:765    .text:0000000000000244 .LVL65
C:\msys64\tmp\cczwVG08.s:840    .text:0000000000000278 .LVL73
C:\msys64\tmp\cczwVG08.s:775    .text:0000000000000254 .LVL66
C:\msys64\tmp\cczwVG08.s:777    .text:0000000000000258 .LVL67
C:\msys64\tmp\cczwVG08.s:785    .text:000000000000025c .LVL68
C:\msys64\tmp\cczwVG08.s:797    .text:0000000000000260 .LVL69
C:\msys64\tmp\cczwVG08.s:810    .text:0000000000000268 .LVL70
C:\msys64\tmp\cczwVG08.s:820    .text:000000000000026c .LVL71
C:\msys64\tmp\cczwVG08.s:830    .text:0000000000000270 .LVL72
C:\msys64\tmp\cczwVG08.s:687    .text:000000000000020c .LVL58
C:\msys64\tmp\cczwVG08.s:746    .text:0000000000000234 .LVL64
C:\msys64\tmp\cczwVG08.s:695    .text:0000000000000218 .LVL59
C:\msys64\tmp\cczwVG08.s:703    .text:000000000000021c .LVL60
C:\msys64\tmp\cczwVG08.s:716    .text:0000000000000224 .LVL61
C:\msys64\tmp\cczwVG08.s:726    .text:0000000000000228 .LVL62
C:\msys64\tmp\cczwVG08.s:736    .text:000000000000022c .LVL63
C:\msys64\tmp\cczwVG08.s:609    .text:00000000000001d4 .LVL51
C:\msys64\tmp\cczwVG08.s:668    .text:00000000000001fc .LVL57
C:\msys64\tmp\cczwVG08.s:617    .text:00000000000001e0 .LVL52
C:\msys64\tmp\cczwVG08.s:625    .text:00000000000001e4 .LVL53
C:\msys64\tmp\cczwVG08.s:638    .text:00000000000001ec .LVL54
C:\msys64\tmp\cczwVG08.s:648    .text:00000000000001f0 .LVL55
C:\msys64\tmp\cczwVG08.s:658    .text:00000000000001f4 .LVL56
C:\msys64\tmp\cczwVG08.s:531    .text:000000000000019c .LVL44
C:\msys64\tmp\cczwVG08.s:590    .text:00000000000001c4 .LVL50
C:\msys64\tmp\cczwVG08.s:539    .text:00000000000001a8 .LVL45
C:\msys64\tmp\cczwVG08.s:547    .text:00000000000001ac .LVL46
C:\msys64\tmp\cczwVG08.s:560    .text:00000000000001b4 .LVL47
C:\msys64\tmp\cczwVG08.s:570    .text:00000000000001b8 .LVL48
C:\msys64\tmp\cczwVG08.s:580    .text:00000000000001bc .LVL49
C:\msys64\tmp\cczwVG08.s:437    .text:0000000000000158 .LVL35
C:\msys64\tmp\cczwVG08.s:512    .text:000000000000018c .LVL43
C:\msys64\tmp\cczwVG08.s:447    .text:0000000000000168 .LVL36
C:\msys64\tmp\cczwVG08.s:449    .text:000000000000016c .LVL37
C:\msys64\tmp\cczwVG08.s:457    .text:0000000000000170 .LVL38
C:\msys64\tmp\cczwVG08.s:469    .text:0000000000000174 .LVL39
C:\msys64\tmp\cczwVG08.s:482    .text:000000000000017c .LVL40
C:\msys64\tmp\cczwVG08.s:492    .text:0000000000000180 .LVL41
C:\msys64\tmp\cczwVG08.s:502    .text:0000000000000184 .LVL42
C:\msys64\tmp\cczwVG08.s:380    .text:0000000000000130 .LVL31
C:\msys64\tmp\cczwVG08.s:389    .text:0000000000000138 .LVL32
C:\msys64\tmp\cczwVG08.s:399    .text:000000000000013c .LVL33
C:\msys64\tmp\cczwVG08.s:409    .text:0000000000000140 .LVL34
C:\msys64\tmp\cczwVG08.s:337    .text:000000000000010c .LVL29
C:\msys64\tmp\cczwVG08.s:346    .text:0000000000000114 .LVL30
C:\msys64\tmp\cczwVG08.s:179    .text:0000000000000074 .LVL15
C:\msys64\tmp\cczwVG08.s:205    .text:00000000000000a8 .LVL16
C:\msys64\tmp\cczwVG08.s:313    .text:00000000000000f4 .LVL27
GAS LISTING C:\msys64\tmp\cczwVG08.s 			page 44


C:\msys64\tmp\cczwVG08.s:310    .text:00000000000000f0 .LVL26
C:\msys64\tmp\cczwVG08.s:316    .text:00000000000000f8 .LVL28
C:\msys64\tmp\cczwVG08.s:214    .text:00000000000000b8 .LVL18
C:\msys64\tmp\cczwVG08.s:222    .text:00000000000000bc .LVL19
C:\msys64\tmp\cczwVG08.s:234    .text:00000000000000c0 .LVL20
C:\msys64\tmp\cczwVG08.s:246    .text:00000000000000c4 .LVL21
C:\msys64\tmp\cczwVG08.s:258    .text:00000000000000c8 .LVL22
C:\msys64\tmp\cczwVG08.s:271    .text:00000000000000d0 .LVL23
C:\msys64\tmp\cczwVG08.s:281    .text:00000000000000d4 .LVL24
C:\msys64\tmp\cczwVG08.s:291    .text:00000000000000d8 .LVL25
C:\msys64\tmp\cczwVG08.s:101    .text:000000000000003c .LVL8
C:\msys64\tmp\cczwVG08.s:160    .text:0000000000000064 .LVL14
C:\msys64\tmp\cczwVG08.s:109    .text:0000000000000048 .LVL9
C:\msys64\tmp\cczwVG08.s:117    .text:000000000000004c .LVL10
C:\msys64\tmp\cczwVG08.s:130    .text:0000000000000054 .LVL11
C:\msys64\tmp\cczwVG08.s:140    .text:0000000000000058 .LVL12
C:\msys64\tmp\cczwVG08.s:150    .text:000000000000005c .LVL13
C:\msys64\tmp\cczwVG08.s:17     .text:0000000000000000 .LVL0
C:\msys64\tmp\cczwVG08.s:27     .text:0000000000000010 .LVL1
C:\msys64\tmp\cczwVG08.s:30     .text:0000000000000014 .LVL2
C:\msys64\tmp\cczwVG08.s:83     .text:0000000000000030 .LVL7
C:\msys64\tmp\cczwVG08.s:40     .text:0000000000000018 .LVL3
C:\msys64\tmp\cczwVG08.s:53     .text:0000000000000020 .LVL4
C:\msys64\tmp\cczwVG08.s:63     .text:0000000000000024 .LVL5
C:\msys64\tmp\cczwVG08.s:73     .text:0000000000000028 .LVL6
C:\msys64\tmp\cczwVG08.s:1190   .debug_info:0000000000000000 .Ldebug_info0

UNDEFINED SYMBOLS
_ZN8_console10ensureInitEv
_ZN8_console5inSemE
_ZN8_console6outSemE
