GAS LISTING /tmp/ccwRztq7.s 			page 1


   1              		.file	"syscall_c.cpp"
   2              		.option pic
   3              		.option norelax
   4              		.text
   5              	.Ltext0:
   6              		.align	2
   7              		.globl	_Z9mem_allocm
   9              	_Z9mem_allocm:
  10              	.LFB18:
  11              		.file 1 "src/syscall_c.cpp"
   1:src/syscall_c.cpp **** #include "../h/syscall_c.h"
   2:src/syscall_c.cpp **** #include  "../h/riscv.h"
   3:src/syscall_c.cpp **** #include "../lib/mem.h"
   4:src/syscall_c.cpp **** void *mem_alloc(size_t size) {
  12              		.loc 1 4 30
  13              		.cfi_startproc
  14              	.LVL0:
  15 0000 130101FE 		addi	sp,sp,-32
  16              		.cfi_def_cfa_offset 32
  17 0004 233C8100 		sd	s0,24(sp)
  18              		.cfi_offset 8, -8
  19 0008 13040102 		addi	s0,sp,32
  20              		.cfi_def_cfa 8, 0
   5:src/syscall_c.cpp ****     size_t blocks = (size + MEM_BLOCK_SIZE - 1) / MEM_BLOCK_SIZE;
  21              		.loc 1 5 5
  22              		.loc 1 5 44 is_stmt 0
  23 000c 1305F503 		addi	a0,a0,63
  24              	.LVL1:
  25              		.loc 1 5 12
  26 0010 13556500 		srli	a0,a0,6
  27              	.LVL2:
   6:src/syscall_c.cpp **** 
   7:src/syscall_c.cpp ****     Riscv::writeARegister(1, blocks);
  28              		.loc 1 7 5 is_stmt 1
  29              	.LBB14:
  30              	.LBB15:
  31              		.file 2 "src/../h/riscv.h"
   1:src/../h/riscv.h ****     //
   2:src/../h/riscv.h ****     // Created by os on 3/31/26.
   3:src/../h/riscv.h ****     //
   4:src/../h/riscv.h **** 
   5:src/../h/riscv.h ****     #ifndef PROJECT_BASE_RISCB_H
   6:src/../h/riscv.h ****     #define PROJECT_BASE_RISCB_H
   7:src/../h/riscv.h ****     #include "../lib/hw.h"
   8:src/../h/riscv.h **** 
   9:src/../h/riscv.h ****     class Riscv {
  10:src/../h/riscv.h ****     public:
  11:src/../h/riscv.h **** 	
  12:src/../h/riscv.h **** 	static void popSppSpie();
  13:src/../h/riscv.h **** 	
  14:src/../h/riscv.h **** 	
  15:src/../h/riscv.h ****         static uint64 r_scause();
  16:src/../h/riscv.h **** 
  17:src/../h/riscv.h ****         static void w_scause(uint64 scause);
  18:src/../h/riscv.h **** 
  19:src/../h/riscv.h ****         static uint64 r_sepc();
  20:src/../h/riscv.h **** 
GAS LISTING /tmp/ccwRztq7.s 			page 2


  21:src/../h/riscv.h ****         static void w_sepc(uint64 sepc);
  22:src/../h/riscv.h **** 
  23:src/../h/riscv.h ****         static uint64 r_stvec();
  24:src/../h/riscv.h **** 
  25:src/../h/riscv.h ****         static void w_stvec(uint64 stvec);
  26:src/../h/riscv.h **** 
  27:src/../h/riscv.h ****         static uint64 r_stval();
  28:src/../h/riscv.h **** 
  29:src/../h/riscv.h ****         static void w_stval(uint64 stval);
  30:src/../h/riscv.h **** 
  31:src/../h/riscv.h ****         enum BitMaskSip {
  32:src/../h/riscv.h ****             SIP_SSIP = (1 << 1),
  33:src/../h/riscv.h ****             SIP_STIP = (1 << 5),
  34:src/../h/riscv.h ****             SIP_SEIP = (1 << 9),
  35:src/../h/riscv.h ****         };
  36:src/../h/riscv.h **** 
  37:src/../h/riscv.h ****         static void ms_sip(uint64 mask);
  38:src/../h/riscv.h **** 
  39:src/../h/riscv.h ****         static void mc_sip(uint64 mask);
  40:src/../h/riscv.h **** 
  41:src/../h/riscv.h ****         static uint64 r_sip();
  42:src/../h/riscv.h **** 
  43:src/../h/riscv.h ****         static void w_sip(uint64 sip);
  44:src/../h/riscv.h **** 
  45:src/../h/riscv.h ****         enum BitMaskSstatus {
  46:src/../h/riscv.h ****             SSTATUS_SIE = (1 << 1),
  47:src/../h/riscv.h ****             SSTATUS_SPIE = (1 << 5),
  48:src/../h/riscv.h ****             SSTATUS_SPP = (1 <<8),
  49:src/../h/riscv.h ****         };
  50:src/../h/riscv.h **** 
  51:src/../h/riscv.h ****         static void ms_sstatus(uint64 mask);
  52:src/../h/riscv.h **** 
  53:src/../h/riscv.h ****         static void mc_sstatus(uint64 mask);
  54:src/../h/riscv.h **** 
  55:src/../h/riscv.h ****         static uint64 r_sstatus();
  56:src/../h/riscv.h **** 
  57:src/../h/riscv.h ****         static void w_sstatus(uint64 sstatus);
  58:src/../h/riscv.h **** 
  59:src/../h/riscv.h ****         static uint64 readARegister(int reg_number);
  60:src/../h/riscv.h **** 
  61:src/../h/riscv.h ****         static void writeARegister(int reg_number, uint64 value);
  62:src/../h/riscv.h **** 
  63:src/../h/riscv.h ****         static void handleEcall(uint64* regs);
  64:src/../h/riscv.h **** 
  65:src/../h/riscv.h ****         static void handleConsole();
  66:src/../h/riscv.h **** 
  67:src/../h/riscv.h ****         static void handleTimer();
  68:src/../h/riscv.h **** 
  69:src/../h/riscv.h ****         static void unknownsCause();
  70:src/../h/riscv.h **** 
  71:src/../h/riscv.h **** 
  72:src/../h/riscv.h ****         static void pushAllRegs();
  73:src/../h/riscv.h ****         static void popAllRegs();
  74:src/../h/riscv.h **** 
  75:src/../h/riscv.h ****         static void supervisorTrap();
  76:src/../h/riscv.h ****     private:
  77:src/../h/riscv.h ****         static void handleSupervisorTrap();
GAS LISTING /tmp/ccwRztq7.s 			page 3


  78:src/../h/riscv.h **** 
  79:src/../h/riscv.h ****     };
  80:src/../h/riscv.h **** 
  81:src/../h/riscv.h ****     inline uint64 Riscv::r_scause()
  82:src/../h/riscv.h ****     {
  83:src/../h/riscv.h ****         uint64 volatile scause;
  84:src/../h/riscv.h ****         __asm__ volatile ("csrr %[scause], scause" : [scause] "=r"(scause));
  85:src/../h/riscv.h ****         return scause;
  86:src/../h/riscv.h ****     }
  87:src/../h/riscv.h **** 
  88:src/../h/riscv.h ****     inline void Riscv::w_scause(uint64 scause)
  89:src/../h/riscv.h ****     {
  90:src/../h/riscv.h ****         __asm__ volatile ("csrw scause, %[scause]" : : [scause] "r"(scause));
  91:src/../h/riscv.h ****     }
  92:src/../h/riscv.h **** 
  93:src/../h/riscv.h ****     inline uint64 Riscv::r_sepc()
  94:src/../h/riscv.h ****     {
  95:src/../h/riscv.h ****         uint64 volatile sepc;
  96:src/../h/riscv.h ****         __asm__ volatile ("csrr %[sepc], sepc" : [sepc] "=r"(sepc));
  97:src/../h/riscv.h ****         return sepc;
  98:src/../h/riscv.h ****     }
  99:src/../h/riscv.h **** 
 100:src/../h/riscv.h ****     inline void Riscv::w_sepc(uint64 sepc)
 101:src/../h/riscv.h ****     {
 102:src/../h/riscv.h ****         __asm__ volatile ("csrw sepc, %[sepc]" : : [sepc] "r"(sepc));
 103:src/../h/riscv.h ****     }
 104:src/../h/riscv.h **** 
 105:src/../h/riscv.h ****     inline uint64 Riscv::r_stvec()
 106:src/../h/riscv.h ****     {
 107:src/../h/riscv.h ****         uint64 volatile stvec;
 108:src/../h/riscv.h ****         __asm__ volatile ("csrr %[stvec], stvec" : [stvec] "=r"(stvec));
 109:src/../h/riscv.h ****         return stvec;
 110:src/../h/riscv.h ****     }
 111:src/../h/riscv.h **** 
 112:src/../h/riscv.h ****     inline void Riscv::w_stvec(uint64 stvec)
 113:src/../h/riscv.h ****     {
 114:src/../h/riscv.h ****         __asm__ volatile ("csrw stvec, %[stvec]" : : [stvec] "r"(stvec));
 115:src/../h/riscv.h ****     }
 116:src/../h/riscv.h **** 
 117:src/../h/riscv.h ****     inline uint64 Riscv::r_stval()
 118:src/../h/riscv.h ****     {
 119:src/../h/riscv.h ****         uint64 volatile stval;
 120:src/../h/riscv.h ****         __asm__ volatile ("csrr %[stval], stval" : [stval] "=r"(stval));
 121:src/../h/riscv.h ****         return stval;
 122:src/../h/riscv.h ****     }
 123:src/../h/riscv.h **** 
 124:src/../h/riscv.h ****     inline void Riscv::w_stval(uint64 stval)
 125:src/../h/riscv.h ****     {
 126:src/../h/riscv.h ****         __asm__ volatile ("csrw stval, %[stval]" : : [stval] "r"(stval));
 127:src/../h/riscv.h ****     }
 128:src/../h/riscv.h **** 
 129:src/../h/riscv.h ****     inline void Riscv::ms_sip(uint64 mask)
 130:src/../h/riscv.h ****     {
 131:src/../h/riscv.h ****         __asm__ volatile ("csrs sip, %[mask]" : : [mask] "r"(mask));
 132:src/../h/riscv.h ****     }
 133:src/../h/riscv.h **** 
 134:src/../h/riscv.h ****     inline void Riscv::mc_sip(uint64 mask)
GAS LISTING /tmp/ccwRztq7.s 			page 4


 135:src/../h/riscv.h ****     {
 136:src/../h/riscv.h ****         __asm__ volatile ("csrc sip, %[mask]" : : [mask] "r"(mask));
 137:src/../h/riscv.h ****     }
 138:src/../h/riscv.h **** 
 139:src/../h/riscv.h ****     inline uint64 Riscv::r_sip()
 140:src/../h/riscv.h ****     {
 141:src/../h/riscv.h ****         uint64 volatile sip;
 142:src/../h/riscv.h ****         __asm__ volatile ("csrr %[sip], sip" : [sip] "=r"(sip));
 143:src/../h/riscv.h ****         return sip;
 144:src/../h/riscv.h ****     }
 145:src/../h/riscv.h **** 
 146:src/../h/riscv.h ****     inline void Riscv::w_sip(uint64 sip)
 147:src/../h/riscv.h ****     {
 148:src/../h/riscv.h ****         __asm__ volatile ("csrw sip, %[sip]" : : [sip] "r"(sip));
 149:src/../h/riscv.h ****     }
 150:src/../h/riscv.h **** 
 151:src/../h/riscv.h ****     inline void Riscv::ms_sstatus(uint64 mask)
 152:src/../h/riscv.h ****     {
 153:src/../h/riscv.h ****         __asm__ volatile ("csrs sstatus, %[mask]" : : [mask] "r"(mask));
 154:src/../h/riscv.h ****     }
 155:src/../h/riscv.h **** 
 156:src/../h/riscv.h ****     inline void Riscv::mc_sstatus(uint64 mask)
 157:src/../h/riscv.h ****     {
 158:src/../h/riscv.h ****         __asm__ volatile ("csrc sstatus, %[mask]" : : [mask] "r"(mask));
 159:src/../h/riscv.h ****     }
 160:src/../h/riscv.h **** 
 161:src/../h/riscv.h ****     inline uint64 Riscv::r_sstatus()
 162:src/../h/riscv.h ****     {
 163:src/../h/riscv.h ****         uint64 volatile sstatus;
 164:src/../h/riscv.h ****         __asm__ volatile ("csrr %[sstatus], sstatus" : [sstatus] "=r"(sstatus));
 165:src/../h/riscv.h ****         return sstatus;
 166:src/../h/riscv.h ****     }
 167:src/../h/riscv.h **** 
 168:src/../h/riscv.h ****     inline void Riscv::w_sstatus(uint64 sstatus)
 169:src/../h/riscv.h ****     {
 170:src/../h/riscv.h ****         __asm__ volatile ("csrw sstatus, %[sstatus]" : : [sstatus] "r"(sstatus));
 171:src/../h/riscv.h ****     }
 172:src/../h/riscv.h **** 
 173:src/../h/riscv.h **** inline uint64 Riscv::readARegister(int reg_number) {
 174:src/../h/riscv.h ****         uint64 value;
 175:src/../h/riscv.h ****         __asm__ volatile("mv %[val], a%[reg]" : [val] "=r" (value) : [reg] "i" (reg_number));
 176:src/../h/riscv.h ****         return value;
 177:src/../h/riscv.h ****     }
 178:src/../h/riscv.h **** 
 179:src/../h/riscv.h **** 
 180:src/../h/riscv.h **** inline void Riscv::writeARegister( int reg_number, uint64 value) {
 181:src/../h/riscv.h ****         __asm__ volatile("mv a%[reg], %[val]" :: [reg] "i" (reg_number), [val] "r" (value));
  32              		.loc 2 181 9
  33              		.loc 2 181 92 is_stmt 0
  34              	#APP
  35              	# 181 "src/../h/riscv.h" 1
 182              	    }
  36              		mv a1, a0
  37              	# 0 "" 2
  38              	.LVL3:
  39              	#NO_APP
  40              	.LBE15:
GAS LISTING /tmp/ccwRztq7.s 			page 5


  41              	.LBE14:
   8:src/syscall_c.cpp ****     Riscv::writeARegister(0, 0x01);
  42              		.loc 1 8 5 is_stmt 1
  43              	.LBB16:
  44              	.LBB17:
 181:src/../h/riscv.h ****     }
  45              		.loc 2 181 9
 181:src/../h/riscv.h ****     }
  46              		.loc 2 181 92 is_stmt 0
  47 0018 93071000 		li	a5,1
  48              	#APP
  49              	# 181 "src/../h/riscv.h" 1
  50              		mv a0, a5
  51              	# 0 "" 2
  52              	.LVL4:
  53              	#NO_APP
  54              	.LBE17:
  55              	.LBE16:
   9:src/syscall_c.cpp **** 
  10:src/syscall_c.cpp ****     __asm__ volatile("ecall");
  56              		.loc 1 10 5 is_stmt 1
  57              		.loc 1 10 30 is_stmt 0
  58              	#APP
  59              	# 10 "src/syscall_c.cpp" 1
  11              	
  12:src/syscall_c.cpp ****     volatile long a0 = Riscv::readARegister(0);
  60              		ecall
  61              	# 0 "" 2
  62              		.loc 1 12 5 is_stmt 1
  63              	.LVL5:
  64              	#NO_APP
  65              	.LBB18:
  66              	.LBB19:
 174:src/../h/riscv.h ****         __asm__ volatile("mv %[val], a%[reg]" : [val] "=r" (value) : [reg] "i" (reg_number));
  67              		.loc 2 174 9
 175:src/../h/riscv.h ****         return value;
  68              		.loc 2 175 9
 175:src/../h/riscv.h ****         return value;
  69              		.loc 2 175 93 is_stmt 0
  70              	#APP
  71              	# 175 "src/../h/riscv.h" 1
  72              		mv a5, a0
  73              	# 0 "" 2
  74              	.LVL6:
 176:src/../h/riscv.h ****     }
  75              		.loc 2 176 9 is_stmt 1
  76              	#NO_APP
  77              	.LBE19:
  78              	.LBE18:
  79              		.loc 1 12 46 is_stmt 0
  80 0028 2334F4FE 		sd	a5,-24(s0)
  13:src/syscall_c.cpp ****     return (void*) a0;
  81              		.loc 1 13 5 is_stmt 1
  82              		.loc 1 13 20 is_stmt 0
  83 002c 033584FE 		ld	a0,-24(s0)
  84              	.LVL7:
  14:src/syscall_c.cpp **** 
GAS LISTING /tmp/ccwRztq7.s 			page 6


  15:src/syscall_c.cpp **** 
  16:src/syscall_c.cpp **** }
  85              		.loc 1 16 1
  86 0030 03348101 		ld	s0,24(sp)
  87              		.cfi_restore 8
  88              		.cfi_def_cfa 2, 32
  89 0034 13010102 		addi	sp,sp,32
  90              		.cfi_def_cfa_offset 0
  91 0038 67800000 		jr	ra
  92              		.cfi_endproc
  93              	.LFE18:
  95              		.align	2
  96              		.globl	_Z8mem_freePv
  98              	_Z8mem_freePv:
  99              	.LFB19:
  17:src/syscall_c.cpp **** 
  18:src/syscall_c.cpp **** int mem_free (void* ptr) {
 100              		.loc 1 18 26 is_stmt 1
 101              		.cfi_startproc
 102              	.LVL8:
 103 003c 130101FE 		addi	sp,sp,-32
 104              		.cfi_def_cfa_offset 32
 105 0040 233C8100 		sd	s0,24(sp)
 106              		.cfi_offset 8, -8
 107 0044 13040102 		addi	s0,sp,32
 108              		.cfi_def_cfa 8, 0
  19:src/syscall_c.cpp ****     Riscv::writeARegister(1, (uint64)ptr);
 109              		.loc 1 19 5
 110              	.LVL9:
 111              	.LBB20:
 112              	.LBB21:
 181:src/../h/riscv.h ****     }
 113              		.loc 2 181 9
 181:src/../h/riscv.h ****     }
 114              		.loc 2 181 92 is_stmt 0
 115              	#APP
 116              	# 181 "src/../h/riscv.h" 1
 117              		mv a1, a0
 118              	# 0 "" 2
 119              	.LVL10:
 120              	#NO_APP
 121              	.LBE21:
 122              	.LBE20:
  20:src/syscall_c.cpp ****     Riscv::writeARegister(0, 0x02);
 123              		.loc 1 20 5 is_stmt 1
 124              	.LBB22:
 125              	.LBB23:
 181:src/../h/riscv.h ****     }
 126              		.loc 2 181 9
 181:src/../h/riscv.h ****     }
 127              		.loc 2 181 92 is_stmt 0
 128 004c 93072000 		li	a5,2
 129              	#APP
 130              	# 181 "src/../h/riscv.h" 1
 131              		mv a0, a5
 132              	# 0 "" 2
 133              	.LVL11:
GAS LISTING /tmp/ccwRztq7.s 			page 7


 134              	#NO_APP
 135              	.LBE23:
 136              	.LBE22:
  21:src/syscall_c.cpp **** 
  22:src/syscall_c.cpp ****     __asm__ volatile("ecall");
 137              		.loc 1 22 5 is_stmt 1
 138              		.loc 1 22 30 is_stmt 0
 139              	#APP
 140              	# 22 "src/syscall_c.cpp" 1
  23              	
  24:src/syscall_c.cpp ****     volatile long a0 = Riscv::readARegister(0);
 141              		ecall
 142              	# 0 "" 2
 143              		.loc 1 24 5 is_stmt 1
 144              	.LVL12:
 145              	#NO_APP
 146              	.LBB24:
 147              	.LBB25:
 174:src/../h/riscv.h ****         __asm__ volatile("mv %[val], a%[reg]" : [val] "=r" (value) : [reg] "i" (reg_number));
 148              		.loc 2 174 9
 175:src/../h/riscv.h ****         return value;
 149              		.loc 2 175 9
 175:src/../h/riscv.h ****         return value;
 150              		.loc 2 175 93 is_stmt 0
 151              	#APP
 152              	# 175 "src/../h/riscv.h" 1
 153              		mv a5, a0
 154              	# 0 "" 2
 155              	.LVL13:
 176:src/../h/riscv.h ****     }
 156              		.loc 2 176 9 is_stmt 1
 157              	#NO_APP
 158              	.LBE25:
 159              	.LBE24:
 160              		.loc 1 24 46 is_stmt 0
 161 005c 2334F4FE 		sd	a5,-24(s0)
  25:src/syscall_c.cpp ****     return (int) a0;
 162              		.loc 1 25 5 is_stmt 1
 163              		.loc 1 25 18 is_stmt 0
 164 0060 033584FE 		ld	a0,-24(s0)
 165              	.LVL14:
  26:src/syscall_c.cpp **** }
 166              		.loc 1 26 1
 167 0064 1B050500 		sext.w	a0,a0
 168 0068 03348101 		ld	s0,24(sp)
 169              		.cfi_restore 8
 170              		.cfi_def_cfa 2, 32
 171 006c 13010102 		addi	sp,sp,32
 172              		.cfi_def_cfa_offset 0
 173 0070 67800000 		jr	ra
 174              		.cfi_endproc
 175              	.LFE19:
 177              		.align	2
 178              		.globl	_Znwm
 180              	_Znwm:
 181              	.LFB20:
  27:src/syscall_c.cpp **** 
GAS LISTING /tmp/ccwRztq7.s 			page 8


  28:src/syscall_c.cpp **** void* operator new(size_t size) {
 182              		.loc 1 28 33 is_stmt 1
 183              		.cfi_startproc
 184              	.LVL15:
 185 0074 130101FF 		addi	sp,sp,-16
 186              		.cfi_def_cfa_offset 16
 187 0078 23341100 		sd	ra,8(sp)
 188 007c 23308100 		sd	s0,0(sp)
 189              		.cfi_offset 1, -8
 190              		.cfi_offset 8, -16
 191 0080 13040101 		addi	s0,sp,16
 192              		.cfi_def_cfa 8, 0
  29:src/syscall_c.cpp ****     return __mem_alloc(size);
 193              		.loc 1 29 5
 194              		.loc 1 29 23 is_stmt 0
 195 0084 97000000 		call	__mem_alloc@plt
 195      E7800000 
 196              	.LVL16:
  30:src/syscall_c.cpp **** }
 197              		.loc 1 30 1
 198 008c 83308100 		ld	ra,8(sp)
 199              		.cfi_restore 1
 200 0090 03340100 		ld	s0,0(sp)
 201              		.cfi_restore 8
 202              		.cfi_def_cfa 2, 16
 203 0094 13010101 		addi	sp,sp,16
 204              		.cfi_def_cfa_offset 0
 205 0098 67800000 		jr	ra
 206              		.cfi_endproc
 207              	.LFE20:
 209              		.align	2
 210              		.globl	_Znam
 212              	_Znam:
 213              	.LFB21:
  31:src/syscall_c.cpp **** 
  32:src/syscall_c.cpp **** 
  33:src/syscall_c.cpp **** void* operator new[](size_t size) {
 214              		.loc 1 33 35 is_stmt 1
 215              		.cfi_startproc
 216              	.LVL17:
 217 009c 130101FF 		addi	sp,sp,-16
 218              		.cfi_def_cfa_offset 16
 219 00a0 23341100 		sd	ra,8(sp)
 220 00a4 23308100 		sd	s0,0(sp)
 221              		.cfi_offset 1, -8
 222              		.cfi_offset 8, -16
 223 00a8 13040101 		addi	s0,sp,16
 224              		.cfi_def_cfa 8, 0
  34:src/syscall_c.cpp ****     return __mem_alloc(size);
 225              		.loc 1 34 5
 226              		.loc 1 34 23 is_stmt 0
 227 00ac 97000000 		call	__mem_alloc@plt
 227      E7800000 
 228              	.LVL18:
  35:src/syscall_c.cpp **** }
 229              		.loc 1 35 1
 230 00b4 83308100 		ld	ra,8(sp)
GAS LISTING /tmp/ccwRztq7.s 			page 9


 231              		.cfi_restore 1
 232 00b8 03340100 		ld	s0,0(sp)
 233              		.cfi_restore 8
 234              		.cfi_def_cfa 2, 16
 235 00bc 13010101 		addi	sp,sp,16
 236              		.cfi_def_cfa_offset 0
 237 00c0 67800000 		jr	ra
 238              		.cfi_endproc
 239              	.LFE21:
 241              		.align	2
 242              		.globl	_ZdlPv
 244              	_ZdlPv:
 245              	.LFB22:
  36:src/syscall_c.cpp **** 
  37:src/syscall_c.cpp **** 
  38:src/syscall_c.cpp **** void operator delete(void* ptr) noexcept {
 246              		.loc 1 38 42 is_stmt 1
 247              		.cfi_startproc
 248              		.cfi_personality 0x9b,DW.ref.__gxx_personality_v0
 249              		.cfi_lsda 0x1b,.LLSDA22
 250              	.LVL19:
 251 00c4 130101FF 		addi	sp,sp,-16
 252              		.cfi_def_cfa_offset 16
 253 00c8 23341100 		sd	ra,8(sp)
 254 00cc 23308100 		sd	s0,0(sp)
 255              		.cfi_offset 1, -8
 256              		.cfi_offset 8, -16
 257 00d0 13040101 		addi	s0,sp,16
 258              		.cfi_def_cfa 8, 0
  39:src/syscall_c.cpp ****     __mem_free(ptr);
 259              		.loc 1 39 5
 260              		.loc 1 39 15 is_stmt 0
 261 00d4 97000000 		call	__mem_free@plt
 261      E7800000 
 262              	.LVL20:
  40:src/syscall_c.cpp **** }
 263              		.loc 1 40 1
 264 00dc 83308100 		ld	ra,8(sp)
 265              		.cfi_restore 1
 266 00e0 03340100 		ld	s0,0(sp)
 267              		.cfi_restore 8
 268              		.cfi_def_cfa 2, 16
 269 00e4 13010101 		addi	sp,sp,16
 270              		.cfi_def_cfa_offset 0
 271 00e8 67800000 		jr	ra
 272              		.cfi_endproc
 273              	.LFE22:
 274              		.globl	__gxx_personality_v0
 275              		.section	.gcc_except_table,"a",@progbits
 276              	.LLSDA22:
 277 0000 FF       		.byte	0xff
 278 0001 FF       		.byte	0xff
 279 0002 03       		.byte	0x3
 280 0003 00       		.byte	0
 281              		.text
 283              		.align	2
 284              		.globl	_ZdaPv
GAS LISTING /tmp/ccwRztq7.s 			page 10


 286              	_ZdaPv:
 287              	.LFB23:
  41:src/syscall_c.cpp **** 
  42:src/syscall_c.cpp **** void operator delete[](void* ptr) noexcept {
 288              		.loc 1 42 44 is_stmt 1
 289              		.cfi_startproc
 290              		.cfi_personality 0x9b,DW.ref.__gxx_personality_v0
 291              		.cfi_lsda 0x1b,.LLSDA23
 292              	.LVL21:
 293 00ec 130101FF 		addi	sp,sp,-16
 294              		.cfi_def_cfa_offset 16
 295 00f0 23341100 		sd	ra,8(sp)
 296 00f4 23308100 		sd	s0,0(sp)
 297              		.cfi_offset 1, -8
 298              		.cfi_offset 8, -16
 299 00f8 13040101 		addi	s0,sp,16
 300              		.cfi_def_cfa 8, 0
  43:src/syscall_c.cpp ****     __mem_free(ptr);
 301              		.loc 1 43 5
 302              		.loc 1 43 15 is_stmt 0
 303 00fc 97000000 		call	__mem_free@plt
 303      E7800000 
 304              	.LVL22:
  44:src/syscall_c.cpp **** }...
 305              		.loc 1 44 1
 306 0104 83308100 		ld	ra,8(sp)
 307              		.cfi_restore 1
 308 0108 03340100 		ld	s0,0(sp)
 309              		.cfi_restore 8
 310              		.cfi_def_cfa 2, 16
 311 010c 13010101 		addi	sp,sp,16
 312              		.cfi_def_cfa_offset 0
 313 0110 67800000 		jr	ra
 314              		.cfi_endproc
 315              	.LFE23:
 316              		.section	.gcc_except_table
 317              	.LLSDA23:
 318 0004 FF       		.byte	0xff
 319 0005 FF       		.byte	0xff
 320 0006 03       		.byte	0x3
 321 0007 00       		.byte	0
 322              		.text
 324              	.Letext0:
 325              		.file 3 "src/../h/../lib/hw.h"
 326              		.file 4 "src/../lib/mem.h"
 1979              		.align	3
 1982              	DW.ref.__gxx_personality_v0:
 1983 0000 00000000 		.dword	__gxx_personality_v0
 1983      00000000 
 1984              		.ident	"GCC: (Ubuntu 9.4.0-1ubuntu1~20.04) 9.4.0"
 1985              		.section	.note.GNU-stack,"",@progbits
GAS LISTING /tmp/ccwRztq7.s 			page 11


DEFINED SYMBOLS
                            *ABS*:0000000000000000 syscall_c.cpp
     /tmp/ccwRztq7.s:9      .text:0000000000000000 _Z9mem_allocm
     /tmp/ccwRztq7.s:13     .text:0000000000000000 .L0 
     /tmp/ccwRztq7.s:15     .text:0000000000000000 .L0 
     /tmp/ccwRztq7.s:16     .text:0000000000000004 .L0 
     /tmp/ccwRztq7.s:18     .text:0000000000000008 .L0 
     /tmp/ccwRztq7.s:20     .text:000000000000000c .L0 
     /tmp/ccwRztq7.s:22     .text:000000000000000c .L0 
     /tmp/ccwRztq7.s:23     .text:000000000000000c .L0 
     /tmp/ccwRztq7.s:26     .text:0000000000000010 .L0 
     /tmp/ccwRztq7.s:32     .text:0000000000000014 .L0 
     /tmp/ccwRztq7.s:33     .text:0000000000000014 .L0 
    src/../h/riscv.h:181    .text:0000000000000014 .L0 
     /tmp/ccwRztq7.s:45     .text:0000000000000018 .L0 
     /tmp/ccwRztq7.s:46     .text:0000000000000018 .L0 
     /tmp/ccwRztq7.s:47     .text:0000000000000018 .L0 
     /tmp/ccwRztq7.s:57     .text:0000000000000020 .L0 
   src/syscall_c.cpp:10     .text:0000000000000020 .L0 
     /tmp/ccwRztq7.s:67     .text:0000000000000024 .L0 
     /tmp/ccwRztq7.s:68     .text:0000000000000024 .L0 
     /tmp/ccwRztq7.s:69     .text:0000000000000024 .L0 
    src/../h/riscv.h:175    .text:0000000000000024 .L0 
     /tmp/ccwRztq7.s:79     .text:0000000000000028 .L0 
     /tmp/ccwRztq7.s:80     .text:0000000000000028 .L0 
     /tmp/ccwRztq7.s:82     .text:000000000000002c .L0 
     /tmp/ccwRztq7.s:83     .text:000000000000002c .L0 
     /tmp/ccwRztq7.s:86     .text:0000000000000030 .L0 
     /tmp/ccwRztq7.s:87     .text:0000000000000034 .L0 
     /tmp/ccwRztq7.s:88     .text:0000000000000034 .L0 
     /tmp/ccwRztq7.s:90     .text:0000000000000038 .L0 
     /tmp/ccwRztq7.s:92     .text:000000000000003c .L0 
     /tmp/ccwRztq7.s:98     .text:000000000000003c _Z8mem_freePv
     /tmp/ccwRztq7.s:101    .text:000000000000003c .L0 
     /tmp/ccwRztq7.s:103    .text:000000000000003c .L0 
     /tmp/ccwRztq7.s:104    .text:0000000000000040 .L0 
     /tmp/ccwRztq7.s:106    .text:0000000000000044 .L0 
     /tmp/ccwRztq7.s:108    .text:0000000000000048 .L0 
     /tmp/ccwRztq7.s:113    .text:0000000000000048 .L0 
     /tmp/ccwRztq7.s:114    .text:0000000000000048 .L0 
    src/../h/riscv.h:181    .text:0000000000000048 .L0 
     /tmp/ccwRztq7.s:126    .text:000000000000004c .L0 
     /tmp/ccwRztq7.s:127    .text:000000000000004c .L0 
     /tmp/ccwRztq7.s:128    .text:000000000000004c .L0 
     /tmp/ccwRztq7.s:138    .text:0000000000000054 .L0 
   src/syscall_c.cpp:22     .text:0000000000000054 .L0 
     /tmp/ccwRztq7.s:148    .text:0000000000000058 .L0 
     /tmp/ccwRztq7.s:149    .text:0000000000000058 .L0 
     /tmp/ccwRztq7.s:150    .text:0000000000000058 .L0 
    src/../h/riscv.h:175    .text:0000000000000058 .L0 
     /tmp/ccwRztq7.s:160    .text:000000000000005c .L0 
     /tmp/ccwRztq7.s:161    .text:000000000000005c .L0 
     /tmp/ccwRztq7.s:163    .text:0000000000000060 .L0 
     /tmp/ccwRztq7.s:164    .text:0000000000000060 .L0 
     /tmp/ccwRztq7.s:167    .text:0000000000000064 .L0 
     /tmp/ccwRztq7.s:169    .text:000000000000006c .L0 
     /tmp/ccwRztq7.s:170    .text:000000000000006c .L0 
GAS LISTING /tmp/ccwRztq7.s 			page 12


     /tmp/ccwRztq7.s:172    .text:0000000000000070 .L0 
     /tmp/ccwRztq7.s:174    .text:0000000000000074 .L0 
     /tmp/ccwRztq7.s:180    .text:0000000000000074 _Znwm
     /tmp/ccwRztq7.s:183    .text:0000000000000074 .L0 
     /tmp/ccwRztq7.s:185    .text:0000000000000074 .L0 
     /tmp/ccwRztq7.s:186    .text:0000000000000078 .L0 
     /tmp/ccwRztq7.s:189    .text:0000000000000080 .L0 
     /tmp/ccwRztq7.s:190    .text:0000000000000080 .L0 
     /tmp/ccwRztq7.s:192    .text:0000000000000084 .L0 
     /tmp/ccwRztq7.s:194    .text:0000000000000084 .L0 
     /tmp/ccwRztq7.s:195    .text:0000000000000084 .L0 
     /tmp/ccwRztq7.s:198    .text:000000000000008c .L0 
     /tmp/ccwRztq7.s:199    .text:0000000000000090 .L0 
     /tmp/ccwRztq7.s:201    .text:0000000000000094 .L0 
     /tmp/ccwRztq7.s:202    .text:0000000000000094 .L0 
     /tmp/ccwRztq7.s:204    .text:0000000000000098 .L0 
     /tmp/ccwRztq7.s:206    .text:000000000000009c .L0 
     /tmp/ccwRztq7.s:212    .text:000000000000009c _Znam
     /tmp/ccwRztq7.s:215    .text:000000000000009c .L0 
     /tmp/ccwRztq7.s:217    .text:000000000000009c .L0 
     /tmp/ccwRztq7.s:218    .text:00000000000000a0 .L0 
     /tmp/ccwRztq7.s:221    .text:00000000000000a8 .L0 
     /tmp/ccwRztq7.s:222    .text:00000000000000a8 .L0 
     /tmp/ccwRztq7.s:224    .text:00000000000000ac .L0 
     /tmp/ccwRztq7.s:226    .text:00000000000000ac .L0 
     /tmp/ccwRztq7.s:227    .text:00000000000000ac .L0 
     /tmp/ccwRztq7.s:230    .text:00000000000000b4 .L0 
     /tmp/ccwRztq7.s:231    .text:00000000000000b8 .L0 
     /tmp/ccwRztq7.s:233    .text:00000000000000bc .L0 
     /tmp/ccwRztq7.s:234    .text:00000000000000bc .L0 
     /tmp/ccwRztq7.s:236    .text:00000000000000c0 .L0 
     /tmp/ccwRztq7.s:238    .text:00000000000000c4 .L0 
     /tmp/ccwRztq7.s:244    .text:00000000000000c4 _ZdlPv
     /tmp/ccwRztq7.s:247    .text:00000000000000c4 .L0 
     /tmp/ccwRztq7.s:1982   .data.rel.local.DW.ref.__gxx_personality_v0:0000000000000000 DW.ref.__gxx_personality_v0
     /tmp/ccwRztq7.s:251    .text:00000000000000c4 .L0 
     /tmp/ccwRztq7.s:252    .text:00000000000000c8 .L0 
     /tmp/ccwRztq7.s:255    .text:00000000000000d0 .L0 
     /tmp/ccwRztq7.s:256    .text:00000000000000d0 .L0 
     /tmp/ccwRztq7.s:258    .text:00000000000000d4 .L0 
     /tmp/ccwRztq7.s:260    .text:00000000000000d4 .L0 
     /tmp/ccwRztq7.s:261    .text:00000000000000d4 .L0 
     /tmp/ccwRztq7.s:264    .text:00000000000000dc .L0 
     /tmp/ccwRztq7.s:265    .text:00000000000000e0 .L0 
     /tmp/ccwRztq7.s:267    .text:00000000000000e4 .L0 
     /tmp/ccwRztq7.s:268    .text:00000000000000e4 .L0 
     /tmp/ccwRztq7.s:270    .text:00000000000000e8 .L0 
     /tmp/ccwRztq7.s:272    .text:00000000000000ec .L0 
     /tmp/ccwRztq7.s:286    .text:00000000000000ec _ZdaPv
     /tmp/ccwRztq7.s:289    .text:00000000000000ec .L0 
     /tmp/ccwRztq7.s:293    .text:00000000000000ec .L0 
     /tmp/ccwRztq7.s:294    .text:00000000000000f0 .L0 
     /tmp/ccwRztq7.s:297    .text:00000000000000f8 .L0 
     /tmp/ccwRztq7.s:298    .text:00000000000000f8 .L0 
     /tmp/ccwRztq7.s:300    .text:00000000000000fc .L0 
     /tmp/ccwRztq7.s:302    .text:00000000000000fc .L0 
     /tmp/ccwRztq7.s:303    .text:00000000000000fc .L0 
GAS LISTING /tmp/ccwRztq7.s 			page 13


     /tmp/ccwRztq7.s:306    .text:0000000000000104 .L0 
     /tmp/ccwRztq7.s:307    .text:0000000000000108 .L0 
     /tmp/ccwRztq7.s:309    .text:000000000000010c .L0 
     /tmp/ccwRztq7.s:310    .text:000000000000010c .L0 
     /tmp/ccwRztq7.s:312    .text:0000000000000110 .L0 
     /tmp/ccwRztq7.s:314    .text:0000000000000114 .L0 
     /tmp/ccwRztq7.s:327    .text:0000000000000114 .L0 
     /tmp/ccwRztq7.s:1046   .debug_abbrev:0000000000000000 .Ldebug_abbrev0
     /tmp/ccwRztq7.s:1944   .debug_str:00000000000004b2 .LASF86
     /tmp/ccwRztq7.s:1860   .debug_str:000000000000021d .LASF87
     /tmp/ccwRztq7.s:1892   .debug_str:0000000000000326 .LASF88
     /tmp/ccwRztq7.s:5      .text:0000000000000000 .Ltext0
     /tmp/ccwRztq7.s:324    .text:0000000000000114 .Letext0
     /tmp/ccwRztq7.s:1786   .debug_line:0000000000000000 .Ldebug_line0
     /tmp/ccwRztq7.s:1882   .debug_str:00000000000002ed .LASF0
     /tmp/ccwRztq7.s:1888   .debug_str:0000000000000307 .LASF1
     /tmp/ccwRztq7.s:1874   .debug_str:00000000000002bb .LASF2
     /tmp/ccwRztq7.s:1856   .debug_str:0000000000000203 .LASF4
     /tmp/ccwRztq7.s:1924   .debug_str:0000000000000409 .LASF3
     /tmp/ccwRztq7.s:1800   .debug_str:0000000000000047 .LASF5
     /tmp/ccwRztq7.s:1894   .debug_str:0000000000000340 .LASF6
     /tmp/ccwRztq7.s:1880   .debug_str:00000000000002da .LASF7
     /tmp/ccwRztq7.s:1954   .debug_str:00000000000005a7 .LASF8
     /tmp/ccwRztq7.s:1846   .debug_str:00000000000001af .LASF9
     /tmp/ccwRztq7.s:1900   .debug_str:000000000000036a .LASF10
     /tmp/ccwRztq7.s:1946   .debug_str:0000000000000576 .LASF11
     /tmp/ccwRztq7.s:1802   .debug_str:000000000000004e .LASF12
     /tmp/ccwRztq7.s:1790   .debug_str:0000000000000008 .LASF13
     /tmp/ccwRztq7.s:1812   .debug_str:00000000000000a3 .LASF14
     /tmp/ccwRztq7.s:1914   .debug_str:00000000000003b9 .LASF15
     /tmp/ccwRztq7.s:1820   .debug_str:00000000000000d4 .LASF16
     /tmp/ccwRztq7.s:1886   .debug_str:0000000000000301 .LASF89
     /tmp/ccwRztq7.s:1912   .debug_str:00000000000003ae .LASF53
     /tmp/ccwRztq7.s:1968   .debug_str:0000000000000610 .LASF55
     /tmp/ccwRztq7.s:1792   .debug_str:0000000000000018 .LASF17
     /tmp/ccwRztq7.s:1934   .debug_str:0000000000000459 .LASF19
     /tmp/ccwRztq7.s:1826   .debug_str:0000000000000113 .LASF21
     /tmp/ccwRztq7.s:1824   .debug_str:00000000000000fe .LASF23
     /tmp/ccwRztq7.s:1926   .debug_str:000000000000041b .LASF18
     /tmp/ccwRztq7.s:1906   .debug_str:0000000000000388 .LASF20
     /tmp/ccwRztq7.s:1942   .debug_str:00000000000004ab .LASF22
     /tmp/ccwRztq7.s:1938   .debug_str:0000000000000486 .LASF24
     /tmp/ccwRztq7.s:1838   .debug_str:000000000000016c .LASF25
     /tmp/ccwRztq7.s:1822   .debug_str:00000000000000ea .LASF26
     /tmp/ccwRztq7.s:1788   .debug_str:0000000000000000 .LASF27
     /tmp/ccwRztq7.s:1852   .debug_str:00000000000001d9 .LASF28
     /tmp/ccwRztq7.s:1828   .debug_str:000000000000011c .LASF29
     /tmp/ccwRztq7.s:1806   .debug_str:0000000000000069 .LASF30
     /tmp/ccwRztq7.s:1972   .debug_str:0000000000000633 .LASF31
     /tmp/ccwRztq7.s:1830   .debug_str:0000000000000124 .LASF32
     /tmp/ccwRztq7.s:1884   .debug_str:00000000000002fa .LASF33
     /tmp/ccwRztq7.s:1966   .debug_str:00000000000005fd .LASF34
     /tmp/ccwRztq7.s:1798   .debug_str:0000000000000040 .LASF35
     /tmp/ccwRztq7.s:1836   .debug_str:0000000000000159 .LASF36
     /tmp/ccwRztq7.s:1840   .debug_str:0000000000000174 .LASF37
     /tmp/ccwRztq7.s:1940   .debug_str:0000000000000499 .LASF38
     /tmp/ccwRztq7.s:1796   .debug_str:000000000000003a .LASF39
GAS LISTING /tmp/ccwRztq7.s 			page 14


     /tmp/ccwRztq7.s:1974   .debug_str:000000000000063b .LASF40
     /tmp/ccwRztq7.s:1970   .debug_str:0000000000000628 .LASF41
     /tmp/ccwRztq7.s:1920   .debug_str:00000000000003ea .LASF42
     /tmp/ccwRztq7.s:1862   .debug_str:000000000000022f .LASF43
     /tmp/ccwRztq7.s:1936   .debug_str:000000000000046e .LASF44
     /tmp/ccwRztq7.s:1810   .debug_str:0000000000000099 .LASF45
     /tmp/ccwRztq7.s:1854   .debug_str:00000000000001ed .LASF46
     /tmp/ccwRztq7.s:1876   .debug_str:00000000000002c9 .LASF47
     /tmp/ccwRztq7.s:1850   .debug_str:00000000000001c3 .LASF48
     /tmp/ccwRztq7.s:1872   .debug_str:00000000000002ad .LASF90
     /tmp/ccwRztq7.s:1868   .debug_str:0000000000000279 .LASF91
     /tmp/ccwRztq7.s:1950   .debug_str:000000000000058c .LASF49
     /tmp/ccwRztq7.s:1866   .debug_str:000000000000025c .LASF50
     /tmp/ccwRztq7.s:1952   .debug_str:000000000000059b .LASF51
     /tmp/ccwRztq7.s:1844   .debug_str:0000000000000195 .LASF52
     /tmp/ccwRztq7.s:1908   .debug_str:000000000000039b .LASF54
     /tmp/ccwRztq7.s:1834   .debug_str:000000000000013e .LASF56
     /tmp/ccwRztq7.s:1814   .debug_str:00000000000000af .LASF57
     /tmp/ccwRztq7.s:1870   .debug_str:0000000000000294 .LASF58
     /tmp/ccwRztq7.s:1964   .debug_str:00000000000005ef .LASF59
     /tmp/ccwRztq7.s:1842   .debug_str:000000000000017a .LASF60
     /tmp/ccwRztq7.s:1890   .debug_str:000000000000031a .LASF61
     /tmp/ccwRztq7.s:1794   .debug_str:0000000000000021 .LASF62
     /tmp/ccwRztq7.s:1804   .debug_str:000000000000005e .LASF63
     /tmp/ccwRztq7.s:1932   .debug_str:0000000000000441 .LASF64
     /tmp/ccwRztq7.s:1928   .debug_str:0000000000000422 .LASF65
     /tmp/ccwRztq7.s:1808   .debug_str:000000000000007d .LASF66
     /tmp/ccwRztq7.s:1960   .debug_str:00000000000005cd .LASF92
     /tmp/ccwRztq7.s:1864   .debug_str:000000000000023a .LASF93
     /tmp/ccwRztq7.s:1858   .debug_str:000000000000020a .LASF67
     /tmp/ccwRztq7.s:1922   .debug_str:0000000000000402 .LASF69
     /tmp/ccwRztq7.s:287    .text:00000000000000ec .LFB23
     /tmp/ccwRztq7.s:315    .text:0000000000000114 .LFE23
     /tmp/ccwRztq7.s:1587   .debug_loc:0000000000000000 .LLST16
     /tmp/ccwRztq7.s:304    .text:0000000000000104 .LVL22
     /tmp/ccwRztq7.s:1930   .debug_str:0000000000000431 .LASF68
     /tmp/ccwRztq7.s:1878   .debug_str:00000000000002d3 .LASF70
     /tmp/ccwRztq7.s:245    .text:00000000000000c4 .LFB22
     /tmp/ccwRztq7.s:273    .text:00000000000000ec .LFE22
     /tmp/ccwRztq7.s:1601   .debug_loc:0000000000000039 .LLST15
     /tmp/ccwRztq7.s:262    .text:00000000000000dc .LVL20
     /tmp/ccwRztq7.s:1918   .debug_str:00000000000003da .LASF72
     /tmp/ccwRztq7.s:1832   .debug_str:0000000000000138 .LASF74
     /tmp/ccwRztq7.s:213    .text:000000000000009c .LFB21
     /tmp/ccwRztq7.s:239    .text:00000000000000c4 .LFE21
     /tmp/ccwRztq7.s:1910   .debug_str:00000000000003a9 .LASF71
     /tmp/ccwRztq7.s:1615   .debug_loc:0000000000000072 .LLST14
     /tmp/ccwRztq7.s:228    .text:00000000000000b4 .LVL18
     /tmp/ccwRztq7.s:1962   .debug_str:00000000000005e2 .LASF73
     /tmp/ccwRztq7.s:1848   .debug_str:00000000000001bd .LASF75
     /tmp/ccwRztq7.s:181    .text:0000000000000074 .LFB20
     /tmp/ccwRztq7.s:207    .text:000000000000009c .LFE20
     /tmp/ccwRztq7.s:1629   .debug_loc:00000000000000ab .LLST13
     /tmp/ccwRztq7.s:196    .text:000000000000008c .LVL16
     /tmp/ccwRztq7.s:1904   .debug_str:000000000000037f .LASF76
     /tmp/ccwRztq7.s:1898   .debug_str:000000000000035c .LASF77
     /tmp/ccwRztq7.s:99     .text:000000000000003c .LFB19
GAS LISTING /tmp/ccwRztq7.s 			page 15


     /tmp/ccwRztq7.s:175    .text:0000000000000074 .LFE19
     /tmp/ccwRztq7.s:1643   .debug_loc:00000000000000e4 .LLST7
     /tmp/ccwRztq7.s:111    .text:0000000000000048 .LBB20
     /tmp/ccwRztq7.s:122    .text:000000000000004c .LBE20
     /tmp/ccwRztq7.s:1657   .debug_loc:000000000000011d .LLST8
     /tmp/ccwRztq7.s:1664   .debug_loc:0000000000000140 .LLST9
     /tmp/ccwRztq7.s:124    .text:000000000000004c .LBB22
     /tmp/ccwRztq7.s:136    .text:0000000000000054 .LBE22
     /tmp/ccwRztq7.s:1672   .debug_loc:0000000000000164 .LLST10
     /tmp/ccwRztq7.s:1680   .debug_loc:0000000000000188 .LLST11
     /tmp/ccwRztq7.s:146    .text:0000000000000058 .LBB24
     /tmp/ccwRztq7.s:159    .text:000000000000005c .LBE24
     /tmp/ccwRztq7.s:1688   .debug_loc:00000000000001ac .LLST12
     /tmp/ccwRztq7.s:1896   .debug_str:0000000000000353 .LASF78
     /tmp/ccwRztq7.s:1956   .debug_str:00000000000005b7 .LASF79
     /tmp/ccwRztq7.s:1818   .debug_str:00000000000000c6 .LASF80
     /tmp/ccwRztq7.s:10     .text:0000000000000000 .LFB18
     /tmp/ccwRztq7.s:93     .text:000000000000003c .LFE18
     /tmp/ccwRztq7.s:1696   .debug_loc:00000000000001d0 .LLST0
     /tmp/ccwRztq7.s:1948   .debug_str:0000000000000585 .LASF81
     /tmp/ccwRztq7.s:1716   .debug_loc:000000000000021e .LLST1
     /tmp/ccwRztq7.s:29     .text:0000000000000014 .LBB14
     /tmp/ccwRztq7.s:41     .text:0000000000000018 .LBE14
     /tmp/ccwRztq7.s:1734   .debug_loc:000000000000025b .LLST2
     /tmp/ccwRztq7.s:1741   .debug_loc:000000000000027e .LLST3
     /tmp/ccwRztq7.s:43     .text:0000000000000018 .LBB16
     /tmp/ccwRztq7.s:55     .text:0000000000000020 .LBE16
     /tmp/ccwRztq7.s:1749   .debug_loc:00000000000002a2 .LLST4
     /tmp/ccwRztq7.s:1757   .debug_loc:00000000000002c6 .LLST5
     /tmp/ccwRztq7.s:65     .text:0000000000000024 .LBB18
     /tmp/ccwRztq7.s:78     .text:0000000000000028 .LBE18
     /tmp/ccwRztq7.s:1765   .debug_loc:00000000000002ea .LLST6
     /tmp/ccwRztq7.s:1816   .debug_str:00000000000000bb .LASF82
     /tmp/ccwRztq7.s:1902   .debug_str:0000000000000379 .LASF83
     /tmp/ccwRztq7.s:1916   .debug_str:00000000000003cf .LASF84
     /tmp/ccwRztq7.s:1958   .debug_str:00000000000005c1 .LASF85
     /tmp/ccwRztq7.s:292    .text:00000000000000ec .LVL21
     /tmp/ccwRztq7.s:250    .text:00000000000000c4 .LVL19
     /tmp/ccwRztq7.s:216    .text:000000000000009c .LVL17
     /tmp/ccwRztq7.s:184    .text:0000000000000074 .LVL15
     /tmp/ccwRztq7.s:102    .text:000000000000003c .LVL8
     /tmp/ccwRztq7.s:165    .text:0000000000000064 .LVL14
     /tmp/ccwRztq7.s:110    .text:0000000000000048 .LVL9
     /tmp/ccwRztq7.s:119    .text:000000000000004c .LVL10
     /tmp/ccwRztq7.s:133    .text:0000000000000054 .LVL11
     /tmp/ccwRztq7.s:144    .text:0000000000000058 .LVL12
     /tmp/ccwRztq7.s:155    .text:000000000000005c .LVL13
     /tmp/ccwRztq7.s:14     .text:0000000000000000 .LVL0
     /tmp/ccwRztq7.s:24     .text:0000000000000010 .LVL1
     /tmp/ccwRztq7.s:27     .text:0000000000000014 .LVL2
     /tmp/ccwRztq7.s:84     .text:0000000000000030 .LVL7
     /tmp/ccwRztq7.s:38     .text:0000000000000018 .LVL3
     /tmp/ccwRztq7.s:52     .text:0000000000000020 .LVL4
     /tmp/ccwRztq7.s:63     .text:0000000000000024 .LVL5
     /tmp/ccwRztq7.s:74     .text:0000000000000028 .LVL6
     /tmp/ccwRztq7.s:328    .debug_info:0000000000000000 .Ldebug_info0
     /tmp/ccwRztq7.s:276    .gcc_except_table:0000000000000000 .LLSDA22
GAS LISTING /tmp/ccwRztq7.s 			page 16


     /tmp/ccwRztq7.s:317    .gcc_except_table:0000000000000004 .LLSDA23

UNDEFINED SYMBOLS
__mem_alloc
__mem_free
__gxx_personality_v0
