GAS LISTING C:\msys64\tmp\ccLmBCBX.s 			page 1


   1              		.file	"syscall_c.cpp"
   2              		.option nopic
   3              		.option norelax
   4              		.attribute arch, "rv64i2p0_m2p0_a2p0"
   5              		.attribute unaligned_access, 0
   6              		.attribute stack_align, 16
   7              		.text
   8              	.Ltext0:
   9              		.align	2
  10              		.globl	_Z9mem_allocm
  12              	_Z9mem_allocm:
  13              	.LFB23:
  14              		.file 1 "src/syscall_c.cpp"
   1:src/syscall_c.cpp **** #include "../h/syscall_c.hpp"
   2:src/syscall_c.cpp **** #include  "../h/riscv.h"
   3:src/syscall_c.cpp **** #include "../lib/mem.h"
   4:src/syscall_c.cpp **** #include "../h/Console.h"
   5:src/syscall_c.cpp **** void *mem_alloc(size_t size) {
  15              		.loc 1 5 30
  16              		.cfi_startproc
  17              	.LVL0:
  18 0000 130101FE 		addi	sp,sp,-32
  19              		.cfi_def_cfa_offset 32
  20 0004 233C8100 		sd	s0,24(sp)
  21              		.cfi_offset 8, -8
  22 0008 13040102 		addi	s0,sp,32
  23              		.cfi_def_cfa 8, 0
   6:src/syscall_c.cpp ****     size_t blocks = (size + MEM_BLOCK_SIZE - 1) / MEM_BLOCK_SIZE;
  24              		.loc 1 6 5
  25              		.loc 1 6 44 is_stmt 0
  26 000c 1305F503 		addi	a0,a0,63
  27              	.LVL1:
  28              		.loc 1 6 12
  29 0010 13556500 		srli	a0,a0,6
  30              	.LVL2:
   7:src/syscall_c.cpp **** 
   8:src/syscall_c.cpp ****     Riscv::writeARegister(1, blocks);
  31              		.loc 1 8 5 is_stmt 1
  32              	.LBB76:
  33              	.LBB77:
  34              		.file 2 "src/../h/riscv.h"
   1:src/../h/riscv.h ****     //
   2:src/../h/riscv.h ****     // Created by os on 3/31/26.
   3:src/../h/riscv.h ****     //
   4:src/../h/riscv.h **** 
   5:src/../h/riscv.h ****     #ifndef PROJECT_BASE_RISCB_H
   6:src/../h/riscv.h ****     #define PROJECT_BASE_RISCB_H
   7:src/../h/riscv.h ****     #include "../lib/hw.h"
   8:src/../h/riscv.h **** 
   9:src/../h/riscv.h ****     class Riscv {
  10:src/../h/riscv.h ****     public:
  11:src/../h/riscv.h **** 	
  12:src/../h/riscv.h **** 	static void popSppSpie();
  13:src/../h/riscv.h **** 	
  14:src/../h/riscv.h **** 	
  15:src/../h/riscv.h ****         static uint64 r_scause();
  16:src/../h/riscv.h **** 
GAS LISTING C:\msys64\tmp\ccLmBCBX.s 			page 2


  17:src/../h/riscv.h ****         static void w_scause(uint64 scause);
  18:src/../h/riscv.h **** 
  19:src/../h/riscv.h ****         static uint64 r_sepc();
  20:src/../h/riscv.h **** 
  21:src/../h/riscv.h ****         static void w_sepc(uint64 sepc);
  22:src/../h/riscv.h **** 
  23:src/../h/riscv.h ****         static uint64 r_stvec();
  24:src/../h/riscv.h **** 
  25:src/../h/riscv.h ****         static void w_stvec(uint64 stvec);
  26:src/../h/riscv.h **** 
  27:src/../h/riscv.h ****         static uint64 r_stval();
  28:src/../h/riscv.h **** 
  29:src/../h/riscv.h ****         static void w_stval(uint64 stval);
  30:src/../h/riscv.h **** 
  31:src/../h/riscv.h ****         enum BitMaskSip {
  32:src/../h/riscv.h ****             SIP_SSIP = (1 << 1),
  33:src/../h/riscv.h ****             SIP_STIP = (1 << 5),
  34:src/../h/riscv.h ****             SIP_SEIP = (1 << 9),
  35:src/../h/riscv.h ****         };
  36:src/../h/riscv.h **** 
  37:src/../h/riscv.h ****         static void ms_sip(uint64 mask);
  38:src/../h/riscv.h **** 
  39:src/../h/riscv.h ****         static void mc_sip(uint64 mask);
  40:src/../h/riscv.h **** 
  41:src/../h/riscv.h ****         static uint64 r_sip();
  42:src/../h/riscv.h **** 
  43:src/../h/riscv.h ****         static void w_sip(uint64 sip);
  44:src/../h/riscv.h **** 
  45:src/../h/riscv.h ****         enum BitMaskSstatus {
  46:src/../h/riscv.h ****             SSTATUS_SIE = (1 << 1),
  47:src/../h/riscv.h ****             SSTATUS_SPIE = (1 << 5),
  48:src/../h/riscv.h ****             SSTATUS_SPP = (1 <<8),
  49:src/../h/riscv.h ****         };
  50:src/../h/riscv.h **** 
  51:src/../h/riscv.h ****         static void ms_sstatus(uint64 mask);
  52:src/../h/riscv.h **** 
  53:src/../h/riscv.h ****         static void mc_sstatus(uint64 mask);
  54:src/../h/riscv.h **** 
  55:src/../h/riscv.h ****         static uint64 r_sstatus();
  56:src/../h/riscv.h **** 
  57:src/../h/riscv.h ****         static void w_sstatus(uint64 sstatus);
  58:src/../h/riscv.h **** 
  59:src/../h/riscv.h ****         static uint64 readARegister(int reg_number);
  60:src/../h/riscv.h **** 
  61:src/../h/riscv.h ****         static void writeARegister(int reg_number, uint64 value);
  62:src/../h/riscv.h **** 
  63:src/../h/riscv.h **** 
  64:src/../h/riscv.h ****         static void supervisorTrap();
  65:src/../h/riscv.h ****     private:
  66:src/../h/riscv.h ****         static void handleSupervisorTrap(uint64 a0, uint64 a1, uint64 a2, uint64 a3, uint64 a4, uin
  67:src/../h/riscv.h **** 
  68:src/../h/riscv.h ****     };
  69:src/../h/riscv.h **** 
  70:src/../h/riscv.h ****     inline uint64 Riscv::r_scause()
  71:src/../h/riscv.h ****     {
  72:src/../h/riscv.h ****         uint64 volatile scause;
  73:src/../h/riscv.h ****         __asm__ volatile ("csrr %[scause], scause" : [scause] "=r"(scause));
GAS LISTING C:\msys64\tmp\ccLmBCBX.s 			page 3


  74:src/../h/riscv.h ****         return scause;
  75:src/../h/riscv.h ****     }
  76:src/../h/riscv.h **** 
  77:src/../h/riscv.h ****     inline void Riscv::w_scause(uint64 scause)
  78:src/../h/riscv.h ****     {
  79:src/../h/riscv.h ****         __asm__ volatile ("csrw scause, %[scause]" : : [scause] "r"(scause));
  80:src/../h/riscv.h ****     }
  81:src/../h/riscv.h **** 
  82:src/../h/riscv.h ****     inline uint64 Riscv::r_sepc()
  83:src/../h/riscv.h ****     {
  84:src/../h/riscv.h ****         uint64 volatile sepc;
  85:src/../h/riscv.h ****         __asm__ volatile ("csrr %[sepc], sepc" : [sepc] "=r"(sepc));
  86:src/../h/riscv.h ****         return sepc;
  87:src/../h/riscv.h ****     }
  88:src/../h/riscv.h **** 
  89:src/../h/riscv.h ****     inline void Riscv::w_sepc(uint64 sepc)
  90:src/../h/riscv.h ****     {
  91:src/../h/riscv.h ****         __asm__ volatile ("csrw sepc, %[sepc]" : : [sepc] "r"(sepc));
  92:src/../h/riscv.h ****     }
  93:src/../h/riscv.h **** 
  94:src/../h/riscv.h ****     inline uint64 Riscv::r_stvec()
  95:src/../h/riscv.h ****     {
  96:src/../h/riscv.h ****         uint64 volatile stvec;
  97:src/../h/riscv.h ****         __asm__ volatile ("csrr %[stvec], stvec" : [stvec] "=r"(stvec));
  98:src/../h/riscv.h ****         return stvec;
  99:src/../h/riscv.h ****     }
 100:src/../h/riscv.h **** 
 101:src/../h/riscv.h ****     inline void Riscv::w_stvec(uint64 stvec)
 102:src/../h/riscv.h ****     {
 103:src/../h/riscv.h ****         __asm__ volatile ("csrw stvec, %[stvec]" : : [stvec] "r"(stvec));
 104:src/../h/riscv.h ****     }
 105:src/../h/riscv.h **** 
 106:src/../h/riscv.h ****     inline uint64 Riscv::r_stval()
 107:src/../h/riscv.h ****     {
 108:src/../h/riscv.h ****         uint64 volatile stval;
 109:src/../h/riscv.h ****         __asm__ volatile ("csrr %[stval], stval" : [stval] "=r"(stval));
 110:src/../h/riscv.h ****         return stval;
 111:src/../h/riscv.h ****     }
 112:src/../h/riscv.h **** 
 113:src/../h/riscv.h ****     inline void Riscv::w_stval(uint64 stval)
 114:src/../h/riscv.h ****     {
 115:src/../h/riscv.h ****         __asm__ volatile ("csrw stval, %[stval]" : : [stval] "r"(stval));
 116:src/../h/riscv.h ****     }
 117:src/../h/riscv.h **** 
 118:src/../h/riscv.h ****     inline void Riscv::ms_sip(uint64 mask)
 119:src/../h/riscv.h ****     {
 120:src/../h/riscv.h ****         __asm__ volatile ("csrs sip, %[mask]" : : [mask] "r"(mask));
 121:src/../h/riscv.h ****     }
 122:src/../h/riscv.h **** 
 123:src/../h/riscv.h ****     inline void Riscv::mc_sip(uint64 mask)
 124:src/../h/riscv.h ****     {
 125:src/../h/riscv.h ****         __asm__ volatile ("csrc sip, %[mask]" : : [mask] "r"(mask));
 126:src/../h/riscv.h ****     }
 127:src/../h/riscv.h **** 
 128:src/../h/riscv.h ****     inline uint64 Riscv::r_sip()
 129:src/../h/riscv.h ****     {
 130:src/../h/riscv.h ****         uint64 volatile sip;
GAS LISTING C:\msys64\tmp\ccLmBCBX.s 			page 4


 131:src/../h/riscv.h ****         __asm__ volatile ("csrr %[sip], sip" : [sip] "=r"(sip));
 132:src/../h/riscv.h ****         return sip;
 133:src/../h/riscv.h ****     }
 134:src/../h/riscv.h **** 
 135:src/../h/riscv.h ****     inline void Riscv::w_sip(uint64 sip)
 136:src/../h/riscv.h ****     {
 137:src/../h/riscv.h ****         __asm__ volatile ("csrw sip, %[sip]" : : [sip] "r"(sip));
 138:src/../h/riscv.h ****     }
 139:src/../h/riscv.h **** 
 140:src/../h/riscv.h ****     inline void Riscv::ms_sstatus(uint64 mask)
 141:src/../h/riscv.h ****     {
 142:src/../h/riscv.h ****         __asm__ volatile ("csrs sstatus, %[mask]" : : [mask] "r"(mask));
 143:src/../h/riscv.h ****     }
 144:src/../h/riscv.h **** 
 145:src/../h/riscv.h ****     inline void Riscv::mc_sstatus(uint64 mask)
 146:src/../h/riscv.h ****     {
 147:src/../h/riscv.h ****         __asm__ volatile ("csrc sstatus, %[mask]" : : [mask] "r"(mask));
 148:src/../h/riscv.h ****     }
 149:src/../h/riscv.h **** 
 150:src/../h/riscv.h ****     inline uint64 Riscv::r_sstatus()
 151:src/../h/riscv.h ****     {
 152:src/../h/riscv.h ****         uint64 volatile sstatus;
 153:src/../h/riscv.h ****         __asm__ volatile ("csrr %[sstatus], sstatus" : [sstatus] "=r"(sstatus));
 154:src/../h/riscv.h ****         return sstatus;
 155:src/../h/riscv.h ****     }
 156:src/../h/riscv.h **** 
 157:src/../h/riscv.h ****     inline void Riscv::w_sstatus(uint64 sstatus)
 158:src/../h/riscv.h ****     {
 159:src/../h/riscv.h ****         __asm__ volatile ("csrw sstatus, %[sstatus]" : : [sstatus] "r"(sstatus));
 160:src/../h/riscv.h ****     }
 161:src/../h/riscv.h **** 
 162:src/../h/riscv.h **** inline uint64 Riscv::readARegister(int reg_number) {
 163:src/../h/riscv.h ****         uint64 value;
 164:src/../h/riscv.h ****         __asm__ volatile("mv %[val], a%[reg]" : [val] "=r" (value) : [reg] "i" (reg_number));
 165:src/../h/riscv.h ****         return value;
 166:src/../h/riscv.h ****     }
 167:src/../h/riscv.h **** 
 168:src/../h/riscv.h **** 
 169:src/../h/riscv.h **** inline void Riscv::writeARegister( int reg_number, uint64 value) {
 170:src/../h/riscv.h ****         __asm__ volatile("mv a%[reg], %[val]" :: [reg] "i" (reg_number), [val] "r" (value));
  35              		.loc 2 170 9
  36              	 #APP
  37              	# 170 "src/../h/riscv.h" 1
 171              	    }
  38              		mv a1, a0
  39              	# 0 "" 2
  40              	.LVL3:
  41              	 #NO_APP
  42              	.LBE77:
  43              	.LBE76:
   9:src/syscall_c.cpp ****     Riscv::writeARegister(0, 0x01);
  44              		.loc 1 9 5
  45              	.LBB78:
  46              	.LBB79:
 170:src/../h/riscv.h ****     }
  47              		.loc 2 170 9
  48 0018 93071000 		li	a5,1
GAS LISTING C:\msys64\tmp\ccLmBCBX.s 			page 5


  49              	 #APP
  50              	# 170 "src/../h/riscv.h" 1
  51              		mv a0, a5
  52              	# 0 "" 2
  53              	.LVL4:
  54              	 #NO_APP
  55              	.LBE79:
  56              	.LBE78:
  10:src/syscall_c.cpp **** 
  11:src/syscall_c.cpp ****     __asm__ volatile("ecall");
  57              		.loc 1 11 5
  58              	 #APP
  59              	# 11 "src/syscall_c.cpp" 1
  12              	
  13:src/syscall_c.cpp ****     volatile long a0 = Riscv::readARegister(0);
  60              		ecall
  61              	# 0 "" 2
  62              		.loc 1 13 5
  63              	.LVL5:
  64              	 #NO_APP
  65              	.LBB80:
  66              	.LBB81:
 163:src/../h/riscv.h ****         __asm__ volatile("mv %[val], a%[reg]" : [val] "=r" (value) : [reg] "i" (reg_number));
  67              		.loc 2 163 9
 164:src/../h/riscv.h ****         return value;
  68              		.loc 2 164 9
  69              	 #APP
  70              	# 164 "src/../h/riscv.h" 1
  71              		mv a5, a0
  72              	# 0 "" 2
  73              	.LVL6:
 165:src/../h/riscv.h ****     }
  74              		.loc 2 165 9
  75              	 #NO_APP
  76              	.LBE81:
  77              	.LBE80:
  78              		.loc 1 13 46 is_stmt 0
  79 0028 2334F4FE 		sd	a5,-24(s0)
  14:src/syscall_c.cpp ****     return (void*) a0;
  80              		.loc 1 14 5 is_stmt 1
  81              		.loc 1 14 20 is_stmt 0
  82 002c 033584FE 		ld	a0,-24(s0)
  83              	.LVL7:
  15:src/syscall_c.cpp **** 
  16:src/syscall_c.cpp **** 
  17:src/syscall_c.cpp **** }
  84              		.loc 1 17 1
  85 0030 03348101 		ld	s0,24(sp)
  86              		.cfi_restore 8
  87              		.cfi_def_cfa 2, 32
  88 0034 13010102 		addi	sp,sp,32
  89              		.cfi_def_cfa_offset 0
  90 0038 67800000 		jr	ra
  91              		.cfi_endproc
  92              	.LFE23:
  94              		.align	2
  95              		.globl	_Z8mem_freePv
GAS LISTING C:\msys64\tmp\ccLmBCBX.s 			page 6


  97              	_Z8mem_freePv:
  98              	.LFB24:
  18:src/syscall_c.cpp **** 
  19:src/syscall_c.cpp **** int mem_free (void* ptr) {
  99              		.loc 1 19 26 is_stmt 1
 100              		.cfi_startproc
 101              	.LVL8:
 102 003c 130101FE 		addi	sp,sp,-32
 103              		.cfi_def_cfa_offset 32
 104 0040 233C8100 		sd	s0,24(sp)
 105              		.cfi_offset 8, -8
 106 0044 13040102 		addi	s0,sp,32
 107              		.cfi_def_cfa 8, 0
  20:src/syscall_c.cpp ****     Riscv::writeARegister(1, (uint64)ptr);
 108              		.loc 1 20 5
 109              	.LVL9:
 110              	.LBB82:
 111              	.LBB83:
 170:src/../h/riscv.h ****     }
 112              		.loc 2 170 9
 113              	 #APP
 114              	# 170 "src/../h/riscv.h" 1
 115              		mv a1, a0
 116              	# 0 "" 2
 117              	.LVL10:
 118              	 #NO_APP
 119              	.LBE83:
 120              	.LBE82:
  21:src/syscall_c.cpp ****     Riscv::writeARegister(0, 0x02);
 121              		.loc 1 21 5
 122              	.LBB84:
 123              	.LBB85:
 170:src/../h/riscv.h ****     }
 124              		.loc 2 170 9
 125 004c 93072000 		li	a5,2
 126              	 #APP
 127              	# 170 "src/../h/riscv.h" 1
 128              		mv a0, a5
 129              	# 0 "" 2
 130              	.LVL11:
 131              	 #NO_APP
 132              	.LBE85:
 133              	.LBE84:
  22:src/syscall_c.cpp **** 
  23:src/syscall_c.cpp ****     __asm__ volatile("ecall");
 134              		.loc 1 23 5
 135              	 #APP
 136              	# 23 "src/syscall_c.cpp" 1
  24              	
  25:src/syscall_c.cpp ****     volatile long a0 = Riscv::readARegister(0);
 137              		ecall
 138              	# 0 "" 2
 139              		.loc 1 25 5
 140              	.LVL12:
 141              	 #NO_APP
 142              	.LBB86:
 143              	.LBB87:
GAS LISTING C:\msys64\tmp\ccLmBCBX.s 			page 7


 163:src/../h/riscv.h ****         __asm__ volatile("mv %[val], a%[reg]" : [val] "=r" (value) : [reg] "i" (reg_number));
 144              		.loc 2 163 9
 164:src/../h/riscv.h ****         return value;
 145              		.loc 2 164 9
 146              	 #APP
 147              	# 164 "src/../h/riscv.h" 1
 148              		mv a5, a0
 149              	# 0 "" 2
 150              	.LVL13:
 165:src/../h/riscv.h ****     }
 151              		.loc 2 165 9
 152              	 #NO_APP
 153              	.LBE87:
 154              	.LBE86:
 155              		.loc 1 25 46 is_stmt 0
 156 005c 2334F4FE 		sd	a5,-24(s0)
  26:src/syscall_c.cpp ****     return (int) a0;
 157              		.loc 1 26 5 is_stmt 1
 158              		.loc 1 26 18 is_stmt 0
 159 0060 033584FE 		ld	a0,-24(s0)
 160              	.LVL14:
  27:src/syscall_c.cpp **** }
 161              		.loc 1 27 1
 162 0064 1B050500 		sext.w	a0,a0
 163 0068 03348101 		ld	s0,24(sp)
 164              		.cfi_restore 8
 165              		.cfi_def_cfa 2, 32
 166 006c 13010102 		addi	sp,sp,32
 167              		.cfi_def_cfa_offset 0
 168 0070 67800000 		jr	ra
 169              		.cfi_endproc
 170              	.LFE24:
 172              		.align	2
 173              		.globl	_Z13thread_createPP7_threadPFvPvES2_
 175              	_Z13thread_createPP7_threadPFvPvES2_:
 176              	.LFB25:
  28:src/syscall_c.cpp **** 
  29:src/syscall_c.cpp **** int thread_create(thread_t* handle, void(*start_routine)(void *), void *arg) {
 177              		.loc 1 29 78 is_stmt 1
 178              		.cfi_startproc
 179              	.LVL15:
 180 0074 130101FC 		addi	sp,sp,-64
 181              		.cfi_def_cfa_offset 64
 182 0078 233C1102 		sd	ra,56(sp)
 183 007c 23388102 		sd	s0,48(sp)
 184 0080 23349102 		sd	s1,40(sp)
 185 0084 23302103 		sd	s2,32(sp)
 186 0088 233C3101 		sd	s3,24(sp)
 187              		.cfi_offset 1, -8
 188              		.cfi_offset 8, -16
 189              		.cfi_offset 9, -24
 190              		.cfi_offset 18, -32
 191              		.cfi_offset 19, -40
 192 008c 13040104 		addi	s0,sp,64
 193              		.cfi_def_cfa 8, 0
 194 0090 13090500 		mv	s2,a0
 195 0094 93840500 		mv	s1,a1
GAS LISTING C:\msys64\tmp\ccLmBCBX.s 			page 8


 196 0098 93090600 		mv	s3,a2
  30:src/syscall_c.cpp ****     void* volatile stack = nullptr;
 197              		.loc 1 30 5
 198              		.loc 1 30 20 is_stmt 0
 199 009c 233404FC 		sd	zero,-56(s0)
  31:src/syscall_c.cpp ****     if (start_routine) {
 200              		.loc 1 31 5 is_stmt 1
 201 00a0 638A0500 		beq	a1,zero,.L6
  32:src/syscall_c.cpp ****         stack = mem_alloc(DEFAULT_STACK_SIZE);
 202              		.loc 1 32 9
 203              		.loc 1 32 26 is_stmt 0
 204 00a4 37150000 		li	a0,4096
 205              	.LVL16:
 206 00a8 97000000 		call	_Z9mem_allocm
 206      E7800000 
 207              	.LVL17:
 208              		.loc 1 32 15
 209 00b0 2334A4FC 		sd	a0,-56(s0)
 210              	.L6:
  33:src/syscall_c.cpp ****     }
  34:src/syscall_c.cpp **** 
  35:src/syscall_c.cpp **** 
  36:src/syscall_c.cpp ****     Riscv::writeARegister(4, (uint64)stack);
 211              		.loc 1 36 5 is_stmt 1
 212              		.loc 1 36 26 is_stmt 0
 213 00b4 833784FC 		ld	a5,-56(s0)
 214              	.LVL18:
 215              	.LBB88:
 216              	.LBB89:
 170:src/../h/riscv.h ****     }
 217              		.loc 2 170 9 is_stmt 1
 218              	 #APP
 219              	# 170 "src/../h/riscv.h" 1
 220              		mv a4, a5
 221              	# 0 "" 2
 222              	.LVL19:
 223              	 #NO_APP
 224              	.LBE89:
 225              	.LBE88:
  37:src/syscall_c.cpp ****     Riscv::writeARegister(3, (uint64)arg);
 226              		.loc 1 37 5
 227              	.LBB90:
 228              	.LBB91:
 170:src/../h/riscv.h ****     }
 229              		.loc 2 170 9
 230              	 #APP
 231              	# 170 "src/../h/riscv.h" 1
 232              		mv a3, s3
 233              	# 0 "" 2
 234              	.LVL20:
 235              	 #NO_APP
 236              	.LBE91:
 237              	.LBE90:
  38:src/syscall_c.cpp ****     Riscv::writeARegister(2, (uint64)start_routine);
 238              		.loc 1 38 5
 239              	.LBB92:
 240              	.LBB93:
GAS LISTING C:\msys64\tmp\ccLmBCBX.s 			page 9


 170:src/../h/riscv.h ****     }
 241              		.loc 2 170 9
 242              	 #APP
 243              	# 170 "src/../h/riscv.h" 1
 244              		mv a2, s1
 245              	# 0 "" 2
 246              	.LVL21:
 247              	 #NO_APP
 248              	.LBE93:
 249              	.LBE92:
  39:src/syscall_c.cpp ****     Riscv::writeARegister(1, (uint64)handle);
 250              		.loc 1 39 5
 251              	.LBB94:
 252              	.LBB95:
 170:src/../h/riscv.h ****     }
 253              		.loc 2 170 9
 254              	 #APP
 255              	# 170 "src/../h/riscv.h" 1
 256              		mv a1, s2
 257              	# 0 "" 2
 258              	.LVL22:
 259              	 #NO_APP
 260              	.LBE95:
 261              	.LBE94:
  40:src/syscall_c.cpp **** 
  41:src/syscall_c.cpp ****     Riscv::writeARegister(0, 0x11);
 262              		.loc 1 41 5
 263              	.LBB96:
 264              	.LBB97:
 170:src/../h/riscv.h ****     }
 265              		.loc 2 170 9
 266 00c8 93071001 		li	a5,17
 267              	 #APP
 268              	# 170 "src/../h/riscv.h" 1
 269              		mv a0, a5
 270              	# 0 "" 2
 271              	.LVL23:
 272              	 #NO_APP
 273              	.LBE97:
 274              	.LBE96:
  42:src/syscall_c.cpp **** 
  43:src/syscall_c.cpp ****     __asm__ volatile("ecall");
 275              		.loc 1 43 5
 276              	 #APP
 277              	# 43 "src/syscall_c.cpp" 1
  44              	
  45:src/syscall_c.cpp ****     volatile long a0 = Riscv::readARegister(0);
 278              		ecall
 279              	# 0 "" 2
 280              		.loc 1 45 5
 281              	.LVL24:
 282              	 #NO_APP
 283              	.LBB98:
 284              	.LBB99:
 163:src/../h/riscv.h ****         __asm__ volatile("mv %[val], a%[reg]" : [val] "=r" (value) : [reg] "i" (reg_number));
 285              		.loc 2 163 9
 164:src/../h/riscv.h ****         return value;
GAS LISTING C:\msys64\tmp\ccLmBCBX.s 			page 10


 286              		.loc 2 164 9
 287              	 #APP
 288              	# 164 "src/../h/riscv.h" 1
 289              		mv a5, a0
 290              	# 0 "" 2
 291              	.LVL25:
 165:src/../h/riscv.h ****     }
 292              		.loc 2 165 9
 293              	 #NO_APP
 294              	.LBE99:
 295              	.LBE98:
 296              		.loc 1 45 46 is_stmt 0
 297 00d8 2330F4FC 		sd	a5,-64(s0)
  46:src/syscall_c.cpp ****     return (int) a0;
 298              		.loc 1 46 5 is_stmt 1
 299              		.loc 1 46 18 is_stmt 0
 300 00dc 033504FC 		ld	a0,-64(s0)
  47:src/syscall_c.cpp **** }
 301              		.loc 1 47 1
 302 00e0 1B050500 		sext.w	a0,a0
 303 00e4 83308103 		ld	ra,56(sp)
 304              		.cfi_restore 1
 305 00e8 03340103 		ld	s0,48(sp)
 306              		.cfi_restore 8
 307              		.cfi_def_cfa 2, 64
 308 00ec 83348102 		ld	s1,40(sp)
 309              		.cfi_restore 9
 310              	.LVL26:
 311 00f0 03390102 		ld	s2,32(sp)
 312              		.cfi_restore 18
 313              	.LVL27:
 314 00f4 83398101 		ld	s3,24(sp)
 315              		.cfi_restore 19
 316              	.LVL28:
 317 00f8 13010104 		addi	sp,sp,64
 318              		.cfi_def_cfa_offset 0
 319 00fc 67800000 		jr	ra
 320              		.cfi_endproc
 321              	.LFE25:
 323              		.align	2
 324              		.globl	_Z15thread_dispatchv
 326              	_Z15thread_dispatchv:
 327              	.LFB26:
  48:src/syscall_c.cpp **** 
  49:src/syscall_c.cpp **** void thread_dispatch() {
 328              		.loc 1 49 24 is_stmt 1
 329              		.cfi_startproc
 330 0100 130101FF 		addi	sp,sp,-16
 331              		.cfi_def_cfa_offset 16
 332 0104 23348100 		sd	s0,8(sp)
 333              		.cfi_offset 8, -8
 334 0108 13040101 		addi	s0,sp,16
 335              		.cfi_def_cfa 8, 0
  50:src/syscall_c.cpp ****     Riscv::writeARegister(0, 0x13);
 336              		.loc 1 50 5
 337              	.LVL29:
 338              	.LBB100:
GAS LISTING C:\msys64\tmp\ccLmBCBX.s 			page 11


 339              	.LBB101:
 170:src/../h/riscv.h ****     }
 340              		.loc 2 170 9
 341 010c 93073001 		li	a5,19
 342              	 #APP
 343              	# 170 "src/../h/riscv.h" 1
 344              		mv a0, a5
 345              	# 0 "" 2
 346              	.LVL30:
 347              	 #NO_APP
 348              	.LBE101:
 349              	.LBE100:
  51:src/syscall_c.cpp **** 
  52:src/syscall_c.cpp ****     __asm__ volatile("ecall");
 350              		.loc 1 52 5
 351              	 #APP
 352              	# 52 "src/syscall_c.cpp" 1
  53              	
  54:src/syscall_c.cpp **** }
 353              		ecall
 354              	# 0 "" 2
 355              		.loc 1 54 1 is_stmt 0
 356              	 #NO_APP
 357 0118 03348100 		ld	s0,8(sp)
 358              		.cfi_restore 8
 359              		.cfi_def_cfa 2, 16
 360 011c 13010101 		addi	sp,sp,16
 361              		.cfi_def_cfa_offset 0
 362 0120 67800000 		jr	ra
 363              		.cfi_endproc
 364              	.LFE26:
 366              		.align	2
 367              		.globl	_Z11thread_exitv
 369              	_Z11thread_exitv:
 370              	.LFB27:
  55:src/syscall_c.cpp **** 
  56:src/syscall_c.cpp **** int thread_exit() {
 371              		.loc 1 56 19 is_stmt 1
 372              		.cfi_startproc
 373 0124 130101FE 		addi	sp,sp,-32
 374              		.cfi_def_cfa_offset 32
 375 0128 233C8100 		sd	s0,24(sp)
 376              		.cfi_offset 8, -8
 377 012c 13040102 		addi	s0,sp,32
 378              		.cfi_def_cfa 8, 0
  57:src/syscall_c.cpp ****     Riscv::writeARegister(0, 0x12);
 379              		.loc 1 57 5
 380              	.LVL31:
 381              	.LBB102:
 382              	.LBB103:
 170:src/../h/riscv.h ****     }
 383              		.loc 2 170 9
 384 0130 93072001 		li	a5,18
 385              	 #APP
 386              	# 170 "src/../h/riscv.h" 1
 387              		mv a0, a5
 388              	# 0 "" 2
GAS LISTING C:\msys64\tmp\ccLmBCBX.s 			page 12


 389              	.LVL32:
 390              	 #NO_APP
 391              	.LBE103:
 392              	.LBE102:
  58:src/syscall_c.cpp **** 
  59:src/syscall_c.cpp ****     __asm__ volatile("ecall");
 393              		.loc 1 59 5
 394              	 #APP
 395              	# 59 "src/syscall_c.cpp" 1
  60              	
  61:src/syscall_c.cpp ****     volatile long a0 = Riscv::readARegister(0);
 396              		ecall
 397              	# 0 "" 2
 398              		.loc 1 61 5
 399              	.LVL33:
 400              	 #NO_APP
 401              	.LBB104:
 402              	.LBB105:
 163:src/../h/riscv.h ****         __asm__ volatile("mv %[val], a%[reg]" : [val] "=r" (value) : [reg] "i" (reg_number));
 403              		.loc 2 163 9
 164:src/../h/riscv.h ****         return value;
 404              		.loc 2 164 9
 405              	 #APP
 406              	# 164 "src/../h/riscv.h" 1
 407              		mv a5, a0
 408              	# 0 "" 2
 409              	.LVL34:
 165:src/../h/riscv.h ****     }
 410              		.loc 2 165 9
 411              	 #NO_APP
 412              	.LBE105:
 413              	.LBE104:
 414              		.loc 1 61 46 is_stmt 0
 415 0140 2334F4FE 		sd	a5,-24(s0)
  62:src/syscall_c.cpp ****     return (int) a0;
 416              		.loc 1 62 5 is_stmt 1
 417              		.loc 1 62 18 is_stmt 0
 418 0144 033584FE 		ld	a0,-24(s0)
  63:src/syscall_c.cpp **** 
  64:src/syscall_c.cpp **** }
 419              		.loc 1 64 1
 420 0148 1B050500 		sext.w	a0,a0
 421 014c 03348101 		ld	s0,24(sp)
 422              		.cfi_restore 8
 423              		.cfi_def_cfa 2, 32
 424 0150 13010102 		addi	sp,sp,32
 425              		.cfi_def_cfa_offset 0
 426 0154 67800000 		jr	ra
 427              		.cfi_endproc
 428              	.LFE27:
 430              		.align	2
 431              		.globl	_Z8sem_openPP4_semj
 433              	_Z8sem_openPP4_semj:
 434              	.LFB28:
  65:src/syscall_c.cpp **** 
  66:src/syscall_c.cpp **** int sem_open(sem_t*handle, unsigned init) {
 435              		.loc 1 66 43 is_stmt 1
GAS LISTING C:\msys64\tmp\ccLmBCBX.s 			page 13


 436              		.cfi_startproc
 437              	.LVL35:
 438 0158 130101FE 		addi	sp,sp,-32
 439              		.cfi_def_cfa_offset 32
 440 015c 233C8100 		sd	s0,24(sp)
 441              		.cfi_offset 8, -8
 442 0160 13040102 		addi	s0,sp,32
 443              		.cfi_def_cfa 8, 0
  67:src/syscall_c.cpp ****     Riscv::writeARegister(2, (uint64)init);
 444              		.loc 1 67 5
 445              		.loc 1 67 26 is_stmt 0
 446 0164 93950502 		slli	a1,a1,32
 447              	.LVL36:
 448 0168 93D50502 		srli	a1,a1,32
 449              	.LVL37:
 450              	.LBB106:
 451              	.LBB107:
 170:src/../h/riscv.h ****     }
 452              		.loc 2 170 9 is_stmt 1
 453              	 #APP
 454              	# 170 "src/../h/riscv.h" 1
 455              		mv a2, a1
 456              	# 0 "" 2
 457              	.LVL38:
 458              	 #NO_APP
 459              	.LBE107:
 460              	.LBE106:
  68:src/syscall_c.cpp ****     Riscv::writeARegister(1, (uint64)handle);
 461              		.loc 1 68 5
 462              	.LBB108:
 463              	.LBB109:
 170:src/../h/riscv.h ****     }
 464              		.loc 2 170 9
 465              	 #APP
 466              	# 170 "src/../h/riscv.h" 1
 467              		mv a1, a0
 468              	# 0 "" 2
 469              	.LVL39:
 470              	 #NO_APP
 471              	.LBE109:
 472              	.LBE108:
  69:src/syscall_c.cpp **** 
  70:src/syscall_c.cpp ****     Riscv::writeARegister(0, 0x21);
 473              		.loc 1 70 5
 474              	.LBB110:
 475              	.LBB111:
 170:src/../h/riscv.h ****     }
 476              		.loc 2 170 9
 477 0174 93071002 		li	a5,33
 478              	 #APP
 479              	# 170 "src/../h/riscv.h" 1
 480              		mv a0, a5
 481              	# 0 "" 2
 482              	.LVL40:
 483              	 #NO_APP
 484              	.LBE111:
 485              	.LBE110:
GAS LISTING C:\msys64\tmp\ccLmBCBX.s 			page 14


  71:src/syscall_c.cpp **** 
  72:src/syscall_c.cpp ****     __asm__ volatile("ecall");
 486              		.loc 1 72 5
 487              	 #APP
 488              	# 72 "src/syscall_c.cpp" 1
  73              	
  74:src/syscall_c.cpp ****     volatile long a0 = Riscv::readARegister(0);
 489              		ecall
 490              	# 0 "" 2
 491              		.loc 1 74 5
 492              	.LVL41:
 493              	 #NO_APP
 494              	.LBB112:
 495              	.LBB113:
 163:src/../h/riscv.h ****         __asm__ volatile("mv %[val], a%[reg]" : [val] "=r" (value) : [reg] "i" (reg_number));
 496              		.loc 2 163 9
 164:src/../h/riscv.h ****         return value;
 497              		.loc 2 164 9
 498              	 #APP
 499              	# 164 "src/../h/riscv.h" 1
 500              		mv a5, a0
 501              	# 0 "" 2
 502              	.LVL42:
 165:src/../h/riscv.h ****     }
 503              		.loc 2 165 9
 504              	 #NO_APP
 505              	.LBE113:
 506              	.LBE112:
 507              		.loc 1 74 46 is_stmt 0
 508 0184 2334F4FE 		sd	a5,-24(s0)
  75:src/syscall_c.cpp ****     return (int) a0;
 509              		.loc 1 75 5 is_stmt 1
 510              		.loc 1 75 18 is_stmt 0
 511 0188 033584FE 		ld	a0,-24(s0)
 512              	.LVL43:
  76:src/syscall_c.cpp **** 
  77:src/syscall_c.cpp **** }
 513              		.loc 1 77 1
 514 018c 1B050500 		sext.w	a0,a0
 515 0190 03348101 		ld	s0,24(sp)
 516              		.cfi_restore 8
 517              		.cfi_def_cfa 2, 32
 518 0194 13010102 		addi	sp,sp,32
 519              		.cfi_def_cfa_offset 0
 520 0198 67800000 		jr	ra
 521              		.cfi_endproc
 522              	.LFE28:
 524              		.align	2
 525              		.globl	_Z9sem_closeP4_sem
 527              	_Z9sem_closeP4_sem:
 528              	.LFB29:
  78:src/syscall_c.cpp **** 
  79:src/syscall_c.cpp **** int sem_close(sem_t handle) {
 529              		.loc 1 79 29 is_stmt 1
 530              		.cfi_startproc
 531              	.LVL44:
 532 019c 130101FE 		addi	sp,sp,-32
GAS LISTING C:\msys64\tmp\ccLmBCBX.s 			page 15


 533              		.cfi_def_cfa_offset 32
 534 01a0 233C8100 		sd	s0,24(sp)
 535              		.cfi_offset 8, -8
 536 01a4 13040102 		addi	s0,sp,32
 537              		.cfi_def_cfa 8, 0
  80:src/syscall_c.cpp ****     Riscv::writeARegister(1, (uint64)handle);
 538              		.loc 1 80 5
 539              	.LVL45:
 540              	.LBB114:
 541              	.LBB115:
 170:src/../h/riscv.h ****     }
 542              		.loc 2 170 9
 543              	 #APP
 544              	# 170 "src/../h/riscv.h" 1
 545              		mv a1, a0
 546              	# 0 "" 2
 547              	.LVL46:
 548              	 #NO_APP
 549              	.LBE115:
 550              	.LBE114:
  81:src/syscall_c.cpp **** 
  82:src/syscall_c.cpp ****     Riscv::writeARegister(0, 0x22);
 551              		.loc 1 82 5
 552              	.LBB116:
 553              	.LBB117:
 170:src/../h/riscv.h ****     }
 554              		.loc 2 170 9
 555 01ac 93072002 		li	a5,34
 556              	 #APP
 557              	# 170 "src/../h/riscv.h" 1
 558              		mv a0, a5
 559              	# 0 "" 2
 560              	.LVL47:
 561              	 #NO_APP
 562              	.LBE117:
 563              	.LBE116:
  83:src/syscall_c.cpp **** 
  84:src/syscall_c.cpp ****     __asm__ volatile("ecall");
 564              		.loc 1 84 5
 565              	 #APP
 566              	# 84 "src/syscall_c.cpp" 1
  85              	
  86:src/syscall_c.cpp ****     volatile long a0 = Riscv::readARegister(0);
 567              		ecall
 568              	# 0 "" 2
 569              		.loc 1 86 5
 570              	.LVL48:
 571              	 #NO_APP
 572              	.LBB118:
 573              	.LBB119:
 163:src/../h/riscv.h ****         __asm__ volatile("mv %[val], a%[reg]" : [val] "=r" (value) : [reg] "i" (reg_number));
 574              		.loc 2 163 9
 164:src/../h/riscv.h ****         return value;
 575              		.loc 2 164 9
 576              	 #APP
 577              	# 164 "src/../h/riscv.h" 1
 578              		mv a5, a0
GAS LISTING C:\msys64\tmp\ccLmBCBX.s 			page 16


 579              	# 0 "" 2
 580              	.LVL49:
 165:src/../h/riscv.h ****     }
 581              		.loc 2 165 9
 582              	 #NO_APP
 583              	.LBE119:
 584              	.LBE118:
 585              		.loc 1 86 46 is_stmt 0
 586 01bc 2334F4FE 		sd	a5,-24(s0)
  87:src/syscall_c.cpp ****     return (int) a0;
 587              		.loc 1 87 5 is_stmt 1
 588              		.loc 1 87 18 is_stmt 0
 589 01c0 033584FE 		ld	a0,-24(s0)
 590              	.LVL50:
  88:src/syscall_c.cpp **** }
 591              		.loc 1 88 1
 592 01c4 1B050500 		sext.w	a0,a0
 593 01c8 03348101 		ld	s0,24(sp)
 594              		.cfi_restore 8
 595              		.cfi_def_cfa 2, 32
 596 01cc 13010102 		addi	sp,sp,32
 597              		.cfi_def_cfa_offset 0
 598 01d0 67800000 		jr	ra
 599              		.cfi_endproc
 600              	.LFE29:
 602              		.align	2
 603              		.globl	_Z8sem_waitP4_sem
 605              	_Z8sem_waitP4_sem:
 606              	.LFB30:
  89:src/syscall_c.cpp **** 
  90:src/syscall_c.cpp **** int sem_wait(sem_t id) {
 607              		.loc 1 90 24 is_stmt 1
 608              		.cfi_startproc
 609              	.LVL51:
 610 01d4 130101FE 		addi	sp,sp,-32
 611              		.cfi_def_cfa_offset 32
 612 01d8 233C8100 		sd	s0,24(sp)
 613              		.cfi_offset 8, -8
 614 01dc 13040102 		addi	s0,sp,32
 615              		.cfi_def_cfa 8, 0
  91:src/syscall_c.cpp ****     Riscv::writeARegister(1, (uint64)id);
 616              		.loc 1 91 5
 617              	.LVL52:
 618              	.LBB120:
 619              	.LBB121:
 170:src/../h/riscv.h ****     }
 620              		.loc 2 170 9
 621              	 #APP
 622              	# 170 "src/../h/riscv.h" 1
 623              		mv a1, a0
 624              	# 0 "" 2
 625              	.LVL53:
 626              	 #NO_APP
 627              	.LBE121:
 628              	.LBE120:
  92:src/syscall_c.cpp **** 
  93:src/syscall_c.cpp ****     Riscv::writeARegister(0, 0x23);
GAS LISTING C:\msys64\tmp\ccLmBCBX.s 			page 17


 629              		.loc 1 93 5
 630              	.LBB122:
 631              	.LBB123:
 170:src/../h/riscv.h ****     }
 632              		.loc 2 170 9
 633 01e4 93073002 		li	a5,35
 634              	 #APP
 635              	# 170 "src/../h/riscv.h" 1
 636              		mv a0, a5
 637              	# 0 "" 2
 638              	.LVL54:
 639              	 #NO_APP
 640              	.LBE123:
 641              	.LBE122:
  94:src/syscall_c.cpp **** 
  95:src/syscall_c.cpp ****     __asm__ volatile("ecall");
 642              		.loc 1 95 5
 643              	 #APP
 644              	# 95 "src/syscall_c.cpp" 1
  96              	
  97:src/syscall_c.cpp ****     volatile long a0 = Riscv::readARegister(0);
 645              		ecall
 646              	# 0 "" 2
 647              		.loc 1 97 5
 648              	.LVL55:
 649              	 #NO_APP
 650              	.LBB124:
 651              	.LBB125:
 163:src/../h/riscv.h ****         __asm__ volatile("mv %[val], a%[reg]" : [val] "=r" (value) : [reg] "i" (reg_number));
 652              		.loc 2 163 9
 164:src/../h/riscv.h ****         return value;
 653              		.loc 2 164 9
 654              	 #APP
 655              	# 164 "src/../h/riscv.h" 1
 656              		mv a5, a0
 657              	# 0 "" 2
 658              	.LVL56:
 165:src/../h/riscv.h ****     }
 659              		.loc 2 165 9
 660              	 #NO_APP
 661              	.LBE125:
 662              	.LBE124:
 663              		.loc 1 97 46 is_stmt 0
 664 01f4 2334F4FE 		sd	a5,-24(s0)
  98:src/syscall_c.cpp ****     return (int) a0;
 665              		.loc 1 98 5 is_stmt 1
 666              		.loc 1 98 18 is_stmt 0
 667 01f8 033584FE 		ld	a0,-24(s0)
 668              	.LVL57:
  99:src/syscall_c.cpp **** }
 669              		.loc 1 99 1
 670 01fc 1B050500 		sext.w	a0,a0
 671 0200 03348101 		ld	s0,24(sp)
 672              		.cfi_restore 8
 673              		.cfi_def_cfa 2, 32
 674 0204 13010102 		addi	sp,sp,32
 675              		.cfi_def_cfa_offset 0
GAS LISTING C:\msys64\tmp\ccLmBCBX.s 			page 18


 676 0208 67800000 		jr	ra
 677              		.cfi_endproc
 678              	.LFE30:
 680              		.align	2
 681              		.globl	_Z10sem_signalP4_sem
 683              	_Z10sem_signalP4_sem:
 684              	.LFB31:
 100:src/syscall_c.cpp **** 
 101:src/syscall_c.cpp **** int sem_signal(sem_t id) {
 685              		.loc 1 101 26 is_stmt 1
 686              		.cfi_startproc
 687              	.LVL58:
 688 020c 130101FE 		addi	sp,sp,-32
 689              		.cfi_def_cfa_offset 32
 690 0210 233C8100 		sd	s0,24(sp)
 691              		.cfi_offset 8, -8
 692 0214 13040102 		addi	s0,sp,32
 693              		.cfi_def_cfa 8, 0
 102:src/syscall_c.cpp ****     Riscv::writeARegister(1, (uint64)id);
 694              		.loc 1 102 5
 695              	.LVL59:
 696              	.LBB126:
 697              	.LBB127:
 170:src/../h/riscv.h ****     }
 698              		.loc 2 170 9
 699              	 #APP
 700              	# 170 "src/../h/riscv.h" 1
 701              		mv a1, a0
 702              	# 0 "" 2
 703              	.LVL60:
 704              	 #NO_APP
 705              	.LBE127:
 706              	.LBE126:
 103:src/syscall_c.cpp **** 
 104:src/syscall_c.cpp ****     Riscv::writeARegister(0, 0x24);
 707              		.loc 1 104 5
 708              	.LBB128:
 709              	.LBB129:
 170:src/../h/riscv.h ****     }
 710              		.loc 2 170 9
 711 021c 93074002 		li	a5,36
 712              	 #APP
 713              	# 170 "src/../h/riscv.h" 1
 714              		mv a0, a5
 715              	# 0 "" 2
 716              	.LVL61:
 717              	 #NO_APP
 718              	.LBE129:
 719              	.LBE128:
 105:src/syscall_c.cpp **** 
 106:src/syscall_c.cpp ****     __asm__ volatile("ecall");
 720              		.loc 1 106 5
 721              	 #APP
 722              	# 106 "src/syscall_c.cpp" 1
 107              	
 108:src/syscall_c.cpp ****     volatile long a0 = Riscv::readARegister(0);
 723              		ecall
GAS LISTING C:\msys64\tmp\ccLmBCBX.s 			page 19


 724              	# 0 "" 2
 725              		.loc 1 108 5
 726              	.LVL62:
 727              	 #NO_APP
 728              	.LBB130:
 729              	.LBB131:
 163:src/../h/riscv.h ****         __asm__ volatile("mv %[val], a%[reg]" : [val] "=r" (value) : [reg] "i" (reg_number));
 730              		.loc 2 163 9
 164:src/../h/riscv.h ****         return value;
 731              		.loc 2 164 9
 732              	 #APP
 733              	# 164 "src/../h/riscv.h" 1
 734              		mv a5, a0
 735              	# 0 "" 2
 736              	.LVL63:
 165:src/../h/riscv.h ****     }
 737              		.loc 2 165 9
 738              	 #NO_APP
 739              	.LBE131:
 740              	.LBE130:
 741              		.loc 1 108 46 is_stmt 0
 742 022c 2334F4FE 		sd	a5,-24(s0)
 109:src/syscall_c.cpp ****     return (int) a0;
 743              		.loc 1 109 5 is_stmt 1
 744              		.loc 1 109 18 is_stmt 0
 745 0230 033584FE 		ld	a0,-24(s0)
 746              	.LVL64:
 110:src/syscall_c.cpp **** }
 747              		.loc 1 110 1
 748 0234 1B050500 		sext.w	a0,a0
 749 0238 03348101 		ld	s0,24(sp)
 750              		.cfi_restore 8
 751              		.cfi_def_cfa 2, 32
 752 023c 13010102 		addi	sp,sp,32
 753              		.cfi_def_cfa_offset 0
 754 0240 67800000 		jr	ra
 755              		.cfi_endproc
 756              	.LFE31:
 758              		.align	2
 759              		.globl	_Z10time_sleepm
 761              	_Z10time_sleepm:
 762              	.LFB32:
 111:src/syscall_c.cpp **** 
 112:src/syscall_c.cpp **** int time_sleep(time_t t) {
 763              		.loc 1 112 26 is_stmt 1
 764              		.cfi_startproc
 765              	.LVL65:
 766 0244 130101FE 		addi	sp,sp,-32
 767              		.cfi_def_cfa_offset 32
 768 0248 233C8100 		sd	s0,24(sp)
 769              		.cfi_offset 8, -8
 770 024c 13040102 		addi	s0,sp,32
 771              		.cfi_def_cfa 8, 0
 113:src/syscall_c.cpp ****     Riscv::writeARegister(1, (uint64)t);
 772              		.loc 1 113 5
 773              	.LVL66:
 774              	.LBB132:
GAS LISTING C:\msys64\tmp\ccLmBCBX.s 			page 20


 775              	.LBB133:
 170:src/../h/riscv.h ****     }
 776              		.loc 2 170 9
 777              	 #APP
 778              	# 170 "src/../h/riscv.h" 1
 779              		mv a1, a0
 780              	# 0 "" 2
 781              	.LVL67:
 782              	 #NO_APP
 783              	.LBE133:
 784              	.LBE132:
 114:src/syscall_c.cpp ****     Riscv::writeARegister(0, 0x31);
 785              		.loc 1 114 5
 786              	.LBB134:
 787              	.LBB135:
 170:src/../h/riscv.h ****     }
 788              		.loc 2 170 9
 789 0254 93071003 		li	a5,49
 790              	 #APP
 791              	# 170 "src/../h/riscv.h" 1
 792              		mv a0, a5
 793              	# 0 "" 2
 794              	.LVL68:
 795              	 #NO_APP
 796              	.LBE135:
 797              	.LBE134:
 115:src/syscall_c.cpp **** 
 116:src/syscall_c.cpp ****     __asm__ volatile("ecall");
 798              		.loc 1 116 5
 799              	 #APP
 800              	# 116 "src/syscall_c.cpp" 1
 117              	
 118:src/syscall_c.cpp ****     volatile long a0 = Riscv::readARegister(0);
 801              		ecall
 802              	# 0 "" 2
 803              		.loc 1 118 5
 804              	.LVL69:
 805              	 #NO_APP
 806              	.LBB136:
 807              	.LBB137:
 163:src/../h/riscv.h ****         __asm__ volatile("mv %[val], a%[reg]" : [val] "=r" (value) : [reg] "i" (reg_number));
 808              		.loc 2 163 9
 164:src/../h/riscv.h ****         return value;
 809              		.loc 2 164 9
 810              	 #APP
 811              	# 164 "src/../h/riscv.h" 1
 812              		mv a5, a0
 813              	# 0 "" 2
 814              	.LVL70:
 165:src/../h/riscv.h ****     }
 815              		.loc 2 165 9
 816              	 #NO_APP
 817              	.LBE137:
 818              	.LBE136:
 819              		.loc 1 118 46 is_stmt 0
 820 0264 2334F4FE 		sd	a5,-24(s0)
 119:src/syscall_c.cpp ****     return (int) a0;
GAS LISTING C:\msys64\tmp\ccLmBCBX.s 			page 21


 821              		.loc 1 119 5 is_stmt 1
 822              		.loc 1 119 18 is_stmt 0
 823 0268 033584FE 		ld	a0,-24(s0)
 824              	.LVL71:
 120:src/syscall_c.cpp **** }
 825              		.loc 1 120 1
 826 026c 1B050500 		sext.w	a0,a0
 827 0270 03348101 		ld	s0,24(sp)
 828              		.cfi_restore 8
 829              		.cfi_def_cfa 2, 32
 830 0274 13010102 		addi	sp,sp,32
 831              		.cfi_def_cfa_offset 0
 832 0278 67800000 		jr	ra
 833              		.cfi_endproc
 834              	.LFE32:
 836              		.align	2
 837              		.globl	_Z4getcv
 839              	_Z4getcv:
 840              	.LFB33:
 121:src/syscall_c.cpp **** 
 122:src/syscall_c.cpp **** char getc() {
 841              		.loc 1 122 13 is_stmt 1
 842              		.cfi_startproc
 843 027c 130101FE 		addi	sp,sp,-32
 844              		.cfi_def_cfa_offset 32
 845 0280 233C1100 		sd	ra,24(sp)
 846 0284 23388100 		sd	s0,16(sp)
 847              		.cfi_offset 1, -8
 848              		.cfi_offset 8, -16
 849 0288 13040102 		addi	s0,sp,32
 850              		.cfi_def_cfa 8, 0
 123:src/syscall_c.cpp ****      sem_wait(reinterpret_cast<sem_t>(_console::getInSem()));
 851              		.loc 1 123 6
 852              	.LBB138:
 853              	.LBB139:
 854              		.file 3 "src/../h/Console.h"
   1:src/../h/Console.h **** #ifndef PROJEKAT_CONSOLE_H
   2:src/../h/Console.h **** #define PROJEKAT_CONSOLE_H
   3:src/../h/Console.h **** 
   4:src/../h/Console.h **** #include "../h/Semaphore.h"
   5:src/../h/Console.h **** #include "../h/Buffer.h"
   6:src/../h/Console.h **** 
   7:src/../h/Console.h **** class _console {
   8:src/../h/Console.h **** public:
   9:src/../h/Console.h ****     // Zabrana pravljenja objekata klase Console
  10:src/../h/Console.h ****     _console() = delete;
  11:src/../h/Console.h ****     _console(const _console&) = delete;
  12:src/../h/Console.h ****     _console& operator=(const _console&) = delete;
  13:src/../h/Console.h **** 
  14:src/../h/Console.h **** 
  15:src/../h/Console.h ****     // Sistemski pozivi (0x41 i 0x42)
  16:src/../h/Console.h ****     static char getc();
  17:src/../h/Console.h ****     static void putc(char c);
  18:src/../h/Console.h **** 
  19:src/../h/Console.h ****     // Geteri za prekidnu rutinu (console_handler)
  20:src/../h/Console.h ****     static Buffer* getInBuff() { ensureInit(); return inbuff; }
  21:src/../h/Console.h ****     static Buffer* getOutBuff() { ensureInit(); return outbuff; }
GAS LISTING C:\msys64\tmp\ccLmBCBX.s 			page 22


  22:src/../h/Console.h ****     static _sem* getInSem() { ensureInit(); return inSem; }
 855              		.loc 3 22 31
 856              		.loc 3 22 41 is_stmt 0
 857 028c 97000000 		call	_ZN8_console10ensureInitEv
 857      E7800000 
 858              	.LVL72:
 859              		.loc 3 22 45 is_stmt 1
 860              	.LBE139:
 861              	.LBE138:
 862              		.loc 1 123 14 is_stmt 0
 863 0294 17050000 		ld	a0,_ZN8_console5inSemE
 863      03350500 
 864 029c 97000000 		call	_Z8sem_waitP4_sem
 864      E7800000 
 865              	.LVL73:
 124:src/syscall_c.cpp ****     Riscv::writeARegister(0, 0x41);
 866              		.loc 1 124 5 is_stmt 1
 867              	.LBB140:
 868              	.LBB141:
 170:src/../h/riscv.h ****     }
 869              		.loc 2 170 9
 870 02a4 93071004 		li	a5,65
 871              	 #APP
 872              	# 170 "src/../h/riscv.h" 1
 873              		mv a0, a5
 874              	# 0 "" 2
 875              	.LVL74:
 876              	 #NO_APP
 877              	.LBE141:
 878              	.LBE140:
 125:src/syscall_c.cpp **** 
 126:src/syscall_c.cpp ****     __asm__ volatile("ecall");
 879              		.loc 1 126 5
 880              	 #APP
 881              	# 126 "src/syscall_c.cpp" 1
 127              	
 128:src/syscall_c.cpp ****     volatile long a0 = Riscv::readARegister(0);
 882              		ecall
 883              	# 0 "" 2
 884              		.loc 1 128 5
 885              	.LVL75:
 886              	 #NO_APP
 887              	.LBB142:
 888              	.LBB143:
 163:src/../h/riscv.h ****         __asm__ volatile("mv %[val], a%[reg]" : [val] "=r" (value) : [reg] "i" (reg_number));
 889              		.loc 2 163 9
 164:src/../h/riscv.h ****         return value;
 890              		.loc 2 164 9
 891              	 #APP
 892              	# 164 "src/../h/riscv.h" 1
 893              		mv a5, a0
 894              	# 0 "" 2
 895              	.LVL76:
 165:src/../h/riscv.h ****     }
 896              		.loc 2 165 9
 897              	 #NO_APP
 898              	.LBE143:
GAS LISTING C:\msys64\tmp\ccLmBCBX.s 			page 23


 899              	.LBE142:
 900              		.loc 1 128 46 is_stmt 0
 901 02b4 2334F4FE 		sd	a5,-24(s0)
 129:src/syscall_c.cpp ****     return (char) a0;
 902              		.loc 1 129 5 is_stmt 1
 903              		.loc 1 129 19 is_stmt 0
 904 02b8 033584FE 		ld	a0,-24(s0)
 130:src/syscall_c.cpp **** }
 905              		.loc 1 130 1
 906 02bc 1375F50F 		andi	a0,a0,0xff
 907 02c0 83308101 		ld	ra,24(sp)
 908              		.cfi_restore 1
 909 02c4 03340101 		ld	s0,16(sp)
 910              		.cfi_restore 8
 911              		.cfi_def_cfa 2, 32
 912 02c8 13010102 		addi	sp,sp,32
 913              		.cfi_def_cfa_offset 0
 914 02cc 67800000 		jr	ra
 915              		.cfi_endproc
 916              	.LFE33:
 918              		.align	2
 919              		.globl	_Z4putcc
 921              	_Z4putcc:
 922              	.LFB34:
 131:src/syscall_c.cpp **** 
 132:src/syscall_c.cpp **** void putc(char c) {
 923              		.loc 1 132 19 is_stmt 1
 924              		.cfi_startproc
 925              	.LVL77:
 926 02d0 130101FE 		addi	sp,sp,-32
 927              		.cfi_def_cfa_offset 32
 928 02d4 233C1100 		sd	ra,24(sp)
 929 02d8 23388100 		sd	s0,16(sp)
 930 02dc 23349100 		sd	s1,8(sp)
 931              		.cfi_offset 1, -8
 932              		.cfi_offset 8, -16
 933              		.cfi_offset 9, -24
 934 02e0 13040102 		addi	s0,sp,32
 935              		.cfi_def_cfa 8, 0
 936 02e4 93040500 		mv	s1,a0
 133:src/syscall_c.cpp ****     sem_wait(reinterpret_cast<sem_t>(_console::getOutSem()));
 937              		.loc 1 133 5
 938              	.LBB144:
 939              	.LBB145:
  23:src/../h/Console.h ****     static _sem* getOutSem() { ensureInit(); return outSem; }
 940              		.loc 3 23 32
 941              		.loc 3 23 42 is_stmt 0
 942 02e8 97000000 		call	_ZN8_console10ensureInitEv
 942      E7800000 
 943              	.LVL78:
 944              		.loc 3 23 46 is_stmt 1
 945              	.LBE145:
 946              	.LBE144:
 947              		.loc 1 133 13 is_stmt 0
 948 02f0 17050000 		ld	a0,_ZN8_console6outSemE
 948      03350500 
 949 02f8 97000000 		call	_Z8sem_waitP4_sem
GAS LISTING C:\msys64\tmp\ccLmBCBX.s 			page 24


 949      E7800000 
 950              	.LVL79:
 134:src/syscall_c.cpp ****     Riscv::writeARegister(1, (uint64)c);
 951              		.loc 1 134 5 is_stmt 1
 952              	.LBB146:
 953              	.LBB147:
 170:src/../h/riscv.h ****     }
 954              		.loc 2 170 9
 955              	 #APP
 956              	# 170 "src/../h/riscv.h" 1
 957              		mv a1, s1
 958              	# 0 "" 2
 959              	.LVL80:
 960              	 #NO_APP
 961              	.LBE147:
 962              	.LBE146:
 135:src/syscall_c.cpp ****     Riscv::writeARegister(0, 0x42);
 963              		.loc 1 135 5
 964              	.LBB148:
 965              	.LBB149:
 170:src/../h/riscv.h ****     }
 966              		.loc 2 170 9
 967 0304 93072004 		li	a5,66
 968              	 #APP
 969              	# 170 "src/../h/riscv.h" 1
 970              		mv a0, a5
 971              	# 0 "" 2
 972              	.LVL81:
 973              	 #NO_APP
 974              	.LBE149:
 975              	.LBE148:
 136:src/syscall_c.cpp **** 
 137:src/syscall_c.cpp ****     __asm__ volatile("ecall");
 976              		.loc 1 137 5
 977              	 #APP
 978              	# 137 "src/syscall_c.cpp" 1
 138              	
 139:src/syscall_c.cpp **** }
 979              		ecall
 980              	# 0 "" 2
 981              		.loc 1 139 1 is_stmt 0
 982              	 #NO_APP
 983 0310 83308101 		ld	ra,24(sp)
 984              		.cfi_restore 1
 985 0314 03340101 		ld	s0,16(sp)
 986              		.cfi_restore 8
 987              		.cfi_def_cfa 2, 32
 988 0318 83348100 		ld	s1,8(sp)
 989              		.cfi_restore 9
 990 031c 13010102 		addi	sp,sp,32
 991              		.cfi_def_cfa_offset 0
 992 0320 67800000 		jr	ra
 993              		.cfi_endproc
 994              	.LFE34:
 996              	.Letext0:
 997              		.file 4 "src/../h/../lib/hw.h"
 998              		.file 5 "src/../h/syscall_c.hpp"
GAS LISTING C:\msys64\tmp\ccLmBCBX.s 			page 25


 999              		.file 6 "src/../h/../h/Semaphore.h"
 1000              		.file 7 "src/../h/../h/Buffer.h"
GAS LISTING C:\msys64\tmp\ccLmBCBX.s 			page 26


DEFINED SYMBOLS
                            *ABS*:0000000000000000 syscall_c.cpp
C:\msys64\tmp\ccLmBCBX.s:12     .text:0000000000000000 _Z9mem_allocm
C:\msys64\tmp\ccLmBCBX.s:16     .text:0000000000000000 .L0 
C:\msys64\tmp\ccLmBCBX.s:18     .text:0000000000000000 .L0 
C:\msys64\tmp\ccLmBCBX.s:19     .text:0000000000000004 .L0 
C:\msys64\tmp\ccLmBCBX.s:21     .text:0000000000000008 .L0 
C:\msys64\tmp\ccLmBCBX.s:23     .text:000000000000000c .L0 
C:\msys64\tmp\ccLmBCBX.s:25     .text:000000000000000c .L0 
C:\msys64\tmp\ccLmBCBX.s:26     .text:000000000000000c .L0 
C:\msys64\tmp\ccLmBCBX.s:29     .text:0000000000000010 .L0 
C:\msys64\tmp\ccLmBCBX.s:35     .text:0000000000000014 .L0 
    src/../h/riscv.h:170    .text:0000000000000014 .L0 
C:\msys64\tmp\ccLmBCBX.s:47     .text:0000000000000018 .L0 
C:\msys64\tmp\ccLmBCBX.s:48     .text:0000000000000018 .L0 
   src/syscall_c.cpp:11     .text:0000000000000020 .L0 
C:\msys64\tmp\ccLmBCBX.s:67     .text:0000000000000024 .L0 
C:\msys64\tmp\ccLmBCBX.s:68     .text:0000000000000024 .L0 
    src/../h/riscv.h:164    .text:0000000000000024 .L0 
C:\msys64\tmp\ccLmBCBX.s:78     .text:0000000000000028 .L0 
C:\msys64\tmp\ccLmBCBX.s:79     .text:0000000000000028 .L0 
C:\msys64\tmp\ccLmBCBX.s:81     .text:000000000000002c .L0 
C:\msys64\tmp\ccLmBCBX.s:82     .text:000000000000002c .L0 
C:\msys64\tmp\ccLmBCBX.s:85     .text:0000000000000030 .L0 
C:\msys64\tmp\ccLmBCBX.s:86     .text:0000000000000034 .L0 
C:\msys64\tmp\ccLmBCBX.s:87     .text:0000000000000034 .L0 
C:\msys64\tmp\ccLmBCBX.s:89     .text:0000000000000038 .L0 
C:\msys64\tmp\ccLmBCBX.s:91     .text:000000000000003c .L0 
C:\msys64\tmp\ccLmBCBX.s:97     .text:000000000000003c _Z8mem_freePv
C:\msys64\tmp\ccLmBCBX.s:100    .text:000000000000003c .L0 
C:\msys64\tmp\ccLmBCBX.s:102    .text:000000000000003c .L0 
C:\msys64\tmp\ccLmBCBX.s:103    .text:0000000000000040 .L0 
C:\msys64\tmp\ccLmBCBX.s:105    .text:0000000000000044 .L0 
C:\msys64\tmp\ccLmBCBX.s:107    .text:0000000000000048 .L0 
C:\msys64\tmp\ccLmBCBX.s:112    .text:0000000000000048 .L0 
    src/../h/riscv.h:170    .text:0000000000000048 .L0 
C:\msys64\tmp\ccLmBCBX.s:124    .text:000000000000004c .L0 
C:\msys64\tmp\ccLmBCBX.s:125    .text:000000000000004c .L0 
   src/syscall_c.cpp:23     .text:0000000000000054 .L0 
C:\msys64\tmp\ccLmBCBX.s:144    .text:0000000000000058 .L0 
C:\msys64\tmp\ccLmBCBX.s:145    .text:0000000000000058 .L0 
    src/../h/riscv.h:164    .text:0000000000000058 .L0 
C:\msys64\tmp\ccLmBCBX.s:155    .text:000000000000005c .L0 
C:\msys64\tmp\ccLmBCBX.s:156    .text:000000000000005c .L0 
C:\msys64\tmp\ccLmBCBX.s:158    .text:0000000000000060 .L0 
C:\msys64\tmp\ccLmBCBX.s:159    .text:0000000000000060 .L0 
C:\msys64\tmp\ccLmBCBX.s:162    .text:0000000000000064 .L0 
C:\msys64\tmp\ccLmBCBX.s:164    .text:000000000000006c .L0 
C:\msys64\tmp\ccLmBCBX.s:165    .text:000000000000006c .L0 
C:\msys64\tmp\ccLmBCBX.s:167    .text:0000000000000070 .L0 
C:\msys64\tmp\ccLmBCBX.s:169    .text:0000000000000074 .L0 
C:\msys64\tmp\ccLmBCBX.s:175    .text:0000000000000074 _Z13thread_createPP7_threadPFvPvES2_
C:\msys64\tmp\ccLmBCBX.s:178    .text:0000000000000074 .L0 
C:\msys64\tmp\ccLmBCBX.s:180    .text:0000000000000074 .L0 
C:\msys64\tmp\ccLmBCBX.s:181    .text:0000000000000078 .L0 
C:\msys64\tmp\ccLmBCBX.s:187    .text:000000000000008c .L0 
C:\msys64\tmp\ccLmBCBX.s:188    .text:000000000000008c .L0 
GAS LISTING C:\msys64\tmp\ccLmBCBX.s 			page 27


C:\msys64\tmp\ccLmBCBX.s:189    .text:000000000000008c .L0 
C:\msys64\tmp\ccLmBCBX.s:190    .text:000000000000008c .L0 
C:\msys64\tmp\ccLmBCBX.s:191    .text:000000000000008c .L0 
C:\msys64\tmp\ccLmBCBX.s:193    .text:0000000000000090 .L0 
C:\msys64\tmp\ccLmBCBX.s:198    .text:000000000000009c .L0 
C:\msys64\tmp\ccLmBCBX.s:199    .text:000000000000009c .L0 
C:\msys64\tmp\ccLmBCBX.s:201    .text:00000000000000a0 .L0 
C:\msys64\tmp\ccLmBCBX.s:203    .text:00000000000000a4 .L0 
C:\msys64\tmp\ccLmBCBX.s:204    .text:00000000000000a4 .L0 
C:\msys64\tmp\ccLmBCBX.s:209    .text:00000000000000b0 .L0 
C:\msys64\tmp\ccLmBCBX.s:212    .text:00000000000000b4 .L0 
C:\msys64\tmp\ccLmBCBX.s:213    .text:00000000000000b4 .L0 
    src/../h/riscv.h:170    .text:00000000000000b8 .L0 
C:\msys64\tmp\ccLmBCBX.s:229    .text:00000000000000bc .L0 
    src/../h/riscv.h:170    .text:00000000000000bc .L0 
C:\msys64\tmp\ccLmBCBX.s:241    .text:00000000000000c0 .L0 
    src/../h/riscv.h:170    .text:00000000000000c0 .L0 
C:\msys64\tmp\ccLmBCBX.s:253    .text:00000000000000c4 .L0 
    src/../h/riscv.h:170    .text:00000000000000c4 .L0 
C:\msys64\tmp\ccLmBCBX.s:265    .text:00000000000000c8 .L0 
C:\msys64\tmp\ccLmBCBX.s:266    .text:00000000000000c8 .L0 
   src/syscall_c.cpp:43     .text:00000000000000d0 .L0 
C:\msys64\tmp\ccLmBCBX.s:285    .text:00000000000000d4 .L0 
C:\msys64\tmp\ccLmBCBX.s:286    .text:00000000000000d4 .L0 
    src/../h/riscv.h:164    .text:00000000000000d4 .L0 
C:\msys64\tmp\ccLmBCBX.s:296    .text:00000000000000d8 .L0 
C:\msys64\tmp\ccLmBCBX.s:297    .text:00000000000000d8 .L0 
C:\msys64\tmp\ccLmBCBX.s:299    .text:00000000000000dc .L0 
C:\msys64\tmp\ccLmBCBX.s:300    .text:00000000000000dc .L0 
C:\msys64\tmp\ccLmBCBX.s:302    .text:00000000000000e0 .L0 
C:\msys64\tmp\ccLmBCBX.s:304    .text:00000000000000e8 .L0 
C:\msys64\tmp\ccLmBCBX.s:306    .text:00000000000000ec .L0 
C:\msys64\tmp\ccLmBCBX.s:307    .text:00000000000000ec .L0 
C:\msys64\tmp\ccLmBCBX.s:309    .text:00000000000000f0 .L0 
C:\msys64\tmp\ccLmBCBX.s:312    .text:00000000000000f4 .L0 
C:\msys64\tmp\ccLmBCBX.s:315    .text:00000000000000f8 .L0 
C:\msys64\tmp\ccLmBCBX.s:318    .text:00000000000000fc .L0 
C:\msys64\tmp\ccLmBCBX.s:320    .text:0000000000000100 .L0 
C:\msys64\tmp\ccLmBCBX.s:326    .text:0000000000000100 _Z15thread_dispatchv
C:\msys64\tmp\ccLmBCBX.s:329    .text:0000000000000100 .L0 
C:\msys64\tmp\ccLmBCBX.s:330    .text:0000000000000100 .L0 
C:\msys64\tmp\ccLmBCBX.s:331    .text:0000000000000104 .L0 
C:\msys64\tmp\ccLmBCBX.s:333    .text:0000000000000108 .L0 
C:\msys64\tmp\ccLmBCBX.s:335    .text:000000000000010c .L0 
C:\msys64\tmp\ccLmBCBX.s:340    .text:000000000000010c .L0 
C:\msys64\tmp\ccLmBCBX.s:341    .text:000000000000010c .L0 
   src/syscall_c.cpp:52     .text:0000000000000114 .L0 
C:\msys64\tmp\ccLmBCBX.s:357    .text:0000000000000118 .L0 
C:\msys64\tmp\ccLmBCBX.s:358    .text:000000000000011c .L0 
C:\msys64\tmp\ccLmBCBX.s:359    .text:000000000000011c .L0 
C:\msys64\tmp\ccLmBCBX.s:361    .text:0000000000000120 .L0 
C:\msys64\tmp\ccLmBCBX.s:363    .text:0000000000000124 .L0 
C:\msys64\tmp\ccLmBCBX.s:369    .text:0000000000000124 _Z11thread_exitv
C:\msys64\tmp\ccLmBCBX.s:372    .text:0000000000000124 .L0 
C:\msys64\tmp\ccLmBCBX.s:373    .text:0000000000000124 .L0 
C:\msys64\tmp\ccLmBCBX.s:374    .text:0000000000000128 .L0 
C:\msys64\tmp\ccLmBCBX.s:376    .text:000000000000012c .L0 
GAS LISTING C:\msys64\tmp\ccLmBCBX.s 			page 28


C:\msys64\tmp\ccLmBCBX.s:378    .text:0000000000000130 .L0 
C:\msys64\tmp\ccLmBCBX.s:383    .text:0000000000000130 .L0 
C:\msys64\tmp\ccLmBCBX.s:384    .text:0000000000000130 .L0 
   src/syscall_c.cpp:59     .text:0000000000000138 .L0 
C:\msys64\tmp\ccLmBCBX.s:403    .text:000000000000013c .L0 
C:\msys64\tmp\ccLmBCBX.s:404    .text:000000000000013c .L0 
    src/../h/riscv.h:164    .text:000000000000013c .L0 
C:\msys64\tmp\ccLmBCBX.s:414    .text:0000000000000140 .L0 
C:\msys64\tmp\ccLmBCBX.s:415    .text:0000000000000140 .L0 
C:\msys64\tmp\ccLmBCBX.s:417    .text:0000000000000144 .L0 
C:\msys64\tmp\ccLmBCBX.s:418    .text:0000000000000144 .L0 
C:\msys64\tmp\ccLmBCBX.s:420    .text:0000000000000148 .L0 
C:\msys64\tmp\ccLmBCBX.s:422    .text:0000000000000150 .L0 
C:\msys64\tmp\ccLmBCBX.s:423    .text:0000000000000150 .L0 
C:\msys64\tmp\ccLmBCBX.s:425    .text:0000000000000154 .L0 
C:\msys64\tmp\ccLmBCBX.s:427    .text:0000000000000158 .L0 
C:\msys64\tmp\ccLmBCBX.s:433    .text:0000000000000158 _Z8sem_openPP4_semj
C:\msys64\tmp\ccLmBCBX.s:436    .text:0000000000000158 .L0 
C:\msys64\tmp\ccLmBCBX.s:438    .text:0000000000000158 .L0 
C:\msys64\tmp\ccLmBCBX.s:439    .text:000000000000015c .L0 
C:\msys64\tmp\ccLmBCBX.s:441    .text:0000000000000160 .L0 
C:\msys64\tmp\ccLmBCBX.s:443    .text:0000000000000164 .L0 
C:\msys64\tmp\ccLmBCBX.s:445    .text:0000000000000164 .L0 
C:\msys64\tmp\ccLmBCBX.s:446    .text:0000000000000164 .L0 
    src/../h/riscv.h:170    .text:000000000000016c .L0 
C:\msys64\tmp\ccLmBCBX.s:464    .text:0000000000000170 .L0 
    src/../h/riscv.h:170    .text:0000000000000170 .L0 
C:\msys64\tmp\ccLmBCBX.s:476    .text:0000000000000174 .L0 
C:\msys64\tmp\ccLmBCBX.s:477    .text:0000000000000174 .L0 
   src/syscall_c.cpp:72     .text:000000000000017c .L0 
C:\msys64\tmp\ccLmBCBX.s:496    .text:0000000000000180 .L0 
C:\msys64\tmp\ccLmBCBX.s:497    .text:0000000000000180 .L0 
    src/../h/riscv.h:164    .text:0000000000000180 .L0 
C:\msys64\tmp\ccLmBCBX.s:507    .text:0000000000000184 .L0 
C:\msys64\tmp\ccLmBCBX.s:508    .text:0000000000000184 .L0 
C:\msys64\tmp\ccLmBCBX.s:510    .text:0000000000000188 .L0 
C:\msys64\tmp\ccLmBCBX.s:511    .text:0000000000000188 .L0 
C:\msys64\tmp\ccLmBCBX.s:514    .text:000000000000018c .L0 
C:\msys64\tmp\ccLmBCBX.s:516    .text:0000000000000194 .L0 
C:\msys64\tmp\ccLmBCBX.s:517    .text:0000000000000194 .L0 
C:\msys64\tmp\ccLmBCBX.s:519    .text:0000000000000198 .L0 
C:\msys64\tmp\ccLmBCBX.s:521    .text:000000000000019c .L0 
C:\msys64\tmp\ccLmBCBX.s:527    .text:000000000000019c _Z9sem_closeP4_sem
C:\msys64\tmp\ccLmBCBX.s:530    .text:000000000000019c .L0 
C:\msys64\tmp\ccLmBCBX.s:532    .text:000000000000019c .L0 
C:\msys64\tmp\ccLmBCBX.s:533    .text:00000000000001a0 .L0 
C:\msys64\tmp\ccLmBCBX.s:535    .text:00000000000001a4 .L0 
C:\msys64\tmp\ccLmBCBX.s:537    .text:00000000000001a8 .L0 
C:\msys64\tmp\ccLmBCBX.s:542    .text:00000000000001a8 .L0 
    src/../h/riscv.h:170    .text:00000000000001a8 .L0 
C:\msys64\tmp\ccLmBCBX.s:554    .text:00000000000001ac .L0 
C:\msys64\tmp\ccLmBCBX.s:555    .text:00000000000001ac .L0 
   src/syscall_c.cpp:84     .text:00000000000001b4 .L0 
C:\msys64\tmp\ccLmBCBX.s:574    .text:00000000000001b8 .L0 
C:\msys64\tmp\ccLmBCBX.s:575    .text:00000000000001b8 .L0 
    src/../h/riscv.h:164    .text:00000000000001b8 .L0 
C:\msys64\tmp\ccLmBCBX.s:585    .text:00000000000001bc .L0 
GAS LISTING C:\msys64\tmp\ccLmBCBX.s 			page 29


C:\msys64\tmp\ccLmBCBX.s:586    .text:00000000000001bc .L0 
C:\msys64\tmp\ccLmBCBX.s:588    .text:00000000000001c0 .L0 
C:\msys64\tmp\ccLmBCBX.s:589    .text:00000000000001c0 .L0 
C:\msys64\tmp\ccLmBCBX.s:592    .text:00000000000001c4 .L0 
C:\msys64\tmp\ccLmBCBX.s:594    .text:00000000000001cc .L0 
C:\msys64\tmp\ccLmBCBX.s:595    .text:00000000000001cc .L0 
C:\msys64\tmp\ccLmBCBX.s:597    .text:00000000000001d0 .L0 
C:\msys64\tmp\ccLmBCBX.s:599    .text:00000000000001d4 .L0 
C:\msys64\tmp\ccLmBCBX.s:605    .text:00000000000001d4 _Z8sem_waitP4_sem
C:\msys64\tmp\ccLmBCBX.s:608    .text:00000000000001d4 .L0 
C:\msys64\tmp\ccLmBCBX.s:610    .text:00000000000001d4 .L0 
C:\msys64\tmp\ccLmBCBX.s:611    .text:00000000000001d8 .L0 
C:\msys64\tmp\ccLmBCBX.s:613    .text:00000000000001dc .L0 
C:\msys64\tmp\ccLmBCBX.s:615    .text:00000000000001e0 .L0 
C:\msys64\tmp\ccLmBCBX.s:620    .text:00000000000001e0 .L0 
    src/../h/riscv.h:170    .text:00000000000001e0 .L0 
C:\msys64\tmp\ccLmBCBX.s:632    .text:00000000000001e4 .L0 
C:\msys64\tmp\ccLmBCBX.s:633    .text:00000000000001e4 .L0 
   src/syscall_c.cpp:95     .text:00000000000001ec .L0 
C:\msys64\tmp\ccLmBCBX.s:652    .text:00000000000001f0 .L0 
C:\msys64\tmp\ccLmBCBX.s:653    .text:00000000000001f0 .L0 
    src/../h/riscv.h:164    .text:00000000000001f0 .L0 
C:\msys64\tmp\ccLmBCBX.s:663    .text:00000000000001f4 .L0 
C:\msys64\tmp\ccLmBCBX.s:664    .text:00000000000001f4 .L0 
C:\msys64\tmp\ccLmBCBX.s:666    .text:00000000000001f8 .L0 
C:\msys64\tmp\ccLmBCBX.s:667    .text:00000000000001f8 .L0 
C:\msys64\tmp\ccLmBCBX.s:670    .text:00000000000001fc .L0 
C:\msys64\tmp\ccLmBCBX.s:672    .text:0000000000000204 .L0 
C:\msys64\tmp\ccLmBCBX.s:673    .text:0000000000000204 .L0 
C:\msys64\tmp\ccLmBCBX.s:675    .text:0000000000000208 .L0 
C:\msys64\tmp\ccLmBCBX.s:677    .text:000000000000020c .L0 
C:\msys64\tmp\ccLmBCBX.s:683    .text:000000000000020c _Z10sem_signalP4_sem
C:\msys64\tmp\ccLmBCBX.s:686    .text:000000000000020c .L0 
C:\msys64\tmp\ccLmBCBX.s:688    .text:000000000000020c .L0 
C:\msys64\tmp\ccLmBCBX.s:689    .text:0000000000000210 .L0 
C:\msys64\tmp\ccLmBCBX.s:691    .text:0000000000000214 .L0 
C:\msys64\tmp\ccLmBCBX.s:693    .text:0000000000000218 .L0 
C:\msys64\tmp\ccLmBCBX.s:698    .text:0000000000000218 .L0 
    src/../h/riscv.h:170    .text:0000000000000218 .L0 
C:\msys64\tmp\ccLmBCBX.s:710    .text:000000000000021c .L0 
C:\msys64\tmp\ccLmBCBX.s:711    .text:000000000000021c .L0 
   src/syscall_c.cpp:106    .text:0000000000000224 .L0 
C:\msys64\tmp\ccLmBCBX.s:730    .text:0000000000000228 .L0 
C:\msys64\tmp\ccLmBCBX.s:731    .text:0000000000000228 .L0 
    src/../h/riscv.h:164    .text:0000000000000228 .L0 
C:\msys64\tmp\ccLmBCBX.s:741    .text:000000000000022c .L0 
C:\msys64\tmp\ccLmBCBX.s:742    .text:000000000000022c .L0 
C:\msys64\tmp\ccLmBCBX.s:744    .text:0000000000000230 .L0 
C:\msys64\tmp\ccLmBCBX.s:745    .text:0000000000000230 .L0 
C:\msys64\tmp\ccLmBCBX.s:748    .text:0000000000000234 .L0 
C:\msys64\tmp\ccLmBCBX.s:750    .text:000000000000023c .L0 
C:\msys64\tmp\ccLmBCBX.s:751    .text:000000000000023c .L0 
C:\msys64\tmp\ccLmBCBX.s:753    .text:0000000000000240 .L0 
C:\msys64\tmp\ccLmBCBX.s:755    .text:0000000000000244 .L0 
C:\msys64\tmp\ccLmBCBX.s:761    .text:0000000000000244 _Z10time_sleepm
C:\msys64\tmp\ccLmBCBX.s:764    .text:0000000000000244 .L0 
C:\msys64\tmp\ccLmBCBX.s:766    .text:0000000000000244 .L0 
GAS LISTING C:\msys64\tmp\ccLmBCBX.s 			page 30


C:\msys64\tmp\ccLmBCBX.s:767    .text:0000000000000248 .L0 
C:\msys64\tmp\ccLmBCBX.s:769    .text:000000000000024c .L0 
C:\msys64\tmp\ccLmBCBX.s:771    .text:0000000000000250 .L0 
C:\msys64\tmp\ccLmBCBX.s:776    .text:0000000000000250 .L0 
    src/../h/riscv.h:170    .text:0000000000000250 .L0 
C:\msys64\tmp\ccLmBCBX.s:788    .text:0000000000000254 .L0 
C:\msys64\tmp\ccLmBCBX.s:789    .text:0000000000000254 .L0 
   src/syscall_c.cpp:116    .text:000000000000025c .L0 
C:\msys64\tmp\ccLmBCBX.s:808    .text:0000000000000260 .L0 
C:\msys64\tmp\ccLmBCBX.s:809    .text:0000000000000260 .L0 
    src/../h/riscv.h:164    .text:0000000000000260 .L0 
C:\msys64\tmp\ccLmBCBX.s:819    .text:0000000000000264 .L0 
C:\msys64\tmp\ccLmBCBX.s:820    .text:0000000000000264 .L0 
C:\msys64\tmp\ccLmBCBX.s:822    .text:0000000000000268 .L0 
C:\msys64\tmp\ccLmBCBX.s:823    .text:0000000000000268 .L0 
C:\msys64\tmp\ccLmBCBX.s:826    .text:000000000000026c .L0 
C:\msys64\tmp\ccLmBCBX.s:828    .text:0000000000000274 .L0 
C:\msys64\tmp\ccLmBCBX.s:829    .text:0000000000000274 .L0 
C:\msys64\tmp\ccLmBCBX.s:831    .text:0000000000000278 .L0 
C:\msys64\tmp\ccLmBCBX.s:833    .text:000000000000027c .L0 
C:\msys64\tmp\ccLmBCBX.s:839    .text:000000000000027c _Z4getcv
C:\msys64\tmp\ccLmBCBX.s:842    .text:000000000000027c .L0 
C:\msys64\tmp\ccLmBCBX.s:843    .text:000000000000027c .L0 
C:\msys64\tmp\ccLmBCBX.s:844    .text:0000000000000280 .L0 
C:\msys64\tmp\ccLmBCBX.s:847    .text:0000000000000288 .L0 
C:\msys64\tmp\ccLmBCBX.s:848    .text:0000000000000288 .L0 
C:\msys64\tmp\ccLmBCBX.s:850    .text:000000000000028c .L0 
C:\msys64\tmp\ccLmBCBX.s:855    .text:000000000000028c .L0 
C:\msys64\tmp\ccLmBCBX.s:856    .text:000000000000028c .L0 
C:\msys64\tmp\ccLmBCBX.s:857    .text:000000000000028c .L0 
C:\msys64\tmp\ccLmBCBX.s:862    .text:0000000000000294 .L0 
C:\msys64\tmp\ccLmBCBX.s:863    .text:0000000000000294 .L0 
C:\msys64\tmp\ccLmBCBX.s:869    .text:00000000000002a4 .L0 
C:\msys64\tmp\ccLmBCBX.s:870    .text:00000000000002a4 .L0 
   src/syscall_c.cpp:126    .text:00000000000002ac .L0 
C:\msys64\tmp\ccLmBCBX.s:889    .text:00000000000002b0 .L0 
C:\msys64\tmp\ccLmBCBX.s:890    .text:00000000000002b0 .L0 
    src/../h/riscv.h:164    .text:00000000000002b0 .L0 
C:\msys64\tmp\ccLmBCBX.s:900    .text:00000000000002b4 .L0 
C:\msys64\tmp\ccLmBCBX.s:901    .text:00000000000002b4 .L0 
C:\msys64\tmp\ccLmBCBX.s:903    .text:00000000000002b8 .L0 
C:\msys64\tmp\ccLmBCBX.s:904    .text:00000000000002b8 .L0 
C:\msys64\tmp\ccLmBCBX.s:906    .text:00000000000002bc .L0 
C:\msys64\tmp\ccLmBCBX.s:908    .text:00000000000002c4 .L0 
C:\msys64\tmp\ccLmBCBX.s:910    .text:00000000000002c8 .L0 
C:\msys64\tmp\ccLmBCBX.s:911    .text:00000000000002c8 .L0 
C:\msys64\tmp\ccLmBCBX.s:913    .text:00000000000002cc .L0 
C:\msys64\tmp\ccLmBCBX.s:915    .text:00000000000002d0 .L0 
C:\msys64\tmp\ccLmBCBX.s:921    .text:00000000000002d0 _Z4putcc
C:\msys64\tmp\ccLmBCBX.s:924    .text:00000000000002d0 .L0 
C:\msys64\tmp\ccLmBCBX.s:926    .text:00000000000002d0 .L0 
C:\msys64\tmp\ccLmBCBX.s:927    .text:00000000000002d4 .L0 
C:\msys64\tmp\ccLmBCBX.s:931    .text:00000000000002e0 .L0 
C:\msys64\tmp\ccLmBCBX.s:932    .text:00000000000002e0 .L0 
C:\msys64\tmp\ccLmBCBX.s:933    .text:00000000000002e0 .L0 
C:\msys64\tmp\ccLmBCBX.s:935    .text:00000000000002e4 .L0 
C:\msys64\tmp\ccLmBCBX.s:940    .text:00000000000002e8 .L0 
GAS LISTING C:\msys64\tmp\ccLmBCBX.s 			page 31


C:\msys64\tmp\ccLmBCBX.s:941    .text:00000000000002e8 .L0 
C:\msys64\tmp\ccLmBCBX.s:942    .text:00000000000002e8 .L0 
C:\msys64\tmp\ccLmBCBX.s:947    .text:00000000000002f0 .L0 
C:\msys64\tmp\ccLmBCBX.s:948    .text:00000000000002f0 .L0 
C:\msys64\tmp\ccLmBCBX.s:954    .text:0000000000000300 .L0 
    src/../h/riscv.h:170    .text:0000000000000300 .L0 
C:\msys64\tmp\ccLmBCBX.s:966    .text:0000000000000304 .L0 
C:\msys64\tmp\ccLmBCBX.s:967    .text:0000000000000304 .L0 
   src/syscall_c.cpp:137    .text:000000000000030c .L0 
C:\msys64\tmp\ccLmBCBX.s:983    .text:0000000000000310 .L0 
C:\msys64\tmp\ccLmBCBX.s:984    .text:0000000000000314 .L0 
C:\msys64\tmp\ccLmBCBX.s:986    .text:0000000000000318 .L0 
C:\msys64\tmp\ccLmBCBX.s:987    .text:0000000000000318 .L0 
C:\msys64\tmp\ccLmBCBX.s:989    .text:000000000000031c .L0 
C:\msys64\tmp\ccLmBCBX.s:991    .text:0000000000000320 .L0 
C:\msys64\tmp\ccLmBCBX.s:993    .text:0000000000000324 .L0 
C:\msys64\tmp\ccLmBCBX.s:1001   .text:0000000000000324 .L0 
C:\msys64\tmp\ccLmBCBX.s:863    .text:0000000000000294 .L0 
C:\msys64\tmp\ccLmBCBX.s:948    .text:00000000000002f0 .L0 
C:\msys64\tmp\ccLmBCBX.s:210    .text:00000000000000b4 .L6
C:\msys64\tmp\ccLmBCBX.s:2714   .debug_abbrev:0000000000000000 .Ldebug_abbrev0
C:\msys64\tmp\ccLmBCBX.s:4594   .debug_str:00000000000006d3 .LASF134
C:\msys64\tmp\ccLmBCBX.s:4446   .debug_str:00000000000002f2 .LASF135
C:\msys64\tmp\ccLmBCBX.s:4608   .debug_str:00000000000007f9 .LASF136
C:\msys64\tmp\ccLmBCBX.s:8      .text:0000000000000000 .Ltext0
C:\msys64\tmp\ccLmBCBX.s:996    .text:0000000000000324 .Letext0
C:\msys64\tmp\ccLmBCBX.s:4338   .debug_line:0000000000000000 .Ldebug_line0
C:\msys64\tmp\ccLmBCBX.s:4406   .debug_str:00000000000001ec .LASF0
C:\msys64\tmp\ccLmBCBX.s:4432   .debug_str:0000000000000294 .LASF1
C:\msys64\tmp\ccLmBCBX.s:4514   .debug_str:00000000000004bb .LASF2
C:\msys64\tmp\ccLmBCBX.s:4522   .debug_str:00000000000004ff .LASF4
C:\msys64\tmp\ccLmBCBX.s:4418   .debug_str:0000000000000232 .LASF3
C:\msys64\tmp\ccLmBCBX.s:4348   .debug_str:0000000000000033 .LASF5
C:\msys64\tmp\ccLmBCBX.s:4484   .debug_str:0000000000000405 .LASF6
C:\msys64\tmp\ccLmBCBX.s:4476   .debug_str:00000000000003bc .LASF7
C:\msys64\tmp\ccLmBCBX.s:4424   .debug_str:000000000000025b .LASF8
C:\msys64\tmp\ccLmBCBX.s:4366   .debug_str:000000000000009f .LASF9
C:\msys64\tmp\ccLmBCBX.s:4548   .debug_str:00000000000005a8 .LASF10
C:\msys64\tmp\ccLmBCBX.s:4386   .debug_str:0000000000000144 .LASF11
C:\msys64\tmp\ccLmBCBX.s:4536   .debug_str:0000000000000559 .LASF12
C:\msys64\tmp\ccLmBCBX.s:4564   .debug_str:000000000000060f .LASF13
C:\msys64\tmp\ccLmBCBX.s:4356   .debug_str:0000000000000060 .LASF137
C:\msys64\tmp\ccLmBCBX.s:4606   .debug_str:00000000000007f3 .LASF14
C:\msys64\tmp\ccLmBCBX.s:4544   .debug_str:0000000000000595 .LASF16
C:\msys64\tmp\ccLmBCBX.s:4620   .debug_str:0000000000000874 .LASF15
C:\msys64\tmp\ccLmBCBX.s:4534   .debug_str:000000000000054c .LASF17
C:\msys64\tmp\ccLmBCBX.s:4474   .debug_str:00000000000003af .LASF18
C:\msys64\tmp\ccLmBCBX.s:4376   .debug_str:00000000000000f4 .LASF19
C:\msys64\tmp\ccLmBCBX.s:4460   .debug_str:0000000000000351 .LASF21
C:\msys64\tmp\ccLmBCBX.s:4554   .debug_str:00000000000005d1 .LASF20
C:\msys64\tmp\ccLmBCBX.s:4540   .debug_str:000000000000057e .LASF22
C:\msys64\tmp\ccLmBCBX.s:4354   .debug_str:000000000000005a .LASF23
C:\msys64\tmp\ccLmBCBX.s:4358   .debug_str:0000000000000068 .LASF24
C:\msys64\tmp\ccLmBCBX.s:4368   .debug_str:00000000000000ae .LASF138
C:\msys64\tmp\ccLmBCBX.s:4538   .debug_str:000000000000056f .LASF72
C:\msys64\tmp\ccLmBCBX.s:4542   .debug_str:0000000000000590 .LASF25
C:\msys64\tmp\ccLmBCBX.s:4464   .debug_str:0000000000000369 .LASF26
GAS LISTING C:\msys64\tmp\ccLmBCBX.s 			page 32


C:\msys64\tmp\ccLmBCBX.s:4584   .debug_str:000000000000068e .LASF27
C:\msys64\tmp\ccLmBCBX.s:4586   .debug_str:0000000000000695 .LASF28
C:\msys64\tmp\ccLmBCBX.s:4398   .debug_str:00000000000001b1 .LASF65
C:\msys64\tmp\ccLmBCBX.s:4404   .debug_str:00000000000001d4 .LASF67
C:\msys64\tmp\ccLmBCBX.s:4572   .debug_str:0000000000000647 .LASF30
C:\msys64\tmp\ccLmBCBX.s:4568   .debug_str:000000000000062c .LASF32
C:\msys64\tmp\ccLmBCBX.s:4508   .debug_str:000000000000048c .LASF29
C:\msys64\tmp\ccLmBCBX.s:4470   .debug_str:0000000000000389 .LASF35
C:\msys64\tmp\ccLmBCBX.s:4488   .debug_str:0000000000000417 .LASF31
C:\msys64\tmp\ccLmBCBX.s:4492   .debug_str:0000000000000423 .LASF33
C:\msys64\tmp\ccLmBCBX.s:4466   .debug_str:000000000000036e .LASF34
C:\msys64\tmp\ccLmBCBX.s:4426   .debug_str:000000000000026e .LASF36
C:\msys64\tmp\ccLmBCBX.s:4600   .debug_str:00000000000007da .LASF37
C:\msys64\tmp\ccLmBCBX.s:4566   .debug_str:0000000000000618 .LASF38
C:\msys64\tmp\ccLmBCBX.s:4462   .debug_str:0000000000000361 .LASF39
C:\msys64\tmp\ccLmBCBX.s:4468   .debug_str:0000000000000375 .LASF40
C:\msys64\tmp\ccLmBCBX.s:4434   .debug_str:00000000000002a7 .LASF41
C:\msys64\tmp\ccLmBCBX.s:4496   .debug_str:0000000000000440 .LASF42
C:\msys64\tmp\ccLmBCBX.s:4626   .debug_str:00000000000008aa .LASF43
C:\msys64\tmp\ccLmBCBX.s:4412   .debug_str:0000000000000204 .LASF44
C:\msys64\tmp\ccLmBCBX.s:4372   .debug_str:00000000000000db .LASF45
C:\msys64\tmp\ccLmBCBX.s:4526   .debug_str:0000000000000510 .LASF46
C:\msys64\tmp\ccLmBCBX.s:4528   .debug_str:0000000000000523 .LASF47
C:\msys64\tmp\ccLmBCBX.s:4382   .debug_str:0000000000000108 .LASF48
C:\msys64\tmp\ccLmBCBX.s:4378   .debug_str:00000000000000f9 .LASF49
C:\msys64\tmp\ccLmBCBX.s:4402   .debug_str:00000000000001c2 .LASF50
C:\msys64\tmp\ccLmBCBX.s:4410   .debug_str:00000000000001fe .LASF51
C:\msys64\tmp\ccLmBCBX.s:4374   .debug_str:00000000000000e2 .LASF52
C:\msys64\tmp\ccLmBCBX.s:4350   .debug_str:000000000000003a .LASF53
C:\msys64\tmp\ccLmBCBX.s:4518   .debug_str:00000000000004d3 .LASF54
C:\msys64\tmp\ccLmBCBX.s:4512   .debug_str:00000000000004b0 .LASF55
C:\msys64\tmp\ccLmBCBX.s:4618   .debug_str:000000000000085c .LASF56
C:\msys64\tmp\ccLmBCBX.s:4588   .debug_str:000000000000069b .LASF57
C:\msys64\tmp\ccLmBCBX.s:4370   .debug_str:00000000000000c5 .LASF58
C:\msys64\tmp\ccLmBCBX.s:4582   .debug_str:0000000000000684 .LASF59
C:\msys64\tmp\ccLmBCBX.s:4448   .debug_str:0000000000000304 .LASF60
C:\msys64\tmp\ccLmBCBX.s:4422   .debug_str:000000000000024d .LASF61
C:\msys64\tmp\ccLmBCBX.s:4392   .debug_str:000000000000017d .LASF62
C:\msys64\tmp\ccLmBCBX.s:4506   .debug_str:000000000000047d .LASF63
C:\msys64\tmp\ccLmBCBX.s:4346   .debug_str:0000000000000016 .LASF64
C:\msys64\tmp\ccLmBCBX.s:4598   .debug_str:00000000000007cb .LASF66
C:\msys64\tmp\ccLmBCBX.s:4390   .debug_str:0000000000000161 .LASF68
C:\msys64\tmp\ccLmBCBX.s:4480   .debug_str:00000000000003e0 .LASF139
C:\msys64\tmp\ccLmBCBX.s:4384   .debug_str:000000000000011b .LASF140
C:\msys64\tmp\ccLmBCBX.s:4438   .debug_str:00000000000002c8 .LASF69
C:\msys64\tmp\ccLmBCBX.s:4578   .debug_str:0000000000000674 .LASF70
C:\msys64\tmp\ccLmBCBX.s:4610   .debug_str:0000000000000828 .LASF71
C:\msys64\tmp\ccLmBCBX.s:4472   .debug_str:000000000000039e .LASF73
C:\msys64\tmp\ccLmBCBX.s:4624   .debug_str:0000000000000899 .LASF141
C:\msys64\tmp\ccLmBCBX.s:4344   .debug_str:000000000000000f .LASF74
C:\msys64\tmp\ccLmBCBX.s:4574   .debug_str:0000000000000650 .LASF75
C:\msys64\tmp\ccLmBCBX.s:4414   .debug_str:0000000000000218 .LASF76
C:\msys64\tmp\ccLmBCBX.s:4590   .debug_str:00000000000006a5 .LASF77
C:\msys64\tmp\ccLmBCBX.s:4340   .debug_str:0000000000000000 .LASF78
C:\msys64\tmp\ccLmBCBX.s:4342   .debug_str:0000000000000006 .LASF142
C:\msys64\tmp\ccLmBCBX.s:4388   .debug_str:000000000000015a .LASF79
C:\msys64\tmp\ccLmBCBX.s:4558   .debug_str:00000000000005e1 .LASF80
GAS LISTING C:\msys64\tmp\ccLmBCBX.s 			page 33


C:\msys64\tmp\ccLmBCBX.s:4420   .debug_str:0000000000000244 .LASF81
C:\msys64\tmp\ccLmBCBX.s:4478   .debug_str:00000000000003cf .LASF82
C:\msys64\tmp\ccLmBCBX.s:4440   .debug_str:00000000000002cd .LASF83
C:\msys64\tmp\ccLmBCBX.s:4516   .debug_str:00000000000004c9 .LASF102
C:\msys64\tmp\ccLmBCBX.s:4452   .debug_str:0000000000000324 .LASF103
C:\msys64\tmp\ccLmBCBX.s:4408   .debug_str:00000000000001f9 .LASF84
C:\msys64\tmp\ccLmBCBX.s:4562   .debug_str:00000000000005fb .LASF85
C:\msys64\tmp\ccLmBCBX.s:4444   .debug_str:00000000000002ed .LASF86
C:\msys64\tmp\ccLmBCBX.s:4552   .debug_str:00000000000005bd .LASF87
C:\msys64\tmp\ccLmBCBX.s:4524   .debug_str:0000000000000506 .LASF88
C:\msys64\tmp\ccLmBCBX.s:4436   .debug_str:00000000000002af .LASF89
C:\msys64\tmp\ccLmBCBX.s:4364   .debug_str:0000000000000094 .LASF90
C:\msys64\tmp\ccLmBCBX.s:4530   .debug_str:000000000000052a .LASF91
C:\msys64\tmp\ccLmBCBX.s:4502   .debug_str:0000000000000469 .LASF92
C:\msys64\tmp\ccLmBCBX.s:4622   .debug_str:0000000000000881 .LASF93
C:\msys64\tmp\ccLmBCBX.s:4602   .debug_str:00000000000007e2 .LASF94
C:\msys64\tmp\ccLmBCBX.s:4592   .debug_str:00000000000006ba .LASF95
C:\msys64\tmp\ccLmBCBX.s:4532   .debug_str:0000000000000545 .LASF96
C:\msys64\tmp\ccLmBCBX.s:4362   .debug_str:000000000000008c .LASF97
C:\msys64\tmp\ccLmBCBX.s:4570   .debug_str:0000000000000641 .LASF98
C:\msys64\tmp\ccLmBCBX.s:4454   .debug_str:0000000000000338 .LASF99
C:\msys64\tmp\ccLmBCBX.s:4498   .debug_str:0000000000000454 .LASF100
C:\msys64\tmp\ccLmBCBX.s:4486   .debug_str:000000000000040c .LASF143
C:\msys64\tmp\ccLmBCBX.s:4510   .debug_str:0000000000000495 .LASF144
C:\msys64\tmp\ccLmBCBX.s:4550   .debug_str:00000000000005b4 .LASF101
C:\msys64\tmp\ccLmBCBX.s:922    .text:00000000000002d0 .LFB34
C:\msys64\tmp\ccLmBCBX.s:994    .text:0000000000000324 .LFE34
C:\msys64\tmp\ccLmBCBX.s:3647   .debug_loc:0000000000000000 .LLST68
C:\msys64\tmp\ccLmBCBX.s:938    .text:00000000000002e8 .LBB144
C:\msys64\tmp\ccLmBCBX.s:946    .text:00000000000002f0 .LBE144
C:\msys64\tmp\ccLmBCBX.s:943    .text:00000000000002f0 .LVL78
C:\msys64\tmp\ccLmBCBX.s:952    .text:0000000000000300 .LBB146
C:\msys64\tmp\ccLmBCBX.s:962    .text:0000000000000304 .LBE146
C:\msys64\tmp\ccLmBCBX.s:3661   .debug_loc:0000000000000039 .LLST69
C:\msys64\tmp\ccLmBCBX.s:3668   .debug_loc:000000000000005c .LLST70
C:\msys64\tmp\ccLmBCBX.s:964    .text:0000000000000304 .LBB148
C:\msys64\tmp\ccLmBCBX.s:975    .text:000000000000030c .LBE148
C:\msys64\tmp\ccLmBCBX.s:3676   .debug_loc:0000000000000080 .LLST71
C:\msys64\tmp\ccLmBCBX.s:3685   .debug_loc:00000000000000a5 .LLST72
C:\msys64\tmp\ccLmBCBX.s:950    .text:0000000000000300 .LVL79
C:\msys64\tmp\ccLmBCBX.s:4580   .debug_str:000000000000067b .LASF104
C:\msys64\tmp\ccLmBCBX.s:840    .text:000000000000027c .LFB33
C:\msys64\tmp\ccLmBCBX.s:916    .text:00000000000002d0 .LFE33
C:\msys64\tmp\ccLmBCBX.s:852    .text:000000000000028c .LBB138
C:\msys64\tmp\ccLmBCBX.s:861    .text:0000000000000294 .LBE138
C:\msys64\tmp\ccLmBCBX.s:858    .text:0000000000000294 .LVL72
C:\msys64\tmp\ccLmBCBX.s:867    .text:00000000000002a4 .LBB140
C:\msys64\tmp\ccLmBCBX.s:878    .text:00000000000002ac .LBE140
C:\msys64\tmp\ccLmBCBX.s:3693   .debug_loc:00000000000000c9 .LLST65
C:\msys64\tmp\ccLmBCBX.s:3702   .debug_loc:00000000000000ee .LLST66
C:\msys64\tmp\ccLmBCBX.s:887    .text:00000000000002b0 .LBB142
C:\msys64\tmp\ccLmBCBX.s:899    .text:00000000000002b4 .LBE142
C:\msys64\tmp\ccLmBCBX.s:3710   .debug_loc:0000000000000112 .LLST67
C:\msys64\tmp\ccLmBCBX.s:865    .text:00000000000002a4 .LVL73
C:\msys64\tmp\ccLmBCBX.s:4380   .debug_str:00000000000000ff .LASF105
C:\msys64\tmp\ccLmBCBX.s:4504   .debug_str:0000000000000472 .LASF106
C:\msys64\tmp\ccLmBCBX.s:4482   .debug_str:00000000000003f5 .LASF107
GAS LISTING C:\msys64\tmp\ccLmBCBX.s 			page 34


C:\msys64\tmp\ccLmBCBX.s:762    .text:0000000000000244 .LFB32
C:\msys64\tmp\ccLmBCBX.s:834    .text:000000000000027c .LFE32
C:\msys64\tmp\ccLmBCBX.s:3718   .debug_loc:0000000000000136 .LLST59
C:\msys64\tmp\ccLmBCBX.s:774    .text:0000000000000250 .LBB132
C:\msys64\tmp\ccLmBCBX.s:784    .text:0000000000000254 .LBE132
C:\msys64\tmp\ccLmBCBX.s:3732   .debug_loc:000000000000016f .LLST60
C:\msys64\tmp\ccLmBCBX.s:3739   .debug_loc:0000000000000192 .LLST61
C:\msys64\tmp\ccLmBCBX.s:786    .text:0000000000000254 .LBB134
C:\msys64\tmp\ccLmBCBX.s:797    .text:000000000000025c .LBE134
C:\msys64\tmp\ccLmBCBX.s:3747   .debug_loc:00000000000001b6 .LLST62
C:\msys64\tmp\ccLmBCBX.s:3756   .debug_loc:00000000000001db .LLST63
C:\msys64\tmp\ccLmBCBX.s:806    .text:0000000000000260 .LBB136
C:\msys64\tmp\ccLmBCBX.s:818    .text:0000000000000264 .LBE136
C:\msys64\tmp\ccLmBCBX.s:3764   .debug_loc:00000000000001ff .LLST64
C:\msys64\tmp\ccLmBCBX.s:4396   .debug_str:00000000000001a6 .LASF108
C:\msys64\tmp\ccLmBCBX.s:4560   .debug_str:00000000000005e6 .LASF109
C:\msys64\tmp\ccLmBCBX.s:684    .text:000000000000020c .LFB31
C:\msys64\tmp\ccLmBCBX.s:756    .text:0000000000000244 .LFE31
C:\msys64\tmp\ccLmBCBX.s:3772   .debug_loc:0000000000000223 .LLST53
C:\msys64\tmp\ccLmBCBX.s:696    .text:0000000000000218 .LBB126
C:\msys64\tmp\ccLmBCBX.s:706    .text:000000000000021c .LBE126
C:\msys64\tmp\ccLmBCBX.s:3786   .debug_loc:000000000000025c .LLST54
C:\msys64\tmp\ccLmBCBX.s:3793   .debug_loc:000000000000027f .LLST55
C:\msys64\tmp\ccLmBCBX.s:708    .text:000000000000021c .LBB128
C:\msys64\tmp\ccLmBCBX.s:719    .text:0000000000000224 .LBE128
C:\msys64\tmp\ccLmBCBX.s:3801   .debug_loc:00000000000002a3 .LLST56
C:\msys64\tmp\ccLmBCBX.s:3810   .debug_loc:00000000000002c8 .LLST57
C:\msys64\tmp\ccLmBCBX.s:728    .text:0000000000000228 .LBB130
C:\msys64\tmp\ccLmBCBX.s:740    .text:000000000000022c .LBE130
C:\msys64\tmp\ccLmBCBX.s:3818   .debug_loc:00000000000002ec .LLST58
C:\msys64\tmp\ccLmBCBX.s:4628   .debug_str:00000000000008b2 .LASF110
C:\msys64\tmp\ccLmBCBX.s:4416   .debug_str:0000000000000220 .LASF111
C:\msys64\tmp\ccLmBCBX.s:606    .text:00000000000001d4 .LFB30
C:\msys64\tmp\ccLmBCBX.s:678    .text:000000000000020c .LFE30
C:\msys64\tmp\ccLmBCBX.s:3826   .debug_loc:0000000000000310 .LLST47
C:\msys64\tmp\ccLmBCBX.s:618    .text:00000000000001e0 .LBB120
C:\msys64\tmp\ccLmBCBX.s:628    .text:00000000000001e4 .LBE120
C:\msys64\tmp\ccLmBCBX.s:3840   .debug_loc:0000000000000349 .LLST48
C:\msys64\tmp\ccLmBCBX.s:3847   .debug_loc:000000000000036c .LLST49
C:\msys64\tmp\ccLmBCBX.s:630    .text:00000000000001e4 .LBB122
C:\msys64\tmp\ccLmBCBX.s:641    .text:00000000000001ec .LBE122
C:\msys64\tmp\ccLmBCBX.s:3855   .debug_loc:0000000000000390 .LLST50
C:\msys64\tmp\ccLmBCBX.s:3864   .debug_loc:00000000000003b5 .LLST51
C:\msys64\tmp\ccLmBCBX.s:650    .text:00000000000001f0 .LBB124
C:\msys64\tmp\ccLmBCBX.s:662    .text:00000000000001f4 .LBE124
C:\msys64\tmp\ccLmBCBX.s:3872   .debug_loc:00000000000003d9 .LLST52
C:\msys64\tmp\ccLmBCBX.s:4494   .debug_str:0000000000000436 .LASF112
C:\msys64\tmp\ccLmBCBX.s:4360   .debug_str:0000000000000079 .LASF113
C:\msys64\tmp\ccLmBCBX.s:528    .text:000000000000019c .LFB29
C:\msys64\tmp\ccLmBCBX.s:600    .text:00000000000001d4 .LFE29
C:\msys64\tmp\ccLmBCBX.s:4604   .debug_str:00000000000007ec .LASF114
C:\msys64\tmp\ccLmBCBX.s:3880   .debug_loc:00000000000003fd .LLST41
C:\msys64\tmp\ccLmBCBX.s:540    .text:00000000000001a8 .LBB114
C:\msys64\tmp\ccLmBCBX.s:550    .text:00000000000001ac .LBE114
C:\msys64\tmp\ccLmBCBX.s:3894   .debug_loc:0000000000000436 .LLST42
C:\msys64\tmp\ccLmBCBX.s:3901   .debug_loc:0000000000000459 .LLST43
C:\msys64\tmp\ccLmBCBX.s:552    .text:00000000000001ac .LBB116
GAS LISTING C:\msys64\tmp\ccLmBCBX.s 			page 35


C:\msys64\tmp\ccLmBCBX.s:563    .text:00000000000001b4 .LBE116
C:\msys64\tmp\ccLmBCBX.s:3909   .debug_loc:000000000000047d .LLST44
C:\msys64\tmp\ccLmBCBX.s:3918   .debug_loc:00000000000004a2 .LLST45
C:\msys64\tmp\ccLmBCBX.s:572    .text:00000000000001b8 .LBB118
C:\msys64\tmp\ccLmBCBX.s:584    .text:00000000000001bc .LBE118
C:\msys64\tmp\ccLmBCBX.s:3926   .debug_loc:00000000000004c6 .LLST46
C:\msys64\tmp\ccLmBCBX.s:4500   .debug_str:0000000000000460 .LASF115
C:\msys64\tmp\ccLmBCBX.s:4520   .debug_str:00000000000004eb .LASF116
C:\msys64\tmp\ccLmBCBX.s:434    .text:0000000000000158 .LFB28
C:\msys64\tmp\ccLmBCBX.s:522    .text:000000000000019c .LFE28
C:\msys64\tmp\ccLmBCBX.s:3934   .debug_loc:00000000000004ea .LLST32
C:\msys64\tmp\ccLmBCBX.s:4490   .debug_str:000000000000041e .LASF117
C:\msys64\tmp\ccLmBCBX.s:3948   .debug_loc:0000000000000523 .LLST33
C:\msys64\tmp\ccLmBCBX.s:450    .text:000000000000016c .LBB106
C:\msys64\tmp\ccLmBCBX.s:460    .text:0000000000000170 .LBE106
C:\msys64\tmp\ccLmBCBX.s:3962   .debug_loc:000000000000055c .LLST34
C:\msys64\tmp\ccLmBCBX.s:3969   .debug_loc:000000000000057f .LLST35
C:\msys64\tmp\ccLmBCBX.s:462    .text:0000000000000170 .LBB108
C:\msys64\tmp\ccLmBCBX.s:472    .text:0000000000000174 .LBE108
C:\msys64\tmp\ccLmBCBX.s:3977   .debug_loc:00000000000005a3 .LLST36
C:\msys64\tmp\ccLmBCBX.s:3984   .debug_loc:00000000000005c6 .LLST37
C:\msys64\tmp\ccLmBCBX.s:474    .text:0000000000000174 .LBB110
C:\msys64\tmp\ccLmBCBX.s:485    .text:000000000000017c .LBE110
C:\msys64\tmp\ccLmBCBX.s:3992   .debug_loc:00000000000005ea .LLST38
C:\msys64\tmp\ccLmBCBX.s:4001   .debug_loc:000000000000060f .LLST39
C:\msys64\tmp\ccLmBCBX.s:494    .text:0000000000000180 .LBB112
C:\msys64\tmp\ccLmBCBX.s:506    .text:0000000000000184 .LBE112
C:\msys64\tmp\ccLmBCBX.s:4009   .debug_loc:0000000000000633 .LLST40
C:\msys64\tmp\ccLmBCBX.s:4442   .debug_str:00000000000002e1 .LASF118
C:\msys64\tmp\ccLmBCBX.s:4614   .debug_str:0000000000000845 .LASF119
C:\msys64\tmp\ccLmBCBX.s:370    .text:0000000000000124 .LFB27
C:\msys64\tmp\ccLmBCBX.s:428    .text:0000000000000158 .LFE27
C:\msys64\tmp\ccLmBCBX.s:381    .text:0000000000000130 .LBB102
C:\msys64\tmp\ccLmBCBX.s:392    .text:0000000000000138 .LBE102
C:\msys64\tmp\ccLmBCBX.s:4017   .debug_loc:0000000000000657 .LLST29
C:\msys64\tmp\ccLmBCBX.s:4025   .debug_loc:000000000000067b .LLST30
C:\msys64\tmp\ccLmBCBX.s:401    .text:000000000000013c .LBB104
C:\msys64\tmp\ccLmBCBX.s:413    .text:0000000000000140 .LBE104
C:\msys64\tmp\ccLmBCBX.s:4033   .debug_loc:000000000000069f .LLST31
C:\msys64\tmp\ccLmBCBX.s:4576   .debug_str:0000000000000664 .LASF120
C:\msys64\tmp\ccLmBCBX.s:4352   .debug_str:0000000000000045 .LASF121
C:\msys64\tmp\ccLmBCBX.s:327    .text:0000000000000100 .LFB26
C:\msys64\tmp\ccLmBCBX.s:364    .text:0000000000000124 .LFE26
C:\msys64\tmp\ccLmBCBX.s:338    .text:000000000000010c .LBB100
C:\msys64\tmp\ccLmBCBX.s:349    .text:0000000000000114 .LBE100
C:\msys64\tmp\ccLmBCBX.s:4041   .debug_loc:00000000000006c3 .LLST27
C:\msys64\tmp\ccLmBCBX.s:4049   .debug_loc:00000000000006e7 .LLST28
C:\msys64\tmp\ccLmBCBX.s:4546   .debug_str:000000000000059a .LASF122
C:\msys64\tmp\ccLmBCBX.s:4596   .debug_str:00000000000007a6 .LASF123
C:\msys64\tmp\ccLmBCBX.s:176    .text:0000000000000074 .LFB25
C:\msys64\tmp\ccLmBCBX.s:321    .text:0000000000000100 .LFE25
C:\msys64\tmp\ccLmBCBX.s:4057   .debug_loc:000000000000070b .LLST13
C:\msys64\tmp\ccLmBCBX.s:4428   .debug_str:0000000000000281 .LASF124
C:\msys64\tmp\ccLmBCBX.s:4075   .debug_loc:0000000000000757 .LLST14
C:\msys64\tmp\ccLmBCBX.s:4093   .debug_loc:00000000000007a3 .LLST15
C:\msys64\tmp\ccLmBCBX.s:4616   .debug_str:0000000000000856 .LASF125
C:\msys64\tmp\ccLmBCBX.s:215    .text:00000000000000b8 .LBB88
GAS LISTING C:\msys64\tmp\ccLmBCBX.s 			page 36


C:\msys64\tmp\ccLmBCBX.s:225    .text:00000000000000bc .LBE88
C:\msys64\tmp\ccLmBCBX.s:4111   .debug_loc:00000000000007ef .LLST16
C:\msys64\tmp\ccLmBCBX.s:4118   .debug_loc:0000000000000812 .LLST17
C:\msys64\tmp\ccLmBCBX.s:227    .text:00000000000000bc .LBB90
C:\msys64\tmp\ccLmBCBX.s:237    .text:00000000000000c0 .LBE90
C:\msys64\tmp\ccLmBCBX.s:4126   .debug_loc:0000000000000836 .LLST18
C:\msys64\tmp\ccLmBCBX.s:4133   .debug_loc:0000000000000859 .LLST19
C:\msys64\tmp\ccLmBCBX.s:239    .text:00000000000000c0 .LBB92
C:\msys64\tmp\ccLmBCBX.s:249    .text:00000000000000c4 .LBE92
C:\msys64\tmp\ccLmBCBX.s:4141   .debug_loc:000000000000087d .LLST20
C:\msys64\tmp\ccLmBCBX.s:4148   .debug_loc:00000000000008a0 .LLST21
C:\msys64\tmp\ccLmBCBX.s:251    .text:00000000000000c4 .LBB94
C:\msys64\tmp\ccLmBCBX.s:261    .text:00000000000000c8 .LBE94
C:\msys64\tmp\ccLmBCBX.s:4156   .debug_loc:00000000000008c4 .LLST22
C:\msys64\tmp\ccLmBCBX.s:4163   .debug_loc:00000000000008e7 .LLST23
C:\msys64\tmp\ccLmBCBX.s:263    .text:00000000000000c8 .LBB96
C:\msys64\tmp\ccLmBCBX.s:274    .text:00000000000000d0 .LBE96
C:\msys64\tmp\ccLmBCBX.s:4171   .debug_loc:000000000000090b .LLST24
C:\msys64\tmp\ccLmBCBX.s:4179   .debug_loc:000000000000092f .LLST25
C:\msys64\tmp\ccLmBCBX.s:283    .text:00000000000000d4 .LBB98
C:\msys64\tmp\ccLmBCBX.s:295    .text:00000000000000d8 .LBE98
C:\msys64\tmp\ccLmBCBX.s:4187   .debug_loc:0000000000000953 .LLST26
C:\msys64\tmp\ccLmBCBX.s:207    .text:00000000000000b0 .LVL17
C:\msys64\tmp\ccLmBCBX.s:4556   .debug_str:00000000000005d8 .LASF126
C:\msys64\tmp\ccLmBCBX.s:4612   .debug_str:0000000000000837 .LASF127
C:\msys64\tmp\ccLmBCBX.s:98     .text:000000000000003c .LFB24
C:\msys64\tmp\ccLmBCBX.s:170    .text:0000000000000074 .LFE24
C:\msys64\tmp\ccLmBCBX.s:4195   .debug_loc:0000000000000977 .LLST7
C:\msys64\tmp\ccLmBCBX.s:110    .text:0000000000000048 .LBB82
C:\msys64\tmp\ccLmBCBX.s:120    .text:000000000000004c .LBE82
C:\msys64\tmp\ccLmBCBX.s:4209   .debug_loc:00000000000009b0 .LLST8
C:\msys64\tmp\ccLmBCBX.s:4216   .debug_loc:00000000000009d3 .LLST9
C:\msys64\tmp\ccLmBCBX.s:122    .text:000000000000004c .LBB84
C:\msys64\tmp\ccLmBCBX.s:133    .text:0000000000000054 .LBE84
C:\msys64\tmp\ccLmBCBX.s:4224   .debug_loc:00000000000009f7 .LLST10
C:\msys64\tmp\ccLmBCBX.s:4232   .debug_loc:0000000000000a1b .LLST11
C:\msys64\tmp\ccLmBCBX.s:142    .text:0000000000000058 .LBB86
C:\msys64\tmp\ccLmBCBX.s:154    .text:000000000000005c .LBE86
C:\msys64\tmp\ccLmBCBX.s:4240   .debug_loc:0000000000000a3f .LLST12
C:\msys64\tmp\ccLmBCBX.s:4450   .debug_str:000000000000031a .LASF128
C:\msys64\tmp\ccLmBCBX.s:4394   .debug_str:0000000000000198 .LASF129
C:\msys64\tmp\ccLmBCBX.s:13     .text:0000000000000000 .LFB23
C:\msys64\tmp\ccLmBCBX.s:92     .text:000000000000003c .LFE23
C:\msys64\tmp\ccLmBCBX.s:4430   .debug_str:000000000000028f .LASF130
C:\msys64\tmp\ccLmBCBX.s:4248   .debug_loc:0000000000000a63 .LLST0
C:\msys64\tmp\ccLmBCBX.s:4456   .debug_str:000000000000033f .LASF131
C:\msys64\tmp\ccLmBCBX.s:4268   .debug_loc:0000000000000ab1 .LLST1
C:\msys64\tmp\ccLmBCBX.s:32     .text:0000000000000014 .LBB76
C:\msys64\tmp\ccLmBCBX.s:43     .text:0000000000000018 .LBE76
C:\msys64\tmp\ccLmBCBX.s:4286   .debug_loc:0000000000000aee .LLST2
C:\msys64\tmp\ccLmBCBX.s:4293   .debug_loc:0000000000000b11 .LLST3
C:\msys64\tmp\ccLmBCBX.s:45     .text:0000000000000018 .LBB78
C:\msys64\tmp\ccLmBCBX.s:56     .text:0000000000000020 .LBE78
C:\msys64\tmp\ccLmBCBX.s:4301   .debug_loc:0000000000000b35 .LLST4
C:\msys64\tmp\ccLmBCBX.s:4309   .debug_loc:0000000000000b59 .LLST5
C:\msys64\tmp\ccLmBCBX.s:65     .text:0000000000000024 .LBB80
C:\msys64\tmp\ccLmBCBX.s:77     .text:0000000000000028 .LBE80
GAS LISTING C:\msys64\tmp\ccLmBCBX.s 			page 37


C:\msys64\tmp\ccLmBCBX.s:4317   .debug_loc:0000000000000b7d .LLST6
C:\msys64\tmp\ccLmBCBX.s:4458   .debug_str:0000000000000346 .LASF132
C:\msys64\tmp\ccLmBCBX.s:4400   .debug_str:00000000000001bc .LASF133
C:\msys64\tmp\ccLmBCBX.s:925    .text:00000000000002d0 .LVL77
C:\msys64\tmp\ccLmBCBX.s:959    .text:0000000000000304 .LVL80
C:\msys64\tmp\ccLmBCBX.s:972    .text:000000000000030c .LVL81
C:\msys64\tmp\ccLmBCBX.s:875    .text:00000000000002ac .LVL74
C:\msys64\tmp\ccLmBCBX.s:885    .text:00000000000002b0 .LVL75
C:\msys64\tmp\ccLmBCBX.s:895    .text:00000000000002b4 .LVL76
C:\msys64\tmp\ccLmBCBX.s:765    .text:0000000000000244 .LVL65
C:\msys64\tmp\ccLmBCBX.s:824    .text:000000000000026c .LVL71
C:\msys64\tmp\ccLmBCBX.s:773    .text:0000000000000250 .LVL66
C:\msys64\tmp\ccLmBCBX.s:781    .text:0000000000000254 .LVL67
C:\msys64\tmp\ccLmBCBX.s:794    .text:000000000000025c .LVL68
C:\msys64\tmp\ccLmBCBX.s:804    .text:0000000000000260 .LVL69
C:\msys64\tmp\ccLmBCBX.s:814    .text:0000000000000264 .LVL70
C:\msys64\tmp\ccLmBCBX.s:687    .text:000000000000020c .LVL58
C:\msys64\tmp\ccLmBCBX.s:746    .text:0000000000000234 .LVL64
C:\msys64\tmp\ccLmBCBX.s:695    .text:0000000000000218 .LVL59
C:\msys64\tmp\ccLmBCBX.s:703    .text:000000000000021c .LVL60
C:\msys64\tmp\ccLmBCBX.s:716    .text:0000000000000224 .LVL61
C:\msys64\tmp\ccLmBCBX.s:726    .text:0000000000000228 .LVL62
C:\msys64\tmp\ccLmBCBX.s:736    .text:000000000000022c .LVL63
C:\msys64\tmp\ccLmBCBX.s:609    .text:00000000000001d4 .LVL51
C:\msys64\tmp\ccLmBCBX.s:668    .text:00000000000001fc .LVL57
C:\msys64\tmp\ccLmBCBX.s:617    .text:00000000000001e0 .LVL52
C:\msys64\tmp\ccLmBCBX.s:625    .text:00000000000001e4 .LVL53
C:\msys64\tmp\ccLmBCBX.s:638    .text:00000000000001ec .LVL54
C:\msys64\tmp\ccLmBCBX.s:648    .text:00000000000001f0 .LVL55
C:\msys64\tmp\ccLmBCBX.s:658    .text:00000000000001f4 .LVL56
C:\msys64\tmp\ccLmBCBX.s:531    .text:000000000000019c .LVL44
C:\msys64\tmp\ccLmBCBX.s:590    .text:00000000000001c4 .LVL50
C:\msys64\tmp\ccLmBCBX.s:539    .text:00000000000001a8 .LVL45
C:\msys64\tmp\ccLmBCBX.s:547    .text:00000000000001ac .LVL46
C:\msys64\tmp\ccLmBCBX.s:560    .text:00000000000001b4 .LVL47
C:\msys64\tmp\ccLmBCBX.s:570    .text:00000000000001b8 .LVL48
C:\msys64\tmp\ccLmBCBX.s:580    .text:00000000000001bc .LVL49
C:\msys64\tmp\ccLmBCBX.s:437    .text:0000000000000158 .LVL35
C:\msys64\tmp\ccLmBCBX.s:512    .text:000000000000018c .LVL43
C:\msys64\tmp\ccLmBCBX.s:447    .text:0000000000000168 .LVL36
C:\msys64\tmp\ccLmBCBX.s:449    .text:000000000000016c .LVL37
C:\msys64\tmp\ccLmBCBX.s:457    .text:0000000000000170 .LVL38
C:\msys64\tmp\ccLmBCBX.s:469    .text:0000000000000174 .LVL39
C:\msys64\tmp\ccLmBCBX.s:482    .text:000000000000017c .LVL40
C:\msys64\tmp\ccLmBCBX.s:492    .text:0000000000000180 .LVL41
C:\msys64\tmp\ccLmBCBX.s:502    .text:0000000000000184 .LVL42
C:\msys64\tmp\ccLmBCBX.s:380    .text:0000000000000130 .LVL31
C:\msys64\tmp\ccLmBCBX.s:389    .text:0000000000000138 .LVL32
C:\msys64\tmp\ccLmBCBX.s:399    .text:000000000000013c .LVL33
C:\msys64\tmp\ccLmBCBX.s:409    .text:0000000000000140 .LVL34
C:\msys64\tmp\ccLmBCBX.s:337    .text:000000000000010c .LVL29
C:\msys64\tmp\ccLmBCBX.s:346    .text:0000000000000114 .LVL30
C:\msys64\tmp\ccLmBCBX.s:179    .text:0000000000000074 .LVL15
C:\msys64\tmp\ccLmBCBX.s:205    .text:00000000000000a8 .LVL16
C:\msys64\tmp\ccLmBCBX.s:313    .text:00000000000000f4 .LVL27
C:\msys64\tmp\ccLmBCBX.s:310    .text:00000000000000f0 .LVL26
C:\msys64\tmp\ccLmBCBX.s:316    .text:00000000000000f8 .LVL28
GAS LISTING C:\msys64\tmp\ccLmBCBX.s 			page 38


C:\msys64\tmp\ccLmBCBX.s:214    .text:00000000000000b8 .LVL18
C:\msys64\tmp\ccLmBCBX.s:222    .text:00000000000000bc .LVL19
C:\msys64\tmp\ccLmBCBX.s:234    .text:00000000000000c0 .LVL20
C:\msys64\tmp\ccLmBCBX.s:246    .text:00000000000000c4 .LVL21
C:\msys64\tmp\ccLmBCBX.s:258    .text:00000000000000c8 .LVL22
C:\msys64\tmp\ccLmBCBX.s:271    .text:00000000000000d0 .LVL23
C:\msys64\tmp\ccLmBCBX.s:281    .text:00000000000000d4 .LVL24
C:\msys64\tmp\ccLmBCBX.s:291    .text:00000000000000d8 .LVL25
C:\msys64\tmp\ccLmBCBX.s:101    .text:000000000000003c .LVL8
C:\msys64\tmp\ccLmBCBX.s:160    .text:0000000000000064 .LVL14
C:\msys64\tmp\ccLmBCBX.s:109    .text:0000000000000048 .LVL9
C:\msys64\tmp\ccLmBCBX.s:117    .text:000000000000004c .LVL10
C:\msys64\tmp\ccLmBCBX.s:130    .text:0000000000000054 .LVL11
C:\msys64\tmp\ccLmBCBX.s:140    .text:0000000000000058 .LVL12
C:\msys64\tmp\ccLmBCBX.s:150    .text:000000000000005c .LVL13
C:\msys64\tmp\ccLmBCBX.s:17     .text:0000000000000000 .LVL0
C:\msys64\tmp\ccLmBCBX.s:27     .text:0000000000000010 .LVL1
C:\msys64\tmp\ccLmBCBX.s:30     .text:0000000000000014 .LVL2
C:\msys64\tmp\ccLmBCBX.s:83     .text:0000000000000030 .LVL7
C:\msys64\tmp\ccLmBCBX.s:40     .text:0000000000000018 .LVL3
C:\msys64\tmp\ccLmBCBX.s:53     .text:0000000000000020 .LVL4
C:\msys64\tmp\ccLmBCBX.s:63     .text:0000000000000024 .LVL5
C:\msys64\tmp\ccLmBCBX.s:73     .text:0000000000000028 .LVL6
C:\msys64\tmp\ccLmBCBX.s:1002   .debug_info:0000000000000000 .Ldebug_info0

UNDEFINED SYMBOLS
_ZN8_console10ensureInitEv
_ZN8_console5inSemE
_ZN8_console6outSemE
