GAS LISTING /tmp/ccqPut3c.s 			page 1


   1              		.file	"TCB.cpp"
   2              		.option pic
   3              		.option norelax
   4              		.text
   5              	.Ltext0:
   6              		.align	2
   7              		.globl	_ZN3TCB12createThreadEPFvvE
   9              	_ZN3TCB12createThreadEPFvvE:
  10              	.LFB27:
  11              		.file 1 "src/TCB.cpp"
   1:src/TCB.cpp   **** //
   2:src/TCB.cpp   **** // Created by os on 3/31/26.
   3:src/TCB.cpp   **** //
   4:src/TCB.cpp   **** 
   5:src/TCB.cpp   **** #include "../h/TCB.h"
   6:src/TCB.cpp   **** #include "../h/Scheduler.h"
   7:src/TCB.cpp   **** #include  "../h/riscv.h"
   8:src/TCB.cpp   **** 
   9:src/TCB.cpp   **** TCB * TCB::running = nullptr;
  10:src/TCB.cpp   **** 
  11:src/TCB.cpp   **** TCB * TCB::createThread(Body body) {
  12              		.loc 1 11 36
  13              		.cfi_startproc
  14              		.cfi_personality 0x9b,DW.ref.__gxx_personality_v0
  15              		.cfi_lsda 0x1b,.LLSDA27
  16              	.LVL0:
  17 0000 130101FD 		addi	sp,sp,-48
  18              		.cfi_def_cfa_offset 48
  19 0004 23341102 		sd	ra,40(sp)
  20 0008 23308102 		sd	s0,32(sp)
  21 000c 233C9100 		sd	s1,24(sp)
  22 0010 23382101 		sd	s2,16(sp)
  23              		.cfi_offset 1, -8
  24              		.cfi_offset 8, -16
  25              		.cfi_offset 9, -24
  26              		.cfi_offset 18, -32
  27 0014 13040103 		addi	s0,sp,48
  28              		.cfi_def_cfa 8, 0
  29 0018 13090500 		mv	s2,a0
  12:src/TCB.cpp   ****     return new TCB(body);
  30              		.loc 1 12 5
  31              		.loc 1 12 24 is_stmt 0
  32 001c 13050003 		li	a0,48
  33              	.LVL1:
  34              	.LEHB0:
  35 0020 97000000 		call	_Znwm@plt
  35      E7800000 
  36              	.LVL2:
  37              	.LEHE0:
  38 0028 93040500 		mv	s1,a0
  39              	.LVL3:
  40 002c 233C24FD 		sd	s2,-40(s0)
  41              	.LVL4:
  42              	.LBB7:
  43              	.LBB8:
  44              		.file 2 "src/../h/TCB.h"
   1:src/../h/TCB.h **** //
GAS LISTING /tmp/ccqPut3c.s 			page 2


   2:src/../h/TCB.h **** // Created by os on 3/31/26.
   3:src/../h/TCB.h **** //
   4:src/../h/TCB.h **** 
   5:src/../h/TCB.h **** #ifndef PROJECT_BASE_TCB_H
   6:src/../h/TCB.h **** #define PROJECT_BASE_TCB_H
   7:src/../h/TCB.h **** #include "../lib/hw.h"
   8:src/../h/TCB.h **** #include "Scheduler.h"
   9:src/../h/TCB.h **** 
  10:src/../h/TCB.h **** class TCB
  11:src/../h/TCB.h **** {
  12:src/../h/TCB.h **** public:
  13:src/../h/TCB.h ****     ~TCB(){delete[] stack;}
  14:src/../h/TCB.h ****     bool isFinished() const {return finished;}
  15:src/../h/TCB.h **** 
  16:src/../h/TCB.h ****     void setFinished(bool finished){TCB::finished = finished;}
  17:src/../h/TCB.h **** 
  18:src/../h/TCB.h ****     using Body = void (*)();
  19:src/../h/TCB.h **** 
  20:src/../h/TCB.h ****     static TCB* createThread(Body body);
  21:src/../h/TCB.h **** 
  22:src/../h/TCB.h ****     static void yield();
  23:src/../h/TCB.h **** 
  24:src/../h/TCB.h ****     static TCB* running;
  25:src/../h/TCB.h **** 
  26:src/../h/TCB.h **** 
  27:src/../h/TCB.h ****     friend class Scheduler;
  28:src/../h/TCB.h **** 
  29:src/../h/TCB.h **** private:
  30:src/../h/TCB.h **** 
  31:src/../h/TCB.h ****     TCB(Body body):body(body),
  32:src/../h/TCB.h ****     stack(body != nullptr ? new uint64[1024] : nullptr),
  33:src/../h/TCB.h ****     context({
  34:src/../h/TCB.h ****                       body != nullptr ? (uint64) &body : 0,
  35:src/../h/TCB.h ****                       stack != nullptr ? (uint64) &stack[STACK_SIZE] : 0
  36:src/../h/TCB.h ****                   }),
  37:src/../h/TCB.h ****     finished() {
  45              		.loc 2 37 14
  46 0030 23302501 		sd	s2,0(a0)
  32:src/../h/TCB.h ****     context({
  47              		.loc 2 32 27
  48 0034 630A0900 		beqz	s2,.L7
  32:src/../h/TCB.h ****     context({
  49              		.loc 2 32 44
  50 0038 37250000 		li	a0,8192
  51              	.LEHB1:
  52 003c 97000000 		call	_Znam@plt
  52      E7800000 
  53              	.LVL5:
  54 0044 6F008000 		j	.L2
  55              	.L7:
  32:src/../h/TCB.h ****     context({
  56              		.loc 2 32 27
  57 0048 13050000 		li	a0,0
  58              	.L2:
  59              		.loc 2 37 14
  60 004c 23B4A400 		sd	a0,8(s1)
  34:src/../h/TCB.h ****                       stack != nullptr ? (uint64) &stack[STACK_SIZE] : 0
GAS LISTING /tmp/ccqPut3c.s 			page 3


  61              		.loc 2 34 28
  62 0050 833784FD 		ld	a5,-40(s0)
  34:src/../h/TCB.h ****                       stack != nullptr ? (uint64) &stack[STACK_SIZE] : 0
  63              		.loc 2 34 39
  64 0054 63880702 		beqz	a5,.L8
  65 0058 130784FD 		addi	a4,s0,-40
  66              	.L3:
  67              		.loc 2 37 14
  68 005c 23BCE400 		sd	a4,24(s1)
  35:src/../h/TCB.h ****                   }),
  69              		.loc 2 35 40
  70 0060 63060502 		beqz	a0,.L9
  35:src/../h/TCB.h ****                   }),
  71              		.loc 2 35 51
  72 0064 37270000 		li	a4,8192
  73 0068 3305E500 		add	a0,a0,a4
  74              	.L4:
  75              		.loc 2 37 14
  76 006c 23B0A402 		sd	a0,32(s1)
  77 0070 23840402 		sb	zero,40(s1)
  38:src/../h/TCB.h ****         if (body != nullptr) Scheduler::instance().put(this);
  78              		.loc 2 38 9 is_stmt 1
  79 0074 63860704 		beqz	a5,.L1
  80              		.loc 2 38 30
  81              		.loc 2 38 50 is_stmt 0
  82 0078 97000000 		call	_ZN9Scheduler8instanceEv@plt
  82      E7800000 
  83              	.LVL6:
  84 0080 6F004001 		j	.L12
  85              	.L8:
  34:src/../h/TCB.h ****                       stack != nullptr ? (uint64) &stack[STACK_SIZE] : 0
  86              		.loc 2 34 39
  87 0084 13070000 		li	a4,0
  88 0088 6FF05FFD 		j	.L3
  89              	.L9:
  35:src/../h/TCB.h ****                   }),
  90              		.loc 2 35 40
  91 008c 13050000 		li	a0,0
  92 0090 6FF0DFFD 		j	.L4
  93              	.L12:
  94              		.loc 2 38 55
  95 0094 93850400 		mv	a1,s1
  96 0098 97000000 		call	_ZN9Scheduler3putEP3TCB@plt
  96      E7800000 
  97              	.LVL7:
  98              	.LEHE1:
  99 00a0 6F000002 		j	.L1
 100              	.L10:
 101 00a4 13090500 		mv	s2,a0
 102              	.LVL8:
 103              	.LBE8:
 104              	.LBE7:
 105              		.loc 1 12 24
 106 00a8 13850400 		mv	a0,s1
 107 00ac 97000000 		call	_ZdlPv@plt
 107      E7800000 
 108              	.LVL9:
GAS LISTING /tmp/ccqPut3c.s 			page 4


 109 00b4 13050900 		mv	a0,s2
 110              	.LEHB2:
 111 00b8 97000000 		call	_Unwind_Resume@plt
 111      E7800000 
 112              	.LVL10:
 113              	.LEHE2:
 114              	.L1:
  13:src/TCB.cpp   **** }
 115              		.loc 1 13 1
 116 00c0 13850400 		mv	a0,s1
 117 00c4 83308102 		ld	ra,40(sp)
 118              		.cfi_restore 1
 119 00c8 03340102 		ld	s0,32(sp)
 120              		.cfi_restore 8
 121              		.cfi_def_cfa 2, 48
 122 00cc 83348101 		ld	s1,24(sp)
 123              		.cfi_restore 9
 124              	.LVL11:
 125 00d0 03390101 		ld	s2,16(sp)
 126              		.cfi_restore 18
 127              	.LVL12:
 128 00d4 13010103 		addi	sp,sp,48
 129              		.cfi_def_cfa_offset 0
 130 00d8 67800000 		jr	ra
 131              		.cfi_endproc
 132              	.LFE27:
 133              		.globl	__gxx_personality_v0
 134              		.section	.gcc_except_table,"a",@progbits
 135              	.LLSDA27:
 136 0000 FF       		.byte	0xff
 137 0001 FF       		.byte	0xff
 138 0002 03       		.byte	0x3
 139 0003 27       		.byte	0x27
 140 0004 00000000 		.4byte	.LEHB0-.LFB27
 141 0008 00000000 		.4byte	.LEHE0-.LEHB0
 142 000c 00000000 		.4byte	0
 143 0010 00       		.byte	0
 144 0011 00000000 		.4byte	.LEHB1-.LFB27
 145 0015 00000000 		.4byte	.LEHE1-.LEHB1
 146 0019 00000000 		.4byte	.L10-.LFB27
 147 001d 00       		.byte	0
 148 001e 00000000 		.4byte	.LEHB2-.LFB27
 149 0022 00000000 		.4byte	.LEHE2-.LEHB2
 150 0026 00000000 		.4byte	0
 151 002a 00       		.byte	0
 152              		.text
 154              		.align	2
 155              		.globl	_ZN3TCB8dispatchEv
 157              	_ZN3TCB8dispatchEv:
 158              	.LFB29:
  14:src/TCB.cpp   **** void TCB::yield() {
  15:src/TCB.cpp   ****     Riscv::pushRegisters();
  16:src/TCB.cpp   ****     TCB::dispatch();
  17:src/TCB.cpp   ****     Riscv::popRegisters();
  18:src/TCB.cpp   **** }
  19:src/TCB.cpp   **** 
  20:src/TCB.cpp   **** void TCB::dispatch() {
GAS LISTING /tmp/ccqPut3c.s 			page 5


 159              		.loc 1 20 22 is_stmt 1
 160              		.cfi_startproc
 161 00dc 130101FE 		addi	sp,sp,-32
 162              		.cfi_def_cfa_offset 32
 163 00e0 233C1100 		sd	ra,24(sp)
 164 00e4 23388100 		sd	s0,16(sp)
 165 00e8 23349100 		sd	s1,8(sp)
 166              		.cfi_offset 1, -8
 167              		.cfi_offset 8, -16
 168              		.cfi_offset 9, -24
 169 00ec 13040102 		addi	s0,sp,32
 170              		.cfi_def_cfa 8, 0
  21:src/TCB.cpp   ****     TCB* old = running;
 171              		.loc 1 21 5
 172              		.loc 1 21 10 is_stmt 0
 173 00f0 97040000 		ld	s1,.LANCHOR0
 173      83B40400 
 174              	.LVL13:
  22:src/TCB.cpp   ****     if (!old->isFinished()) {
 175              		.loc 1 22 5 is_stmt 1
 176              	.LBB9:
 177              	.LBB10:
  14:src/../h/TCB.h **** 
 178              		.loc 2 14 30
  14:src/../h/TCB.h **** 
 179              		.loc 2 14 37 is_stmt 0
 180 00f8 83C78402 		lbu	a5,40(s1)
 181              	.LVL14:
 182              	.LBE10:
 183              	.LBE9:
 184              		.loc 1 22 5
 185 00fc 63800704 		beqz	a5,.L16
 186              	.L14:
  23:src/TCB.cpp   ****         Scheduler::instance().put(old);
  24:src/TCB.cpp   ****     }
  25:src/TCB.cpp   ****     running = Scheduler::instance().get();
 187              		.loc 1 25 5 is_stmt 1
 188              		.loc 1 25 35 is_stmt 0
 189 0100 97000000 		call	_ZN9Scheduler8instanceEv@plt
 189      E7800000 
 190              	.LVL15:
 191              		.loc 1 25 40
 192 0108 97000000 		call	_ZN9Scheduler3getEv@plt
 192      E7800000 
 193              	.LVL16:
 194              		.loc 1 25 13
 195 0110 97070000 		sd	a0,.LANCHOR0,a5
 195      23B0A700 
  26:src/TCB.cpp   ****     TCB::contextSwitch(&old -> context, &running -> context);
 196              		.loc 1 26 5 is_stmt 1
 197              		.loc 1 26 23 is_stmt 0
 198 0118 93058501 		addi	a1,a0,24
 199 011c 13858401 		addi	a0,s1,24
 200 0120 97000000 		call	_ZN3TCB13contextSwitchEPNS_7ContextES1_@plt
 200      E7800000 
 201              	.LVL17:
  27:src/TCB.cpp   **** }...
GAS LISTING /tmp/ccqPut3c.s 			page 6


 202              		.loc 1 27 1
 203 0128 83308101 		ld	ra,24(sp)
 204              		.cfi_remember_state
 205              		.cfi_restore 1
 206 012c 03340101 		ld	s0,16(sp)
 207              		.cfi_restore 8
 208              		.cfi_def_cfa 2, 32
 209 0130 83348100 		ld	s1,8(sp)
 210              		.cfi_restore 9
 211              	.LVL18:
 212 0134 13010102 		addi	sp,sp,32
 213              		.cfi_def_cfa_offset 0
 214 0138 67800000 		jr	ra
 215              	.LVL19:
 216              	.L16:
 217              		.cfi_restore_state
  23:src/TCB.cpp   ****         Scheduler::instance().put(old);
 218              		.loc 1 23 9 is_stmt 1
  23:src/TCB.cpp   ****         Scheduler::instance().put(old);
 219              		.loc 1 23 29 is_stmt 0
 220 013c 97000000 		call	_ZN9Scheduler8instanceEv@plt
 220      E7800000 
 221              	.LVL20:
  23:src/TCB.cpp   ****         Scheduler::instance().put(old);
 222              		.loc 1 23 34
 223 0144 93850400 		mv	a1,s1
 224 0148 97000000 		call	_ZN9Scheduler3putEP3TCB@plt
 224      E7800000 
 225              	.LVL21:
 226 0150 6FF01FFB 		j	.L14
 227              		.cfi_endproc
 228              	.LFE29:
 230              		.align	2
 231              		.globl	_ZN3TCB5yieldEv
 233              	_ZN3TCB5yieldEv:
 234              	.LFB28:
  14:src/TCB.cpp   **** void TCB::yield() {
 235              		.loc 1 14 19 is_stmt 1
 236              		.cfi_startproc
 237 0154 130101FF 		addi	sp,sp,-16
 238              		.cfi_def_cfa_offset 16
 239 0158 23341100 		sd	ra,8(sp)
 240 015c 23308100 		sd	s0,0(sp)
 241              		.cfi_offset 1, -8
 242              		.cfi_offset 8, -16
 243 0160 13040101 		addi	s0,sp,16
 244              		.cfi_def_cfa 8, 0
  15:src/TCB.cpp   ****     Riscv::pushRegisters();
 245              		.loc 1 15 5
  15:src/TCB.cpp   ****     Riscv::pushRegisters();
 246              		.loc 1 15 25 is_stmt 0
 247 0164 97000000 		call	_ZN5Riscv13pushRegistersEv@plt
 247      E7800000 
 248              	.LVL22:
  16:src/TCB.cpp   ****     TCB::dispatch();
 249              		.loc 1 16 5 is_stmt 1
  16:src/TCB.cpp   ****     TCB::dispatch();
GAS LISTING /tmp/ccqPut3c.s 			page 7


 250              		.loc 1 16 18 is_stmt 0
 251 016c 97000000 		call	_ZN3TCB8dispatchEv
 251      E7800000 
 252              	.LVL23:
  17:src/TCB.cpp   ****     Riscv::popRegisters();
 253              		.loc 1 17 5 is_stmt 1
  17:src/TCB.cpp   ****     Riscv::popRegisters();
 254              		.loc 1 17 24 is_stmt 0
 255 0174 97000000 		call	_ZN5Riscv12popRegistersEv@plt
 255      E7800000 
 256              	.LVL24:
  18:src/TCB.cpp   **** }
 257              		.loc 1 18 1
 258 017c 83308100 		ld	ra,8(sp)
 259              		.cfi_restore 1
 260 0180 03340100 		ld	s0,0(sp)
 261              		.cfi_restore 8
 262              		.cfi_def_cfa 2, 16
 263 0184 13010101 		addi	sp,sp,16
 264              		.cfi_def_cfa_offset 0
 265 0188 67800000 		jr	ra
 266              		.cfi_endproc
 267              	.LFE28:
 269              		.globl	_ZN3TCB7runningE
 270              		.bss
 271              		.align	3
 272              		.set	.LANCHOR0,. + 0
 275              	_ZN3TCB7runningE:
 276 0000 00000000 		.zero	8
 276      00000000 
 277              		.text
 278              	.Letext0:
 279              		.file 3 "src/../h/../lib/hw.h"
 280              		.file 4 "src/../h/Scheduler.h"
 281              		.file 5 "src/../h/riscv.h"
 2314              		.align	3
 2317              	DW.ref.__gxx_personality_v0:
 2318 0000 00000000 		.dword	__gxx_personality_v0
 2318      00000000 
 2319              		.ident	"GCC: (Ubuntu 9.4.0-1ubuntu1~20.04) 9.4.0"
 2320              		.section	.note.GNU-stack,"",@progbits
GAS LISTING /tmp/ccqPut3c.s 			page 8


DEFINED SYMBOLS
                            *ABS*:0000000000000000 TCB.cpp
     /tmp/ccqPut3c.s:9      .text:0000000000000000 _ZN3TCB12createThreadEPFvvE
     /tmp/ccqPut3c.s:13     .text:0000000000000000 .L0 
     /tmp/ccqPut3c.s:2317   .data.rel.local.DW.ref.__gxx_personality_v0:0000000000000000 DW.ref.__gxx_personality_v0
     /tmp/ccqPut3c.s:17     .text:0000000000000000 .L0 
     /tmp/ccqPut3c.s:18     .text:0000000000000004 .L0 
     /tmp/ccqPut3c.s:23     .text:0000000000000014 .L0 
     /tmp/ccqPut3c.s:24     .text:0000000000000014 .L0 
     /tmp/ccqPut3c.s:25     .text:0000000000000014 .L0 
     /tmp/ccqPut3c.s:26     .text:0000000000000014 .L0 
     /tmp/ccqPut3c.s:28     .text:0000000000000018 .L0 
     /tmp/ccqPut3c.s:31     .text:000000000000001c .L0 
     /tmp/ccqPut3c.s:32     .text:000000000000001c .L0 
     /tmp/ccqPut3c.s:46     .text:0000000000000030 .L0 
     /tmp/ccqPut3c.s:48     .text:0000000000000034 .L0 
     /tmp/ccqPut3c.s:50     .text:0000000000000038 .L0 
     /tmp/ccqPut3c.s:57     .text:0000000000000048 .L0 
     /tmp/ccqPut3c.s:60     .text:000000000000004c .L0 
     /tmp/ccqPut3c.s:62     .text:0000000000000050 .L0 
     /tmp/ccqPut3c.s:64     .text:0000000000000054 .L0 
     /tmp/ccqPut3c.s:68     .text:000000000000005c .L0 
     /tmp/ccqPut3c.s:70     .text:0000000000000060 .L0 
     /tmp/ccqPut3c.s:72     .text:0000000000000064 .L0 
     /tmp/ccqPut3c.s:76     .text:000000000000006c .L0 
     /tmp/ccqPut3c.s:79     .text:0000000000000074 .L0 
     /tmp/ccqPut3c.s:81     .text:0000000000000078 .L0 
     /tmp/ccqPut3c.s:82     .text:0000000000000078 .L0 
     /tmp/ccqPut3c.s:87     .text:0000000000000084 .L0 
     /tmp/ccqPut3c.s:91     .text:000000000000008c .L0 
     /tmp/ccqPut3c.s:95     .text:0000000000000094 .L0 
     /tmp/ccqPut3c.s:106    .text:00000000000000a8 .L0 
     /tmp/ccqPut3c.s:116    .text:00000000000000c0 .L0 
     /tmp/ccqPut3c.s:118    .text:00000000000000c8 .L0 
     /tmp/ccqPut3c.s:120    .text:00000000000000cc .L0 
     /tmp/ccqPut3c.s:121    .text:00000000000000cc .L0 
     /tmp/ccqPut3c.s:123    .text:00000000000000d0 .L0 
     /tmp/ccqPut3c.s:126    .text:00000000000000d4 .L0 
     /tmp/ccqPut3c.s:129    .text:00000000000000d8 .L0 
     /tmp/ccqPut3c.s:131    .text:00000000000000dc .L0 
     /tmp/ccqPut3c.s:157    .text:00000000000000dc _ZN3TCB8dispatchEv
     /tmp/ccqPut3c.s:160    .text:00000000000000dc .L0 
     /tmp/ccqPut3c.s:161    .text:00000000000000dc .L0 
     /tmp/ccqPut3c.s:162    .text:00000000000000e0 .L0 
     /tmp/ccqPut3c.s:166    .text:00000000000000ec .L0 
     /tmp/ccqPut3c.s:167    .text:00000000000000ec .L0 
     /tmp/ccqPut3c.s:168    .text:00000000000000ec .L0 
     /tmp/ccqPut3c.s:170    .text:00000000000000f0 .L0 
     /tmp/ccqPut3c.s:172    .text:00000000000000f0 .L0 
     /tmp/ccqPut3c.s:173    .text:00000000000000f0 .L0 
     /tmp/ccqPut3c.s:178    .text:00000000000000f8 .L0 
     /tmp/ccqPut3c.s:179    .text:00000000000000f8 .L0 
     /tmp/ccqPut3c.s:180    .text:00000000000000f8 .L0 
     /tmp/ccqPut3c.s:185    .text:00000000000000fc .L0 
     /tmp/ccqPut3c.s:188    .text:0000000000000100 .L0 
     /tmp/ccqPut3c.s:189    .text:0000000000000100 .L0 
     /tmp/ccqPut3c.s:192    .text:0000000000000108 .L0 
GAS LISTING /tmp/ccqPut3c.s 			page 9


     /tmp/ccqPut3c.s:195    .text:0000000000000110 .L0 
     /tmp/ccqPut3c.s:197    .text:0000000000000118 .L0 
     /tmp/ccqPut3c.s:198    .text:0000000000000118 .L0 
     /tmp/ccqPut3c.s:203    .text:0000000000000128 .L0 
     /tmp/ccqPut3c.s:204    .text:000000000000012c .L0 
     /tmp/ccqPut3c.s:205    .text:000000000000012c .L0 
     /tmp/ccqPut3c.s:207    .text:0000000000000130 .L0 
     /tmp/ccqPut3c.s:208    .text:0000000000000130 .L0 
     /tmp/ccqPut3c.s:210    .text:0000000000000134 .L0 
     /tmp/ccqPut3c.s:213    .text:0000000000000138 .L0 
     /tmp/ccqPut3c.s:217    .text:000000000000013c .L0 
     /tmp/ccqPut3c.s:219    .text:000000000000013c .L0 
     /tmp/ccqPut3c.s:220    .text:000000000000013c .L0 
     /tmp/ccqPut3c.s:223    .text:0000000000000144 .L0 
     /tmp/ccqPut3c.s:227    .text:0000000000000154 .L0 
     /tmp/ccqPut3c.s:233    .text:0000000000000154 _ZN3TCB5yieldEv
     /tmp/ccqPut3c.s:236    .text:0000000000000154 .L0 
     /tmp/ccqPut3c.s:237    .text:0000000000000154 .L0 
     /tmp/ccqPut3c.s:238    .text:0000000000000158 .L0 
     /tmp/ccqPut3c.s:241    .text:0000000000000160 .L0 
     /tmp/ccqPut3c.s:242    .text:0000000000000160 .L0 
     /tmp/ccqPut3c.s:244    .text:0000000000000164 .L0 
     /tmp/ccqPut3c.s:246    .text:0000000000000164 .L0 
     /tmp/ccqPut3c.s:247    .text:0000000000000164 .L0 
     /tmp/ccqPut3c.s:250    .text:000000000000016c .L0 
     /tmp/ccqPut3c.s:251    .text:000000000000016c .L0 
     /tmp/ccqPut3c.s:254    .text:0000000000000174 .L0 
     /tmp/ccqPut3c.s:255    .text:0000000000000174 .L0 
     /tmp/ccqPut3c.s:258    .text:000000000000017c .L0 
     /tmp/ccqPut3c.s:259    .text:0000000000000180 .L0 
     /tmp/ccqPut3c.s:261    .text:0000000000000184 .L0 
     /tmp/ccqPut3c.s:262    .text:0000000000000184 .L0 
     /tmp/ccqPut3c.s:264    .text:0000000000000188 .L0 
     /tmp/ccqPut3c.s:266    .text:000000000000018c .L0 
     /tmp/ccqPut3c.s:275    .bss:0000000000000000 _ZN3TCB7runningE
     /tmp/ccqPut3c.s:272    .bss:0000000000000000 .LANCHOR0
     /tmp/ccqPut3c.s:282    .text:000000000000018c .L0 
     /tmp/ccqPut3c.s:173    .text:00000000000000f0 .L0 
     /tmp/ccqPut3c.s:195    .text:0000000000000110 .L0 
     /tmp/ccqPut3c.s:55     .text:0000000000000048 .L7
     /tmp/ccqPut3c.s:58     .text:000000000000004c .L2
     /tmp/ccqPut3c.s:85     .text:0000000000000084 .L8
     /tmp/ccqPut3c.s:89     .text:000000000000008c .L9
     /tmp/ccqPut3c.s:114    .text:00000000000000c0 .L1
     /tmp/ccqPut3c.s:93     .text:0000000000000094 .L12
     /tmp/ccqPut3c.s:66     .text:000000000000005c .L3
     /tmp/ccqPut3c.s:74     .text:000000000000006c .L4
     /tmp/ccqPut3c.s:216    .text:000000000000013c .L16
     /tmp/ccqPut3c.s:186    .text:0000000000000100 .L14
     /tmp/ccqPut3c.s:34     .text:0000000000000020 .LEHB0
     /tmp/ccqPut3c.s:10     .text:0000000000000000 .LFB27
     /tmp/ccqPut3c.s:37     .text:0000000000000028 .LEHE0
     /tmp/ccqPut3c.s:51     .text:000000000000003c .LEHB1
     /tmp/ccqPut3c.s:98     .text:00000000000000a0 .LEHE1
     /tmp/ccqPut3c.s:100    .text:00000000000000a4 .L10
     /tmp/ccqPut3c.s:110    .text:00000000000000b8 .LEHB2
     /tmp/ccqPut3c.s:113    .text:00000000000000c0 .LEHE2
GAS LISTING /tmp/ccqPut3c.s 			page 10


     /tmp/ccqPut3c.s:1124   .debug_abbrev:0000000000000000 .Ldebug_abbrev0
     /tmp/ccqPut3c.s:2283   .debug_str:00000000000004fe .LASF88
     /tmp/ccqPut3c.s:2121   .debug_str:0000000000000065 .LASF89
     /tmp/ccqPut3c.s:2157   .debug_str:0000000000000174 .LASF90
     /tmp/ccqPut3c.s:5      .text:0000000000000000 .Ltext0
     /tmp/ccqPut3c.s:278    .text:000000000000018c .Letext0
     /tmp/ccqPut3c.s:2101   .debug_line:0000000000000000 .Ldebug_line0
     /tmp/ccqPut3c.s:2223   .debug_str:0000000000000361 .LASF0
     /tmp/ccqPut3c.s:2235   .debug_str:0000000000000393 .LASF1
     /tmp/ccqPut3c.s:2209   .debug_str:000000000000030b .LASF2
     /tmp/ccqPut3c.s:2181   .debug_str:0000000000000255 .LASF4
     /tmp/ccqPut3c.s:2267   .debug_str:0000000000000488 .LASF3
     /tmp/ccqPut3c.s:2119   .debug_str:000000000000005e .LASF5
     /tmp/ccqPut3c.s:2237   .debug_str:00000000000003a6 .LASF6
     /tmp/ccqPut3c.s:2221   .debug_str:000000000000034e .LASF7
     /tmp/ccqPut3c.s:2289   .debug_str:00000000000005e6 .LASF8
     /tmp/ccqPut3c.s:2167   .debug_str:00000000000001ca .LASF9
     /tmp/ccqPut3c.s:2243   .debug_str:00000000000003ce .LASF10
     /tmp/ccqPut3c.s:2285   .debug_str:00000000000005c2 .LASF11
     /tmp/ccqPut3c.s:2195   .debug_str:0000000000000295 .LASF12
     /tmp/ccqPut3c.s:2107   .debug_str:0000000000000022 .LASF13
     /tmp/ccqPut3c.s:2129   .debug_str:00000000000000a7 .LASF14
     /tmp/ccqPut3c.s:2257   .debug_str:0000000000000434 .LASF15
     /tmp/ccqPut3c.s:2135   .debug_str:00000000000000e0 .LASF16
     /tmp/ccqPut3c.s:2241   .debug_str:00000000000003c4 .LASF17
     /tmp/ccqPut3c.s:2287   .debug_str:00000000000005d1 .LASF22
     /tmp/ccqPut3c.s:2219   .debug_str:0000000000000344 .LASF91
     /tmp/ccqPut3c.s:2291   .debug_str:00000000000005f6 .LASF92
     /tmp/ccqPut3c.s:2231   .debug_str:0000000000000384 .LASF42
     /tmp/ccqPut3c.s:2205   .debug_str:00000000000002eb .LASF44
     /tmp/ccqPut3c.s:2125   .debug_str:0000000000000085 .LASF93
     /tmp/ccqPut3c.s:2177   .debug_str:0000000000000219 .LASF94
     /tmp/ccqPut3c.s:2203   .debug_str:00000000000002d9 .LASF47
     /tmp/ccqPut3c.s:2139   .debug_str:000000000000010a .LASF18
     /tmp/ccqPut3c.s:2213   .debug_str:0000000000000325 .LASF19
     /tmp/ccqPut3c.s:2111   .debug_str:000000000000003b .LASF95
     /tmp/ccqPut3c.s:2141   .debug_str:000000000000010f .LASF20
     /tmp/ccqPut3c.s:2251   .debug_str:000000000000041c .LASF25
     /tmp/ccqPut3c.s:2239   .debug_str:00000000000003b9 .LASF21
     /tmp/ccqPut3c.s:2165   .debug_str:00000000000001b3 .LASF23
     /tmp/ccqPut3c.s:2211   .debug_str:0000000000000319 .LASF24
     /tmp/ccqPut3c.s:2305   .debug_str:000000000000064e .LASF26
     /tmp/ccqPut3c.s:2191   .debug_str:000000000000027d .LASF27
     /tmp/ccqPut3c.s:2245   .debug_str:00000000000003dd .LASF28
     /tmp/ccqPut3c.s:2253   .debug_str:0000000000000428 .LASF96
     /tmp/ccqPut3c.s:2259   .debug_str:000000000000044a .LASF36
     /tmp/ccqPut3c.s:2217   .debug_str:0000000000000334 .LASF38
     /tmp/ccqPut3c.s:2147   .debug_str:0000000000000138 .LASF97
     /tmp/ccqPut3c.s:2263   .debug_str:0000000000000460 .LASF98
     /tmp/ccqPut3c.s:2185   .debug_str:0000000000000265 .LASF29
     /tmp/ccqPut3c.s:2229   .debug_str:000000000000037e .LASF30
     /tmp/ccqPut3c.s:2303   .debug_str:0000000000000649 .LASF31
     /tmp/ccqPut3c.s:2189   .debug_str:0000000000000275 .LASF32
     /tmp/ccqPut3c.s:2183   .debug_str:000000000000025c .LASF33
     /tmp/ccqPut3c.s:2227   .debug_str:0000000000000375 .LASF99
     /tmp/ccqPut3c.s:2153   .debug_str:000000000000015c .LASF100
     /tmp/ccqPut3c.s:2293   .debug_str:000000000000060b .LASF75
GAS LISTING /tmp/ccqPut3c.s 			page 11


     /tmp/ccqPut3c.s:2179   .debug_str:000000000000022d .LASF77
     /tmp/ccqPut3c.s:2193   .debug_str:000000000000028a .LASF101
     /tmp/ccqPut3c.s:2155   .debug_str:000000000000016f .LASF34
     /tmp/ccqPut3c.s:2233   .debug_str:000000000000038d .LASF35
     /tmp/ccqPut3c.s:2117   .debug_str:0000000000000050 .LASF37
     /tmp/ccqPut3c.s:2145   .debug_str:000000000000011d .LASF39
     /tmp/ccqPut3c.s:2277   .debug_str:00000000000004cc .LASF40
     /tmp/ccqPut3c.s:2105   .debug_str:0000000000000008 .LASF41
     /tmp/ccqPut3c.s:2109   .debug_str:0000000000000032 .LASF43
     /tmp/ccqPut3c.s:2275   .debug_str:00000000000004b7 .LASF45
     /tmp/ccqPut3c.s:2143   .debug_str:0000000000000114 .LASF46
     /tmp/ccqPut3c.s:2131   .debug_str:00000000000000b3 .LASF48
     /tmp/ccqPut3c.s:2269   .debug_str:000000000000049a .LASF49
     /tmp/ccqPut3c.s:2247   .debug_str:00000000000003f9 .LASF50
     /tmp/ccqPut3c.s:2255   .debug_str:000000000000042d .LASF51
     /tmp/ccqPut3c.s:2279   .debug_str:00000000000004d9 .LASF52
     /tmp/ccqPut3c.s:2161   .debug_str:00000000000001a5 .LASF53
     /tmp/ccqPut3c.s:2137   .debug_str:00000000000000f6 .LASF54
     /tmp/ccqPut3c.s:2103   .debug_str:0000000000000000 .LASF55
     /tmp/ccqPut3c.s:2171   .debug_str:00000000000001ee .LASF56
     /tmp/ccqPut3c.s:2149   .debug_str:0000000000000140 .LASF57
     /tmp/ccqPut3c.s:2123   .debug_str:0000000000000071 .LASF58
     /tmp/ccqPut3c.s:2173   .debug_str:0000000000000202 .LASF59
     /tmp/ccqPut3c.s:2151   .debug_str:0000000000000148 .LASF60
     /tmp/ccqPut3c.s:2225   .debug_str:000000000000036e .LASF61
     /tmp/ccqPut3c.s:2297   .debug_str:0000000000000626 .LASF62
     /tmp/ccqPut3c.s:2115   .debug_str:0000000000000049 .LASF63
     /tmp/ccqPut3c.s:2159   .debug_str:0000000000000192 .LASF64
     /tmp/ccqPut3c.s:2163   .debug_str:00000000000001ad .LASF65
     /tmp/ccqPut3c.s:2281   .debug_str:00000000000004ec .LASF66
     /tmp/ccqPut3c.s:2113   .debug_str:0000000000000043 .LASF67
     /tmp/ccqPut3c.s:2309   .debug_str:0000000000000676 .LASF68
     /tmp/ccqPut3c.s:2301   .debug_str:000000000000063e .LASF69
     /tmp/ccqPut3c.s:2265   .debug_str:0000000000000470 .LASF70
     /tmp/ccqPut3c.s:2187   .debug_str:000000000000026a .LASF71
     /tmp/ccqPut3c.s:2197   .debug_str:00000000000002a5 .LASF72
     /tmp/ccqPut3c.s:2127   .debug_str:000000000000009d .LASF73
     /tmp/ccqPut3c.s:2201   .debug_str:00000000000002c3 .LASF74
     /tmp/ccqPut3c.s:2215   .debug_str:000000000000032a .LASF76
     /tmp/ccqPut3c.s:2169   .debug_str:00000000000001d8 .LASF78
     /tmp/ccqPut3c.s:2307   .debug_str:0000000000000665 .LASF102
     /tmp/ccqPut3c.s:158    .text:00000000000000dc .LFB29
     /tmp/ccqPut3c.s:228    .text:0000000000000154 .LFE29
     /tmp/ccqPut3c.s:2005   .debug_loc:0000000000000000 .LLST3
     /tmp/ccqPut3c.s:176    .text:00000000000000f8 .LBB9
     /tmp/ccqPut3c.s:183    .text:00000000000000fc .LBE9
     /tmp/ccqPut3c.s:2016   .debug_loc:0000000000000036 .LLST4
     /tmp/ccqPut3c.s:190    .text:0000000000000108 .LVL15
     /tmp/ccqPut3c.s:193    .text:0000000000000110 .LVL16
     /tmp/ccqPut3c.s:201    .text:0000000000000128 .LVL17
     /tmp/ccqPut3c.s:221    .text:0000000000000144 .LVL20
     /tmp/ccqPut3c.s:225    .text:0000000000000150 .LVL21
     /tmp/ccqPut3c.s:234    .text:0000000000000154 .LFB28
     /tmp/ccqPut3c.s:267    .text:000000000000018c .LFE28
     /tmp/ccqPut3c.s:248    .text:000000000000016c .LVL22
     /tmp/ccqPut3c.s:252    .text:0000000000000174 .LVL23
     /tmp/ccqPut3c.s:256    .text:000000000000017c .LVL24
GAS LISTING /tmp/ccqPut3c.s 			page 12


     /tmp/ccqPut3c.s:132    .text:00000000000000dc .LFE27
     /tmp/ccqPut3c.s:2023   .debug_loc:0000000000000059 .LLST0
     /tmp/ccqPut3c.s:42     .text:0000000000000030 .LBB7
     /tmp/ccqPut3c.s:104    .text:00000000000000a8 .LBE7
     /tmp/ccqPut3c.s:2052   .debug_loc:00000000000000ce .LLST1
     /tmp/ccqPut3c.s:2077   .debug_loc:0000000000000130 .LLST2
     /tmp/ccqPut3c.s:53     .text:0000000000000044 .LVL5
     /tmp/ccqPut3c.s:83     .text:0000000000000080 .LVL6
     /tmp/ccqPut3c.s:97     .text:00000000000000a0 .LVL7
     /tmp/ccqPut3c.s:36     .text:0000000000000028 .LVL2
     /tmp/ccqPut3c.s:108    .text:00000000000000b4 .LVL9
     /tmp/ccqPut3c.s:112    .text:00000000000000c0 .LVL10
     /tmp/ccqPut3c.s:2299   .debug_str:0000000000000639 .LASF79
     /tmp/ccqPut3c.s:2249   .debug_str:000000000000040c .LASF103
     /tmp/ccqPut3c.s:2273   .debug_str:00000000000004b1 .LASF80
     /tmp/ccqPut3c.s:2261   .debug_str:0000000000000450 .LASF82
     /tmp/ccqPut3c.s:2199   .debug_str:00000000000002bd .LASF81
     /tmp/ccqPut3c.s:2295   .debug_str:0000000000000619 .LASF83
     /tmp/ccqPut3c.s:2207   .debug_str:0000000000000304 .LASF84
     /tmp/ccqPut3c.s:2271   .debug_str:00000000000004a1 .LASF85
     /tmp/ccqPut3c.s:2175   .debug_str:000000000000020a .LASF86
     /tmp/ccqPut3c.s:2133   .debug_str:00000000000000c8 .LASF87
     /tmp/ccqPut3c.s:174    .text:00000000000000f8 .LVL13
     /tmp/ccqPut3c.s:211    .text:0000000000000134 .LVL18
     /tmp/ccqPut3c.s:215    .text:000000000000013c .LVL19
     /tmp/ccqPut3c.s:181    .text:00000000000000fc .LVL14
     /tmp/ccqPut3c.s:16     .text:0000000000000000 .LVL0
     /tmp/ccqPut3c.s:33     .text:0000000000000020 .LVL1
     /tmp/ccqPut3c.s:102    .text:00000000000000a8 .LVL8
     /tmp/ccqPut3c.s:127    .text:00000000000000d4 .LVL12
     /tmp/ccqPut3c.s:41     .text:0000000000000030 .LVL4
     /tmp/ccqPut3c.s:39     .text:000000000000002c .LVL3
     /tmp/ccqPut3c.s:124    .text:00000000000000d0 .LVL11
     /tmp/ccqPut3c.s:283    .debug_info:0000000000000000 .Ldebug_info0
     /tmp/ccqPut3c.s:135    .gcc_except_table:0000000000000000 .LLSDA27

UNDEFINED SYMBOLS
_Znwm
_Znam
_ZN9Scheduler8instanceEv
_ZN9Scheduler3putEP3TCB
_ZdlPv
_Unwind_Resume
__gxx_personality_v0
_ZN9Scheduler3getEv
_ZN3TCB13contextSwitchEPNS_7ContextES1_
_ZN5Riscv13pushRegistersEv
_ZN5Riscv12popRegistersEv
