GAS LISTING /tmp/ccZqmSzQ.s 			page 1


   1              		.file	"Thread.cpp"
   2              		.option pic
   3              		.option norelax
   4              		.text
   5              	.Ltext0:
   6              		.align	2
   7              		.globl	_ZN6Thread8dispatchEv
   9              	_ZN6Thread8dispatchEv:
  10              	.LFB24:
  11              		.file 1 "src/Thread.cpp"
   1:src/Thread.cpp **** #include "../h/Thread.h"
   2:src/Thread.cpp **** 
   3:src/Thread.cpp **** 
   4:src/Thread.cpp **** #include "../h/riscv.h"
   5:src/Thread.cpp **** #include "../h/Scheduler.h"
   6:src/Thread.cpp **** 
   7:src/Thread.cpp **** Thread* Thread::running = nullptr;
   8:src/Thread.cpp **** 
   9:src/Thread.cpp **** Thread* Thread::createThread(Body body, void *arg) {
  10:src/Thread.cpp ****     uint64* stack = nullptr;
  11:src/Thread.cpp ****     if (body != nullptr) {
  12:src/Thread.cpp ****         stack = new uint64[DEFAULT_STACK_SIZE / sizeof(uint64)];
  13:src/Thread.cpp ****     }
  14:src/Thread.cpp **** 
  15:src/Thread.cpp ****     Thread* t = new Thread(body, arg, stack);
  16:src/Thread.cpp **** 
  17:src/Thread.cpp ****     if (body != nullptr) {
  18:src/Thread.cpp ****         Scheduler::instance().put(t);
  19:src/Thread.cpp ****     }
  20:src/Thread.cpp ****     return t;
  21:src/Thread.cpp **** }
  22:src/Thread.cpp **** 
  23:src/Thread.cpp **** void Thread::yield() {
  24:src/Thread.cpp ****     Riscv::pushAllRegs();
  25:src/Thread.cpp **** 
  26:src/Thread.cpp ****     dispatch();
  27:src/Thread.cpp **** 
  28:src/Thread.cpp ****      Riscv::popAllRegs();
  29:src/Thread.cpp **** }
  30:src/Thread.cpp **** 
  31:src/Thread.cpp **** void Thread::dispatch() {
  12              		.loc 1 31 25
  13              		.cfi_startproc
  14 0000 130101FE 		addi	sp,sp,-32
  15              		.cfi_def_cfa_offset 32
  16 0004 233C1100 		sd	ra,24(sp)
  17 0008 23388100 		sd	s0,16(sp)
  18 000c 23349100 		sd	s1,8(sp)
  19              		.cfi_offset 1, -8
  20              		.cfi_offset 8, -16
  21              		.cfi_offset 9, -24
  22 0010 13040102 		addi	s0,sp,32
  23              		.cfi_def_cfa 8, 0
  32:src/Thread.cpp ****     Thread* old = running;
  24              		.loc 1 32 5
  25              		.loc 1 32 13 is_stmt 0
  26 0014 97040000 		ld	s1,.LANCHOR0
GAS LISTING /tmp/ccZqmSzQ.s 			page 2


  26      83B40400 
  27              	.LVL0:
  33:src/Thread.cpp **** 
  34:src/Thread.cpp ****     // Ako nije gotova, vrati je u Scheduler
  35:src/Thread.cpp ****     if (old && !old->finished) {
  28              		.loc 1 35 5 is_stmt 1
  29 001c 63840404 		beqz	s1,.L2
  30              		.loc 1 35 22 is_stmt 0 discriminator 1
  31 0020 83C70403 		lbu	a5,48(s1)
  32              		.loc 1 35 13 discriminator 1
  33 0024 63900704 		bnez	a5,.L2
  36:src/Thread.cpp ****         Scheduler::instance().put(old);
  34              		.loc 1 36 9 is_stmt 1
  35              	.LBB20:
  36              	.LBB21:
  37              		.file 2 "src/../h/Scheduler.h"
   1:src/../h/Scheduler.h **** //
   2:src/../h/Scheduler.h **** // Created by os on 4/1/26.
   3:src/../h/Scheduler.h **** //
   4:src/../h/Scheduler.h **** 
   5:src/../h/Scheduler.h **** #ifndef PROJEKAT_SCHEDULER_H
   6:src/../h/Scheduler.h **** #define PROJEKAT_SCHEDULER_H
   7:src/../h/Scheduler.h **** 
   8:src/../h/Scheduler.h **** class Thread;
   9:src/../h/Scheduler.h **** 
  10:src/../h/Scheduler.h **** class Scheduler {
  11:src/../h/Scheduler.h **** public:
  12:src/../h/Scheduler.h ****     static Scheduler& instance(){static Scheduler instance; return instance;}
  38              		.loc 2 12 34
  39              		.loc 2 12 51 is_stmt 0
  40 0028 97070000 		lbu	a5,_ZGVZN9Scheduler8instanceEvE8instance
  40      83C70700 
  41 0030 63900702 		bnez	a5,.L3
  42              	.LVL1:
  43              	.LBB22:
  44              	.LBB23:
  45              	.LBB24:
  13:src/../h/Scheduler.h **** 
  14:src/../h/Scheduler.h ****     Scheduler(const Scheduler&) = delete;
  15:src/../h/Scheduler.h ****     Scheduler& operator=(const Scheduler&) = delete;
  16:src/../h/Scheduler.h **** 
  17:src/../h/Scheduler.h **** 
  18:src/../h/Scheduler.h ****     void put(Thread* t);
  19:src/../h/Scheduler.h **** 
  20:src/../h/Scheduler.h ****     Thread* get();
  21:src/../h/Scheduler.h **** private:
  22:src/../h/Scheduler.h ****     Scheduler():head(nullptr), tail(nullptr){};
  46              		.loc 2 22 44
  47 0034 97070000 		lla	a5,_ZZN9Scheduler8instanceEvE8instance
  47      93870700 
  48 003c 23B00700 		sd	zero,0(a5)
  49 0040 23B40700 		sd	zero,8(a5)
  50              	.LVL2:
  51              	.LBE24:
  52              	.LBE23:
  53              	.LBE22:
  12:src/../h/Scheduler.h **** 
GAS LISTING /tmp/ccZqmSzQ.s 			page 3


  54              		.loc 2 12 51
  55 0044 93071000 		li	a5,1
  56 0048 17070000 		sb	a5,_ZGVZN9Scheduler8instanceEvE8instance,a4
  56      2300F700 
  57              	.L3:
  12:src/../h/Scheduler.h **** 
  58              		.loc 2 12 61 is_stmt 1
  59              	.LBE21:
  60              	.LBE20:
  61              		.loc 1 36 34 is_stmt 0
  62 0050 93850400 		mv	a1,s1
  63 0054 17050000 		lla	a0,_ZZN9Scheduler8instanceEvE8instance
  63      13050500 
  64 005c 97000000 		call	_ZN9Scheduler3putEP6Thread@plt
  64      E7800000 
  65              	.LVL3:
  66              	.L2:
  37:src/Thread.cpp ****     }
  38:src/Thread.cpp **** 
  39:src/Thread.cpp ****     // Uzmi sledeću
  40:src/Thread.cpp ****     running = Scheduler::instance().get();
  67              		.loc 1 40 5 is_stmt 1
  68              	.LBB25:
  69              	.LBB26:
  12:src/../h/Scheduler.h **** 
  70              		.loc 2 12 34
  12:src/../h/Scheduler.h **** 
  71              		.loc 2 12 51 is_stmt 0
  72 0064 97070000 		lbu	a5,_ZGVZN9Scheduler8instanceEvE8instance
  72      83C70700 
  73 006c 63900702 		bnez	a5,.L4
  74              	.LVL4:
  75              	.LBB27:
  76              	.LBB28:
  77              	.LBB29:
  78              		.loc 2 22 44
  79 0070 97070000 		lla	a5,_ZZN9Scheduler8instanceEvE8instance
  79      93870700 
  80 0078 23B00700 		sd	zero,0(a5)
  81 007c 23B40700 		sd	zero,8(a5)
  82              	.LVL5:
  83              	.LBE29:
  84              	.LBE28:
  85              	.LBE27:
  12:src/../h/Scheduler.h **** 
  86              		.loc 2 12 51
  87 0080 93071000 		li	a5,1
  88 0084 17070000 		sb	a5,_ZGVZN9Scheduler8instanceEvE8instance,a4
  88      2300F700 
  89              	.L4:
  12:src/../h/Scheduler.h **** 
  90              		.loc 2 12 61 is_stmt 1
  91              	.LBE26:
  92              	.LBE25:
  93              		.loc 1 40 40 is_stmt 0
  94 008c 17050000 		lla	a0,_ZZN9Scheduler8instanceEvE8instance
  94      13050500 
GAS LISTING /tmp/ccZqmSzQ.s 			page 4


  95 0094 97000000 		call	_ZN9Scheduler3getEv@plt
  95      E7800000 
  96              	.LVL6:
  97              		.loc 1 40 13
  98 009c 97070000 		sd	a0,.LANCHOR0,a5
  98      23B0A700 
  41:src/Thread.cpp **** 
  42:src/Thread.cpp ****     // Ako smo zapravo promenili nit, uradi switch
  43:src/Thread.cpp ****     if (old != running) {
  99              		.loc 1 43 5 is_stmt 1
 100 00a4 638AA400 		beq	s1,a0,.L1
  44:src/Thread.cpp ****         switchContext(&old->context, &running->context);
 101              		.loc 1 44 9
 102              		.loc 1 44 22 is_stmt 0
 103 00a8 93058500 		addi	a1,a0,8
 104 00ac 13858400 		addi	a0,s1,8
 105 00b0 97000000 		call	_ZN6Thread13switchContextEPNS_7ContextES1_@plt
 105      E7800000 
 106              	.LVL7:
 107              	.L1:
  45:src/Thread.cpp ****     }
  46:src/Thread.cpp **** }
 108              		.loc 1 46 1
 109 00b8 83308101 		ld	ra,24(sp)
 110              		.cfi_restore 1
 111 00bc 03340101 		ld	s0,16(sp)
 112              		.cfi_restore 8
 113              		.cfi_def_cfa 2, 32
 114 00c0 83348100 		ld	s1,8(sp)
 115              		.cfi_restore 9
 116              	.LVL8:
 117 00c4 13010102 		addi	sp,sp,32
 118              		.cfi_def_cfa_offset 0
 119 00c8 67800000 		jr	ra
 120              		.cfi_endproc
 121              	.LFE24:
 123              		.align	2
 124              		.globl	_ZN6Thread5yieldEv
 126              	_ZN6Thread5yieldEv:
 127              	.LFB23:
  23:src/Thread.cpp ****     Riscv::pushAllRegs();
 128              		.loc 1 23 22 is_stmt 1
 129              		.cfi_startproc
 130 00cc 130101FF 		addi	sp,sp,-16
 131              		.cfi_def_cfa_offset 16
 132 00d0 23341100 		sd	ra,8(sp)
 133 00d4 23308100 		sd	s0,0(sp)
 134              		.cfi_offset 1, -8
 135              		.cfi_offset 8, -16
 136 00d8 13040101 		addi	s0,sp,16
 137              		.cfi_def_cfa 8, 0
  24:src/Thread.cpp **** 
 138              		.loc 1 24 5
  24:src/Thread.cpp **** 
 139              		.loc 1 24 23 is_stmt 0
 140 00dc 97000000 		call	_ZN5Riscv11pushAllRegsEv@plt
 140      E7800000 
GAS LISTING /tmp/ccZqmSzQ.s 			page 5


 141              	.LVL9:
  26:src/Thread.cpp **** 
 142              		.loc 1 26 5 is_stmt 1
  26:src/Thread.cpp **** 
 143              		.loc 1 26 13 is_stmt 0
 144 00e4 97000000 		call	_ZN6Thread8dispatchEv
 144      E7800000 
 145              	.LVL10:
  28:src/Thread.cpp **** }
 146              		.loc 1 28 6 is_stmt 1
  28:src/Thread.cpp **** }
 147              		.loc 1 28 23 is_stmt 0
 148 00ec 97000000 		call	_ZN5Riscv10popAllRegsEv@plt
 148      E7800000 
 149              	.LVL11:
  29:src/Thread.cpp **** 
 150              		.loc 1 29 1
 151 00f4 83308100 		ld	ra,8(sp)
 152              		.cfi_restore 1
 153 00f8 03340100 		ld	s0,0(sp)
 154              		.cfi_restore 8
 155              		.cfi_def_cfa 2, 16
 156 00fc 13010101 		addi	sp,sp,16
 157              		.cfi_def_cfa_offset 0
 158 0100 67800000 		jr	ra
 159              		.cfi_endproc
 160              	.LFE23:
 162              		.align	2
 163              		.globl	_ZN6Thread13threadWrapperEv
 165              	_ZN6Thread13threadWrapperEv:
 166              	.LFB28:
  47:src/Thread.cpp **** Thread::Thread(Body body, void *arg, uint64 *stackSpace)
  48:src/Thread.cpp ****     : next(nullptr), stack(stackSpace), body(body), arg(arg),finished(false)
  49:src/Thread.cpp **** {
  50:src/Thread.cpp ****     if (body != nullptr) {
  51:src/Thread.cpp ****         // SP ide na kraj steka (najviša adresa)
  52:src/Thread.cpp ****         this->context.sp = (uint64)&stack[DEFAULT_STACK_SIZE / sizeof(uint64)];
  53:src/Thread.cpp ****         // RA ide na wrapper
  54:src/Thread.cpp ****         this->context.ra = (uint64)&Thread::threadWrapper;
  55:src/Thread.cpp ****     } else {
  56:src/Thread.cpp ****         // Main nit (ona koja već radi)
  57:src/Thread.cpp ****         this->context.sp = 0;
  58:src/Thread.cpp ****         this->context.ra = 0;
  59:src/Thread.cpp ****     }
  60:src/Thread.cpp **** }
  61:src/Thread.cpp **** 
  62:src/Thread.cpp **** void Thread::threadWrapper() {
 167              		.loc 1 62 30 is_stmt 1
 168              		.cfi_startproc
 169 0104 130101FF 		addi	sp,sp,-16
 170              		.cfi_def_cfa_offset 16
 171 0108 23341100 		sd	ra,8(sp)
 172 010c 23308100 		sd	s0,0(sp)
 173              		.cfi_offset 1, -8
 174              		.cfi_offset 8, -16
 175 0110 13040101 		addi	s0,sp,16
 176              		.cfi_def_cfa 8, 0
GAS LISTING /tmp/ccZqmSzQ.s 			page 6


  63:src/Thread.cpp ****     // Svaka nova nit počinje odavde
  64:src/Thread.cpp ****     if (running->body) {
 177              		.loc 1 64 5
 178              		.loc 1 64 18 is_stmt 0
 179 0114 17070000 		ld	a4,.LANCHOR0
 179      03370700 
 180 011c 83370702 		ld	a5,32(a4)
 181              		.loc 1 64 5
 182 0120 63860700 		beqz	a5,.L10
  65:src/Thread.cpp ****         running->body(running->arg);
 183              		.loc 1 65 9 is_stmt 1
 184              		.loc 1 65 22 is_stmt 0
 185 0124 03358702 		ld	a0,40(a4)
 186 0128 E7800700 		jalr	a5
 187              	.LVL12:
 188              	.L10:
  66:src/Thread.cpp ****     }
  67:src/Thread.cpp ****     running->finished = true;
 189              		.loc 1 67 5 is_stmt 1
 190              		.loc 1 67 23 is_stmt 0
 191 012c 97070000 		ld	a5,.LANCHOR0
 191      83B70700 
 192 0134 13071000 		li	a4,1
 193 0138 2388E702 		sb	a4,48(a5)
  68:src/Thread.cpp ****     Thread::dispatch(); // Kada završi, trajno predaje procesor
 194              		.loc 1 68 5 is_stmt 1
 195              		.loc 1 68 21 is_stmt 0
 196 013c 97000000 		call	_ZN6Thread8dispatchEv
 196      E7800000 
 197              	.LVL13:
  69:src/Thread.cpp **** }...
 198              		.loc 1 69 1
 199 0144 83308100 		ld	ra,8(sp)
 200              		.cfi_restore 1
 201 0148 03340100 		ld	s0,0(sp)
 202              		.cfi_restore 8
 203              		.cfi_def_cfa 2, 16
 204 014c 13010101 		addi	sp,sp,16
 205              		.cfi_def_cfa_offset 0
 206 0150 67800000 		jr	ra
 207              		.cfi_endproc
 208              	.LFE28:
 210              		.align	2
 211              		.globl	_ZN6ThreadC2EPFvPvES0_Pm
 213              	_ZN6ThreadC2EPFvPvES0_Pm:
 214              	.LFB26:
  47:src/Thread.cpp **** Thread::Thread(Body body, void *arg, uint64 *stackSpace)
 215              		.loc 1 47 1 is_stmt 1
 216              		.cfi_startproc
 217              	.LVL14:
 218 0154 130101FF 		addi	sp,sp,-16
 219              		.cfi_def_cfa_offset 16
 220 0158 23348100 		sd	s0,8(sp)
 221              		.cfi_offset 8, -8
 222 015c 13040101 		addi	s0,sp,16
 223              		.cfi_def_cfa 8, 0
 224              	.LBB30:
GAS LISTING /tmp/ccZqmSzQ.s 			page 7


  48:src/Thread.cpp ****     : next(nullptr), stack(stackSpace), body(body), arg(arg),finished(false)
 225              		.loc 1 48 76 is_stmt 0
 226 0160 23300500 		sd	zero,0(a0)
 227 0164 233CD500 		sd	a3,24(a0)
 228 0168 2330B502 		sd	a1,32(a0)
 229 016c 2334C502 		sd	a2,40(a0)
 230 0170 23080502 		sb	zero,48(a0)
  50:src/Thread.cpp ****     if (body != nullptr) {
 231              		.loc 1 50 5 is_stmt 1
 232 0174 63840502 		beqz	a1,.L13
  52:src/Thread.cpp ****         this->context.sp = (uint64)&stack[DEFAULT_STACK_SIZE / sizeof(uint64)];
 233              		.loc 1 52 9
  52:src/Thread.cpp ****         this->context.sp = (uint64)&stack[DEFAULT_STACK_SIZE / sizeof(uint64)];
 234              		.loc 1 52 36 is_stmt 0
 235 0178 B7170000 		li	a5,4096
 236 017c B386F600 		add	a3,a3,a5
 237              	.LVL15:
  52:src/Thread.cpp ****         this->context.sp = (uint64)&stack[DEFAULT_STACK_SIZE / sizeof(uint64)];
 238              		.loc 1 52 26
 239 0180 2338D500 		sd	a3,16(a0)
  54:src/Thread.cpp ****         this->context.ra = (uint64)&Thread::threadWrapper;
 240              		.loc 1 54 9 is_stmt 1
  54:src/Thread.cpp ****         this->context.ra = (uint64)&Thread::threadWrapper;
 241              		.loc 1 54 26 is_stmt 0
 242 0184 97070000 		lla	a5,_ZN6Thread13threadWrapperEv
 242      93870700 
 243 018c 2334F500 		sd	a5,8(a0)
 244              	.L12:
 245              	.LBE30:
  60:src/Thread.cpp **** }
 246              		.loc 1 60 1
 247 0190 03348100 		ld	s0,8(sp)
 248              		.cfi_remember_state
 249              		.cfi_restore 8
 250              		.cfi_def_cfa 2, 16
 251 0194 13010101 		addi	sp,sp,16
 252              		.cfi_def_cfa_offset 0
 253 0198 67800000 		jr	ra
 254              	.LVL16:
 255              	.L13:
 256              		.cfi_restore_state
 257              	.LBB31:
  57:src/Thread.cpp ****         this->context.sp = 0;
 258              		.loc 1 57 9 is_stmt 1
  57:src/Thread.cpp ****         this->context.sp = 0;
 259              		.loc 1 57 26 is_stmt 0
 260 019c 23380500 		sd	zero,16(a0)
  58:src/Thread.cpp ****         this->context.ra = 0;
 261              		.loc 1 58 9 is_stmt 1
  58:src/Thread.cpp ****         this->context.ra = 0;
 262              		.loc 1 58 26 is_stmt 0
 263 01a0 23340500 		sd	zero,8(a0)
 264              	.LBE31:
  60:src/Thread.cpp **** }
 265              		.loc 1 60 1
 266 01a4 6FF0DFFE 		j	.L12
 267              		.cfi_endproc
GAS LISTING /tmp/ccZqmSzQ.s 			page 8


 268              	.LFE26:
 270              		.globl	_ZN6ThreadC1EPFvPvES0_Pm
 271              		.set	_ZN6ThreadC1EPFvPvES0_Pm,_ZN6ThreadC2EPFvPvES0_Pm
 272              		.align	2
 273              		.globl	_ZN6Thread12createThreadEPFvPvES0_
 275              	_ZN6Thread12createThreadEPFvPvES0_:
 276              	.LFB22:
   9:src/Thread.cpp **** Thread* Thread::createThread(Body body, void *arg) {
 277              		.loc 1 9 52 is_stmt 1
 278              		.cfi_startproc
 279              	.LVL17:
 280 01a8 130101FD 		addi	sp,sp,-48
 281              		.cfi_def_cfa_offset 48
 282 01ac 23341102 		sd	ra,40(sp)
 283 01b0 23308102 		sd	s0,32(sp)
 284 01b4 233C9100 		sd	s1,24(sp)
 285 01b8 23382101 		sd	s2,16(sp)
 286 01bc 23343101 		sd	s3,8(sp)
 287 01c0 23304101 		sd	s4,0(sp)
 288              		.cfi_offset 1, -8
 289              		.cfi_offset 8, -16
 290              		.cfi_offset 9, -24
 291              		.cfi_offset 18, -32
 292              		.cfi_offset 19, -40
 293              		.cfi_offset 20, -48
 294 01c4 13040103 		addi	s0,sp,48
 295              		.cfi_def_cfa 8, 0
 296 01c8 93040500 		mv	s1,a0
 297 01cc 93890500 		mv	s3,a1
  10:src/Thread.cpp ****     uint64* stack = nullptr;
 298              		.loc 1 10 5
 299              	.LVL18:
  11:src/Thread.cpp ****     if (body != nullptr) {
 300              		.loc 1 11 5
 301 01d0 630E0508 		beqz	a0,.L20
  12:src/Thread.cpp ****         stack = new uint64[DEFAULT_STACK_SIZE / sizeof(uint64)];
 302              		.loc 1 12 9
  12:src/Thread.cpp ****         stack = new uint64[DEFAULT_STACK_SIZE / sizeof(uint64)];
 303              		.loc 1 12 63 is_stmt 0
 304 01d4 37150000 		li	a0,4096
 305              	.LVL19:
 306 01d8 97000000 		call	_Znam@plt
 306      E7800000 
 307              	.LVL20:
 308 01e0 130A0500 		mv	s4,a0
 309              	.LVL21:
 310              	.L17:
  15:src/Thread.cpp ****     Thread* t = new Thread(body, arg, stack);
 311              		.loc 1 15 5 is_stmt 1
  15:src/Thread.cpp ****     Thread* t = new Thread(body, arg, stack);
 312              		.loc 1 15 44 is_stmt 0
 313 01e4 13058003 		li	a0,56
 314 01e8 97000000 		call	_Znwm@plt
 314      E7800000 
 315              	.LVL22:
 316 01f0 13090500 		mv	s2,a0
 317 01f4 93060A00 		mv	a3,s4
GAS LISTING /tmp/ccZqmSzQ.s 			page 9


 318 01f8 13860900 		mv	a2,s3
 319 01fc 93850400 		mv	a1,s1
 320 0200 97000000 		call	_ZN6ThreadC1EPFvPvES0_Pm
 320      E7800000 
 321              	.LVL23:
  17:src/Thread.cpp ****     if (body != nullptr) {
 322              		.loc 1 17 5 is_stmt 1
 323 0208 63800404 		beqz	s1,.L16
  18:src/Thread.cpp ****         Scheduler::instance().put(t);
 324              		.loc 1 18 9
 325              	.LBB32:
 326              	.LBB33:
  12:src/../h/Scheduler.h **** 
 327              		.loc 2 12 34
  12:src/../h/Scheduler.h **** 
 328              		.loc 2 12 51 is_stmt 0
 329 020c 97070000 		lbu	a5,_ZGVZN9Scheduler8instanceEvE8instance
 329      83C70700 
 330 0214 63900702 		bnez	a5,.L19
 331              	.LVL24:
 332              	.LBB34:
 333              	.LBB35:
 334              	.LBB36:
 335              		.loc 2 22 44
 336 0218 97070000 		lla	a5,_ZZN9Scheduler8instanceEvE8instance
 336      93870700 
 337 0220 23B00700 		sd	zero,0(a5)
 338 0224 23B40700 		sd	zero,8(a5)
 339              	.LVL25:
 340              	.LBE36:
 341              	.LBE35:
 342              	.LBE34:
  12:src/../h/Scheduler.h **** 
 343              		.loc 2 12 51
 344 0228 93071000 		li	a5,1
 345 022c 17070000 		sb	a5,_ZGVZN9Scheduler8instanceEvE8instance,a4
 345      2300F700 
 346              	.L19:
  12:src/../h/Scheduler.h **** 
 347              		.loc 2 12 61 is_stmt 1
 348              	.LBE33:
 349              	.LBE32:
  18:src/Thread.cpp ****         Scheduler::instance().put(t);
 350              		.loc 1 18 34 is_stmt 0
 351 0234 93050900 		mv	a1,s2
 352 0238 17050000 		lla	a0,_ZZN9Scheduler8instanceEvE8instance
 352      13050500 
 353 0240 97000000 		call	_ZN9Scheduler3putEP6Thread@plt
 353      E7800000 
 354              	.LVL26:
  20:src/Thread.cpp ****     return t;
 355              		.loc 1 20 5 is_stmt 1
 356              	.L16:
  21:src/Thread.cpp **** }
 357              		.loc 1 21 1 is_stmt 0
 358 0248 13050900 		mv	a0,s2
 359 024c 83308102 		ld	ra,40(sp)
GAS LISTING /tmp/ccZqmSzQ.s 			page 10


 360              		.cfi_remember_state
 361              		.cfi_restore 1
 362 0250 03340102 		ld	s0,32(sp)
 363              		.cfi_restore 8
 364              		.cfi_def_cfa 2, 48
 365 0254 83348101 		ld	s1,24(sp)
 366              		.cfi_restore 9
 367              	.LVL27:
 368 0258 03390101 		ld	s2,16(sp)
 369              		.cfi_restore 18
 370              	.LVL28:
 371 025c 83398100 		ld	s3,8(sp)
 372              		.cfi_restore 19
 373              	.LVL29:
 374 0260 033A0100 		ld	s4,0(sp)
 375              		.cfi_restore 20
 376              	.LVL30:
 377 0264 13010103 		addi	sp,sp,48
 378              		.cfi_def_cfa_offset 0
 379 0268 67800000 		jr	ra
 380              	.LVL31:
 381              	.L20:
 382              		.cfi_restore_state
  10:src/Thread.cpp ****     uint64* stack = nullptr;
 383              		.loc 1 10 13
 384 026c 130A0000 		li	s4,0
 385 0270 6FF05FF7 		j	.L17
 386              		.cfi_endproc
 387              	.LFE22:
 389              		.globl	_ZN6Thread7runningE
 390              		.weak	_ZGVZN9Scheduler8instanceEvE8instance
 391              		.section	.bss._ZGVZN9Scheduler8instanceEvE8instance,"awG",@nobits,_ZGVZN9Scheduler8instanceEvE8ins
 392              		.align	3
 395              	_ZGVZN9Scheduler8instanceEvE8instance:
 396 0000 00000000 		.zero	8
 396      00000000 
 397              		.weak	_ZZN9Scheduler8instanceEvE8instance
 398              		.section	.bss._ZZN9Scheduler8instanceEvE8instance,"awG",@nobits,_ZZN9Scheduler8instanceEvE8instanc
 399              		.align	3
 402              	_ZZN9Scheduler8instanceEvE8instance:
 403 0000 00000000 		.zero	16
 403      00000000 
 403      00000000 
 403      00000000 
 404              		.bss
 405              		.align	3
 406              		.set	.LANCHOR0,. + 0
 409              	_ZN6Thread7runningE:
 410 0000 00000000 		.zero	8
 410      00000000 
 411              		.text
 412              	.Letext0:
 413              		.file 3 "src/../h/../lib/hw.h"
 414              		.file 4 "src/../h/Thread.h"
 415              		.file 5 "src/../h/riscv.h"
GAS LISTING /tmp/ccZqmSzQ.s 			page 11


DEFINED SYMBOLS
                            *ABS*:0000000000000000 Thread.cpp
     /tmp/ccZqmSzQ.s:9      .text:0000000000000000 _ZN6Thread8dispatchEv
     /tmp/ccZqmSzQ.s:13     .text:0000000000000000 .L0 
     /tmp/ccZqmSzQ.s:14     .text:0000000000000000 .L0 
     /tmp/ccZqmSzQ.s:15     .text:0000000000000004 .L0 
     /tmp/ccZqmSzQ.s:19     .text:0000000000000010 .L0 
     /tmp/ccZqmSzQ.s:20     .text:0000000000000010 .L0 
     /tmp/ccZqmSzQ.s:21     .text:0000000000000010 .L0 
     /tmp/ccZqmSzQ.s:23     .text:0000000000000014 .L0 
     /tmp/ccZqmSzQ.s:25     .text:0000000000000014 .L0 
     /tmp/ccZqmSzQ.s:26     .text:0000000000000014 .L0 
     /tmp/ccZqmSzQ.s:29     .text:000000000000001c .L0 
     /tmp/ccZqmSzQ.s:31     .text:0000000000000020 .L0 
     /tmp/ccZqmSzQ.s:33     .text:0000000000000024 .L0 
     /tmp/ccZqmSzQ.s:38     .text:0000000000000028 .L0 
     /tmp/ccZqmSzQ.s:39     .text:0000000000000028 .L0 
     /tmp/ccZqmSzQ.s:395    .bss._ZGVZN9Scheduler8instanceEvE8instance:0000000000000000 _ZGVZN9Scheduler8instanceEvE8instance
     /tmp/ccZqmSzQ.s:40     .text:0000000000000028 .L0 
     /tmp/ccZqmSzQ.s:402    .bss._ZZN9Scheduler8instanceEvE8instance:0000000000000000 _ZZN9Scheduler8instanceEvE8instance
     /tmp/ccZqmSzQ.s:47     .text:0000000000000034 .L0 
     /tmp/ccZqmSzQ.s:55     .text:0000000000000044 .L0 
     /tmp/ccZqmSzQ.s:61     .text:0000000000000050 .L0 
     /tmp/ccZqmSzQ.s:62     .text:0000000000000050 .L0 
     /tmp/ccZqmSzQ.s:70     .text:0000000000000064 .L0 
     /tmp/ccZqmSzQ.s:71     .text:0000000000000064 .L0 
     /tmp/ccZqmSzQ.s:72     .text:0000000000000064 .L0 
     /tmp/ccZqmSzQ.s:79     .text:0000000000000070 .L0 
     /tmp/ccZqmSzQ.s:87     .text:0000000000000080 .L0 
     /tmp/ccZqmSzQ.s:93     .text:000000000000008c .L0 
     /tmp/ccZqmSzQ.s:94     .text:000000000000008c .L0 
     /tmp/ccZqmSzQ.s:98     .text:000000000000009c .L0 
     /tmp/ccZqmSzQ.s:100    .text:00000000000000a4 .L0 
     /tmp/ccZqmSzQ.s:102    .text:00000000000000a8 .L0 
     /tmp/ccZqmSzQ.s:103    .text:00000000000000a8 .L0 
     /tmp/ccZqmSzQ.s:109    .text:00000000000000b8 .L0 
     /tmp/ccZqmSzQ.s:110    .text:00000000000000bc .L0 
     /tmp/ccZqmSzQ.s:112    .text:00000000000000c0 .L0 
     /tmp/ccZqmSzQ.s:113    .text:00000000000000c0 .L0 
     /tmp/ccZqmSzQ.s:115    .text:00000000000000c4 .L0 
     /tmp/ccZqmSzQ.s:118    .text:00000000000000c8 .L0 
     /tmp/ccZqmSzQ.s:120    .text:00000000000000cc .L0 
     /tmp/ccZqmSzQ.s:126    .text:00000000000000cc _ZN6Thread5yieldEv
     /tmp/ccZqmSzQ.s:129    .text:00000000000000cc .L0 
     /tmp/ccZqmSzQ.s:130    .text:00000000000000cc .L0 
     /tmp/ccZqmSzQ.s:131    .text:00000000000000d0 .L0 
     /tmp/ccZqmSzQ.s:134    .text:00000000000000d8 .L0 
     /tmp/ccZqmSzQ.s:135    .text:00000000000000d8 .L0 
     /tmp/ccZqmSzQ.s:137    .text:00000000000000dc .L0 
     /tmp/ccZqmSzQ.s:139    .text:00000000000000dc .L0 
     /tmp/ccZqmSzQ.s:140    .text:00000000000000dc .L0 
     /tmp/ccZqmSzQ.s:143    .text:00000000000000e4 .L0 
     /tmp/ccZqmSzQ.s:144    .text:00000000000000e4 .L0 
     /tmp/ccZqmSzQ.s:147    .text:00000000000000ec .L0 
     /tmp/ccZqmSzQ.s:148    .text:00000000000000ec .L0 
     /tmp/ccZqmSzQ.s:151    .text:00000000000000f4 .L0 
     /tmp/ccZqmSzQ.s:152    .text:00000000000000f8 .L0 
GAS LISTING /tmp/ccZqmSzQ.s 			page 12


     /tmp/ccZqmSzQ.s:154    .text:00000000000000fc .L0 
     /tmp/ccZqmSzQ.s:155    .text:00000000000000fc .L0 
     /tmp/ccZqmSzQ.s:157    .text:0000000000000100 .L0 
     /tmp/ccZqmSzQ.s:159    .text:0000000000000104 .L0 
     /tmp/ccZqmSzQ.s:165    .text:0000000000000104 _ZN6Thread13threadWrapperEv
     /tmp/ccZqmSzQ.s:168    .text:0000000000000104 .L0 
     /tmp/ccZqmSzQ.s:169    .text:0000000000000104 .L0 
     /tmp/ccZqmSzQ.s:170    .text:0000000000000108 .L0 
     /tmp/ccZqmSzQ.s:173    .text:0000000000000110 .L0 
     /tmp/ccZqmSzQ.s:174    .text:0000000000000110 .L0 
     /tmp/ccZqmSzQ.s:176    .text:0000000000000114 .L0 
     /tmp/ccZqmSzQ.s:178    .text:0000000000000114 .L0 
     /tmp/ccZqmSzQ.s:179    .text:0000000000000114 .L0 
     /tmp/ccZqmSzQ.s:182    .text:0000000000000120 .L0 
     /tmp/ccZqmSzQ.s:184    .text:0000000000000124 .L0 
     /tmp/ccZqmSzQ.s:185    .text:0000000000000124 .L0 
     /tmp/ccZqmSzQ.s:190    .text:000000000000012c .L0 
     /tmp/ccZqmSzQ.s:191    .text:000000000000012c .L0 
     /tmp/ccZqmSzQ.s:195    .text:000000000000013c .L0 
     /tmp/ccZqmSzQ.s:196    .text:000000000000013c .L0 
     /tmp/ccZqmSzQ.s:199    .text:0000000000000144 .L0 
     /tmp/ccZqmSzQ.s:200    .text:0000000000000148 .L0 
     /tmp/ccZqmSzQ.s:202    .text:000000000000014c .L0 
     /tmp/ccZqmSzQ.s:203    .text:000000000000014c .L0 
     /tmp/ccZqmSzQ.s:205    .text:0000000000000150 .L0 
     /tmp/ccZqmSzQ.s:207    .text:0000000000000154 .L0 
     /tmp/ccZqmSzQ.s:213    .text:0000000000000154 _ZN6ThreadC2EPFvPvES0_Pm
     /tmp/ccZqmSzQ.s:216    .text:0000000000000154 .L0 
     /tmp/ccZqmSzQ.s:218    .text:0000000000000154 .L0 
     /tmp/ccZqmSzQ.s:219    .text:0000000000000158 .L0 
     /tmp/ccZqmSzQ.s:221    .text:000000000000015c .L0 
     /tmp/ccZqmSzQ.s:223    .text:0000000000000160 .L0 
     /tmp/ccZqmSzQ.s:226    .text:0000000000000160 .L0 
     /tmp/ccZqmSzQ.s:232    .text:0000000000000174 .L0 
     /tmp/ccZqmSzQ.s:234    .text:0000000000000178 .L0 
     /tmp/ccZqmSzQ.s:235    .text:0000000000000178 .L0 
     /tmp/ccZqmSzQ.s:239    .text:0000000000000180 .L0 
     /tmp/ccZqmSzQ.s:241    .text:0000000000000184 .L0 
     /tmp/ccZqmSzQ.s:242    .text:0000000000000184 .L0 
     /tmp/ccZqmSzQ.s:247    .text:0000000000000190 .L0 
     /tmp/ccZqmSzQ.s:248    .text:0000000000000194 .L0 
     /tmp/ccZqmSzQ.s:249    .text:0000000000000194 .L0 
     /tmp/ccZqmSzQ.s:250    .text:0000000000000194 .L0 
     /tmp/ccZqmSzQ.s:252    .text:0000000000000198 .L0 
     /tmp/ccZqmSzQ.s:256    .text:000000000000019c .L0 
     /tmp/ccZqmSzQ.s:259    .text:000000000000019c .L0 
     /tmp/ccZqmSzQ.s:260    .text:000000000000019c .L0 
     /tmp/ccZqmSzQ.s:262    .text:00000000000001a0 .L0 
     /tmp/ccZqmSzQ.s:263    .text:00000000000001a0 .L0 
     /tmp/ccZqmSzQ.s:266    .text:00000000000001a4 .L0 
     /tmp/ccZqmSzQ.s:267    .text:00000000000001a8 .L0 
     /tmp/ccZqmSzQ.s:213    .text:0000000000000154 _ZN6ThreadC1EPFvPvES0_Pm
     /tmp/ccZqmSzQ.s:275    .text:00000000000001a8 _ZN6Thread12createThreadEPFvPvES0_
     /tmp/ccZqmSzQ.s:278    .text:00000000000001a8 .L0 
     /tmp/ccZqmSzQ.s:280    .text:00000000000001a8 .L0 
     /tmp/ccZqmSzQ.s:281    .text:00000000000001ac .L0 
     /tmp/ccZqmSzQ.s:288    .text:00000000000001c4 .L0 
GAS LISTING /tmp/ccZqmSzQ.s 			page 13


     /tmp/ccZqmSzQ.s:289    .text:00000000000001c4 .L0 
     /tmp/ccZqmSzQ.s:290    .text:00000000000001c4 .L0 
     /tmp/ccZqmSzQ.s:291    .text:00000000000001c4 .L0 
     /tmp/ccZqmSzQ.s:292    .text:00000000000001c4 .L0 
     /tmp/ccZqmSzQ.s:293    .text:00000000000001c4 .L0 
     /tmp/ccZqmSzQ.s:295    .text:00000000000001c8 .L0 
     /tmp/ccZqmSzQ.s:300    .text:00000000000001d0 .L0 
     /tmp/ccZqmSzQ.s:301    .text:00000000000001d0 .L0 
     /tmp/ccZqmSzQ.s:303    .text:00000000000001d4 .L0 
     /tmp/ccZqmSzQ.s:304    .text:00000000000001d4 .L0 
     /tmp/ccZqmSzQ.s:312    .text:00000000000001e4 .L0 
     /tmp/ccZqmSzQ.s:313    .text:00000000000001e4 .L0 
     /tmp/ccZqmSzQ.s:323    .text:0000000000000208 .L0 
     /tmp/ccZqmSzQ.s:327    .text:000000000000020c .L0 
     /tmp/ccZqmSzQ.s:328    .text:000000000000020c .L0 
     /tmp/ccZqmSzQ.s:329    .text:000000000000020c .L0 
     /tmp/ccZqmSzQ.s:336    .text:0000000000000218 .L0 
     /tmp/ccZqmSzQ.s:344    .text:0000000000000228 .L0 
     /tmp/ccZqmSzQ.s:350    .text:0000000000000234 .L0 
     /tmp/ccZqmSzQ.s:351    .text:0000000000000234 .L0 
     /tmp/ccZqmSzQ.s:357    .text:0000000000000248 .L0 
     /tmp/ccZqmSzQ.s:358    .text:0000000000000248 .L0 
     /tmp/ccZqmSzQ.s:360    .text:0000000000000250 .L0 
     /tmp/ccZqmSzQ.s:361    .text:0000000000000250 .L0 
     /tmp/ccZqmSzQ.s:363    .text:0000000000000254 .L0 
     /tmp/ccZqmSzQ.s:364    .text:0000000000000254 .L0 
     /tmp/ccZqmSzQ.s:366    .text:0000000000000258 .L0 
     /tmp/ccZqmSzQ.s:369    .text:000000000000025c .L0 
     /tmp/ccZqmSzQ.s:372    .text:0000000000000260 .L0 
     /tmp/ccZqmSzQ.s:375    .text:0000000000000264 .L0 
     /tmp/ccZqmSzQ.s:378    .text:0000000000000268 .L0 
     /tmp/ccZqmSzQ.s:382    .text:000000000000026c .L0 
     /tmp/ccZqmSzQ.s:384    .text:000000000000026c .L0 
     /tmp/ccZqmSzQ.s:386    .text:0000000000000274 .L0 
     /tmp/ccZqmSzQ.s:409    .bss:0000000000000000 _ZN6Thread7runningE
     /tmp/ccZqmSzQ.s:406    .bss:0000000000000000 .LANCHOR0
     /tmp/ccZqmSzQ.s:416    .text:0000000000000274 .L0 
     /tmp/ccZqmSzQ.s:26     .text:0000000000000014 .L0 
     /tmp/ccZqmSzQ.s:40     .text:0000000000000028 .L0 
     /tmp/ccZqmSzQ.s:47     .text:0000000000000034 .L0 
     /tmp/ccZqmSzQ.s:56     .text:0000000000000048 .L0 
     /tmp/ccZqmSzQ.s:63     .text:0000000000000054 .L0 
     /tmp/ccZqmSzQ.s:72     .text:0000000000000064 .L0 
     /tmp/ccZqmSzQ.s:79     .text:0000000000000070 .L0 
     /tmp/ccZqmSzQ.s:88     .text:0000000000000084 .L0 
     /tmp/ccZqmSzQ.s:94     .text:000000000000008c .L0 
     /tmp/ccZqmSzQ.s:98     .text:000000000000009c .L0 
     /tmp/ccZqmSzQ.s:179    .text:0000000000000114 .L0 
     /tmp/ccZqmSzQ.s:191    .text:000000000000012c .L0 
     /tmp/ccZqmSzQ.s:242    .text:0000000000000184 .L0 
     /tmp/ccZqmSzQ.s:329    .text:000000000000020c .L0 
     /tmp/ccZqmSzQ.s:336    .text:0000000000000218 .L0 
     /tmp/ccZqmSzQ.s:345    .text:000000000000022c .L0 
     /tmp/ccZqmSzQ.s:352    .text:0000000000000238 .L0 
     /tmp/ccZqmSzQ.s:66     .text:0000000000000064 .L2
     /tmp/ccZqmSzQ.s:57     .text:0000000000000050 .L3
     /tmp/ccZqmSzQ.s:89     .text:000000000000008c .L4
GAS LISTING /tmp/ccZqmSzQ.s 			page 14


     /tmp/ccZqmSzQ.s:107    .text:00000000000000b8 .L1
     /tmp/ccZqmSzQ.s:188    .text:000000000000012c .L10
     /tmp/ccZqmSzQ.s:255    .text:000000000000019c .L13
     /tmp/ccZqmSzQ.s:244    .text:0000000000000190 .L12
     /tmp/ccZqmSzQ.s:381    .text:000000000000026c .L20
     /tmp/ccZqmSzQ.s:356    .text:0000000000000248 .L16
     /tmp/ccZqmSzQ.s:346    .text:0000000000000234 .L19
     /tmp/ccZqmSzQ.s:310    .text:00000000000001e4 .L17
     /tmp/ccZqmSzQ.s:1438   .debug_abbrev:0000000000000000 .Ldebug_abbrev0
     /tmp/ccZqmSzQ.s:2721   .debug_str:00000000000005e8 .LASF94
     /tmp/ccZqmSzQ.s:2713   .debug_str:000000000000059c .LASF95
     /tmp/ccZqmSzQ.s:2671   .debug_str:0000000000000468 .LASF96
     /tmp/ccZqmSzQ.s:5      .text:0000000000000000 .Ltext0
     /tmp/ccZqmSzQ.s:412    .text:0000000000000274 .Letext0
     /tmp/ccZqmSzQ.s:2525   .debug_line:0000000000000000 .Ldebug_line0
     /tmp/ccZqmSzQ.s:2655   .debug_str:0000000000000417 .LASF0
     /tmp/ccZqmSzQ.s:2667   .debug_str:0000000000000449 .LASF1
     /tmp/ccZqmSzQ.s:2641   .debug_str:00000000000003b7 .LASF2
     /tmp/ccZqmSzQ.s:2615   .debug_str:00000000000002e3 .LASF4
     /tmp/ccZqmSzQ.s:2701   .debug_str:0000000000000542 .LASF3
     /tmp/ccZqmSzQ.s:2547   .debug_str:0000000000000082 .LASF5
     /tmp/ccZqmSzQ.s:2673   .debug_str:0000000000000482 .LASF6
     /tmp/ccZqmSzQ.s:2653   .debug_str:0000000000000404 .LASF7
     /tmp/ccZqmSzQ.s:2737   .debug_str:0000000000000728 .LASF8
     /tmp/ccZqmSzQ.s:2605   .debug_str:000000000000028e .LASF9
     /tmp/ccZqmSzQ.s:2681   .debug_str:00000000000004b0 .LASF10
     /tmp/ccZqmSzQ.s:2723   .debug_str:00000000000006ac .LASF11
     /tmp/ccZqmSzQ.s:2551   .debug_str:00000000000000ad .LASF12
     /tmp/ccZqmSzQ.s:2531   .debug_str:0000000000000021 .LASF13
     /tmp/ccZqmSzQ.s:2561   .debug_str:0000000000000102 .LASF14
     /tmp/ccZqmSzQ.s:2693   .debug_str:00000000000004fe .LASF15
     /tmp/ccZqmSzQ.s:2569   .debug_str:0000000000000144 .LASF16
     /tmp/ccZqmSzQ.s:2589   .debug_str:00000000000001ea .LASF17
     /tmp/ccZqmSzQ.s:2729   .debug_str:00000000000006e3 .LASF27
     /tmp/ccZqmSzQ.s:2537   .debug_str:0000000000000053 .LASF97
     /tmp/ccZqmSzQ.s:2627   .debug_str:0000000000000324 .LASF62
     /tmp/ccZqmSzQ.s:2747   .debug_str:000000000000077d .LASF64
     /tmp/ccZqmSzQ.s:2689   .debug_str:00000000000004f2 .LASF98
     /tmp/ccZqmSzQ.s:2583   .debug_str:00000000000001b9 .LASF99
     /tmp/ccZqmSzQ.s:2695   .debug_str:0000000000000514 .LASF18
     /tmp/ccZqmSzQ.s:2609   .debug_str:00000000000002b2 .LASF20
     /tmp/ccZqmSzQ.s:2659   .debug_str:000000000000042b .LASF19
     /tmp/ccZqmSzQ.s:2597   .debug_str:000000000000023d .LASF21
     /tmp/ccZqmSzQ.s:2629   .debug_str:0000000000000331 .LASF30
     /tmp/ccZqmSzQ.s:2563   .debug_str:000000000000010e .LASF100
     /tmp/ccZqmSzQ.s:2593   .debug_str:000000000000020a .LASF101
     /tmp/ccZqmSzQ.s:2753   .debug_str:00000000000007b8 .LASF22
     /tmp/ccZqmSzQ.s:2625   .debug_str:000000000000031c .LASF23
     /tmp/ccZqmSzQ.s:2661   .debug_str:0000000000000434 .LASF24
     /tmp/ccZqmSzQ.s:2621   .debug_str:000000000000030c .LASF25
     /tmp/ccZqmSzQ.s:2619   .debug_str:0000000000000303 .LASF26
     /tmp/ccZqmSzQ.s:2635   .debug_str:0000000000000382 .LASF102
     /tmp/ccZqmSzQ.s:2567   .debug_str:0000000000000128 .LASF103
     /tmp/ccZqmSzQ.s:2665   .debug_str:0000000000000443 .LASF28
     /tmp/ccZqmSzQ.s:2533   .debug_str:0000000000000031 .LASF32
     /tmp/ccZqmSzQ.s:2585   .debug_str:00000000000001c1 .LASF34
     /tmp/ccZqmSzQ.s:2581   .debug_str:00000000000001b0 .LASF29
GAS LISTING /tmp/ccZqmSzQ.s 			page 15


     /tmp/ccZqmSzQ.s:2579   .debug_str:000000000000019b .LASF31
     /tmp/ccZqmSzQ.s:2703   .debug_str:0000000000000554 .LASF33
     /tmp/ccZqmSzQ.s:2683   .debug_str:00000000000004bf .LASF35
     /tmp/ccZqmSzQ.s:2691   .debug_str:00000000000004f7 .LASF36
     /tmp/ccZqmSzQ.s:2717   .debug_str:00000000000005c3 .LASF37
     /tmp/ccZqmSzQ.s:2595   .debug_str:0000000000000235 .LASF38
     /tmp/ccZqmSzQ.s:2571   .debug_str:000000000000015a .LASF39
     /tmp/ccZqmSzQ.s:2527   .debug_str:0000000000000000 .LASF40
     /tmp/ccZqmSzQ.s:2705   .debug_str:000000000000055b .LASF41
     /tmp/ccZqmSzQ.s:2545   .debug_str:000000000000007a .LASF42
     /tmp/ccZqmSzQ.s:2555   .debug_str:00000000000000c8 .LASF43
     /tmp/ccZqmSzQ.s:2611   .debug_str:00000000000002c5 .LASF44
     /tmp/ccZqmSzQ.s:2587   .debug_str:00000000000001d6 .LASF45
     /tmp/ccZqmSzQ.s:2657   .debug_str:0000000000000424 .LASF46
     /tmp/ccZqmSzQ.s:2751   .debug_str:00000000000007a5 .LASF47
     /tmp/ccZqmSzQ.s:2543   .debug_str:0000000000000073 .LASF48
     /tmp/ccZqmSzQ.s:2725   .debug_str:00000000000006bb .LASF49
     /tmp/ccZqmSzQ.s:2599   .debug_str:0000000000000253 .LASF50
     /tmp/ccZqmSzQ.s:2719   .debug_str:00000000000005d6 .LASF51
     /tmp/ccZqmSzQ.s:2541   .debug_str:000000000000006d .LASF52
     /tmp/ccZqmSzQ.s:2755   .debug_str:00000000000007bd .LASF53
     /tmp/ccZqmSzQ.s:2651   .debug_str:00000000000003f9 .LASF54
     /tmp/ccZqmSzQ.s:2699   .debug_str:000000000000052a .LASF55
     /tmp/ccZqmSzQ.s:2623   .debug_str:0000000000000311 .LASF56
     /tmp/ccZqmSzQ.s:2715   .debug_str:00000000000005ab .LASF57
     /tmp/ccZqmSzQ.s:2559   .debug_str:00000000000000f8 .LASF58
     /tmp/ccZqmSzQ.s:2613   .debug_str:00000000000002cd .LASF59
     /tmp/ccZqmSzQ.s:2645   .debug_str:00000000000003ca .LASF60
     /tmp/ccZqmSzQ.s:2607   .debug_str:000000000000029c .LASF61
     /tmp/ccZqmSzQ.s:2639   .debug_str:00000000000003a9 .LASF63
     /tmp/ccZqmSzQ.s:2633   .debug_str:0000000000000367 .LASF65
     /tmp/ccZqmSzQ.s:2731   .debug_str:00000000000006ea .LASF66
     /tmp/ccZqmSzQ.s:2631   .debug_str:000000000000034a .LASF67
     /tmp/ccZqmSzQ.s:2735   .debug_str:000000000000071c .LASF68
     /tmp/ccZqmSzQ.s:2603   .debug_str:0000000000000274 .LASF69
     /tmp/ccZqmSzQ.s:2685   .debug_str:00000000000004d2 .LASF70
     /tmp/ccZqmSzQ.s:2591   .debug_str:00000000000001ef .LASF71
     /tmp/ccZqmSzQ.s:2565   .debug_str:000000000000011c .LASF72
     /tmp/ccZqmSzQ.s:2529   .debug_str:0000000000000008 .LASF73
     /tmp/ccZqmSzQ.s:2745   .debug_str:000000000000076f .LASF74
     /tmp/ccZqmSzQ.s:2601   .debug_str:0000000000000259 .LASF75
     /tmp/ccZqmSzQ.s:2669   .debug_str:000000000000045c .LASF76
     /tmp/ccZqmSzQ.s:2535   .debug_str:000000000000003a .LASF77
     /tmp/ccZqmSzQ.s:2553   .debug_str:00000000000000bd .LASF78
     /tmp/ccZqmSzQ.s:2709   .debug_str:000000000000057e .LASF79
     /tmp/ccZqmSzQ.s:2707   .debug_str:000000000000056f .LASF80
     /tmp/ccZqmSzQ.s:2557   .debug_str:00000000000000dc .LASF81
     /tmp/ccZqmSzQ.s:2741   .debug_str:000000000000074d .LASF104
     /tmp/ccZqmSzQ.s:2733   .debug_str:00000000000006f9 .LASF105
     /tmp/ccZqmSzQ.s:2679   .debug_str:00000000000004a6 .LASF82
     /tmp/ccZqmSzQ.s:2663   .debug_str:000000000000043a .LASF83
     /tmp/ccZqmSzQ.s:2637   .debug_str:0000000000000390 .LASF84
     /tmp/ccZqmSzQ.s:2727   .debug_str:00000000000006ce .LASF106
     /tmp/ccZqmSzQ.s:2647   .debug_str:00000000000003d4 .LASF107
     /tmp/ccZqmSzQ.s:2739   .debug_str:0000000000000738 .LASF108
     /tmp/ccZqmSzQ.s:2649   .debug_str:00000000000003de .LASF109
     /tmp/ccZqmSzQ.s:2577   .debug_str:0000000000000187 .LASF110
GAS LISTING /tmp/ccZqmSzQ.s 			page 16


     /tmp/ccZqmSzQ.s:2539   .debug_str:000000000000005b .LASF85
     /tmp/ccZqmSzQ.s:2573   .debug_str:000000000000016e .LASF86
     /tmp/ccZqmSzQ.s:2643   .debug_str:00000000000003c5 .LASF87
     /tmp/ccZqmSzQ.s:2575   .debug_str:0000000000000173 .LASF111
     /tmp/ccZqmSzQ.s:166    .text:0000000000000104 .LFB28
     /tmp/ccZqmSzQ.s:208    .text:0000000000000154 .LFE28
     /tmp/ccZqmSzQ.s:197    .text:0000000000000144 .LVL13
     /tmp/ccZqmSzQ.s:2749   .debug_str:00000000000007a0 .LASF89
     /tmp/ccZqmSzQ.s:2677   .debug_str:000000000000049b .LASF88
     /tmp/ccZqmSzQ.s:2617   .debug_str:00000000000002ea .LASF112
     /tmp/ccZqmSzQ.s:214    .text:0000000000000154 .LFB26
     /tmp/ccZqmSzQ.s:268    .text:00000000000001a8 .LFE26
     /tmp/ccZqmSzQ.s:2390   .debug_loc:0000000000000000 .LLST3
     /tmp/ccZqmSzQ.s:10     .text:0000000000000000 .LFB24
     /tmp/ccZqmSzQ.s:121    .text:00000000000000cc .LFE24
     /tmp/ccZqmSzQ.s:2406   .debug_loc:000000000000004a .LLST0
     /tmp/ccZqmSzQ.s:35     .text:0000000000000028 .LBB20
     /tmp/ccZqmSzQ.s:60     .text:0000000000000050 .LBE20
     /tmp/ccZqmSzQ.s:43     .text:0000000000000034 .LBB22
     /tmp/ccZqmSzQ.s:53     .text:0000000000000044 .LBE22
     /tmp/ccZqmSzQ.s:2413   .debug_loc:000000000000006d .LLST1
     /tmp/ccZqmSzQ.s:68     .text:0000000000000064 .LBB25
     /tmp/ccZqmSzQ.s:92     .text:000000000000008c .LBE25
     /tmp/ccZqmSzQ.s:75     .text:0000000000000070 .LBB27
     /tmp/ccZqmSzQ.s:85     .text:0000000000000080 .LBE27
     /tmp/ccZqmSzQ.s:2422   .debug_loc:0000000000000099 .LLST2
     /tmp/ccZqmSzQ.s:65     .text:0000000000000064 .LVL3
     /tmp/ccZqmSzQ.s:96     .text:000000000000009c .LVL6
     /tmp/ccZqmSzQ.s:106    .text:00000000000000b8 .LVL7
     /tmp/ccZqmSzQ.s:127    .text:00000000000000cc .LFB23
     /tmp/ccZqmSzQ.s:160    .text:0000000000000104 .LFE23
     /tmp/ccZqmSzQ.s:141    .text:00000000000000e4 .LVL9
     /tmp/ccZqmSzQ.s:145    .text:00000000000000ec .LVL10
     /tmp/ccZqmSzQ.s:149    .text:00000000000000f4 .LVL11
     /tmp/ccZqmSzQ.s:276    .text:00000000000001a8 .LFB22
     /tmp/ccZqmSzQ.s:387    .text:0000000000000274 .LFE22
     /tmp/ccZqmSzQ.s:2431   .debug_loc:00000000000000c5 .LLST4
     /tmp/ccZqmSzQ.s:2453   .debug_loc:0000000000000124 .LLST5
     /tmp/ccZqmSzQ.s:2475   .debug_loc:0000000000000183 .LLST6
     /tmp/ccZqmSzQ.s:2492   .debug_loc:00000000000001ce .LLST7
     /tmp/ccZqmSzQ.s:325    .text:000000000000020c .LBB32
     /tmp/ccZqmSzQ.s:349    .text:0000000000000234 .LBE32
     /tmp/ccZqmSzQ.s:332    .text:0000000000000218 .LBB34
     /tmp/ccZqmSzQ.s:342    .text:0000000000000228 .LBE34
     /tmp/ccZqmSzQ.s:2503   .debug_loc:0000000000000204 .LLST8
     /tmp/ccZqmSzQ.s:307    .text:00000000000001e0 .LVL20
     /tmp/ccZqmSzQ.s:315    .text:00000000000001f0 .LVL22
     /tmp/ccZqmSzQ.s:321    .text:0000000000000208 .LVL23
     /tmp/ccZqmSzQ.s:354    .text:0000000000000248 .LVL26
     /tmp/ccZqmSzQ.s:2687   .debug_str:00000000000004e0 .LASF113
     /tmp/ccZqmSzQ.s:2549   .debug_str:0000000000000089 .LASF114
     /tmp/ccZqmSzQ.s:2711   .debug_str:0000000000000596 .LASF90
     /tmp/ccZqmSzQ.s:2697   .debug_str:000000000000051a .LASF92
     /tmp/ccZqmSzQ.s:2675   .debug_str:0000000000000495 .LASF91
     /tmp/ccZqmSzQ.s:2743   .debug_str:0000000000000762 .LASF93
     /tmp/ccZqmSzQ.s:217    .text:0000000000000154 .LVL14
     /tmp/ccZqmSzQ.s:237    .text:0000000000000180 .LVL15
GAS LISTING /tmp/ccZqmSzQ.s 			page 17


     /tmp/ccZqmSzQ.s:254    .text:000000000000019c .LVL16
     /tmp/ccZqmSzQ.s:27     .text:000000000000001c .LVL0
     /tmp/ccZqmSzQ.s:116    .text:00000000000000c4 .LVL8
     /tmp/ccZqmSzQ.s:42     .text:0000000000000034 .LVL1
     /tmp/ccZqmSzQ.s:50     .text:0000000000000044 .LVL2
     /tmp/ccZqmSzQ.s:74     .text:0000000000000070 .LVL4
     /tmp/ccZqmSzQ.s:82     .text:0000000000000080 .LVL5
     /tmp/ccZqmSzQ.s:279    .text:00000000000001a8 .LVL17
     /tmp/ccZqmSzQ.s:305    .text:00000000000001d8 .LVL19
     /tmp/ccZqmSzQ.s:367    .text:0000000000000258 .LVL27
     /tmp/ccZqmSzQ.s:380    .text:000000000000026c .LVL31
     /tmp/ccZqmSzQ.s:373    .text:0000000000000260 .LVL29
     /tmp/ccZqmSzQ.s:299    .text:00000000000001d0 .LVL18
     /tmp/ccZqmSzQ.s:309    .text:00000000000001e4 .LVL21
     /tmp/ccZqmSzQ.s:376    .text:0000000000000264 .LVL30
     /tmp/ccZqmSzQ.s:370    .text:000000000000025c .LVL28
     /tmp/ccZqmSzQ.s:331    .text:0000000000000218 .LVL24
     /tmp/ccZqmSzQ.s:339    .text:0000000000000228 .LVL25
     /tmp/ccZqmSzQ.s:417    .debug_info:0000000000000000 .Ldebug_info0

UNDEFINED SYMBOLS
_ZN9Scheduler3putEP6Thread
_ZN9Scheduler3getEv
_ZN6Thread13switchContextEPNS_7ContextES1_
_ZN5Riscv11pushAllRegsEv
_ZN5Riscv10popAllRegsEv
_Znam
_Znwm
