GAS LISTING C:\msys64\tmp\ccOp687O.s 			page 1


   1              		.file	"Thread.cpp"
   2              		.option nopic
   3              		.option norelax
   4              		.attribute arch, "rv64i2p0_m2p0_a2p0"
   5              		.attribute unaligned_access, 0
   6              		.attribute stack_align, 16
   7              		.text
   8              	.Ltext0:
   9              		.align	2
  10              		.globl	_ZN7_thread13threadWrapperEv
  12              	_ZN7_thread13threadWrapperEv:
  13              	.LFB35:
  14              		.file 1 "src/Thread.cpp"
   1:src/Thread.cpp **** #include "../h/Thread.h"
   2:src/Thread.cpp **** 
   3:src/Thread.cpp **** #include "../h/riscv.h"
   4:src/Thread.cpp **** #include "../h/Scheduler.h"
   5:src/Thread.cpp **** #include "../h/syscall_c.h"
   6:src/Thread.cpp **** 
   7:src/Thread.cpp **** _thread *_thread::running = nullptr;
   8:src/Thread.cpp **** 
   9:src/Thread.cpp **** uint64 _thread::timeSliceCounter = 0;
  10:src/Thread.cpp **** 
  11:src/Thread.cpp **** _thread *_thread::sleepingHead = nullptr;
  12:src/Thread.cpp **** 
  13:src/Thread.cpp **** _thread *_thread::createThread(Body body, void *args, void *stack)
  14:src/Thread.cpp **** {
  15:src/Thread.cpp ****     return new _thread(body, args, stack, DEFAULT_TIME_SLICE);
  16:src/Thread.cpp **** }
  17:src/Thread.cpp **** 
  18:src/Thread.cpp **** void _thread::dispatch()
  19:src/Thread.cpp **** {
  20:src/Thread.cpp ****     _thread *old = running;
  21:src/Thread.cpp **** 
  22:src/Thread.cpp ****     // Ako nije gotova, vrati je u Scheduler
  23:src/Thread.cpp ****     if (old && !old->finished && old->isReady)
  24:src/Thread.cpp ****     {
  25:src/Thread.cpp ****         Scheduler::instance().put(old);
  26:src/Thread.cpp ****     }
  27:src/Thread.cpp **** 
  28:src/Thread.cpp ****     running = Scheduler::instance().get();
  29:src/Thread.cpp ****     _thread::timeSliceCounter = 0;
  30:src/Thread.cpp ****     // Ako smo zapravo promenili nit, uradi switch
  31:src/Thread.cpp **** 
  32:src/Thread.cpp ****     switchContext(&old->context, &running->context);
  33:src/Thread.cpp **** }
  34:src/Thread.cpp **** 
  35:src/Thread.cpp **** void _thread::time_sleep(time_t n)
  36:src/Thread.cpp **** {
  37:src/Thread.cpp ****     if (n == 0)
  38:src/Thread.cpp ****         return;
  39:src/Thread.cpp **** 
  40:src/Thread.cpp ****     _thread *curr = sleepingHead;
  41:src/Thread.cpp ****     _thread *prev = nullptr;
  42:src/Thread.cpp **** 
  43:src/Thread.cpp ****     while (curr && n >= curr->timeSleeping)
  44:src/Thread.cpp ****     {
GAS LISTING C:\msys64\tmp\ccOp687O.s 			page 2


  45:src/Thread.cpp ****         n -= curr->timeSleeping;
  46:src/Thread.cpp ****         prev = curr;
  47:src/Thread.cpp ****         curr = curr->waitnext;
  48:src/Thread.cpp ****     }
  49:src/Thread.cpp **** 
  50:src/Thread.cpp ****     _thread::running->timeSleeping = n;
  51:src/Thread.cpp ****     _thread::running->waitnext = curr;
  52:src/Thread.cpp **** 
  53:src/Thread.cpp ****     if (!prev)
  54:src/Thread.cpp ****     {
  55:src/Thread.cpp ****         sleepingHead = _thread::running;
  56:src/Thread.cpp ****     }
  57:src/Thread.cpp ****     else
  58:src/Thread.cpp ****     {
  59:src/Thread.cpp ****         prev->waitnext = _thread::running;
  60:src/Thread.cpp ****     }
  61:src/Thread.cpp **** 
  62:src/Thread.cpp ****     if (curr)
  63:src/Thread.cpp ****     {
  64:src/Thread.cpp ****         curr->timeSleeping -= n;
  65:src/Thread.cpp ****     }
  66:src/Thread.cpp **** 
  67:src/Thread.cpp ****     _thread::running->isReady = false;
  68:src/Thread.cpp ****     _thread::dispatch();
  69:src/Thread.cpp **** }
  70:src/Thread.cpp **** 
  71:src/Thread.cpp **** _thread::_thread(Body body, void *args, void *stack_space, uint64 time) : next(nullptr), waitnext(n
  72:src/Thread.cpp ****                                                                           timeSlice(time), isReady(
  73:src/Thread.cpp **** {
  74:src/Thread.cpp ****     if (body != nullptr)
  75:src/Thread.cpp ****     {
  76:src/Thread.cpp ****         context.ra = (uint64)&threadWrapper;
  77:src/Thread.cpp ****         context.sp = ((uint64)stack_space + DEFAULT_STACK_SIZE) & ~0xFUL;
  78:src/Thread.cpp ****     }
  79:src/Thread.cpp ****     else
  80:src/Thread.cpp ****     {
  81:src/Thread.cpp ****         context.ra = 0;
  82:src/Thread.cpp ****         context.sp = 0;
  83:src/Thread.cpp ****     }
  84:src/Thread.cpp **** }
  85:src/Thread.cpp **** 
  86:src/Thread.cpp **** void _thread::threadWrapper()
  87:src/Thread.cpp **** {
  15              		.loc 1 87 1
  16              		.cfi_startproc
  17 0000 130101FF 		addi	sp,sp,-16
  18              		.cfi_def_cfa_offset 16
  19 0004 23341100 		sd	ra,8(sp)
  20 0008 23308100 		sd	s0,0(sp)
  21              		.cfi_offset 1, -8
  22              		.cfi_offset 8, -16
  23 000c 13040101 		addi	s0,sp,16
  24              		.cfi_def_cfa 8, 0
  88:src/Thread.cpp **** 
  89:src/Thread.cpp ****     Riscv::popSppSpie();
  25              		.loc 1 89 5
  26              		.loc 1 89 22 is_stmt 0
GAS LISTING C:\msys64\tmp\ccOp687O.s 			page 3


  27 0010 97000000 		call	_ZN5Riscv10popSppSpieEv
  27      E7800000 
  28              	.LVL0:
  90:src/Thread.cpp ****     if (running->body)
  29              		.loc 1 90 5 is_stmt 1
  30              		.loc 1 90 18 is_stmt 0
  31 0018 17070000 		ld	a4,_ZN7_thread7runningE
  31      03370700 
  32 0020 83370701 		ld	a5,16(a4)
  33              		.loc 1 90 5
  34 0024 63860700 		beq	a5,zero,.L2
  91:src/Thread.cpp ****         running->body(running->args);
  35              		.loc 1 91 9 is_stmt 1
  36              		.loc 1 91 22 is_stmt 0
  37 0028 03358701 		ld	a0,24(a4)
  38 002c E7800700 		jalr	a5
  39              	.LVL1:
  40              	.L2:
  92:src/Thread.cpp **** 
  93:src/Thread.cpp ****     running->setFinished(true);
  41              		.loc 1 93 5 is_stmt 1
  42              	.LBB19:
  43              	.LBB20:
  44              		.file 2 "src/../h/Thread.h"
   1:src/../h/Thread.h **** #ifndef PROJEKAT_THREAD_H
   2:src/../h/Thread.h **** #define PROJEKAT_THREAD_H
   3:src/../h/Thread.h **** 
   4:src/../h/Thread.h **** #include "../lib/hw.h"
   5:src/../h/Thread.h **** #include "MemoryAllocator.h"
   6:src/../h/Thread.h **** #include "Scheduler.h"
   7:src/../h/Thread.h **** 
   8:src/../h/Thread.h **** typedef unsigned long time_t;
   9:src/../h/Thread.h **** class _thread
  10:src/../h/Thread.h **** {
  11:src/../h/Thread.h **** public:
  12:src/../h/Thread.h **** 	void *operator new(size_t size)
  13:src/../h/Thread.h **** 	{
  14:src/../h/Thread.h **** 		void *ptr = MemoryAllocator::kmalloc(size);
  15:src/../h/Thread.h **** 		return ptr;
  16:src/../h/Thread.h **** 	}
  17:src/../h/Thread.h **** 	~_thread() { delete stack; };
  18:src/../h/Thread.h **** 	using Body = void (*)(void *);
  19:src/../h/Thread.h **** 
  20:src/../h/Thread.h **** 	static _thread *createThread(Body body, void *args, void *stack);
  21:src/../h/Thread.h **** 
  22:src/../h/Thread.h **** 	static _thread *running;
  23:src/../h/Thread.h **** 
  24:src/../h/Thread.h **** 	static void dispatch();
  25:src/../h/Thread.h **** 
  26:src/../h/Thread.h **** 	bool isFinished() { return finished; };
  27:src/../h/Thread.h **** 
  28:src/../h/Thread.h **** 	uint64 getTimeSlice() const
  29:src/../h/Thread.h **** 	{
  30:src/../h/Thread.h **** 		return timeSlice;
  31:src/../h/Thread.h **** 	}
  32:src/../h/Thread.h **** 	void setFinished(bool finished) { _thread::finished = finished; };
  45              		.loc 2 32 36
GAS LISTING C:\msys64\tmp\ccOp687O.s 			page 4


  46              		.loc 2 32 54 is_stmt 0
  47 0030 97070000 		ld	a5,_ZN7_thread7runningE
  47      83B70700 
  48 0038 13071000 		li	a4,1
  49 003c A380E704 		sb	a4,65(a5)
  50              	.LVL2:
  51              	.LBE20:
  52              	.LBE19:
  94:src/Thread.cpp **** 
  95:src/Thread.cpp ****     thread_dispatch();
  53              		.loc 1 95 5 is_stmt 1
  54              		.loc 1 95 20 is_stmt 0
  55 0040 97000000 		call	_Z15thread_dispatchv
  55      E7800000 
  56              	.LVL3:
  96:src/Thread.cpp **** }
  57              		.loc 1 96 1
  58 0048 83308100 		ld	ra,8(sp)
  59              		.cfi_restore 1
  60 004c 03340100 		ld	s0,0(sp)
  61              		.cfi_restore 8
  62              		.cfi_def_cfa 2, 16
  63 0050 13010101 		addi	sp,sp,16
  64              		.cfi_def_cfa_offset 0
  65 0054 67800000 		jr	ra
  66              		.cfi_endproc
  67              	.LFE35:
  69              		.align	2
  70              		.globl	_ZN7_thread8dispatchEv
  72              	_ZN7_thread8dispatchEv:
  73              	.LFB30:
  19:src/Thread.cpp ****     _thread *old = running;
  74              		.loc 1 19 1 is_stmt 1
  75              		.cfi_startproc
  76 0058 130101FE 		addi	sp,sp,-32
  77              		.cfi_def_cfa_offset 32
  78 005c 233C1100 		sd	ra,24(sp)
  79 0060 23388100 		sd	s0,16(sp)
  80 0064 23349100 		sd	s1,8(sp)
  81              		.cfi_offset 1, -8
  82              		.cfi_offset 8, -16
  83              		.cfi_offset 9, -24
  84 0068 13040102 		addi	s0,sp,32
  85              		.cfi_def_cfa 8, 0
  20:src/Thread.cpp **** 
  86              		.loc 1 20 5
  20:src/Thread.cpp **** 
  87              		.loc 1 20 14 is_stmt 0
  88 006c 97040000 		ld	s1,_ZN7_thread7runningE
  88      83B40400 
  89              	.LVL4:
  23:src/Thread.cpp ****     {
  90              		.loc 1 23 5 is_stmt 1
  91 0074 63880404 		beq	s1,zero,.L5
  23:src/Thread.cpp ****     {
  92              		.loc 1 23 22 is_stmt 0 discriminator 1
  93 0078 83C71404 		lbu	a5,65(s1)
GAS LISTING C:\msys64\tmp\ccOp687O.s 			page 5


  23:src/Thread.cpp ****     {
  94              		.loc 1 23 13 discriminator 1
  95 007c 63940704 		bne	a5,zero,.L5
  23:src/Thread.cpp ****     {
  96              		.loc 1 23 39 discriminator 2
  97 0080 83C70404 		lbu	a5,64(s1)
  23:src/Thread.cpp ****     {
  98              		.loc 1 23 31 discriminator 2
  99 0084 63800704 		beq	a5,zero,.L5
  25:src/Thread.cpp ****     }
 100              		.loc 1 25 9 is_stmt 1
 101              	.LBB21:
 102              	.LBB22:
 103              		.file 3 "src/../h/Scheduler.h"
   1:src/../h/Scheduler.h **** //
   2:src/../h/Scheduler.h **** // Created by os on 4/1/26.
   3:src/../h/Scheduler.h **** //
   4:src/../h/Scheduler.h **** 
   5:src/../h/Scheduler.h **** #ifndef PROJEKAT_SCHEDULER_H
   6:src/../h/Scheduler.h **** #define PROJEKAT_SCHEDULER_H
   7:src/../h/Scheduler.h **** 
   8:src/../h/Scheduler.h **** class _thread;
   9:src/../h/Scheduler.h **** 
  10:src/../h/Scheduler.h **** class Scheduler
  11:src/../h/Scheduler.h **** {
  12:src/../h/Scheduler.h **** public:
  13:src/../h/Scheduler.h ****     static Scheduler &instance()
  14:src/../h/Scheduler.h ****     {
  15:src/../h/Scheduler.h ****         static Scheduler instance;
 104              		.loc 3 15 9
 105              		.loc 3 15 26 is_stmt 0
 106 0088 97070000 		lbu	a5,_ZGVZN9Scheduler8instanceEvE8instance
 106      83C70700 
 107 0090 63900702 		bne	a5,zero,.L6
 108              	.LVL5:
 109              	.LBB23:
 110              	.LBB24:
 111              	.LBB25:
  16:src/../h/Scheduler.h ****         return instance;
  17:src/../h/Scheduler.h ****     }
  18:src/../h/Scheduler.h **** 
  19:src/../h/Scheduler.h ****     Scheduler(const Scheduler &) = delete;
  20:src/../h/Scheduler.h ****     Scheduler &operator=(const Scheduler &) = delete;
  21:src/../h/Scheduler.h **** 
  22:src/../h/Scheduler.h ****     void put(_thread *t);
  23:src/../h/Scheduler.h **** 
  24:src/../h/Scheduler.h ****     _thread *get();
  25:src/../h/Scheduler.h **** 
  26:src/../h/Scheduler.h **** private:
  27:src/../h/Scheduler.h ****     Scheduler() : head(nullptr), tail(nullptr) {};
 112              		.loc 3 27 46
 113 0094 97070000 		lla	a5,_ZZN9Scheduler8instanceEvE8instance
 113      93870700 
 114 009c 23B00700 		sd	zero,0(a5)
 115 00a0 23B40700 		sd	zero,8(a5)
 116              	.LVL6:
 117              	.LBE25:
GAS LISTING C:\msys64\tmp\ccOp687O.s 			page 6


 118              	.LBE24:
 119              	.LBE23:
  15:src/../h/Scheduler.h ****         return instance;
 120              		.loc 3 15 26
 121 00a4 93071000 		li	a5,1
 122 00a8 17070000 		sb	a5,_ZGVZN9Scheduler8instanceEvE8instance,a4
 122      2300F700 
 123              	.L6:
  16:src/../h/Scheduler.h ****         return instance;
 124              		.loc 3 16 9 is_stmt 1
 125              	.LBE22:
 126              	.LBE21:
  25:src/Thread.cpp ****     }
 127              		.loc 1 25 34 is_stmt 0
 128 00b0 93850400 		mv	a1,s1
 129 00b4 17050000 		lla	a0,_ZZN9Scheduler8instanceEvE8instance
 129      13050500 
 130 00bc 97000000 		call	_ZN9Scheduler3putEP7_thread
 130      E7800000 
 131              	.LVL7:
 132              	.L5:
  28:src/Thread.cpp ****     _thread::timeSliceCounter = 0;
 133              		.loc 1 28 5 is_stmt 1
 134              	.LBB26:
 135              	.LBB27:
  15:src/../h/Scheduler.h ****         return instance;
 136              		.loc 3 15 9
  15:src/../h/Scheduler.h ****         return instance;
 137              		.loc 3 15 26 is_stmt 0
 138 00c4 97070000 		lbu	a5,_ZGVZN9Scheduler8instanceEvE8instance
 138      83C70700 
 139 00cc 63900702 		bne	a5,zero,.L7
 140              	.LVL8:
 141              	.LBB28:
 142              	.LBB29:
 143              	.LBB30:
 144              		.loc 3 27 46
 145 00d0 97070000 		lla	a5,_ZZN9Scheduler8instanceEvE8instance
 145      93870700 
 146 00d8 23B00700 		sd	zero,0(a5)
 147 00dc 23B40700 		sd	zero,8(a5)
 148              	.LVL9:
 149              	.LBE30:
 150              	.LBE29:
 151              	.LBE28:
  15:src/../h/Scheduler.h ****         return instance;
 152              		.loc 3 15 26
 153 00e0 93071000 		li	a5,1
 154 00e4 17070000 		sb	a5,_ZGVZN9Scheduler8instanceEvE8instance,a4
 154      2300F700 
 155              	.L7:
  16:src/../h/Scheduler.h ****     }
 156              		.loc 3 16 9 is_stmt 1
 157              	.LBE27:
 158              	.LBE26:
  28:src/Thread.cpp ****     _thread::timeSliceCounter = 0;
 159              		.loc 1 28 40 is_stmt 0
GAS LISTING C:\msys64\tmp\ccOp687O.s 			page 7


 160 00ec 17050000 		lla	a0,_ZZN9Scheduler8instanceEvE8instance
 160      13050500 
 161 00f4 97000000 		call	_ZN9Scheduler3getEv
 161      E7800000 
 162              	.LVL10:
  28:src/Thread.cpp ****     _thread::timeSliceCounter = 0;
 163              		.loc 1 28 13
 164 00fc 97070000 		sd	a0,_ZN7_thread7runningE,a5
 164      23B0A700 
  29:src/Thread.cpp ****     // Ako smo zapravo promenili nit, uradi switch
 165              		.loc 1 29 5 is_stmt 1
  29:src/Thread.cpp ****     // Ako smo zapravo promenili nit, uradi switch
 166              		.loc 1 29 31 is_stmt 0
 167 0104 97070000 		sd	zero,_ZN7_thread16timeSliceCounterE,a5
 167      23B00700 
  32:src/Thread.cpp **** }
 168              		.loc 1 32 5 is_stmt 1
  32:src/Thread.cpp **** }
 169              		.loc 1 32 18 is_stmt 0
 170 010c 93058502 		addi	a1,a0,40
 171 0110 13858402 		addi	a0,s1,40
 172 0114 97000000 		call	_ZN7_thread13switchContextEPNS_7ContextES1_
 172      E7800000 
 173              	.LVL11:
  33:src/Thread.cpp **** 
 174              		.loc 1 33 1
 175 011c 83308101 		ld	ra,24(sp)
 176              		.cfi_restore 1
 177 0120 03340101 		ld	s0,16(sp)
 178              		.cfi_restore 8
 179              		.cfi_def_cfa 2, 32
 180 0124 83348100 		ld	s1,8(sp)
 181              		.cfi_restore 9
 182              	.LVL12:
 183 0128 13010102 		addi	sp,sp,32
 184              		.cfi_def_cfa_offset 0
 185 012c 67800000 		jr	ra
 186              		.cfi_endproc
 187              	.LFE30:
 189              		.align	2
 190              		.globl	_ZN7_thread10time_sleepEm
 192              	_ZN7_thread10time_sleepEm:
 193              	.LFB31:
  36:src/Thread.cpp ****     if (n == 0)
 194              		.loc 1 36 1 is_stmt 1
 195              		.cfi_startproc
 196              	.LVL13:
  37:src/Thread.cpp ****         return;
 197              		.loc 1 37 5
 198 0130 63860508 		beq	a1,zero,.L17
  36:src/Thread.cpp ****     if (n == 0)
 199              		.loc 1 36 1 is_stmt 0
 200 0134 130101FF 		addi	sp,sp,-16
 201              		.cfi_def_cfa_offset 16
 202 0138 23341100 		sd	ra,8(sp)
 203 013c 23308100 		sd	s0,0(sp)
 204              		.cfi_offset 1, -8
GAS LISTING C:\msys64\tmp\ccOp687O.s 			page 8


 205              		.cfi_offset 8, -16
 206 0140 13040101 		addi	s0,sp,16
 207              		.cfi_def_cfa 8, 0
  40:src/Thread.cpp ****     _thread *prev = nullptr;
 208              		.loc 1 40 5 is_stmt 1
  40:src/Thread.cpp ****     _thread *prev = nullptr;
 209              		.loc 1 40 14 is_stmt 0
 210 0144 97070000 		ld	a5,_ZN7_thread12sleepingHeadE
 210      83B70700 
 211              	.LVL14:
  41:src/Thread.cpp **** 
 212              		.loc 1 41 5 is_stmt 1
  41:src/Thread.cpp **** 
 213              		.loc 1 41 14 is_stmt 0
 214 014c 93060000 		li	a3,0
 215              	.LVL15:
 216              	.L12:
  43:src/Thread.cpp ****     {
 217              		.loc 1 43 5 is_stmt 1
  43:src/Thread.cpp ****     {
 218              		.loc 1 43 17
 219 0150 638E0700 		beq	a5,zero,.L11
  43:src/Thread.cpp ****     {
 220              		.loc 1 43 31 is_stmt 0 discriminator 1
 221 0154 03B70705 		ld	a4,80(a5)
  43:src/Thread.cpp ****     {
 222              		.loc 1 43 17 discriminator 1
 223 0158 63EAE500 		bgtu	a4,a1,.L11
  45:src/Thread.cpp ****         prev = curr;
 224              		.loc 1 45 9 is_stmt 1
  45:src/Thread.cpp ****         prev = curr;
 225              		.loc 1 45 11 is_stmt 0
 226 015c B385E540 		sub	a1,a1,a4
 227              	.LVL16:
  46:src/Thread.cpp ****         curr = curr->waitnext;
 228              		.loc 1 46 9 is_stmt 1
  47:src/Thread.cpp ****     }
 229              		.loc 1 47 9
  46:src/Thread.cpp ****         curr = curr->waitnext;
 230              		.loc 1 46 14 is_stmt 0
 231 0160 93860700 		mv	a3,a5
  47:src/Thread.cpp ****     }
 232              		.loc 1 47 14
 233 0164 83B78700 		ld	a5,8(a5)
 234              	.LVL17:
  43:src/Thread.cpp ****     {
 235              		.loc 1 43 5
 236 0168 6FF09FFE 		j	.L12
 237              	.L11:
  50:src/Thread.cpp ****     _thread::running->waitnext = curr;
 238              		.loc 1 50 5 is_stmt 1
  50:src/Thread.cpp ****     _thread::running->waitnext = curr;
 239              		.loc 1 50 23 is_stmt 0
 240 016c 17070000 		ld	a4,_ZN7_thread7runningE
 240      03370700 
  50:src/Thread.cpp ****     _thread::running->waitnext = curr;
 241              		.loc 1 50 36
GAS LISTING C:\msys64\tmp\ccOp687O.s 			page 9


 242 0174 2338B704 		sd	a1,80(a4)
  51:src/Thread.cpp **** 
 243              		.loc 1 51 5 is_stmt 1
  51:src/Thread.cpp **** 
 244              		.loc 1 51 32 is_stmt 0
 245 0178 2334F700 		sd	a5,8(a4)
  53:src/Thread.cpp ****     {
 246              		.loc 1 53 5 is_stmt 1
 247 017c 638A0602 		beq	a3,zero,.L20
  59:src/Thread.cpp ****     }
 248              		.loc 1 59 9
  59:src/Thread.cpp ****     }
 249              		.loc 1 59 24 is_stmt 0
 250 0180 23B4E600 		sd	a4,8(a3)
 251              	.LVL18:
 252              	.L14:
  62:src/Thread.cpp ****     {
 253              		.loc 1 62 5 is_stmt 1
 254 0184 63880700 		beq	a5,zero,.L15
  64:src/Thread.cpp ****     }
 255              		.loc 1 64 9
  64:src/Thread.cpp ****     }
 256              		.loc 1 64 28 is_stmt 0
 257 0188 83B60705 		ld	a3,80(a5)
 258 018c B385B640 		sub	a1,a3,a1
 259              	.LVL19:
 260 0190 23B8B704 		sd	a1,80(a5)
 261              	.L15:
  67:src/Thread.cpp ****     _thread::dispatch();
 262              		.loc 1 67 5 is_stmt 1
  67:src/Thread.cpp ****     _thread::dispatch();
 263              		.loc 1 67 31 is_stmt 0
 264 0194 23000704 		sb	zero,64(a4)
  68:src/Thread.cpp **** }
 265              		.loc 1 68 5 is_stmt 1
  68:src/Thread.cpp **** }
 266              		.loc 1 68 22 is_stmt 0
 267 0198 97000000 		call	_ZN7_thread8dispatchEv
 267      E7800000 
 268              	.LVL20:
  69:src/Thread.cpp **** 
 269              		.loc 1 69 1
 270 01a0 83308100 		ld	ra,8(sp)
 271              		.cfi_remember_state
 272              		.cfi_restore 1
 273 01a4 03340100 		ld	s0,0(sp)
 274              		.cfi_restore 8
 275              		.cfi_def_cfa 2, 16
 276 01a8 13010101 		addi	sp,sp,16
 277              		.cfi_def_cfa_offset 0
 278 01ac 67800000 		jr	ra
 279              	.LVL21:
 280              	.L20:
 281              		.cfi_restore_state
  55:src/Thread.cpp ****     }
 282              		.loc 1 55 9 is_stmt 1
  55:src/Thread.cpp ****     }
GAS LISTING C:\msys64\tmp\ccOp687O.s 			page 10


 283              		.loc 1 55 22 is_stmt 0
 284 01b0 97060000 		sd	a4,_ZN7_thread12sleepingHeadE,a3
 284      23B0E600 
 285              	.LVL22:
 286 01b8 6FF0DFFC 		j	.L14
 287              	.LVL23:
 288              	.L17:
 289              		.cfi_def_cfa_register 2
 290              		.cfi_restore 1
 291              		.cfi_restore 8
 292 01bc 67800000 		ret
 293              		.cfi_endproc
 294              	.LFE31:
 296              		.align	2
 297              		.globl	_ZN7_threadC2EPFvPvES0_S0_m
 299              	_ZN7_threadC2EPFvPvES0_S0_m:
 300              	.LFB33:
  71:src/Thread.cpp ****                                                                           timeSlice(time), isReady(
 301              		.loc 1 71 1 is_stmt 1
 302              		.cfi_startproc
 303              	.LVL24:
 304 01c0 130101FF 		addi	sp,sp,-16
 305              		.cfi_def_cfa_offset 16
 306 01c4 23348100 		sd	s0,8(sp)
 307              		.cfi_offset 8, -8
 308 01c8 13040101 		addi	s0,sp,16
 309              		.cfi_def_cfa 8, 0
 310              	.LBB31:
  72:src/Thread.cpp **** {
 311              		.loc 1 72 152 is_stmt 0
 312 01cc 23300500 		sd	zero,0(a0)
 313 01d0 23340500 		sd	zero,8(a0)
 314 01d4 2338B500 		sd	a1,16(a0)
 315 01d8 233CC500 		sd	a2,24(a0)
 316 01dc 2330D502 		sd	a3,32(a0)
 317 01e0 233CE502 		sd	a4,56(a0)
 318 01e4 93071000 		li	a5,1
 319 01e8 2300F504 		sb	a5,64(a0)
 320 01ec A3000504 		sb	zero,65(a0)
 321 01f0 23220504 		sw	zero,68(a0)
 322 01f4 23380504 		sd	zero,80(a0)
  74:src/Thread.cpp ****     {
 323              		.loc 1 74 5 is_stmt 1
 324 01f8 63860502 		beq	a1,zero,.L22
  76:src/Thread.cpp ****         context.sp = ((uint64)stack_space + DEFAULT_STACK_SIZE) & ~0xFUL;
 325              		.loc 1 76 9
  76:src/Thread.cpp ****         context.sp = ((uint64)stack_space + DEFAULT_STACK_SIZE) & ~0xFUL;
 326              		.loc 1 76 20 is_stmt 0
 327 01fc 97070000 		lla	a5,_ZN7_thread13threadWrapperEv
 327      93870700 
 328 0204 2334F502 		sd	a5,40(a0)
  77:src/Thread.cpp ****     }
 329              		.loc 1 77 9 is_stmt 1
  77:src/Thread.cpp ****     }
 330              		.loc 1 77 43 is_stmt 0
 331 0208 B7170000 		li	a5,4096
 332 020c B386F600 		add	a3,a3,a5
GAS LISTING C:\msys64\tmp\ccOp687O.s 			page 11


 333              	.LVL25:
  77:src/Thread.cpp ****     }
 334              		.loc 1 77 65
 335 0210 93F606FF 		andi	a3,a3,-16
  77:src/Thread.cpp ****     }
 336              		.loc 1 77 20
 337 0214 2338D502 		sd	a3,48(a0)
 338              	.L21:
 339              	.LBE31:
  84:src/Thread.cpp **** 
 340              		.loc 1 84 1
 341 0218 03348100 		ld	s0,8(sp)
 342              		.cfi_remember_state
 343              		.cfi_restore 8
 344              		.cfi_def_cfa 2, 16
 345 021c 13010101 		addi	sp,sp,16
 346              		.cfi_def_cfa_offset 0
 347 0220 67800000 		jr	ra
 348              	.LVL26:
 349              	.L22:
 350              		.cfi_restore_state
 351              	.LBB32:
  81:src/Thread.cpp ****         context.sp = 0;
 352              		.loc 1 81 9 is_stmt 1
  81:src/Thread.cpp ****         context.sp = 0;
 353              		.loc 1 81 20 is_stmt 0
 354 0224 23340502 		sd	zero,40(a0)
  82:src/Thread.cpp ****     }
 355              		.loc 1 82 9 is_stmt 1
  82:src/Thread.cpp ****     }
 356              		.loc 1 82 20 is_stmt 0
 357 0228 23380502 		sd	zero,48(a0)
 358              	.LBE32:
  84:src/Thread.cpp **** 
 359              		.loc 1 84 1
 360 022c 6FF0DFFE 		j	.L21
 361              		.cfi_endproc
 362              	.LFE33:
 364              		.globl	_ZN7_threadC1EPFvPvES0_S0_m
 365              		.set	_ZN7_threadC1EPFvPvES0_S0_m,_ZN7_threadC2EPFvPvES0_S0_m
 366              		.align	2
 367              		.globl	_ZN7_thread12createThreadEPFvPvES0_S0_
 369              	_ZN7_thread12createThreadEPFvPvES0_S0_:
 370              	.LFB29:
  14:src/Thread.cpp ****     return new _thread(body, args, stack, DEFAULT_TIME_SLICE);
 371              		.loc 1 14 1 is_stmt 1
 372              		.cfi_startproc
 373              	.LVL27:
 374 0230 130101FD 		addi	sp,sp,-48
 375              		.cfi_def_cfa_offset 48
 376 0234 23341102 		sd	ra,40(sp)
 377 0238 23308102 		sd	s0,32(sp)
 378 023c 233C9100 		sd	s1,24(sp)
 379 0240 23382101 		sd	s2,16(sp)
 380 0244 23343101 		sd	s3,8(sp)
 381 0248 23304101 		sd	s4,0(sp)
 382              		.cfi_offset 1, -8
GAS LISTING C:\msys64\tmp\ccOp687O.s 			page 12


 383              		.cfi_offset 8, -16
 384              		.cfi_offset 9, -24
 385              		.cfi_offset 18, -32
 386              		.cfi_offset 19, -40
 387              		.cfi_offset 20, -48
 388 024c 13040103 		addi	s0,sp,48
 389              		.cfi_def_cfa 8, 0
 390 0250 13090500 		mv	s2,a0
 391 0254 93890500 		mv	s3,a1
 392 0258 130A0600 		mv	s4,a2
  15:src/Thread.cpp **** }
 393              		.loc 1 15 5
 394              	.LVL28:
 395              	.LBB33:
 396              	.LBB34:
  14:src/../h/Thread.h **** 		return ptr;
 397              		.loc 2 14 3
  14:src/../h/Thread.h **** 		return ptr;
 398              		.loc 2 14 39 is_stmt 0
 399 025c 13058005 		li	a0,88
 400              	.LVL29:
 401 0260 97000000 		call	_ZN15MemoryAllocator7kmallocEm
 401      E7800000 
 402              	.LVL30:
 403 0268 93040500 		mv	s1,a0
 404              	.LVL31:
  15:src/../h/Thread.h **** 	}
 405              		.loc 2 15 3 is_stmt 1
 406              	.LBE34:
 407              	.LBE33:
  15:src/Thread.cpp **** }
 408              		.loc 1 15 61 is_stmt 0
 409 026c 13072000 		li	a4,2
 410 0270 93060A00 		mv	a3,s4
 411 0274 13860900 		mv	a2,s3
 412 0278 93050900 		mv	a1,s2
 413 027c 97000000 		call	_ZN7_threadC1EPFvPvES0_S0_m
 413      E7800000 
 414              	.LVL32:
  16:src/Thread.cpp **** 
 415              		.loc 1 16 1
 416 0284 13850400 		mv	a0,s1
 417 0288 83308102 		ld	ra,40(sp)
 418              		.cfi_restore 1
 419 028c 03340102 		ld	s0,32(sp)
 420              		.cfi_restore 8
 421              		.cfi_def_cfa 2, 48
 422 0290 83348101 		ld	s1,24(sp)
 423              		.cfi_restore 9
 424              	.LVL33:
 425 0294 03390101 		ld	s2,16(sp)
 426              		.cfi_restore 18
 427              	.LVL34:
 428 0298 83398100 		ld	s3,8(sp)
 429              		.cfi_restore 19
 430              	.LVL35:
 431 029c 033A0100 		ld	s4,0(sp)
GAS LISTING C:\msys64\tmp\ccOp687O.s 			page 13


 432              		.cfi_restore 20
 433              	.LVL36:
 434 02a0 13010103 		addi	sp,sp,48
 435              		.cfi_def_cfa_offset 0
 436 02a4 67800000 		jr	ra
 437              		.cfi_endproc
 438              	.LFE29:
 440              		.globl	_ZN7_thread12sleepingHeadE
 441              		.globl	_ZN7_thread16timeSliceCounterE
 442              		.globl	_ZN7_thread7runningE
 443              		.weak	_ZGVZN9Scheduler8instanceEvE8instance
 444              		.section	.sbss._ZGVZN9Scheduler8instanceEvE8instance,"awG",@nobits,_ZGVZN9Scheduler8instanceEvE8in
 445              		.align	3
 448              	_ZGVZN9Scheduler8instanceEvE8instance:
 449 0000 00000000 		.zero	8
 449      00000000 
 450              		.weak	_ZZN9Scheduler8instanceEvE8instance
 451              		.section	.bss._ZZN9Scheduler8instanceEvE8instance,"awG",@nobits,_ZZN9Scheduler8instanceEvE8instanc
 452              		.align	3
 455              	_ZZN9Scheduler8instanceEvE8instance:
 456 0000 00000000 		.zero	16
 456      00000000 
 456      00000000 
 456      00000000 
 457              		.section	.sbss,"aw",@nobits
 458              		.align	3
 461              	_ZN7_thread12sleepingHeadE:
 462 0000 00000000 		.zero	8
 462      00000000 
 465              	_ZN7_thread16timeSliceCounterE:
 466 0008 00000000 		.zero	8
 466      00000000 
 469              	_ZN7_thread7runningE:
 470 0010 00000000 		.zero	8
 470      00000000 
 471              		.text
 472              	.Letext0:
 473              		.file 4 "src/../h/../lib/hw.h"
 474              		.file 5 "src/../h/MemoryAllocator.h"
 475              		.file 6 "src/../h/riscv.h"
 476              		.file 7 "src/../h/syscall_c.h"
GAS LISTING C:\msys64\tmp\ccOp687O.s 			page 14

