GAS LISTING C:\msys64\tmp\ccpzF9Dh.s 			page 1


   1              		.file	"Thread.cpp"
   2              		.option nopic
   3              		.option norelax
   4              		.attribute arch, "rv64i2p0_m2p0_a2p0"
   5              		.attribute unaligned_access, 0
   6              		.attribute stack_align, 16
   7              		.text
   8              	.Ltext0:
   9              		.align	2
  10              		.globl	_ZN7_thread13threadWrapperEv
  12              	_ZN7_thread13threadWrapperEv:
  13              	.LFB35:
  14              		.file 1 "src/Thread.cpp"
   1:src/Thread.cpp **** #include "../h/Thread.h"
   2:src/Thread.cpp **** 
   3:src/Thread.cpp **** 
   4:src/Thread.cpp **** 
   5:src/Thread.cpp **** #include "../h/riscv.h"
   6:src/Thread.cpp **** #include "../h/Scheduler.h"
   7:src/Thread.cpp **** #include "../h/syscall_c.hpp"
   8:src/Thread.cpp **** 
   9:src/Thread.cpp **** _thread* _thread::running = nullptr;
  10:src/Thread.cpp **** 
  11:src/Thread.cpp **** uint64 _thread::timeSliceCounter = 0;
  12:src/Thread.cpp **** 
  13:src/Thread.cpp **** _thread* _thread::sleepingHead = nullptr;
  14:src/Thread.cpp **** 
  15:src/Thread.cpp **** _thread* _thread::createThread(Body body, void* args, void* stack) {
  16:src/Thread.cpp ****     return new _thread(body, args, stack, DEFAULT_TIME_SLICE);
  17:src/Thread.cpp **** }
  18:src/Thread.cpp **** 
  19:src/Thread.cpp **** 
  20:src/Thread.cpp **** void _thread::dispatch() {
  21:src/Thread.cpp ****     _thread* old = running;
  22:src/Thread.cpp **** 
  23:src/Thread.cpp ****     // Ako nije gotova, vrati je u Scheduler
  24:src/Thread.cpp ****     if (old && !old->finished && old ->isReady) {
  25:src/Thread.cpp ****         Scheduler::instance().put(old);
  26:src/Thread.cpp ****     }
  27:src/Thread.cpp **** 
  28:src/Thread.cpp ****     // Uzmi sledeću
  29:src/Thread.cpp ****     running = Scheduler::instance().get();
  30:src/Thread.cpp **** 
  31:src/Thread.cpp ****     // Ako smo zapravo promenili nit, uradi switch
  32:src/Thread.cpp ****     if (old != running) {
  33:src/Thread.cpp ****         switchContext(&old->context, &running->context);
  34:src/Thread.cpp ****     }
  35:src/Thread.cpp **** }
  36:src/Thread.cpp **** 
  37:src/Thread.cpp **** 
  38:src/Thread.cpp **** void _thread::time_sleep(time_t n) {
  39:src/Thread.cpp ****     if (n == 0) return;
  40:src/Thread.cpp **** 
  41:src/Thread.cpp ****     _thread* curr = sleepingHead;
  42:src/Thread.cpp ****     _thread* prev = nullptr;
  43:src/Thread.cpp **** 
  44:src/Thread.cpp ****     while (curr && n >= curr->timeSleeping) {
GAS LISTING C:\msys64\tmp\ccpzF9Dh.s 			page 2


  45:src/Thread.cpp ****         n -= curr->timeSleeping;
  46:src/Thread.cpp ****         prev = curr;
  47:src/Thread.cpp ****         curr = curr->waitnext;
  48:src/Thread.cpp ****     }
  49:src/Thread.cpp **** 
  50:src/Thread.cpp ****     _thread::running->timeSleeping = n;
  51:src/Thread.cpp ****     _thread::running->waitnext = curr;
  52:src/Thread.cpp **** 
  53:src/Thread.cpp ****     if (!prev) {
  54:src/Thread.cpp ****         sleepingHead = _thread::running;
  55:src/Thread.cpp ****     } else {
  56:src/Thread.cpp ****         prev->waitnext = _thread::running;
  57:src/Thread.cpp ****     }
  58:src/Thread.cpp **** 
  59:src/Thread.cpp ****     if (curr) {
  60:src/Thread.cpp ****         curr->timeSleeping -= n;
  61:src/Thread.cpp ****     }
  62:src/Thread.cpp **** 
  63:src/Thread.cpp ****     _thread::running->isReady = false;
  64:src/Thread.cpp ****     _thread::dispatch();
  65:src/Thread.cpp **** }
  66:src/Thread.cpp **** 
  67:src/Thread.cpp **** _thread::_thread(Body body, void* args, void* stack_space ,uint64 time): next(nullptr), waitnext(nu
  68:src/Thread.cpp ****                                                                        timeSlice(time), isReady(tru
  69:src/Thread.cpp ****     if (body != nullptr) {
  70:src/Thread.cpp ****         context.ra = (uint64)&threadWrapper;
  71:src/Thread.cpp ****         context.sp = ((uint64)stack_space + DEFAULT_STACK_SIZE) & ~0xFUL;
  72:src/Thread.cpp ****     } else {
  73:src/Thread.cpp ****         context.ra = 0;
  74:src/Thread.cpp ****         context.sp = 0;
  75:src/Thread.cpp ****     }
  76:src/Thread.cpp **** }
  77:src/Thread.cpp **** 
  78:src/Thread.cpp **** void _thread::threadWrapper(){
  15              		.loc 1 78 30
  16              		.cfi_startproc
  17 0000 130101FF 		addi	sp,sp,-16
  18              		.cfi_def_cfa_offset 16
  19 0004 23341100 		sd	ra,8(sp)
  20 0008 23308100 		sd	s0,0(sp)
  21              		.cfi_offset 1, -8
  22              		.cfi_offset 8, -16
  23 000c 13040101 		addi	s0,sp,16
  24              		.cfi_def_cfa 8, 0
  79:src/Thread.cpp **** 
  80:src/Thread.cpp **** Riscv::popSppSpie();
  25              		.loc 1 80 1
  26              		.loc 1 80 18 is_stmt 0
  27 0010 97000000 		call	_ZN5Riscv10popSppSpieEv
  27      E7800000 
  28              	.LVL0:
  81:src/Thread.cpp **** if (running->body)running -> body(running->args);
  29              		.loc 1 81 1 is_stmt 1
  30              		.loc 1 81 14 is_stmt 0
  31 0018 17070000 		ld	a4,_ZN7_thread7runningE
  31      03370700 
  32 0020 83370701 		ld	a5,16(a4)
GAS LISTING C:\msys64\tmp\ccpzF9Dh.s 			page 3


  33              		.loc 1 81 1
  34 0024 63860700 		beq	a5,zero,.L2
  35              		.loc 1 81 19 is_stmt 1 discriminator 1
  36              		.loc 1 81 34 is_stmt 0 discriminator 1
  37 0028 03358701 		ld	a0,24(a4)
  38 002c E7800700 		jalr	a5
  39              	.LVL1:
  40              	.L2:
  82:src/Thread.cpp **** 
  83:src/Thread.cpp **** running -> setFinished(true);
  41              		.loc 1 83 1 is_stmt 1
  42              	.LBB19:
  43              	.LBB20:
  44              		.file 2 "src/../h/Thread.h"
   1:src/../h/Thread.h ****  #ifndef PROJEKAT_THREAD_H
   2:src/../h/Thread.h **** #define PROJEKAT_THREAD_H
   3:src/../h/Thread.h **** 
   4:src/../h/Thread.h **** #include "../lib/hw.h"
   5:src/../h/Thread.h **** #include "MemoryAllocator.h"
   6:src/../h/Thread.h **** #include "Scheduler.h"
   7:src/../h/Thread.h **** 
   8:src/../h/Thread.h **** typedef unsigned long time_t;
   9:src/../h/Thread.h **** class _thread {
  10:src/../h/Thread.h **** public:
  11:src/../h/Thread.h **** 
  12:src/../h/Thread.h **** 	void* operator new(size_t size){
  13:src/../h/Thread.h **** 		void* ptr = MemoryAllocator::kmalloc(size);
  14:src/../h/Thread.h **** 		return ptr;
  15:src/../h/Thread.h **** 	}
  16:src/../h/Thread.h ****     ~_thread() {delete stack;};
  17:src/../h/Thread.h ****     using Body = void (*)(void*);
  18:src/../h/Thread.h **** 
  19:src/../h/Thread.h ****     static _thread* createThread(Body body, void* args, void* stack);
  20:src/../h/Thread.h ****     
  21:src/../h/Thread.h ****     static _thread* running;
  22:src/../h/Thread.h **** 
  23:src/../h/Thread.h **** 
  24:src/../h/Thread.h **** 
  25:src/../h/Thread.h ****     static void dispatch();
  26:src/../h/Thread.h **** 
  27:src/../h/Thread.h ****     bool isFinished(){return finished;};
  28:src/../h/Thread.h **** 	
  29:src/../h/Thread.h **** 	uint64 getTimeSlice() const {
  30:src/../h/Thread.h **** 		return timeSlice;
  31:src/../h/Thread.h **** 	}
  32:src/../h/Thread.h ****     void setFinished(bool finished){_thread::finished = finished;};
  45              		.loc 2 32 37
  46              		.loc 2 32 55 is_stmt 0
  47 0030 97070000 		ld	a5,_ZN7_thread7runningE
  47      83B70700 
  48 0038 13071000 		li	a4,1
  49 003c A380E704 		sb	a4,65(a5)
  50              	.LVL2:
  51              	.LBE20:
  52              	.LBE19:
  84:src/Thread.cpp **** 
  85:src/Thread.cpp **** thread_dispatch();
GAS LISTING C:\msys64\tmp\ccpzF9Dh.s 			page 4


  53              		.loc 1 85 1 is_stmt 1
  54              		.loc 1 85 16 is_stmt 0
  55 0040 97000000 		call	_Z15thread_dispatchv
  55      E7800000 
  56              	.LVL3:
  86:src/Thread.cpp **** }
  57              		.loc 1 86 1
  58 0048 83308100 		ld	ra,8(sp)
  59              		.cfi_restore 1
  60 004c 03340100 		ld	s0,0(sp)
  61              		.cfi_restore 8
  62              		.cfi_def_cfa 2, 16
  63 0050 13010101 		addi	sp,sp,16
  64              		.cfi_def_cfa_offset 0
  65 0054 67800000 		jr	ra
  66              		.cfi_endproc
  67              	.LFE35:
  69              		.align	2
  70              		.globl	_ZN7_thread8dispatchEv
  72              	_ZN7_thread8dispatchEv:
  73              	.LFB30:
  20:src/Thread.cpp ****     _thread* old = running;
  74              		.loc 1 20 26 is_stmt 1
  75              		.cfi_startproc
  76 0058 130101FE 		addi	sp,sp,-32
  77              		.cfi_def_cfa_offset 32
  78 005c 233C1100 		sd	ra,24(sp)
  79 0060 23388100 		sd	s0,16(sp)
  80 0064 23349100 		sd	s1,8(sp)
  81              		.cfi_offset 1, -8
  82              		.cfi_offset 8, -16
  83              		.cfi_offset 9, -24
  84 0068 13040102 		addi	s0,sp,32
  85              		.cfi_def_cfa 8, 0
  21:src/Thread.cpp **** 
  86              		.loc 1 21 5
  21:src/Thread.cpp **** 
  87              		.loc 1 21 14 is_stmt 0
  88 006c 97040000 		ld	s1,_ZN7_thread7runningE
  88      83B40400 
  89              	.LVL4:
  24:src/Thread.cpp ****         Scheduler::instance().put(old);
  90              		.loc 1 24 5 is_stmt 1
  91 0074 63880404 		beq	s1,zero,.L5
  24:src/Thread.cpp ****         Scheduler::instance().put(old);
  92              		.loc 1 24 22 is_stmt 0 discriminator 1
  93 0078 83C71404 		lbu	a5,65(s1)
  24:src/Thread.cpp ****         Scheduler::instance().put(old);
  94              		.loc 1 24 13 discriminator 1
  95 007c 63940704 		bne	a5,zero,.L5
  24:src/Thread.cpp ****         Scheduler::instance().put(old);
  96              		.loc 1 24 40 discriminator 2
  97 0080 83C70404 		lbu	a5,64(s1)
  24:src/Thread.cpp ****         Scheduler::instance().put(old);
  98              		.loc 1 24 31 discriminator 2
  99 0084 63800704 		beq	a5,zero,.L5
  25:src/Thread.cpp ****     }
GAS LISTING C:\msys64\tmp\ccpzF9Dh.s 			page 5


 100              		.loc 1 25 9 is_stmt 1
 101              	.LBB21:
 102              	.LBB22:
 103              		.file 3 "src/../h/Scheduler.h"
   1:src/../h/Scheduler.h **** //
   2:src/../h/Scheduler.h **** // Created by os on 4/1/26.
   3:src/../h/Scheduler.h **** //
   4:src/../h/Scheduler.h **** 
   5:src/../h/Scheduler.h **** #ifndef PROJEKAT_SCHEDULER_H
   6:src/../h/Scheduler.h **** #define PROJEKAT_SCHEDULER_H
   7:src/../h/Scheduler.h **** 
   8:src/../h/Scheduler.h **** class _thread;
   9:src/../h/Scheduler.h **** 
  10:src/../h/Scheduler.h **** class Scheduler {
  11:src/../h/Scheduler.h **** public:
  12:src/../h/Scheduler.h ****     static Scheduler& instance(){static Scheduler instance; return instance;}
 104              		.loc 3 12 34
 105              		.loc 3 12 51 is_stmt 0
 106 0088 97070000 		lbu	a5,_ZGVZN9Scheduler8instanceEvE8instance
 106      83C70700 
 107 0090 63900702 		bne	a5,zero,.L6
 108              	.LVL5:
 109              	.LBB23:
 110              	.LBB24:
 111              	.LBB25:
  13:src/../h/Scheduler.h **** 
  14:src/../h/Scheduler.h ****     Scheduler(const Scheduler&) = delete;
  15:src/../h/Scheduler.h ****     Scheduler& operator=(const Scheduler&) = delete;
  16:src/../h/Scheduler.h **** 
  17:src/../h/Scheduler.h **** 
  18:src/../h/Scheduler.h ****     void put(_thread* t);
  19:src/../h/Scheduler.h **** 
  20:src/../h/Scheduler.h ****     _thread* get();
  21:src/../h/Scheduler.h **** private:
  22:src/../h/Scheduler.h ****     Scheduler():head(nullptr), tail(nullptr){};
 112              		.loc 3 22 44
 113 0094 97070000 		lla	a5,_ZZN9Scheduler8instanceEvE8instance
 113      93870700 
 114 009c 23B00700 		sd	zero,0(a5)
 115 00a0 23B40700 		sd	zero,8(a5)
 116              	.LVL6:
 117              	.LBE25:
 118              	.LBE24:
 119              	.LBE23:
  12:src/../h/Scheduler.h **** 
 120              		.loc 3 12 51
 121 00a4 93071000 		li	a5,1
 122 00a8 17070000 		sb	a5,_ZGVZN9Scheduler8instanceEvE8instance,a4
 122      2300F700 
 123              	.L6:
  12:src/../h/Scheduler.h **** 
 124              		.loc 3 12 61 is_stmt 1
 125              	.LBE22:
 126              	.LBE21:
  25:src/Thread.cpp ****     }
 127              		.loc 1 25 34 is_stmt 0
 128 00b0 93850400 		mv	a1,s1
GAS LISTING C:\msys64\tmp\ccpzF9Dh.s 			page 6


 129 00b4 17050000 		lla	a0,_ZZN9Scheduler8instanceEvE8instance
 129      13050500 
 130 00bc 97000000 		call	_ZN9Scheduler3putEP7_thread
 130      E7800000 
 131              	.LVL7:
 132              	.L5:
  29:src/Thread.cpp **** 
 133              		.loc 1 29 5 is_stmt 1
 134              	.LBB26:
 135              	.LBB27:
  12:src/../h/Scheduler.h **** 
 136              		.loc 3 12 34
  12:src/../h/Scheduler.h **** 
 137              		.loc 3 12 51 is_stmt 0
 138 00c4 97070000 		lbu	a5,_ZGVZN9Scheduler8instanceEvE8instance
 138      83C70700 
 139 00cc 63900702 		bne	a5,zero,.L7
 140              	.LVL8:
 141              	.LBB28:
 142              	.LBB29:
 143              	.LBB30:
 144              		.loc 3 22 44
 145 00d0 97070000 		lla	a5,_ZZN9Scheduler8instanceEvE8instance
 145      93870700 
 146 00d8 23B00700 		sd	zero,0(a5)
 147 00dc 23B40700 		sd	zero,8(a5)
 148              	.LVL9:
 149              	.LBE30:
 150              	.LBE29:
 151              	.LBE28:
  12:src/../h/Scheduler.h **** 
 152              		.loc 3 12 51
 153 00e0 93071000 		li	a5,1
 154 00e4 17070000 		sb	a5,_ZGVZN9Scheduler8instanceEvE8instance,a4
 154      2300F700 
 155              	.L7:
  12:src/../h/Scheduler.h **** 
 156              		.loc 3 12 61 is_stmt 1
 157              	.LBE27:
 158              	.LBE26:
  29:src/Thread.cpp **** 
 159              		.loc 1 29 40 is_stmt 0
 160 00ec 17050000 		lla	a0,_ZZN9Scheduler8instanceEvE8instance
 160      13050500 
 161 00f4 97000000 		call	_ZN9Scheduler3getEv
 161      E7800000 
 162              	.LVL10:
  29:src/Thread.cpp **** 
 163              		.loc 1 29 13
 164 00fc 97070000 		sd	a0,_ZN7_thread7runningE,a5
 164      23B0A700 
  32:src/Thread.cpp ****         switchContext(&old->context, &running->context);
 165              		.loc 1 32 5 is_stmt 1
 166 0104 638AA400 		beq	s1,a0,.L4
  33:src/Thread.cpp ****     }
 167              		.loc 1 33 9
  33:src/Thread.cpp ****     }
GAS LISTING C:\msys64\tmp\ccpzF9Dh.s 			page 7


 168              		.loc 1 33 22 is_stmt 0
 169 0108 93058502 		addi	a1,a0,40
 170 010c 13858402 		addi	a0,s1,40
 171 0110 97000000 		call	_ZN7_thread13switchContextEPNS_7ContextES1_
 171      E7800000 
 172              	.LVL11:
 173              	.L4:
  35:src/Thread.cpp **** 
 174              		.loc 1 35 1
 175 0118 83308101 		ld	ra,24(sp)
 176              		.cfi_restore 1
 177 011c 03340101 		ld	s0,16(sp)
 178              		.cfi_restore 8
 179              		.cfi_def_cfa 2, 32
 180 0120 83348100 		ld	s1,8(sp)
 181              		.cfi_restore 9
 182              	.LVL12:
 183 0124 13010102 		addi	sp,sp,32
 184              		.cfi_def_cfa_offset 0
 185 0128 67800000 		jr	ra
 186              		.cfi_endproc
 187              	.LFE30:
 189              		.align	2
 190              		.globl	_ZN7_thread10time_sleepEm
 192              	_ZN7_thread10time_sleepEm:
 193              	.LFB31:
  38:src/Thread.cpp ****     if (n == 0) return;
 194              		.loc 1 38 36 is_stmt 1
 195              		.cfi_startproc
 196              	.LVL13:
  39:src/Thread.cpp **** 
 197              		.loc 1 39 5
 198 012c 63860508 		beq	a1,zero,.L18
  38:src/Thread.cpp ****     if (n == 0) return;
 199              		.loc 1 38 36 is_stmt 0
 200 0130 130101FF 		addi	sp,sp,-16
 201              		.cfi_def_cfa_offset 16
 202 0134 23341100 		sd	ra,8(sp)
 203 0138 23308100 		sd	s0,0(sp)
 204              		.cfi_offset 1, -8
 205              		.cfi_offset 8, -16
 206 013c 13040101 		addi	s0,sp,16
 207              		.cfi_def_cfa 8, 0
  41:src/Thread.cpp ****     _thread* prev = nullptr;
 208              		.loc 1 41 5 is_stmt 1
  41:src/Thread.cpp ****     _thread* prev = nullptr;
 209              		.loc 1 41 14 is_stmt 0
 210 0140 97070000 		ld	a5,_ZN7_thread12sleepingHeadE
 210      83B70700 
 211              	.LVL14:
  42:src/Thread.cpp **** 
 212              		.loc 1 42 5 is_stmt 1
  42:src/Thread.cpp **** 
 213              		.loc 1 42 14 is_stmt 0
 214 0148 93060000 		li	a3,0
 215              	.LVL15:
 216              	.L13:
GAS LISTING C:\msys64\tmp\ccpzF9Dh.s 			page 8


  44:src/Thread.cpp ****         n -= curr->timeSleeping;
 217              		.loc 1 44 5 is_stmt 1
  44:src/Thread.cpp ****         n -= curr->timeSleeping;
 218              		.loc 1 44 17
 219 014c 638E0700 		beq	a5,zero,.L12
  44:src/Thread.cpp ****         n -= curr->timeSleeping;
 220              		.loc 1 44 31 is_stmt 0 discriminator 1
 221 0150 03B78704 		ld	a4,72(a5)
  44:src/Thread.cpp ****         n -= curr->timeSleeping;
 222              		.loc 1 44 17 discriminator 1
 223 0154 63EAE500 		bgtu	a4,a1,.L12
  45:src/Thread.cpp ****         prev = curr;
 224              		.loc 1 45 9 is_stmt 1
  45:src/Thread.cpp ****         prev = curr;
 225              		.loc 1 45 11 is_stmt 0
 226 0158 B385E540 		sub	a1,a1,a4
 227              	.LVL16:
  46:src/Thread.cpp ****         curr = curr->waitnext;
 228              		.loc 1 46 9 is_stmt 1
  47:src/Thread.cpp ****     }
 229              		.loc 1 47 9
  46:src/Thread.cpp ****         curr = curr->waitnext;
 230              		.loc 1 46 14 is_stmt 0
 231 015c 93860700 		mv	a3,a5
  47:src/Thread.cpp ****     }
 232              		.loc 1 47 14
 233 0160 83B78700 		ld	a5,8(a5)
 234              	.LVL17:
  44:src/Thread.cpp ****         n -= curr->timeSleeping;
 235              		.loc 1 44 5
 236 0164 6FF09FFE 		j	.L13
 237              	.L12:
  50:src/Thread.cpp ****     _thread::running->waitnext = curr;
 238              		.loc 1 50 5 is_stmt 1
  50:src/Thread.cpp ****     _thread::running->waitnext = curr;
 239              		.loc 1 50 23 is_stmt 0
 240 0168 17070000 		ld	a4,_ZN7_thread7runningE
 240      03370700 
  50:src/Thread.cpp ****     _thread::running->waitnext = curr;
 241              		.loc 1 50 36
 242 0170 2334B704 		sd	a1,72(a4)
  51:src/Thread.cpp **** 
 243              		.loc 1 51 5 is_stmt 1
  51:src/Thread.cpp **** 
 244              		.loc 1 51 32 is_stmt 0
 245 0174 2334F700 		sd	a5,8(a4)
  53:src/Thread.cpp ****         sleepingHead = _thread::running;
 246              		.loc 1 53 5 is_stmt 1
 247 0178 638A0602 		beq	a3,zero,.L21
  56:src/Thread.cpp ****     }
 248              		.loc 1 56 9
  56:src/Thread.cpp ****     }
 249              		.loc 1 56 24 is_stmt 0
 250 017c 23B4E600 		sd	a4,8(a3)
 251              	.LVL18:
 252              	.L15:
  59:src/Thread.cpp ****         curr->timeSleeping -= n;
GAS LISTING C:\msys64\tmp\ccpzF9Dh.s 			page 9


 253              		.loc 1 59 5 is_stmt 1
 254 0180 63880700 		beq	a5,zero,.L16
  60:src/Thread.cpp ****     }
 255              		.loc 1 60 9
  60:src/Thread.cpp ****     }
 256              		.loc 1 60 28 is_stmt 0
 257 0184 83B68704 		ld	a3,72(a5)
 258 0188 B385B640 		sub	a1,a3,a1
 259              	.LVL19:
 260 018c 23B4B704 		sd	a1,72(a5)
 261              	.L16:
  63:src/Thread.cpp ****     _thread::dispatch();
 262              		.loc 1 63 5 is_stmt 1
  63:src/Thread.cpp ****     _thread::dispatch();
 263              		.loc 1 63 31 is_stmt 0
 264 0190 23000704 		sb	zero,64(a4)
  64:src/Thread.cpp **** }
 265              		.loc 1 64 5 is_stmt 1
  64:src/Thread.cpp **** }
 266              		.loc 1 64 22 is_stmt 0
 267 0194 97000000 		call	_ZN7_thread8dispatchEv
 267      E7800000 
 268              	.LVL20:
  65:src/Thread.cpp **** 
 269              		.loc 1 65 1
 270 019c 83308100 		ld	ra,8(sp)
 271              		.cfi_remember_state
 272              		.cfi_restore 1
 273 01a0 03340100 		ld	s0,0(sp)
 274              		.cfi_restore 8
 275              		.cfi_def_cfa 2, 16
 276 01a4 13010101 		addi	sp,sp,16
 277              		.cfi_def_cfa_offset 0
 278 01a8 67800000 		jr	ra
 279              	.LVL21:
 280              	.L21:
 281              		.cfi_restore_state
  54:src/Thread.cpp ****     } else {
 282              		.loc 1 54 9 is_stmt 1
  54:src/Thread.cpp ****     } else {
 283              		.loc 1 54 22 is_stmt 0
 284 01ac 97060000 		sd	a4,_ZN7_thread12sleepingHeadE,a3
 284      23B0E600 
 285              	.LVL22:
 286 01b4 6FF0DFFC 		j	.L15
 287              	.LVL23:
 288              	.L18:
 289              		.cfi_def_cfa_register 2
 290              		.cfi_restore 1
 291              		.cfi_restore 8
 292 01b8 67800000 		ret
 293              		.cfi_endproc
 294              	.LFE31:
 296              		.align	2
 297              		.globl	_ZN7_threadC2EPFvPvES0_S0_m
 299              	_ZN7_threadC2EPFvPvES0_S0_m:
 300              	.LFB33:
GAS LISTING C:\msys64\tmp\ccpzF9Dh.s 			page 10


  67:src/Thread.cpp ****                                                                        timeSlice(time), isReady(tru
 301              		.loc 1 67 1 is_stmt 1
 302              		.cfi_startproc
 303              	.LVL24:
 304 01bc 130101FF 		addi	sp,sp,-16
 305              		.cfi_def_cfa_offset 16
 306 01c0 23348100 		sd	s0,8(sp)
 307              		.cfi_offset 8, -8
 308 01c4 13040101 		addi	s0,sp,16
 309              		.cfi_def_cfa 8, 0
 310              	.LBB31:
  68:src/Thread.cpp ****     if (body != nullptr) {
 311              		.loc 1 68 149 is_stmt 0
 312 01c8 23300500 		sd	zero,0(a0)
 313 01cc 23340500 		sd	zero,8(a0)
 314 01d0 2338B500 		sd	a1,16(a0)
 315 01d4 233CC500 		sd	a2,24(a0)
 316 01d8 2330D502 		sd	a3,32(a0)
 317 01dc 233CE502 		sd	a4,56(a0)
 318 01e0 93071000 		li	a5,1
 319 01e4 2300F504 		sb	a5,64(a0)
 320 01e8 A3000504 		sb	zero,65(a0)
 321 01ec 23220504 		sw	zero,68(a0)
 322 01f0 23340504 		sd	zero,72(a0)
  69:src/Thread.cpp ****         context.ra = (uint64)&threadWrapper;
 323              		.loc 1 69 5 is_stmt 1
 324 01f4 63860502 		beq	a1,zero,.L23
  70:src/Thread.cpp ****         context.sp = ((uint64)stack_space + DEFAULT_STACK_SIZE) & ~0xFUL;
 325              		.loc 1 70 9
  70:src/Thread.cpp ****         context.sp = ((uint64)stack_space + DEFAULT_STACK_SIZE) & ~0xFUL;
 326              		.loc 1 70 20 is_stmt 0
 327 01f8 97070000 		lla	a5,_ZN7_thread13threadWrapperEv
 327      93870700 
 328 0200 2334F502 		sd	a5,40(a0)
  71:src/Thread.cpp ****     } else {
 329              		.loc 1 71 9 is_stmt 1
  71:src/Thread.cpp ****     } else {
 330              		.loc 1 71 43 is_stmt 0
 331 0204 B7170000 		li	a5,4096
 332 0208 B386F600 		add	a3,a3,a5
 333              	.LVL25:
  71:src/Thread.cpp ****     } else {
 334              		.loc 1 71 65
 335 020c 93F606FF 		andi	a3,a3,-16
  71:src/Thread.cpp ****     } else {
 336              		.loc 1 71 20
 337 0210 2338D502 		sd	a3,48(a0)
 338              	.L22:
 339              	.LBE31:
  76:src/Thread.cpp **** 
 340              		.loc 1 76 1
 341 0214 03348100 		ld	s0,8(sp)
 342              		.cfi_remember_state
 343              		.cfi_restore 8
 344              		.cfi_def_cfa 2, 16
 345 0218 13010101 		addi	sp,sp,16
 346              		.cfi_def_cfa_offset 0
GAS LISTING C:\msys64\tmp\ccpzF9Dh.s 			page 11


 347 021c 67800000 		jr	ra
 348              	.LVL26:
 349              	.L23:
 350              		.cfi_restore_state
 351              	.LBB32:
  73:src/Thread.cpp ****         context.sp = 0;
 352              		.loc 1 73 9 is_stmt 1
  73:src/Thread.cpp ****         context.sp = 0;
 353              		.loc 1 73 20 is_stmt 0
 354 0220 23340502 		sd	zero,40(a0)
  74:src/Thread.cpp ****     }
 355              		.loc 1 74 9 is_stmt 1
  74:src/Thread.cpp ****     }
 356              		.loc 1 74 20 is_stmt 0
 357 0224 23380502 		sd	zero,48(a0)
 358              	.LBE32:
  76:src/Thread.cpp **** 
 359              		.loc 1 76 1
 360 0228 6FF0DFFE 		j	.L22
 361              		.cfi_endproc
 362              	.LFE33:
 364              		.globl	_ZN7_threadC1EPFvPvES0_S0_m
 365              		.set	_ZN7_threadC1EPFvPvES0_S0_m,_ZN7_threadC2EPFvPvES0_S0_m
 366              		.align	2
 367              		.globl	_ZN7_thread12createThreadEPFvPvES0_S0_
 369              	_ZN7_thread12createThreadEPFvPvES0_S0_:
 370              	.LFB29:
  15:src/Thread.cpp ****     return new _thread(body, args, stack, DEFAULT_TIME_SLICE);
 371              		.loc 1 15 68 is_stmt 1
 372              		.cfi_startproc
 373              	.LVL27:
 374 022c 130101FD 		addi	sp,sp,-48
 375              		.cfi_def_cfa_offset 48
 376 0230 23341102 		sd	ra,40(sp)
 377 0234 23308102 		sd	s0,32(sp)
 378 0238 233C9100 		sd	s1,24(sp)
 379 023c 23382101 		sd	s2,16(sp)
 380 0240 23343101 		sd	s3,8(sp)
 381 0244 23304101 		sd	s4,0(sp)
 382              		.cfi_offset 1, -8
 383              		.cfi_offset 8, -16
 384              		.cfi_offset 9, -24
 385              		.cfi_offset 18, -32
 386              		.cfi_offset 19, -40
 387              		.cfi_offset 20, -48
 388 0248 13040103 		addi	s0,sp,48
 389              		.cfi_def_cfa 8, 0
 390 024c 13090500 		mv	s2,a0
 391 0250 93890500 		mv	s3,a1
 392 0254 130A0600 		mv	s4,a2
  16:src/Thread.cpp **** }
 393              		.loc 1 16 5
 394              	.LVL28:
 395              	.LBB33:
 396              	.LBB34:
  13:src/../h/Thread.h **** 		return ptr;
 397              		.loc 2 13 3
GAS LISTING C:\msys64\tmp\ccpzF9Dh.s 			page 12


  13:src/../h/Thread.h **** 		return ptr;
 398              		.loc 2 13 39 is_stmt 0
 399 0258 13050005 		li	a0,80
 400              	.LVL29:
 401 025c 97000000 		call	_ZN15MemoryAllocator7kmallocEm
 401      E7800000 
 402              	.LVL30:
 403 0264 93040500 		mv	s1,a0
 404              	.LVL31:
  14:src/../h/Thread.h **** 	}
 405              		.loc 2 14 3 is_stmt 1
 406              	.LBE34:
 407              	.LBE33:
  16:src/Thread.cpp **** }
 408              		.loc 1 16 61 is_stmt 0
 409 0268 13072000 		li	a4,2
 410 026c 93060A00 		mv	a3,s4
 411 0270 13860900 		mv	a2,s3
 412 0274 93050900 		mv	a1,s2
 413 0278 97000000 		call	_ZN7_threadC1EPFvPvES0_S0_m
 413      E7800000 
 414              	.LVL32:
  17:src/Thread.cpp **** 
 415              		.loc 1 17 1
 416 0280 13850400 		mv	a0,s1
 417 0284 83308102 		ld	ra,40(sp)
 418              		.cfi_restore 1
 419 0288 03340102 		ld	s0,32(sp)
 420              		.cfi_restore 8
 421              		.cfi_def_cfa 2, 48
 422 028c 83348101 		ld	s1,24(sp)
 423              		.cfi_restore 9
 424              	.LVL33:
 425 0290 03390101 		ld	s2,16(sp)
 426              		.cfi_restore 18
 427              	.LVL34:
 428 0294 83398100 		ld	s3,8(sp)
 429              		.cfi_restore 19
 430              	.LVL35:
 431 0298 033A0100 		ld	s4,0(sp)
 432              		.cfi_restore 20
 433              	.LVL36:
 434 029c 13010103 		addi	sp,sp,48
 435              		.cfi_def_cfa_offset 0
 436 02a0 67800000 		jr	ra
 437              		.cfi_endproc
 438              	.LFE29:
 440              		.globl	_ZN7_thread12sleepingHeadE
 441              		.globl	_ZN7_thread16timeSliceCounterE
 442              		.globl	_ZN7_thread7runningE
 443              		.weak	_ZGVZN9Scheduler8instanceEvE8instance
 444              		.section	.sbss._ZGVZN9Scheduler8instanceEvE8instance,"awG",@nobits,_ZGVZN9Scheduler8instanceEvE8in
 445              		.align	3
 448              	_ZGVZN9Scheduler8instanceEvE8instance:
 449 0000 00000000 		.zero	8
 449      00000000 
 450              		.weak	_ZZN9Scheduler8instanceEvE8instance
GAS LISTING C:\msys64\tmp\ccpzF9Dh.s 			page 13


 451              		.section	.bss._ZZN9Scheduler8instanceEvE8instance,"awG",@nobits,_ZZN9Scheduler8instanceEvE8instanc
 452              		.align	3
 455              	_ZZN9Scheduler8instanceEvE8instance:
 456 0000 00000000 		.zero	16
 456      00000000 
 456      00000000 
 456      00000000 
 457              		.section	.sbss,"aw",@nobits
 458              		.align	3
 461              	_ZN7_thread12sleepingHeadE:
 462 0000 00000000 		.zero	8
 462      00000000 
 465              	_ZN7_thread16timeSliceCounterE:
 466 0008 00000000 		.zero	8
 466      00000000 
 469              	_ZN7_thread7runningE:
 470 0010 00000000 		.zero	8
 470      00000000 
 471              		.text
 472              	.Letext0:
 473              		.file 4 "src/../h/../lib/hw.h"
 474              		.file 5 "src/../h/MemoryAllocator.h"
 475              		.file 6 "src/../h/riscv.h"
 476              		.file 7 "src/../h/syscall_c.hpp"
GAS LISTING C:\msys64\tmp\ccpzF9Dh.s 			page 14


DEFINED SYMBOLS
                            *ABS*:0000000000000000 Thread.cpp
C:\msys64\tmp\ccpzF9Dh.s:12     .text:0000000000000000 _ZN7_thread13threadWrapperEv
C:\msys64\tmp\ccpzF9Dh.s:16     .text:0000000000000000 .L0 
C:\msys64\tmp\ccpzF9Dh.s:17     .text:0000000000000000 .L0 
C:\msys64\tmp\ccpzF9Dh.s:18     .text:0000000000000004 .L0 
C:\msys64\tmp\ccpzF9Dh.s:21     .text:000000000000000c .L0 
C:\msys64\tmp\ccpzF9Dh.s:22     .text:000000000000000c .L0 
C:\msys64\tmp\ccpzF9Dh.s:24     .text:0000000000000010 .L0 
C:\msys64\tmp\ccpzF9Dh.s:26     .text:0000000000000010 .L0 
C:\msys64\tmp\ccpzF9Dh.s:27     .text:0000000000000010 .L0 
C:\msys64\tmp\ccpzF9Dh.s:30     .text:0000000000000018 .L0 
C:\msys64\tmp\ccpzF9Dh.s:469    .sbss:0000000000000010 _ZN7_thread7runningE
C:\msys64\tmp\ccpzF9Dh.s:31     .text:0000000000000018 .L0 
C:\msys64\tmp\ccpzF9Dh.s:34     .text:0000000000000024 .L0 
C:\msys64\tmp\ccpzF9Dh.s:36     .text:0000000000000028 .L0 
C:\msys64\tmp\ccpzF9Dh.s:37     .text:0000000000000028 .L0 
C:\msys64\tmp\ccpzF9Dh.s:45     .text:0000000000000030 .L0 
C:\msys64\tmp\ccpzF9Dh.s:46     .text:0000000000000030 .L0 
C:\msys64\tmp\ccpzF9Dh.s:47     .text:0000000000000030 .L0 
C:\msys64\tmp\ccpzF9Dh.s:54     .text:0000000000000040 .L0 
C:\msys64\tmp\ccpzF9Dh.s:55     .text:0000000000000040 .L0 
C:\msys64\tmp\ccpzF9Dh.s:58     .text:0000000000000048 .L0 
C:\msys64\tmp\ccpzF9Dh.s:59     .text:000000000000004c .L0 
C:\msys64\tmp\ccpzF9Dh.s:61     .text:0000000000000050 .L0 
C:\msys64\tmp\ccpzF9Dh.s:62     .text:0000000000000050 .L0 
C:\msys64\tmp\ccpzF9Dh.s:64     .text:0000000000000054 .L0 
C:\msys64\tmp\ccpzF9Dh.s:66     .text:0000000000000058 .L0 
C:\msys64\tmp\ccpzF9Dh.s:72     .text:0000000000000058 _ZN7_thread8dispatchEv
C:\msys64\tmp\ccpzF9Dh.s:75     .text:0000000000000058 .L0 
C:\msys64\tmp\ccpzF9Dh.s:76     .text:0000000000000058 .L0 
C:\msys64\tmp\ccpzF9Dh.s:77     .text:000000000000005c .L0 
C:\msys64\tmp\ccpzF9Dh.s:81     .text:0000000000000068 .L0 
C:\msys64\tmp\ccpzF9Dh.s:82     .text:0000000000000068 .L0 
C:\msys64\tmp\ccpzF9Dh.s:83     .text:0000000000000068 .L0 
C:\msys64\tmp\ccpzF9Dh.s:85     .text:000000000000006c .L0 
C:\msys64\tmp\ccpzF9Dh.s:87     .text:000000000000006c .L0 
C:\msys64\tmp\ccpzF9Dh.s:88     .text:000000000000006c .L0 
C:\msys64\tmp\ccpzF9Dh.s:91     .text:0000000000000074 .L0 
C:\msys64\tmp\ccpzF9Dh.s:93     .text:0000000000000078 .L0 
C:\msys64\tmp\ccpzF9Dh.s:95     .text:000000000000007c .L0 
C:\msys64\tmp\ccpzF9Dh.s:97     .text:0000000000000080 .L0 
C:\msys64\tmp\ccpzF9Dh.s:99     .text:0000000000000084 .L0 
C:\msys64\tmp\ccpzF9Dh.s:104    .text:0000000000000088 .L0 
C:\msys64\tmp\ccpzF9Dh.s:105    .text:0000000000000088 .L0 
C:\msys64\tmp\ccpzF9Dh.s:448    .sbss._ZGVZN9Scheduler8instanceEvE8instance:0000000000000000 _ZGVZN9Scheduler8instanceEvE8instance
C:\msys64\tmp\ccpzF9Dh.s:106    .text:0000000000000088 .L0 
C:\msys64\tmp\ccpzF9Dh.s:455    .bss._ZZN9Scheduler8instanceEvE8instance:0000000000000000 _ZZN9Scheduler8instanceEvE8instance
C:\msys64\tmp\ccpzF9Dh.s:113    .text:0000000000000094 .L0 
C:\msys64\tmp\ccpzF9Dh.s:121    .text:00000000000000a4 .L0 
C:\msys64\tmp\ccpzF9Dh.s:127    .text:00000000000000b0 .L0 
C:\msys64\tmp\ccpzF9Dh.s:128    .text:00000000000000b0 .L0 
C:\msys64\tmp\ccpzF9Dh.s:136    .text:00000000000000c4 .L0 
C:\msys64\tmp\ccpzF9Dh.s:137    .text:00000000000000c4 .L0 
C:\msys64\tmp\ccpzF9Dh.s:138    .text:00000000000000c4 .L0 
C:\msys64\tmp\ccpzF9Dh.s:145    .text:00000000000000d0 .L0 
C:\msys64\tmp\ccpzF9Dh.s:153    .text:00000000000000e0 .L0 
GAS LISTING C:\msys64\tmp\ccpzF9Dh.s 			page 15


C:\msys64\tmp\ccpzF9Dh.s:159    .text:00000000000000ec .L0 
C:\msys64\tmp\ccpzF9Dh.s:160    .text:00000000000000ec .L0 
C:\msys64\tmp\ccpzF9Dh.s:164    .text:00000000000000fc .L0 
C:\msys64\tmp\ccpzF9Dh.s:166    .text:0000000000000104 .L0 
C:\msys64\tmp\ccpzF9Dh.s:168    .text:0000000000000108 .L0 
C:\msys64\tmp\ccpzF9Dh.s:169    .text:0000000000000108 .L0 
C:\msys64\tmp\ccpzF9Dh.s:175    .text:0000000000000118 .L0 
C:\msys64\tmp\ccpzF9Dh.s:176    .text:000000000000011c .L0 
C:\msys64\tmp\ccpzF9Dh.s:178    .text:0000000000000120 .L0 
C:\msys64\tmp\ccpzF9Dh.s:179    .text:0000000000000120 .L0 
C:\msys64\tmp\ccpzF9Dh.s:181    .text:0000000000000124 .L0 
C:\msys64\tmp\ccpzF9Dh.s:184    .text:0000000000000128 .L0 
C:\msys64\tmp\ccpzF9Dh.s:186    .text:000000000000012c .L0 
C:\msys64\tmp\ccpzF9Dh.s:192    .text:000000000000012c _ZN7_thread10time_sleepEm
C:\msys64\tmp\ccpzF9Dh.s:195    .text:000000000000012c .L0 
C:\msys64\tmp\ccpzF9Dh.s:197    .text:000000000000012c .L0 
C:\msys64\tmp\ccpzF9Dh.s:198    .text:000000000000012c .L0 
C:\msys64\tmp\ccpzF9Dh.s:200    .text:0000000000000130 .L0 
C:\msys64\tmp\ccpzF9Dh.s:201    .text:0000000000000134 .L0 
C:\msys64\tmp\ccpzF9Dh.s:204    .text:000000000000013c .L0 
C:\msys64\tmp\ccpzF9Dh.s:205    .text:000000000000013c .L0 
C:\msys64\tmp\ccpzF9Dh.s:207    .text:0000000000000140 .L0 
C:\msys64\tmp\ccpzF9Dh.s:209    .text:0000000000000140 .L0 
C:\msys64\tmp\ccpzF9Dh.s:461    .sbss:0000000000000000 _ZN7_thread12sleepingHeadE
C:\msys64\tmp\ccpzF9Dh.s:210    .text:0000000000000140 .L0 
C:\msys64\tmp\ccpzF9Dh.s:213    .text:0000000000000148 .L0 
C:\msys64\tmp\ccpzF9Dh.s:214    .text:0000000000000148 .L0 
C:\msys64\tmp\ccpzF9Dh.s:218    .text:000000000000014c .L0 
C:\msys64\tmp\ccpzF9Dh.s:219    .text:000000000000014c .L0 
C:\msys64\tmp\ccpzF9Dh.s:221    .text:0000000000000150 .L0 
C:\msys64\tmp\ccpzF9Dh.s:223    .text:0000000000000154 .L0 
C:\msys64\tmp\ccpzF9Dh.s:225    .text:0000000000000158 .L0 
C:\msys64\tmp\ccpzF9Dh.s:226    .text:0000000000000158 .L0 
C:\msys64\tmp\ccpzF9Dh.s:229    .text:000000000000015c .L0 
C:\msys64\tmp\ccpzF9Dh.s:230    .text:000000000000015c .L0 
C:\msys64\tmp\ccpzF9Dh.s:231    .text:000000000000015c .L0 
C:\msys64\tmp\ccpzF9Dh.s:233    .text:0000000000000160 .L0 
C:\msys64\tmp\ccpzF9Dh.s:236    .text:0000000000000164 .L0 
C:\msys64\tmp\ccpzF9Dh.s:239    .text:0000000000000168 .L0 
C:\msys64\tmp\ccpzF9Dh.s:240    .text:0000000000000168 .L0 
C:\msys64\tmp\ccpzF9Dh.s:242    .text:0000000000000170 .L0 
C:\msys64\tmp\ccpzF9Dh.s:244    .text:0000000000000174 .L0 
C:\msys64\tmp\ccpzF9Dh.s:245    .text:0000000000000174 .L0 
C:\msys64\tmp\ccpzF9Dh.s:247    .text:0000000000000178 .L0 
C:\msys64\tmp\ccpzF9Dh.s:249    .text:000000000000017c .L0 
C:\msys64\tmp\ccpzF9Dh.s:250    .text:000000000000017c .L0 
C:\msys64\tmp\ccpzF9Dh.s:254    .text:0000000000000180 .L0 
C:\msys64\tmp\ccpzF9Dh.s:256    .text:0000000000000184 .L0 
C:\msys64\tmp\ccpzF9Dh.s:257    .text:0000000000000184 .L0 
C:\msys64\tmp\ccpzF9Dh.s:263    .text:0000000000000190 .L0 
C:\msys64\tmp\ccpzF9Dh.s:264    .text:0000000000000190 .L0 
C:\msys64\tmp\ccpzF9Dh.s:266    .text:0000000000000194 .L0 
C:\msys64\tmp\ccpzF9Dh.s:267    .text:0000000000000194 .L0 
C:\msys64\tmp\ccpzF9Dh.s:270    .text:000000000000019c .L0 
C:\msys64\tmp\ccpzF9Dh.s:271    .text:00000000000001a0 .L0 
C:\msys64\tmp\ccpzF9Dh.s:272    .text:00000000000001a0 .L0 
C:\msys64\tmp\ccpzF9Dh.s:274    .text:00000000000001a4 .L0 
GAS LISTING C:\msys64\tmp\ccpzF9Dh.s 			page 16


C:\msys64\tmp\ccpzF9Dh.s:275    .text:00000000000001a4 .L0 
C:\msys64\tmp\ccpzF9Dh.s:277    .text:00000000000001a8 .L0 
C:\msys64\tmp\ccpzF9Dh.s:281    .text:00000000000001ac .L0 
C:\msys64\tmp\ccpzF9Dh.s:283    .text:00000000000001ac .L0 
C:\msys64\tmp\ccpzF9Dh.s:284    .text:00000000000001ac .L0 
C:\msys64\tmp\ccpzF9Dh.s:289    .text:00000000000001b8 .L0 
C:\msys64\tmp\ccpzF9Dh.s:290    .text:00000000000001b8 .L0 
C:\msys64\tmp\ccpzF9Dh.s:291    .text:00000000000001b8 .L0 
C:\msys64\tmp\ccpzF9Dh.s:293    .text:00000000000001bc .L0 
C:\msys64\tmp\ccpzF9Dh.s:299    .text:00000000000001bc _ZN7_threadC2EPFvPvES0_S0_m
C:\msys64\tmp\ccpzF9Dh.s:302    .text:00000000000001bc .L0 
C:\msys64\tmp\ccpzF9Dh.s:304    .text:00000000000001bc .L0 
C:\msys64\tmp\ccpzF9Dh.s:305    .text:00000000000001c0 .L0 
C:\msys64\tmp\ccpzF9Dh.s:307    .text:00000000000001c4 .L0 
C:\msys64\tmp\ccpzF9Dh.s:309    .text:00000000000001c8 .L0 
C:\msys64\tmp\ccpzF9Dh.s:312    .text:00000000000001c8 .L0 
C:\msys64\tmp\ccpzF9Dh.s:324    .text:00000000000001f4 .L0 
C:\msys64\tmp\ccpzF9Dh.s:326    .text:00000000000001f8 .L0 
C:\msys64\tmp\ccpzF9Dh.s:327    .text:00000000000001f8 .L0 
C:\msys64\tmp\ccpzF9Dh.s:330    .text:0000000000000204 .L0 
C:\msys64\tmp\ccpzF9Dh.s:331    .text:0000000000000204 .L0 
C:\msys64\tmp\ccpzF9Dh.s:335    .text:000000000000020c .L0 
C:\msys64\tmp\ccpzF9Dh.s:337    .text:0000000000000210 .L0 
C:\msys64\tmp\ccpzF9Dh.s:341    .text:0000000000000214 .L0 
C:\msys64\tmp\ccpzF9Dh.s:342    .text:0000000000000218 .L0 
C:\msys64\tmp\ccpzF9Dh.s:343    .text:0000000000000218 .L0 
C:\msys64\tmp\ccpzF9Dh.s:344    .text:0000000000000218 .L0 
C:\msys64\tmp\ccpzF9Dh.s:346    .text:000000000000021c .L0 
C:\msys64\tmp\ccpzF9Dh.s:350    .text:0000000000000220 .L0 
C:\msys64\tmp\ccpzF9Dh.s:353    .text:0000000000000220 .L0 
C:\msys64\tmp\ccpzF9Dh.s:354    .text:0000000000000220 .L0 
C:\msys64\tmp\ccpzF9Dh.s:356    .text:0000000000000224 .L0 
C:\msys64\tmp\ccpzF9Dh.s:357    .text:0000000000000224 .L0 
C:\msys64\tmp\ccpzF9Dh.s:360    .text:0000000000000228 .L0 
C:\msys64\tmp\ccpzF9Dh.s:361    .text:000000000000022c .L0 
C:\msys64\tmp\ccpzF9Dh.s:299    .text:00000000000001bc _ZN7_threadC1EPFvPvES0_S0_m
C:\msys64\tmp\ccpzF9Dh.s:369    .text:000000000000022c _ZN7_thread12createThreadEPFvPvES0_S0_
C:\msys64\tmp\ccpzF9Dh.s:372    .text:000000000000022c .L0 
C:\msys64\tmp\ccpzF9Dh.s:374    .text:000000000000022c .L0 
C:\msys64\tmp\ccpzF9Dh.s:375    .text:0000000000000230 .L0 
C:\msys64\tmp\ccpzF9Dh.s:382    .text:0000000000000248 .L0 
C:\msys64\tmp\ccpzF9Dh.s:383    .text:0000000000000248 .L0 
C:\msys64\tmp\ccpzF9Dh.s:384    .text:0000000000000248 .L0 
C:\msys64\tmp\ccpzF9Dh.s:385    .text:0000000000000248 .L0 
C:\msys64\tmp\ccpzF9Dh.s:386    .text:0000000000000248 .L0 
C:\msys64\tmp\ccpzF9Dh.s:387    .text:0000000000000248 .L0 
C:\msys64\tmp\ccpzF9Dh.s:389    .text:000000000000024c .L0 
C:\msys64\tmp\ccpzF9Dh.s:397    .text:0000000000000258 .L0 
C:\msys64\tmp\ccpzF9Dh.s:398    .text:0000000000000258 .L0 
C:\msys64\tmp\ccpzF9Dh.s:399    .text:0000000000000258 .L0 
C:\msys64\tmp\ccpzF9Dh.s:408    .text:0000000000000268 .L0 
C:\msys64\tmp\ccpzF9Dh.s:409    .text:0000000000000268 .L0 
C:\msys64\tmp\ccpzF9Dh.s:416    .text:0000000000000280 .L0 
C:\msys64\tmp\ccpzF9Dh.s:418    .text:0000000000000288 .L0 
C:\msys64\tmp\ccpzF9Dh.s:420    .text:000000000000028c .L0 
C:\msys64\tmp\ccpzF9Dh.s:421    .text:000000000000028c .L0 
C:\msys64\tmp\ccpzF9Dh.s:423    .text:0000000000000290 .L0 
GAS LISTING C:\msys64\tmp\ccpzF9Dh.s 			page 17


C:\msys64\tmp\ccpzF9Dh.s:426    .text:0000000000000294 .L0 
C:\msys64\tmp\ccpzF9Dh.s:429    .text:0000000000000298 .L0 
C:\msys64\tmp\ccpzF9Dh.s:432    .text:000000000000029c .L0 
C:\msys64\tmp\ccpzF9Dh.s:435    .text:00000000000002a0 .L0 
C:\msys64\tmp\ccpzF9Dh.s:437    .text:00000000000002a4 .L0 
C:\msys64\tmp\ccpzF9Dh.s:465    .sbss:0000000000000008 _ZN7_thread16timeSliceCounterE
C:\msys64\tmp\ccpzF9Dh.s:477    .text:00000000000002a4 .L0 
C:\msys64\tmp\ccpzF9Dh.s:31     .text:0000000000000018 .L0 
C:\msys64\tmp\ccpzF9Dh.s:47     .text:0000000000000030 .L0 
C:\msys64\tmp\ccpzF9Dh.s:88     .text:000000000000006c .L0 
C:\msys64\tmp\ccpzF9Dh.s:106    .text:0000000000000088 .L0 
C:\msys64\tmp\ccpzF9Dh.s:113    .text:0000000000000094 .L0 
C:\msys64\tmp\ccpzF9Dh.s:122    .text:00000000000000a8 .L0 
C:\msys64\tmp\ccpzF9Dh.s:129    .text:00000000000000b4 .L0 
C:\msys64\tmp\ccpzF9Dh.s:138    .text:00000000000000c4 .L0 
C:\msys64\tmp\ccpzF9Dh.s:145    .text:00000000000000d0 .L0 
C:\msys64\tmp\ccpzF9Dh.s:154    .text:00000000000000e4 .L0 
C:\msys64\tmp\ccpzF9Dh.s:160    .text:00000000000000ec .L0 
C:\msys64\tmp\ccpzF9Dh.s:164    .text:00000000000000fc .L0 
C:\msys64\tmp\ccpzF9Dh.s:210    .text:0000000000000140 .L0 
C:\msys64\tmp\ccpzF9Dh.s:240    .text:0000000000000168 .L0 
C:\msys64\tmp\ccpzF9Dh.s:284    .text:00000000000001ac .L0 
C:\msys64\tmp\ccpzF9Dh.s:327    .text:00000000000001f8 .L0 
C:\msys64\tmp\ccpzF9Dh.s:40     .text:0000000000000030 .L2
C:\msys64\tmp\ccpzF9Dh.s:132    .text:00000000000000c4 .L5
C:\msys64\tmp\ccpzF9Dh.s:123    .text:00000000000000b0 .L6
C:\msys64\tmp\ccpzF9Dh.s:155    .text:00000000000000ec .L7
C:\msys64\tmp\ccpzF9Dh.s:173    .text:0000000000000118 .L4
C:\msys64\tmp\ccpzF9Dh.s:288    .text:00000000000001b8 .L18
C:\msys64\tmp\ccpzF9Dh.s:237    .text:0000000000000168 .L12
C:\msys64\tmp\ccpzF9Dh.s:216    .text:000000000000014c .L13
C:\msys64\tmp\ccpzF9Dh.s:280    .text:00000000000001ac .L21
C:\msys64\tmp\ccpzF9Dh.s:261    .text:0000000000000190 .L16
C:\msys64\tmp\ccpzF9Dh.s:252    .text:0000000000000180 .L15
C:\msys64\tmp\ccpzF9Dh.s:349    .text:0000000000000220 .L23
C:\msys64\tmp\ccpzF9Dh.s:338    .text:0000000000000214 .L22
C:\msys64\tmp\ccpzF9Dh.s:1783   .debug_abbrev:0000000000000000 .Ldebug_abbrev0
C:\msys64\tmp\ccpzF9Dh.s:3124   .debug_str:0000000000000145 .LASF123
C:\msys64\tmp\ccpzF9Dh.s:3298   .debug_str:00000000000007b9 .LASF124
C:\msys64\tmp\ccpzF9Dh.s:3260   .debug_str:00000000000005ee .LASF125
C:\msys64\tmp\ccpzF9Dh.s:8      .text:0000000000000000 .Ltext0
C:\msys64\tmp\ccpzF9Dh.s:472    .text:00000000000002a4 .Letext0
C:\msys64\tmp\ccpzF9Dh.s:3084   .debug_line:0000000000000000 .Ldebug_line0
C:\msys64\tmp\ccpzF9Dh.s:3224   .debug_str:0000000000000520 .LASF0
C:\msys64\tmp\ccpzF9Dh.s:3244   .debug_str:0000000000000579 .LASF1
C:\msys64\tmp\ccpzF9Dh.s:3210   .debug_str:00000000000004c2 .LASF2
C:\msys64\tmp\ccpzF9Dh.s:3182   .debug_str:00000000000003f6 .LASF4
C:\msys64\tmp\ccpzF9Dh.s:3286   .debug_str:0000000000000736 .LASF3
C:\msys64\tmp\ccpzF9Dh.s:3110   .debug_str:00000000000000cf .LASF5
C:\msys64\tmp\ccpzF9Dh.s:3138   .debug_str:0000000000000289 .LASF6
C:\msys64\tmp\ccpzF9Dh.s:3246   .debug_str:000000000000058c .LASF7
C:\msys64\tmp\ccpzF9Dh.s:3222   .debug_str:000000000000050d .LASF8
C:\msys64\tmp\ccpzF9Dh.s:3258   .debug_str:00000000000005df .LASF9
C:\msys64\tmp\ccpzF9Dh.s:3122   .debug_str:0000000000000139 .LASF10
C:\msys64\tmp\ccpzF9Dh.s:3276   .debug_str:00000000000006e5 .LASF11
C:\msys64\tmp\ccpzF9Dh.s:3132   .debug_str:000000000000025a .LASF12
C:\msys64\tmp\ccpzF9Dh.s:3202   .debug_str:000000000000047b .LASF15
GAS LISTING C:\msys64\tmp\ccpzF9Dh.s 			page 18


C:\msys64\tmp\ccpzF9Dh.s:3328   .debug_str:00000000000008ab .LASF32
C:\msys64\tmp\ccpzF9Dh.s:3354   .debug_str:0000000000000954 .LASF13
C:\msys64\tmp\ccpzF9Dh.s:3302   .debug_str:00000000000007e0 .LASF14
C:\msys64\tmp\ccpzF9Dh.s:3140   .debug_str:0000000000000290 .LASF16
C:\msys64\tmp\ccpzF9Dh.s:3322   .debug_str:000000000000087a .LASF17
C:\msys64\tmp\ccpzF9Dh.s:3218   .debug_str:00000000000004e8 .LASF27
C:\msys64\tmp\ccpzF9Dh.s:3194   .debug_str:0000000000000427 .LASF28
C:\msys64\tmp\ccpzF9Dh.s:3318   .debug_str:0000000000000863 .LASF18
C:\msys64\tmp\ccpzF9Dh.s:3274   .debug_str:00000000000006c6 .LASF20
C:\msys64\tmp\ccpzF9Dh.s:3126   .debug_str:0000000000000218 .LASF19
C:\msys64\tmp\ccpzF9Dh.s:3090   .debug_str:0000000000000035 .LASF21
C:\msys64\tmp\ccpzF9Dh.s:3252   .debug_str:00000000000005ba .LASF50
C:\msys64\tmp\ccpzF9Dh.s:3308   .debug_str:000000000000080e .LASF52
C:\msys64\tmp\ccpzF9Dh.s:3136   .debug_str:0000000000000284 .LASF22
C:\msys64\tmp\ccpzF9Dh.s:3188   .debug_str:000000000000040b .LASF23
C:\msys64\tmp\ccpzF9Dh.s:3348   .debug_str:0000000000000928 .LASF111
C:\msys64\tmp\ccpzF9Dh.s:3156   .debug_str:0000000000000307 .LASF113
C:\msys64\tmp\ccpzF9Dh.s:3152   .debug_str:00000000000002ed .LASF24
C:\msys64\tmp\ccpzF9Dh.s:3256   .debug_str:00000000000005d5 .LASF25
C:\msys64\tmp\ccpzF9Dh.s:3234   .debug_str:0000000000000548 .LASF71
C:\msys64\tmp\ccpzF9Dh.s:3204   .debug_str:000000000000048b .LASF73
C:\msys64\tmp\ccpzF9Dh.s:3314   .debug_str:0000000000000845 .LASF26
C:\msys64\tmp\ccpzF9Dh.s:3332   .debug_str:00000000000008be .LASF29
C:\msys64\tmp\ccpzF9Dh.s:3296   .debug_str:000000000000079d .LASF126
C:\msys64\tmp\ccpzF9Dh.s:3178   .debug_str:00000000000003da .LASF127
C:\msys64\tmp\ccpzF9Dh.s:3290   .debug_str:0000000000000759 .LASF48
C:\msys64\tmp\ccpzF9Dh.s:3214   .debug_str:00000000000004dc .LASF30
C:\msys64\tmp\ccpzF9Dh.s:3180   .debug_str:00000000000003ee .LASF31
C:\msys64\tmp\ccpzF9Dh.s:3098   .debug_str:0000000000000086 .LASF33
C:\msys64\tmp\ccpzF9Dh.s:3340   .debug_str:00000000000008fe .LASF34
C:\msys64\tmp\ccpzF9Dh.s:3280   .debug_str:0000000000000706 .LASF35
C:\msys64\tmp\ccpzF9Dh.s:3316   .debug_str:000000000000085a .LASF36
C:\msys64\tmp\ccpzF9Dh.s:3250   .debug_str:00000000000005aa .LASF37
C:\msys64\tmp\ccpzF9Dh.s:3192   .debug_str:000000000000041a .LASF38
C:\msys64\tmp\ccpzF9Dh.s:3130   .debug_str:0000000000000233 .LASF39
C:\msys64\tmp\ccpzF9Dh.s:3114   .debug_str:00000000000000fa .LASF128
C:\msys64\tmp\ccpzF9Dh.s:3146   .debug_str:00000000000002bc .LASF129
C:\msys64\tmp\ccpzF9Dh.s:3228   .debug_str:0000000000000534 .LASF67
C:\msys64\tmp\ccpzF9Dh.s:3304   .debug_str:00000000000007e5 .LASF69
C:\msys64\tmp\ccpzF9Dh.s:3248   .debug_str:000000000000059f .LASF40
C:\msys64\tmp\ccpzF9Dh.s:3086   .debug_str:0000000000000000 .LASF41
C:\msys64\tmp\ccpzF9Dh.s:3200   .debug_str:000000000000046e .LASF42
C:\msys64\tmp\ccpzF9Dh.s:3262   .debug_str:000000000000061d .LASF43
C:\msys64\tmp\ccpzF9Dh.s:3212   .debug_str:00000000000004d0 .LASF44
C:\msys64\tmp\ccpzF9Dh.s:3088   .debug_str:000000000000001a .LASF45
C:\msys64\tmp\ccpzF9Dh.s:3278   .debug_str:00000000000006fb .LASF46
C:\msys64\tmp\ccpzF9Dh.s:3264   .debug_str:000000000000063a .LASF47
C:\msys64\tmp\ccpzF9Dh.s:3100   .debug_str:000000000000008e .LASF49
C:\msys64\tmp\ccpzF9Dh.s:3196   .debug_str:0000000000000443 .LASF51
C:\msys64\tmp\ccpzF9Dh.s:3172   .debug_str:00000000000003a1 .LASF53
C:\msys64\tmp\ccpzF9Dh.s:3104   .debug_str:00000000000000b4 .LASF130
C:\msys64\tmp\ccpzF9Dh.s:3268   .debug_str:0000000000000666 .LASF131
C:\msys64\tmp\ccpzF9Dh.s:3206   .debug_str:00000000000004a4 .LASF54
C:\msys64\tmp\ccpzF9Dh.s:3186   .debug_str:0000000000000406 .LASF55
C:\msys64\tmp\ccpzF9Dh.s:3232   .debug_str:0000000000000543 .LASF56
C:\msys64\tmp\ccpzF9Dh.s:3230   .debug_str:000000000000053d .LASF57
C:\msys64\tmp\ccpzF9Dh.s:3190   .debug_str:0000000000000412 .LASF58
GAS LISTING C:\msys64\tmp\ccpzF9Dh.s 			page 19


C:\msys64\tmp\ccpzF9Dh.s:3236   .debug_str:0000000000000551 .LASF59
C:\msys64\tmp\ccpzF9Dh.s:3326   .debug_str:00000000000008a3 .LASF60
C:\msys64\tmp\ccpzF9Dh.s:3184   .debug_str:00000000000003fd .LASF61
C:\msys64\tmp\ccpzF9Dh.s:3142   .debug_str:00000000000002a9 .LASF62
C:\msys64\tmp\ccpzF9Dh.s:3238   .debug_str:000000000000055b .LASF63
C:\msys64\tmp\ccpzF9Dh.s:3288   .debug_str:0000000000000748 .LASF64
C:\msys64\tmp\ccpzF9Dh.s:3324   .debug_str:0000000000000896 .LASF65
C:\msys64\tmp\ccpzF9Dh.s:3240   .debug_str:0000000000000568 .LASF66
C:\msys64\tmp\ccpzF9Dh.s:3272   .debug_str:00000000000006bb .LASF68
C:\msys64\tmp\ccpzF9Dh.s:3350   .debug_str:0000000000000931 .LASF70
C:\msys64\tmp\ccpzF9Dh.s:3094   .debug_str:0000000000000061 .LASF72
C:\msys64\tmp\ccpzF9Dh.s:3148   .debug_str:00000000000002c4 .LASF74
C:\msys64\tmp\ccpzF9Dh.s:3144   .debug_str:00000000000002b3 .LASF75
C:\msys64\tmp\ccpzF9Dh.s:3128   .debug_str:000000000000021e .LASF76
C:\msys64\tmp\ccpzF9Dh.s:3216   .debug_str:00000000000004e1 .LASF77
C:\msys64\tmp\ccpzF9Dh.s:3294   .debug_str:000000000000078a .LASF78
C:\msys64\tmp\ccpzF9Dh.s:3338   .debug_str:00000000000008f7 .LASF79
C:\msys64\tmp\ccpzF9Dh.s:3166   .debug_str:0000000000000373 .LASF80
C:\msys64\tmp\ccpzF9Dh.s:3158   .debug_str:000000000000033a .LASF81
C:\msys64\tmp\ccpzF9Dh.s:3134   .debug_str:0000000000000270 .LASF82
C:\msys64\tmp\ccpzF9Dh.s:3282   .debug_str:0000000000000716 .LASF83
C:\msys64\tmp\ccpzF9Dh.s:3174   .debug_str:00000000000003be .LASF84
C:\msys64\tmp\ccpzF9Dh.s:3310   .debug_str:000000000000082a .LASF85
C:\msys64\tmp\ccpzF9Dh.s:3116   .debug_str:00000000000000ff .LASF86
C:\msys64\tmp\ccpzF9Dh.s:3176   .debug_str:00000000000003d2 .LASF87
C:\msys64\tmp\ccpzF9Dh.s:3150   .debug_str:00000000000002d9 .LASF88
C:\msys64\tmp\ccpzF9Dh.s:3226   .debug_str:000000000000052d .LASF89
C:\msys64\tmp\ccpzF9Dh.s:3344   .debug_str:0000000000000910 .LASF90
C:\msys64\tmp\ccpzF9Dh.s:3108   .debug_str:00000000000000c8 .LASF91
C:\msys64\tmp\ccpzF9Dh.s:3312   .debug_str:0000000000000832 .LASF92
C:\msys64\tmp\ccpzF9Dh.s:3164   .debug_str:000000000000036d .LASF93
C:\msys64\tmp\ccpzF9Dh.s:3306   .debug_str:00000000000007fc .LASF94
C:\msys64\tmp\ccpzF9Dh.s:3106   .debug_str:00000000000000c2 .LASF95
C:\msys64\tmp\ccpzF9Dh.s:3358   .debug_str:0000000000000965 .LASF96
C:\msys64\tmp\ccpzF9Dh.s:3352   .debug_str:0000000000000949 .LASF97
C:\msys64\tmp\ccpzF9Dh.s:3284   .debug_str:000000000000071e .LASF98
C:\msys64\tmp\ccpzF9Dh.s:3242   .debug_str:000000000000056e .LASF99
C:\msys64\tmp\ccpzF9Dh.s:3300   .debug_str:00000000000007c8 .LASF100
C:\msys64\tmp\ccpzF9Dh.s:3120   .debug_str:000000000000012f .LASF101
C:\msys64\tmp\ccpzF9Dh.s:3254   .debug_str:00000000000005bf .LASF102
C:\msys64\tmp\ccpzF9Dh.s:3102   .debug_str:00000000000000aa .LASF103
C:\msys64\tmp\ccpzF9Dh.s:3170   .debug_str:000000000000038b .LASF104
C:\msys64\tmp\ccpzF9Dh.s:3092   .debug_str:0000000000000053 .LASF105
C:\msys64\tmp\ccpzF9Dh.s:3220   .debug_str:00000000000004f2 .LASF106
C:\msys64\tmp\ccpzF9Dh.s:3320   .debug_str:000000000000086b .LASF107
C:\msys64\tmp\ccpzF9Dh.s:3198   .debug_str:0000000000000451 .LASF108
C:\msys64\tmp\ccpzF9Dh.s:3336   .debug_str:00000000000008e8 .LASF109
C:\msys64\tmp\ccpzF9Dh.s:3118   .debug_str:0000000000000113 .LASF110
C:\msys64\tmp\ccpzF9Dh.s:3334   .debug_str:00000000000008d3 .LASF112
C:\msys64\tmp\ccpzF9Dh.s:3270   .debug_str:0000000000000692 .LASF114
C:\msys64\tmp\ccpzF9Dh.s:3208   .debug_str:00000000000004ad .LASF115
C:\msys64\tmp\ccpzF9Dh.s:3292   .debug_str:000000000000076b .LASF116
C:\msys64\tmp\ccpzF9Dh.s:3162   .debug_str:0000000000000352 .LASF117
C:\msys64\tmp\ccpzF9Dh.s:13     .text:0000000000000000 .LFB35
C:\msys64\tmp\ccpzF9Dh.s:67     .text:0000000000000058 .LFE35
C:\msys64\tmp\ccpzF9Dh.s:42     .text:0000000000000030 .LBB19
C:\msys64\tmp\ccpzF9Dh.s:52     .text:0000000000000040 .LBE19
GAS LISTING C:\msys64\tmp\ccpzF9Dh.s 			page 20


C:\msys64\tmp\ccpzF9Dh.s:2863   .debug_loc:0000000000000000 .LLST0
C:\msys64\tmp\ccpzF9Dh.s:2871   .debug_loc:0000000000000024 .LLST1
C:\msys64\tmp\ccpzF9Dh.s:28     .text:0000000000000018 .LVL0
C:\msys64\tmp\ccpzF9Dh.s:56     .text:0000000000000048 .LVL3
C:\msys64\tmp\ccpzF9Dh.s:3346   .debug_str:0000000000000923 .LASF122
C:\msys64\tmp\ccpzF9Dh.s:3356   .debug_str:0000000000000959 .LASF118
C:\msys64\tmp\ccpzF9Dh.s:3330   .debug_str:00000000000008b9 .LASF119
C:\msys64\tmp\ccpzF9Dh.s:3096   .debug_str:000000000000006a .LASF132
C:\msys64\tmp\ccpzF9Dh.s:300    .text:00000000000001bc .LFB33
C:\msys64\tmp\ccpzF9Dh.s:362    .text:000000000000022c .LFE33
C:\msys64\tmp\ccpzF9Dh.s:2879   .debug_loc:000000000000004f .LLST9
C:\msys64\tmp\ccpzF9Dh.s:193    .text:000000000000012c .LFB31
C:\msys64\tmp\ccpzF9Dh.s:294    .text:00000000000001bc .LFE31
C:\msys64\tmp\ccpzF9Dh.s:2895   .debug_loc:0000000000000099 .LLST5
C:\msys64\tmp\ccpzF9Dh.s:2913   .debug_loc:00000000000000e5 .LLST6
C:\msys64\tmp\ccpzF9Dh.s:3168   .debug_str:0000000000000386 .LASF120
C:\msys64\tmp\ccpzF9Dh.s:2928   .debug_loc:000000000000012e .LLST7
C:\msys64\tmp\ccpzF9Dh.s:3342   .debug_str:000000000000090b .LASF121
C:\msys64\tmp\ccpzF9Dh.s:2948   .debug_loc:000000000000018b .LLST8
C:\msys64\tmp\ccpzF9Dh.s:268    .text:000000000000019c .LVL20
C:\msys64\tmp\ccpzF9Dh.s:73     .text:0000000000000058 .LFB30
C:\msys64\tmp\ccpzF9Dh.s:187    .text:000000000000012c .LFE30
C:\msys64\tmp\ccpzF9Dh.s:2972   .debug_loc:00000000000001fb .LLST2
C:\msys64\tmp\ccpzF9Dh.s:101    .text:0000000000000088 .LBB21
C:\msys64\tmp\ccpzF9Dh.s:126    .text:00000000000000b0 .LBE21
C:\msys64\tmp\ccpzF9Dh.s:109    .text:0000000000000094 .LBB23
C:\msys64\tmp\ccpzF9Dh.s:119    .text:00000000000000a4 .LBE23
C:\msys64\tmp\ccpzF9Dh.s:2979   .debug_loc:000000000000021e .LLST3
C:\msys64\tmp\ccpzF9Dh.s:134    .text:00000000000000c4 .LBB26
C:\msys64\tmp\ccpzF9Dh.s:158    .text:00000000000000ec .LBE26
C:\msys64\tmp\ccpzF9Dh.s:141    .text:00000000000000d0 .LBB28
C:\msys64\tmp\ccpzF9Dh.s:151    .text:00000000000000e0 .LBE28
C:\msys64\tmp\ccpzF9Dh.s:2988   .debug_loc:000000000000024a .LLST4
C:\msys64\tmp\ccpzF9Dh.s:131    .text:00000000000000c4 .LVL7
C:\msys64\tmp\ccpzF9Dh.s:162    .text:00000000000000fc .LVL10
C:\msys64\tmp\ccpzF9Dh.s:172    .text:0000000000000118 .LVL11
C:\msys64\tmp\ccpzF9Dh.s:370    .text:000000000000022c .LFB29
C:\msys64\tmp\ccpzF9Dh.s:438    .text:00000000000002a4 .LFE29
C:\msys64\tmp\ccpzF9Dh.s:2997   .debug_loc:0000000000000276 .LLST10
C:\msys64\tmp\ccpzF9Dh.s:3015   .debug_loc:00000000000002c2 .LLST11
C:\msys64\tmp\ccpzF9Dh.s:3033   .debug_loc:000000000000030e .LLST12
C:\msys64\tmp\ccpzF9Dh.s:395    .text:0000000000000258 .LBB33
C:\msys64\tmp\ccpzF9Dh.s:407    .text:0000000000000268 .LBE33
C:\msys64\tmp\ccpzF9Dh.s:3051   .debug_loc:000000000000035a .LLST13
C:\msys64\tmp\ccpzF9Dh.s:3060   .debug_loc:000000000000037f .LLST14
C:\msys64\tmp\ccpzF9Dh.s:402    .text:0000000000000264 .LVL30
C:\msys64\tmp\ccpzF9Dh.s:414    .text:0000000000000280 .LVL32
C:\msys64\tmp\ccpzF9Dh.s:3266   .debug_str:0000000000000654 .LASF133
C:\msys64\tmp\ccpzF9Dh.s:3112   .debug_str:00000000000000d6 .LASF134
C:\msys64\tmp\ccpzF9Dh.s:3154   .debug_str:00000000000002f2 .LASF135
C:\msys64\tmp\ccpzF9Dh.s:3160   .debug_str:0000000000000342 .LASF136
C:\msys64\tmp\ccpzF9Dh.s:39     .text:0000000000000030 .LVL1
C:\msys64\tmp\ccpzF9Dh.s:50     .text:0000000000000040 .LVL2
C:\msys64\tmp\ccpzF9Dh.s:303    .text:00000000000001bc .LVL24
C:\msys64\tmp\ccpzF9Dh.s:333    .text:000000000000020c .LVL25
C:\msys64\tmp\ccpzF9Dh.s:348    .text:0000000000000220 .LVL26
C:\msys64\tmp\ccpzF9Dh.s:196    .text:000000000000012c .LVL13
GAS LISTING C:\msys64\tmp\ccpzF9Dh.s 			page 21


C:\msys64\tmp\ccpzF9Dh.s:279    .text:00000000000001ac .LVL21
C:\msys64\tmp\ccpzF9Dh.s:227    .text:000000000000015c .LVL16
C:\msys64\tmp\ccpzF9Dh.s:259    .text:000000000000018c .LVL19
C:\msys64\tmp\ccpzF9Dh.s:211    .text:0000000000000148 .LVL14
C:\msys64\tmp\ccpzF9Dh.s:234    .text:0000000000000164 .LVL17
C:\msys64\tmp\ccpzF9Dh.s:287    .text:00000000000001b8 .LVL23
C:\msys64\tmp\ccpzF9Dh.s:215    .text:000000000000014c .LVL15
C:\msys64\tmp\ccpzF9Dh.s:251    .text:0000000000000180 .LVL18
C:\msys64\tmp\ccpzF9Dh.s:285    .text:00000000000001b4 .LVL22
C:\msys64\tmp\ccpzF9Dh.s:89     .text:0000000000000074 .LVL4
C:\msys64\tmp\ccpzF9Dh.s:182    .text:0000000000000124 .LVL12
C:\msys64\tmp\ccpzF9Dh.s:108    .text:0000000000000094 .LVL5
C:\msys64\tmp\ccpzF9Dh.s:116    .text:00000000000000a4 .LVL6
C:\msys64\tmp\ccpzF9Dh.s:140    .text:00000000000000d0 .LVL8
C:\msys64\tmp\ccpzF9Dh.s:148    .text:00000000000000e0 .LVL9
C:\msys64\tmp\ccpzF9Dh.s:373    .text:000000000000022c .LVL27
C:\msys64\tmp\ccpzF9Dh.s:400    .text:000000000000025c .LVL29
C:\msys64\tmp\ccpzF9Dh.s:427    .text:0000000000000294 .LVL34
C:\msys64\tmp\ccpzF9Dh.s:430    .text:0000000000000298 .LVL35
C:\msys64\tmp\ccpzF9Dh.s:433    .text:000000000000029c .LVL36
C:\msys64\tmp\ccpzF9Dh.s:394    .text:0000000000000258 .LVL28
C:\msys64\tmp\ccpzF9Dh.s:404    .text:0000000000000268 .LVL31
C:\msys64\tmp\ccpzF9Dh.s:424    .text:0000000000000290 .LVL33
C:\msys64\tmp\ccpzF9Dh.s:478    .debug_info:0000000000000000 .Ldebug_info0

UNDEFINED SYMBOLS
_ZN5Riscv10popSppSpieEv
_Z15thread_dispatchv
_ZN9Scheduler3putEP7_thread
_ZN9Scheduler3getEv
_ZN7_thread13switchContextEPNS_7ContextES1_
_ZN15MemoryAllocator7kmallocEm
