GAS LISTING C:\msys64\tmp\ccyhjTSP.s 			page 1


   1              		.file	"Thread.cpp"
   2              		.option nopic
   3              		.option norelax
   4              		.attribute arch, "rv64i2p0_m2p0_a2p0"
   5              		.attribute unaligned_access, 0
   6              		.attribute stack_align, 16
   7              		.text
   8              	.Ltext0:
   9              		.align	2
  10              		.globl	_ZN6Thread12createThreadEPFvvE
  12              	_ZN6Thread12createThreadEPFvvE:
  13              	.LFB29:
  14              		.file 1 "src/Thread.cpp"
   1:src/Thread.cpp **** #include "../h/Thread.h"
   2:src/Thread.cpp **** 
   3:src/Thread.cpp **** 
   4:src/Thread.cpp **** #include "../h/riscv.h"
   5:src/Thread.cpp **** #include "../h/Scheduler.h"
   6:src/Thread.cpp **** 
   7:src/Thread.cpp **** Thread* Thread::running = nullptr;
   8:src/Thread.cpp **** 
   9:src/Thread.cpp **** uint64 Thread::timeSliceCounter = 0;
  10:src/Thread.cpp **** 
  11:src/Thread.cpp **** 
  12:src/Thread.cpp **** Thread* Thread::createThread(Body body) {
  15              		.loc 1 12 41
  16              		.cfi_startproc
  17              		.cfi_personality 0x9b,DW.ref.__gxx_personality_v0
  18              		.cfi_lsda 0x1b,.LLSDA29
  19              	.LVL0:
  20 0000 130101FE 		addi	sp,sp,-32
  21              		.cfi_def_cfa_offset 32
  22 0004 233C1100 		sd	ra,24(sp)
  23 0008 23388100 		sd	s0,16(sp)
  24 000c 23349100 		sd	s1,8(sp)
  25 0010 23302101 		sd	s2,0(sp)
  26              		.cfi_offset 1, -8
  27              		.cfi_offset 8, -16
  28              		.cfi_offset 9, -24
  29              		.cfi_offset 18, -32
  30 0014 13040102 		addi	s0,sp,32
  31              		.cfi_def_cfa 8, 0
  32 0018 13090500 		mv	s2,a0
  13:src/Thread.cpp ****     return new Thread(body, TIME_SLICE);
  33              		.loc 1 13 5
  34              		.loc 1 13 39 is_stmt 0
  35 001c 13058003 		li	a0,56
  36              	.LVL1:
  37              	.LEHB0:
  38 0020 97000000 		call	_Znwm
  38      E7800000 
  39              	.LVL2:
  40              	.LEHE0:
  41 0028 93040500 		mv	s1,a0
  42              	.LVL3:
  43              	.LBB31:
  44              	.LBB32:
GAS LISTING C:\msys64\tmp\ccyhjTSP.s 			page 2


  45              		.file 2 "src/../h/Thread.h"
   1:src/../h/Thread.h ****  #ifndef PROJEKAT_THREAD_H
   2:src/../h/Thread.h **** #define PROJEKAT_THREAD_H
   3:src/../h/Thread.h **** 
   4:src/../h/Thread.h **** #include "../lib/hw.h"
   5:src/../h/Thread.h **** #include "MemoryAllocator.h"
   6:src/../h/Thread.h **** #include "Scheduler.h"
   7:src/../h/Thread.h **** 
   8:src/../h/Thread.h **** class Thread {
   9:src/../h/Thread.h **** public:
  10:src/../h/Thread.h ****     ~Thread() {delete[] stack;};
  11:src/../h/Thread.h ****     using Body = void (*)();
  12:src/../h/Thread.h **** 
  13:src/../h/Thread.h ****     static Thread* createThread(Body body);
  14:src/../h/Thread.h ****     
  15:src/../h/Thread.h ****     static Thread* running;
  16:src/../h/Thread.h **** 
  17:src/../h/Thread.h ****     static void yield();
  18:src/../h/Thread.h **** 
  19:src/../h/Thread.h **** 
  20:src/../h/Thread.h ****     static void dispatch();
  21:src/../h/Thread.h **** 
  22:src/../h/Thread.h ****     bool isFinished(){return finished;};
  23:src/../h/Thread.h **** 	
  24:src/../h/Thread.h **** 	uint64 getTimeSlice() const {
  25:src/../h/Thread.h **** 	return timeSlice;
  26:src/../h/Thread.h **** 	}
  27:src/../h/Thread.h ****     void setFinished(bool finished){Thread::finished = finished;};
  28:src/../h/Thread.h **** private:
  29:src/../h/Thread.h ****     // Konstruktor je privatan
  30:src/../h/Thread.h ****     friend class Scheduler;
  31:src/../h/Thread.h ****     friend class Riscv;
  32:src/../h/Thread.h **** 
  33:src/../h/Thread.h ****     Thread(Body body, uint64 timeSlice): next(nullptr), body(body),stack(body!=nullptr ? new uint64
  34:src/../h/Thread.h ****     (uint64)&threadWrapper, stack!= nullptr ? (uint64)& stack[STACK_SIZE] : 0}),
  35:src/../h/Thread.h ****     timeSlice(timeSlice), finished(false) {
  46              		.loc 2 35 41
  47 002c 23300500 		sd	zero,0(a0)
  48 0030 23342501 		sd	s2,8(a0)
  33:src/../h/Thread.h ****     (uint64)&threadWrapper, stack!= nullptr ? (uint64)& stack[STACK_SIZE] : 0}),
  49              		.loc 2 33 88
  50 0034 630A0900 		beq	s2,zero,.L7
  33:src/../h/Thread.h ****     (uint64)&threadWrapper, stack!= nullptr ? (uint64)& stack[STACK_SIZE] : 0}),
  51              		.loc 2 33 111
  52 0038 37250000 		li	a0,8192
  53              	.LEHB1:
  54 003c 97000000 		call	_Znam
  54      E7800000 
  55              	.LVL4:
  56 0044 6F008000 		j	.L2
  57              	.L7:
  33:src/../h/Thread.h ****     (uint64)&threadWrapper, stack!= nullptr ? (uint64)& stack[STACK_SIZE] : 0}),
  58              		.loc 2 33 88
  59 0048 13050000 		li	a0,0
  60              	.L2:
  61              		.loc 2 35 41
  62 004c 23B8A400 		sd	a0,16(s1)
GAS LISTING C:\msys64\tmp\ccyhjTSP.s 			page 3


  63 0050 97070000 		lla	a5,_ZN6Thread13threadWrapperEv
  63      93870700 
  64 0058 23BCF400 		sd	a5,24(s1)
  34:src/../h/Thread.h ****     timeSlice(timeSlice), finished(false) {
  65              		.loc 2 34 45
  66 005c 63000506 		beq	a0,zero,.L8
  34:src/../h/Thread.h ****     timeSlice(timeSlice), finished(false) {
  67              		.loc 2 34 55
  68 0060 B7270000 		li	a5,8192
  69 0064 B307F500 		add	a5,a0,a5
  70              	.L3:
  71              		.loc 2 35 41
  72 0068 23B0F402 		sd	a5,32(s1)
  73 006c 93072000 		li	a5,2
  74 0070 23B4F402 		sd	a5,40(s1)
  75 0074 23880402 		sb	zero,48(s1)
  36:src/../h/Thread.h ****         if (body!=nullptr) Scheduler::instance().put(this);
  76              		.loc 2 36 9 is_stmt 1
  77 0078 63040906 		beq	s2,zero,.L1
  78              		.loc 2 36 28
  79              	.LBB33:
  80              	.LBB34:
  81              		.file 3 "src/../h/Scheduler.h"
   1:src/../h/Scheduler.h **** //
   2:src/../h/Scheduler.h **** // Created by os on 4/1/26.
   3:src/../h/Scheduler.h **** //
   4:src/../h/Scheduler.h **** 
   5:src/../h/Scheduler.h **** #ifndef PROJEKAT_SCHEDULER_H
   6:src/../h/Scheduler.h **** #define PROJEKAT_SCHEDULER_H
   7:src/../h/Scheduler.h **** 
   8:src/../h/Scheduler.h **** class Thread;
   9:src/../h/Scheduler.h **** 
  10:src/../h/Scheduler.h **** class Scheduler {
  11:src/../h/Scheduler.h **** public:
  12:src/../h/Scheduler.h ****     static Scheduler& instance(){static Scheduler instance; return instance;}
  82              		.loc 3 12 34
  83              		.loc 3 12 51 is_stmt 0
  84 007c 97070000 		lbu	a5,_ZGVZN9Scheduler8instanceEvE8instance
  84      83C70700 
  85 0084 63900702 		bne	a5,zero,.L5
  86              	.LVL5:
  87              	.LBB35:
  88              	.LBB36:
  89              	.LBB37:
  13:src/../h/Scheduler.h **** 
  14:src/../h/Scheduler.h ****     Scheduler(const Scheduler&) = delete;
  15:src/../h/Scheduler.h ****     Scheduler& operator=(const Scheduler&) = delete;
  16:src/../h/Scheduler.h **** 
  17:src/../h/Scheduler.h **** 
  18:src/../h/Scheduler.h ****     void put(Thread* t);
  19:src/../h/Scheduler.h **** 
  20:src/../h/Scheduler.h ****     Thread* get();
  21:src/../h/Scheduler.h **** private:
  22:src/../h/Scheduler.h ****     Scheduler():head(nullptr), tail(nullptr){};
  90              		.loc 3 22 44
  91 0088 97070000 		lla	a5,_ZZN9Scheduler8instanceEvE8instance
  91      93870700 
GAS LISTING C:\msys64\tmp\ccyhjTSP.s 			page 4


  92 0090 23B00700 		sd	zero,0(a5)
  93 0094 23B40700 		sd	zero,8(a5)
  94              	.LVL6:
  95              	.LBE37:
  96              	.LBE36:
  97              	.LBE35:
  12:src/../h/Scheduler.h **** 
  98              		.loc 3 12 51
  99 0098 93071000 		li	a5,1
 100 009c 17070000 		sb	a5,_ZGVZN9Scheduler8instanceEvE8instance,a4
 100      2300F700 
 101              	.L5:
  12:src/../h/Scheduler.h **** 
 102              		.loc 3 12 61 is_stmt 1
 103              	.LBE34:
 104              	.LBE33:
 105              		.loc 2 36 53 is_stmt 0
 106 00a4 93850400 		mv	a1,s1
 107 00a8 17050000 		lla	a0,_ZZN9Scheduler8instanceEvE8instance
 107      13050500 
 108 00b0 97000000 		call	_ZN9Scheduler3putEP6Thread
 108      E7800000 
 109              	.LVL7:
 110              	.LEHE1:
 111 00b8 6F008002 		j	.L1
 112              	.L8:
  34:src/../h/Thread.h ****     timeSlice(timeSlice), finished(false) {
 113              		.loc 2 34 45
 114 00bc 93070000 		li	a5,0
 115 00c0 6FF09FFA 		j	.L3
 116              	.L9:
 117              	.LBE32:
 118              	.LBE31:
 119              		.loc 1 13 39
 120 00c4 13090500 		mv	s2,a0
 121              	.LVL8:
 122 00c8 13850400 		mv	a0,s1
 123 00cc 97000000 		call	_ZdlPv
 123      E7800000 
 124              	.LVL9:
 125 00d4 13050900 		mv	a0,s2
 126              	.LEHB2:
 127 00d8 97000000 		call	_Unwind_Resume
 127      E7800000 
 128              	.LVL10:
 129              	.LEHE2:
 130              	.L1:
  14:src/Thread.cpp **** }
 131              		.loc 1 14 1
 132 00e0 13850400 		mv	a0,s1
 133 00e4 83308101 		ld	ra,24(sp)
 134              		.cfi_restore 1
 135 00e8 03340101 		ld	s0,16(sp)
 136              		.cfi_restore 8
 137              		.cfi_def_cfa 2, 32
 138 00ec 83348100 		ld	s1,8(sp)
 139              		.cfi_restore 9
GAS LISTING C:\msys64\tmp\ccyhjTSP.s 			page 5


 140              	.LVL11:
 141 00f0 03390100 		ld	s2,0(sp)
 142              		.cfi_restore 18
 143              	.LVL12:
 144 00f4 13010102 		addi	sp,sp,32
 145              		.cfi_def_cfa_offset 0
 146 00f8 67800000 		jr	ra
 147              		.cfi_endproc
 148              	.LFE29:
 149              		.globl	__gxx_personality_v0
 150              		.section	.gcc_except_table,"aw",@progbits
 151              	.LLSDA29:
 152 0000 FF       		.byte	0xff
 153 0001 FF       		.byte	0xff
 154 0002 03       		.byte	0x3
 155 0003 27       		.byte	0x27
 156 0004 00000000 		.4byte	.LEHB0-.LFB29
 157 0008 00000000 		.4byte	.LEHE0-.LEHB0
 158 000c 00000000 		.4byte	0
 159 0010 00       		.byte	0
 160 0011 00000000 		.4byte	.LEHB1-.LFB29
 161 0015 00000000 		.4byte	.LEHE1-.LEHB1
 162 0019 00000000 		.4byte	.L9-.LFB29
 163 001d 00       		.byte	0
 164 001e 00000000 		.4byte	.LEHB2-.LFB29
 165 0022 00000000 		.4byte	.LEHE2-.LEHB2
 166 0026 00000000 		.4byte	0
 167 002a 00       		.byte	0
 168              		.text
 170              		.align	2
 171              		.globl	_ZN6Thread5yieldEv
 173              	_ZN6Thread5yieldEv:
 174              	.LFB30:
  15:src/Thread.cpp **** 
  16:src/Thread.cpp **** void Thread::yield() {
 175              		.loc 1 16 22 is_stmt 1
 176              		.cfi_startproc
 177 00fc 130101FF 		addi	sp,sp,-16
 178              		.cfi_def_cfa_offset 16
 179 0100 23348100 		sd	s0,8(sp)
 180              		.cfi_offset 8, -8
 181 0104 13040101 		addi	s0,sp,16
 182              		.cfi_def_cfa 8, 0
  17:src/Thread.cpp ****     
  18:src/Thread.cpp ****     __asm__ volatile ("ecall");
 183              		.loc 1 18 5
 184              	 #APP
 185              	# 18 "src/Thread.cpp" 1
  19              	}
 186              		ecall
 187              	# 0 "" 2
 188              		.loc 1 19 1 is_stmt 0
 189              	 #NO_APP
 190 010c 03348100 		ld	s0,8(sp)
 191              		.cfi_restore 8
 192              		.cfi_def_cfa 2, 16
 193 0110 13010101 		addi	sp,sp,16
GAS LISTING C:\msys64\tmp\ccyhjTSP.s 			page 6


 194              		.cfi_def_cfa_offset 0
 195 0114 67800000 		jr	ra
 196              		.cfi_endproc
 197              	.LFE30:
 199              		.align	2
 200              		.globl	_ZN6Thread13threadWrapperEv
 202              	_ZN6Thread13threadWrapperEv:
 203              	.LFB32:
  20:src/Thread.cpp **** 
  21:src/Thread.cpp **** void Thread::dispatch() {
  22:src/Thread.cpp ****     Thread* old = running;
  23:src/Thread.cpp **** 
  24:src/Thread.cpp ****     // Ako nije gotova, vrati je u Scheduler
  25:src/Thread.cpp ****     if (old && !old->finished) {
  26:src/Thread.cpp ****         Scheduler::instance().put(old);
  27:src/Thread.cpp ****     }
  28:src/Thread.cpp **** 
  29:src/Thread.cpp ****     // Uzmi sledeću
  30:src/Thread.cpp ****     running = Scheduler::instance().get();
  31:src/Thread.cpp **** 
  32:src/Thread.cpp ****     // Ako smo zapravo promenili nit, uradi switch
  33:src/Thread.cpp ****     if (old != running) {
  34:src/Thread.cpp ****         switchContext(&old->context, &running->context);
  35:src/Thread.cpp ****     }
  36:src/Thread.cpp **** }
  37:src/Thread.cpp **** 
  38:src/Thread.cpp **** 
  39:src/Thread.cpp **** void Thread::threadWrapper(){
 204              		.loc 1 39 29 is_stmt 1
 205              		.cfi_startproc
 206 0118 130101FE 		addi	sp,sp,-32
 207              		.cfi_def_cfa_offset 32
 208 011c 233C1100 		sd	ra,24(sp)
 209 0120 23388100 		sd	s0,16(sp)
 210 0124 23349100 		sd	s1,8(sp)
 211              		.cfi_offset 1, -8
 212              		.cfi_offset 8, -16
 213              		.cfi_offset 9, -24
 214 0128 13040102 		addi	s0,sp,32
 215              		.cfi_def_cfa 8, 0
  40:src/Thread.cpp **** 
  41:src/Thread.cpp **** Riscv::popSppSpie();
 216              		.loc 1 41 1
 217              		.loc 1 41 18 is_stmt 0
 218 012c 97000000 		call	_ZN5Riscv10popSppSpieEv
 218      E7800000 
 219              	.LVL13:
  42:src/Thread.cpp **** running -> body();
 220              		.loc 1 42 1 is_stmt 1
 221              		.loc 1 42 12 is_stmt 0
 222 0134 97040000 		lla	s1,_ZN6Thread7runningE
 222      93840400 
 223 013c 83B70400 		ld	a5,0(s1)
 224 0140 83B78700 		ld	a5,8(a5)
 225              		.loc 1 42 16
 226 0144 E7800700 		jalr	a5
 227              	.LVL14:
GAS LISTING C:\msys64\tmp\ccyhjTSP.s 			page 7


  43:src/Thread.cpp **** 
  44:src/Thread.cpp **** running -> setFinished(true);
 228              		.loc 1 44 1 is_stmt 1
 229              		.loc 1 44 23 is_stmt 0
 230 0148 83B70400 		ld	a5,0(s1)
 231              	.LVL15:
 232              	.LBB38:
 233              	.LBB39:
  27:src/../h/Thread.h **** private:
 234              		.loc 2 27 37 is_stmt 1
  27:src/../h/Thread.h **** private:
 235              		.loc 2 27 54 is_stmt 0
 236 014c 13071000 		li	a4,1
 237 0150 2388E702 		sb	a4,48(a5)
 238              	.LVL16:
 239              	.LBE39:
 240              	.LBE38:
  45:src/Thread.cpp **** 
  46:src/Thread.cpp **** Thread::yield();
 241              		.loc 1 46 1 is_stmt 1
 242              		.loc 1 46 14 is_stmt 0
 243 0154 97000000 		call	_ZN6Thread5yieldEv
 243      E7800000 
 244              	.LVL17:
  47:src/Thread.cpp **** }
 245              		.loc 1 47 1
 246 015c 83308101 		ld	ra,24(sp)
 247              		.cfi_restore 1
 248 0160 03340101 		ld	s0,16(sp)
 249              		.cfi_restore 8
 250              		.cfi_def_cfa 2, 32
 251 0164 83348100 		ld	s1,8(sp)
 252              		.cfi_restore 9
 253 0168 13010102 		addi	sp,sp,32
 254              		.cfi_def_cfa_offset 0
 255 016c 67800000 		jr	ra
 256              		.cfi_endproc
 257              	.LFE32:
 259              		.align	2
 260              		.globl	_ZN6Thread8dispatchEv
 262              	_ZN6Thread8dispatchEv:
 263              	.LFB31:
  21:src/Thread.cpp ****     Thread* old = running;
 264              		.loc 1 21 25 is_stmt 1
 265              		.cfi_startproc
 266 0170 130101FE 		addi	sp,sp,-32
 267              		.cfi_def_cfa_offset 32
 268 0174 233C1100 		sd	ra,24(sp)
 269 0178 23388100 		sd	s0,16(sp)
 270 017c 23349100 		sd	s1,8(sp)
 271              		.cfi_offset 1, -8
 272              		.cfi_offset 8, -16
 273              		.cfi_offset 9, -24
 274 0180 13040102 		addi	s0,sp,32
 275              		.cfi_def_cfa 8, 0
  22:src/Thread.cpp **** 
 276              		.loc 1 22 5
GAS LISTING C:\msys64\tmp\ccyhjTSP.s 			page 8


  22:src/Thread.cpp **** 
 277              		.loc 1 22 13 is_stmt 0
 278 0184 97040000 		ld	s1,_ZN6Thread7runningE
 278      83B40400 
 279              	.LVL18:
  25:src/Thread.cpp ****         Scheduler::instance().put(old);
 280              		.loc 1 25 5 is_stmt 1
 281 018c 63840404 		beq	s1,zero,.L16
  25:src/Thread.cpp ****         Scheduler::instance().put(old);
 282              		.loc 1 25 22 is_stmt 0 discriminator 1
 283 0190 83C70403 		lbu	a5,48(s1)
  25:src/Thread.cpp ****         Scheduler::instance().put(old);
 284              		.loc 1 25 13 discriminator 1
 285 0194 63900704 		bne	a5,zero,.L16
  26:src/Thread.cpp ****     }
 286              		.loc 1 26 9 is_stmt 1
 287              	.LBB40:
 288              	.LBB41:
  12:src/../h/Scheduler.h **** 
 289              		.loc 3 12 34
  12:src/../h/Scheduler.h **** 
 290              		.loc 3 12 51 is_stmt 0
 291 0198 97070000 		lbu	a5,_ZGVZN9Scheduler8instanceEvE8instance
 291      83C70700 
 292 01a0 63900702 		bne	a5,zero,.L17
 293              	.LVL19:
 294              	.LBB42:
 295              	.LBB43:
 296              	.LBB44:
 297              		.loc 3 22 44
 298 01a4 97070000 		lla	a5,_ZZN9Scheduler8instanceEvE8instance
 298      93870700 
 299 01ac 23B00700 		sd	zero,0(a5)
 300 01b0 23B40700 		sd	zero,8(a5)
 301              	.LVL20:
 302              	.LBE44:
 303              	.LBE43:
 304              	.LBE42:
  12:src/../h/Scheduler.h **** 
 305              		.loc 3 12 51
 306 01b4 93071000 		li	a5,1
 307 01b8 17070000 		sb	a5,_ZGVZN9Scheduler8instanceEvE8instance,a4
 307      2300F700 
 308              	.L17:
  12:src/../h/Scheduler.h **** 
 309              		.loc 3 12 61 is_stmt 1
 310              	.LBE41:
 311              	.LBE40:
  26:src/Thread.cpp ****     }
 312              		.loc 1 26 34 is_stmt 0
 313 01c0 93850400 		mv	a1,s1
 314 01c4 17050000 		lla	a0,_ZZN9Scheduler8instanceEvE8instance
 314      13050500 
 315 01cc 97000000 		call	_ZN9Scheduler3putEP6Thread
 315      E7800000 
 316              	.LVL21:
 317              	.L16:
GAS LISTING C:\msys64\tmp\ccyhjTSP.s 			page 9


  30:src/Thread.cpp **** 
 318              		.loc 1 30 5 is_stmt 1
 319              	.LBB45:
 320              	.LBB46:
  12:src/../h/Scheduler.h **** 
 321              		.loc 3 12 34
  12:src/../h/Scheduler.h **** 
 322              		.loc 3 12 51 is_stmt 0
 323 01d4 97070000 		lbu	a5,_ZGVZN9Scheduler8instanceEvE8instance
 323      83C70700 
 324 01dc 63900702 		bne	a5,zero,.L18
 325              	.LVL22:
 326              	.LBB47:
 327              	.LBB48:
 328              	.LBB49:
 329              		.loc 3 22 44
 330 01e0 97070000 		lla	a5,_ZZN9Scheduler8instanceEvE8instance
 330      93870700 
 331 01e8 23B00700 		sd	zero,0(a5)
 332 01ec 23B40700 		sd	zero,8(a5)
 333              	.LVL23:
 334              	.LBE49:
 335              	.LBE48:
 336              	.LBE47:
  12:src/../h/Scheduler.h **** 
 337              		.loc 3 12 51
 338 01f0 93071000 		li	a5,1
 339 01f4 17070000 		sb	a5,_ZGVZN9Scheduler8instanceEvE8instance,a4
 339      2300F700 
 340              	.L18:
  12:src/../h/Scheduler.h **** 
 341              		.loc 3 12 61 is_stmt 1
 342              	.LBE46:
 343              	.LBE45:
  30:src/Thread.cpp **** 
 344              		.loc 1 30 40 is_stmt 0
 345 01fc 17050000 		lla	a0,_ZZN9Scheduler8instanceEvE8instance
 345      13050500 
 346 0204 97000000 		call	_ZN9Scheduler3getEv
 346      E7800000 
 347              	.LVL24:
  30:src/Thread.cpp **** 
 348              		.loc 1 30 13
 349 020c 97070000 		sd	a0,_ZN6Thread7runningE,a5
 349      23B0A700 
  33:src/Thread.cpp ****         switchContext(&old->context, &running->context);
 350              		.loc 1 33 5 is_stmt 1
 351 0214 638AA400 		beq	s1,a0,.L15
  34:src/Thread.cpp ****     }
 352              		.loc 1 34 9
  34:src/Thread.cpp ****     }
 353              		.loc 1 34 22 is_stmt 0
 354 0218 93058501 		addi	a1,a0,24
 355 021c 13858401 		addi	a0,s1,24
 356 0220 97000000 		call	_ZN6Thread13switchContextEPNS_7ContextES1_
 356      E7800000 
 357              	.LVL25:
GAS LISTING C:\msys64\tmp\ccyhjTSP.s 			page 10


 358              	.L15:
  36:src/Thread.cpp **** 
 359              		.loc 1 36 1
 360 0228 83308101 		ld	ra,24(sp)
 361              		.cfi_restore 1
 362 022c 03340101 		ld	s0,16(sp)
 363              		.cfi_restore 8
 364              		.cfi_def_cfa 2, 32
 365 0230 83348100 		ld	s1,8(sp)
 366              		.cfi_restore 9
 367              	.LVL26:
 368 0234 13010102 		addi	sp,sp,32
 369              		.cfi_def_cfa_offset 0
 370 0238 67800000 		jr	ra
 371              		.cfi_endproc
 372              	.LFE31:
 374              		.globl	_ZN6Thread16timeSliceCounterE
 375              		.globl	_ZN6Thread7runningE
 376              		.weak	_ZGVZN9Scheduler8instanceEvE8instance
 377              		.section	.sbss._ZGVZN9Scheduler8instanceEvE8instance,"awG",@nobits,_ZGVZN9Scheduler8instanceEvE8in
 378              		.align	3
 381              	_ZGVZN9Scheduler8instanceEvE8instance:
 382 0000 00000000 		.zero	8
 382      00000000 
 383              		.weak	_ZZN9Scheduler8instanceEvE8instance
 384              		.section	.bss._ZZN9Scheduler8instanceEvE8instance,"awG",@nobits,_ZZN9Scheduler8instanceEvE8instanc
 385              		.align	3
 388              	_ZZN9Scheduler8instanceEvE8instance:
 389 0000 00000000 		.zero	16
 389      00000000 
 389      00000000 
 389      00000000 
 390              		.section	.sbss,"aw",@nobits
 391              		.align	3
 394              	_ZN6Thread16timeSliceCounterE:
 395 0000 00000000 		.zero	8
 395      00000000 
 398              	_ZN6Thread7runningE:
 399 0008 00000000 		.zero	8
 399      00000000 
 400              		.text
 401              	.Letext0:
 402              		.file 4 "src/../h/../lib/hw.h"
 403              		.file 5 "src/../h/riscv.h"
 2717              		.align	3
 2720              	DW.ref.__gxx_personality_v0:
 2721 0000 00000000 		.dword	__gxx_personality_v0
 2721      00000000 
 2722              		.ident	"GCC: (GNU) 10.1.0"
GAS LISTING C:\msys64\tmp\ccyhjTSP.s 			page 11


DEFINED SYMBOLS
                            *ABS*:0000000000000000 Thread.cpp
C:\msys64\tmp\ccyhjTSP.s:12     .text:0000000000000000 _ZN6Thread12createThreadEPFvvE
C:\msys64\tmp\ccyhjTSP.s:16     .text:0000000000000000 .L0 
C:\msys64\tmp\ccyhjTSP.s:2720   .sdata.DW.ref.__gxx_personality_v0:0000000000000000 DW.ref.__gxx_personality_v0
C:\msys64\tmp\ccyhjTSP.s:20     .text:0000000000000000 .L0 
C:\msys64\tmp\ccyhjTSP.s:21     .text:0000000000000004 .L0 
C:\msys64\tmp\ccyhjTSP.s:26     .text:0000000000000014 .L0 
C:\msys64\tmp\ccyhjTSP.s:27     .text:0000000000000014 .L0 
C:\msys64\tmp\ccyhjTSP.s:28     .text:0000000000000014 .L0 
C:\msys64\tmp\ccyhjTSP.s:29     .text:0000000000000014 .L0 
C:\msys64\tmp\ccyhjTSP.s:31     .text:0000000000000018 .L0 
C:\msys64\tmp\ccyhjTSP.s:34     .text:000000000000001c .L0 
C:\msys64\tmp\ccyhjTSP.s:35     .text:000000000000001c .L0 
C:\msys64\tmp\ccyhjTSP.s:47     .text:000000000000002c .L0 
C:\msys64\tmp\ccyhjTSP.s:50     .text:0000000000000034 .L0 
C:\msys64\tmp\ccyhjTSP.s:52     .text:0000000000000038 .L0 
C:\msys64\tmp\ccyhjTSP.s:59     .text:0000000000000048 .L0 
C:\msys64\tmp\ccyhjTSP.s:62     .text:000000000000004c .L0 
C:\msys64\tmp\ccyhjTSP.s:202    .text:0000000000000118 _ZN6Thread13threadWrapperEv
C:\msys64\tmp\ccyhjTSP.s:66     .text:000000000000005c .L0 
C:\msys64\tmp\ccyhjTSP.s:68     .text:0000000000000060 .L0 
C:\msys64\tmp\ccyhjTSP.s:72     .text:0000000000000068 .L0 
C:\msys64\tmp\ccyhjTSP.s:77     .text:0000000000000078 .L0 
C:\msys64\tmp\ccyhjTSP.s:82     .text:000000000000007c .L0 
C:\msys64\tmp\ccyhjTSP.s:83     .text:000000000000007c .L0 
C:\msys64\tmp\ccyhjTSP.s:381    .sbss._ZGVZN9Scheduler8instanceEvE8instance:0000000000000000 _ZGVZN9Scheduler8instanceEvE8instance
C:\msys64\tmp\ccyhjTSP.s:84     .text:000000000000007c .L0 
C:\msys64\tmp\ccyhjTSP.s:388    .bss._ZZN9Scheduler8instanceEvE8instance:0000000000000000 _ZZN9Scheduler8instanceEvE8instance
C:\msys64\tmp\ccyhjTSP.s:91     .text:0000000000000088 .L0 
C:\msys64\tmp\ccyhjTSP.s:99     .text:0000000000000098 .L0 
C:\msys64\tmp\ccyhjTSP.s:105    .text:00000000000000a4 .L0 
C:\msys64\tmp\ccyhjTSP.s:106    .text:00000000000000a4 .L0 
C:\msys64\tmp\ccyhjTSP.s:114    .text:00000000000000bc .L0 
C:\msys64\tmp\ccyhjTSP.s:120    .text:00000000000000c4 .L0 
C:\msys64\tmp\ccyhjTSP.s:132    .text:00000000000000e0 .L0 
C:\msys64\tmp\ccyhjTSP.s:134    .text:00000000000000e8 .L0 
C:\msys64\tmp\ccyhjTSP.s:136    .text:00000000000000ec .L0 
C:\msys64\tmp\ccyhjTSP.s:137    .text:00000000000000ec .L0 
C:\msys64\tmp\ccyhjTSP.s:139    .text:00000000000000f0 .L0 
C:\msys64\tmp\ccyhjTSP.s:142    .text:00000000000000f4 .L0 
C:\msys64\tmp\ccyhjTSP.s:145    .text:00000000000000f8 .L0 
C:\msys64\tmp\ccyhjTSP.s:147    .text:00000000000000fc .L0 
C:\msys64\tmp\ccyhjTSP.s:173    .text:00000000000000fc _ZN6Thread5yieldEv
C:\msys64\tmp\ccyhjTSP.s:176    .text:00000000000000fc .L0 
C:\msys64\tmp\ccyhjTSP.s:177    .text:00000000000000fc .L0 
C:\msys64\tmp\ccyhjTSP.s:178    .text:0000000000000100 .L0 
C:\msys64\tmp\ccyhjTSP.s:180    .text:0000000000000104 .L0 
C:\msys64\tmp\ccyhjTSP.s:182    .text:0000000000000108 .L0 
      src/Thread.cpp:18     .text:0000000000000108 .L0 
C:\msys64\tmp\ccyhjTSP.s:190    .text:000000000000010c .L0 
C:\msys64\tmp\ccyhjTSP.s:191    .text:0000000000000110 .L0 
C:\msys64\tmp\ccyhjTSP.s:192    .text:0000000000000110 .L0 
C:\msys64\tmp\ccyhjTSP.s:194    .text:0000000000000114 .L0 
C:\msys64\tmp\ccyhjTSP.s:196    .text:0000000000000118 .L0 
C:\msys64\tmp\ccyhjTSP.s:205    .text:0000000000000118 .L0 
C:\msys64\tmp\ccyhjTSP.s:206    .text:0000000000000118 .L0 
GAS LISTING C:\msys64\tmp\ccyhjTSP.s 			page 12


C:\msys64\tmp\ccyhjTSP.s:207    .text:000000000000011c .L0 
C:\msys64\tmp\ccyhjTSP.s:211    .text:0000000000000128 .L0 
C:\msys64\tmp\ccyhjTSP.s:212    .text:0000000000000128 .L0 
C:\msys64\tmp\ccyhjTSP.s:213    .text:0000000000000128 .L0 
C:\msys64\tmp\ccyhjTSP.s:215    .text:000000000000012c .L0 
C:\msys64\tmp\ccyhjTSP.s:217    .text:000000000000012c .L0 
C:\msys64\tmp\ccyhjTSP.s:218    .text:000000000000012c .L0 
C:\msys64\tmp\ccyhjTSP.s:221    .text:0000000000000134 .L0 
C:\msys64\tmp\ccyhjTSP.s:398    .sbss:0000000000000008 _ZN6Thread7runningE
C:\msys64\tmp\ccyhjTSP.s:222    .text:0000000000000134 .L0 
C:\msys64\tmp\ccyhjTSP.s:226    .text:0000000000000144 .L0 
C:\msys64\tmp\ccyhjTSP.s:229    .text:0000000000000148 .L0 
C:\msys64\tmp\ccyhjTSP.s:230    .text:0000000000000148 .L0 
C:\msys64\tmp\ccyhjTSP.s:235    .text:000000000000014c .L0 
C:\msys64\tmp\ccyhjTSP.s:236    .text:000000000000014c .L0 
C:\msys64\tmp\ccyhjTSP.s:242    .text:0000000000000154 .L0 
C:\msys64\tmp\ccyhjTSP.s:243    .text:0000000000000154 .L0 
C:\msys64\tmp\ccyhjTSP.s:246    .text:000000000000015c .L0 
C:\msys64\tmp\ccyhjTSP.s:247    .text:0000000000000160 .L0 
C:\msys64\tmp\ccyhjTSP.s:249    .text:0000000000000164 .L0 
C:\msys64\tmp\ccyhjTSP.s:250    .text:0000000000000164 .L0 
C:\msys64\tmp\ccyhjTSP.s:252    .text:0000000000000168 .L0 
C:\msys64\tmp\ccyhjTSP.s:254    .text:000000000000016c .L0 
C:\msys64\tmp\ccyhjTSP.s:256    .text:0000000000000170 .L0 
C:\msys64\tmp\ccyhjTSP.s:262    .text:0000000000000170 _ZN6Thread8dispatchEv
C:\msys64\tmp\ccyhjTSP.s:265    .text:0000000000000170 .L0 
C:\msys64\tmp\ccyhjTSP.s:266    .text:0000000000000170 .L0 
C:\msys64\tmp\ccyhjTSP.s:267    .text:0000000000000174 .L0 
C:\msys64\tmp\ccyhjTSP.s:271    .text:0000000000000180 .L0 
C:\msys64\tmp\ccyhjTSP.s:272    .text:0000000000000180 .L0 
C:\msys64\tmp\ccyhjTSP.s:273    .text:0000000000000180 .L0 
C:\msys64\tmp\ccyhjTSP.s:275    .text:0000000000000184 .L0 
C:\msys64\tmp\ccyhjTSP.s:277    .text:0000000000000184 .L0 
C:\msys64\tmp\ccyhjTSP.s:278    .text:0000000000000184 .L0 
C:\msys64\tmp\ccyhjTSP.s:281    .text:000000000000018c .L0 
C:\msys64\tmp\ccyhjTSP.s:283    .text:0000000000000190 .L0 
C:\msys64\tmp\ccyhjTSP.s:285    .text:0000000000000194 .L0 
C:\msys64\tmp\ccyhjTSP.s:289    .text:0000000000000198 .L0 
C:\msys64\tmp\ccyhjTSP.s:290    .text:0000000000000198 .L0 
C:\msys64\tmp\ccyhjTSP.s:291    .text:0000000000000198 .L0 
C:\msys64\tmp\ccyhjTSP.s:298    .text:00000000000001a4 .L0 
C:\msys64\tmp\ccyhjTSP.s:306    .text:00000000000001b4 .L0 
C:\msys64\tmp\ccyhjTSP.s:312    .text:00000000000001c0 .L0 
C:\msys64\tmp\ccyhjTSP.s:313    .text:00000000000001c0 .L0 
C:\msys64\tmp\ccyhjTSP.s:321    .text:00000000000001d4 .L0 
C:\msys64\tmp\ccyhjTSP.s:322    .text:00000000000001d4 .L0 
C:\msys64\tmp\ccyhjTSP.s:323    .text:00000000000001d4 .L0 
C:\msys64\tmp\ccyhjTSP.s:330    .text:00000000000001e0 .L0 
C:\msys64\tmp\ccyhjTSP.s:338    .text:00000000000001f0 .L0 
C:\msys64\tmp\ccyhjTSP.s:344    .text:00000000000001fc .L0 
C:\msys64\tmp\ccyhjTSP.s:345    .text:00000000000001fc .L0 
C:\msys64\tmp\ccyhjTSP.s:349    .text:000000000000020c .L0 
C:\msys64\tmp\ccyhjTSP.s:351    .text:0000000000000214 .L0 
C:\msys64\tmp\ccyhjTSP.s:353    .text:0000000000000218 .L0 
C:\msys64\tmp\ccyhjTSP.s:354    .text:0000000000000218 .L0 
C:\msys64\tmp\ccyhjTSP.s:360    .text:0000000000000228 .L0 
C:\msys64\tmp\ccyhjTSP.s:361    .text:000000000000022c .L0 
GAS LISTING C:\msys64\tmp\ccyhjTSP.s 			page 13


C:\msys64\tmp\ccyhjTSP.s:363    .text:0000000000000230 .L0 
C:\msys64\tmp\ccyhjTSP.s:364    .text:0000000000000230 .L0 
C:\msys64\tmp\ccyhjTSP.s:366    .text:0000000000000234 .L0 
C:\msys64\tmp\ccyhjTSP.s:369    .text:0000000000000238 .L0 
C:\msys64\tmp\ccyhjTSP.s:371    .text:000000000000023c .L0 
C:\msys64\tmp\ccyhjTSP.s:394    .sbss:0000000000000000 _ZN6Thread16timeSliceCounterE
C:\msys64\tmp\ccyhjTSP.s:404    .text:000000000000023c .L0 
C:\msys64\tmp\ccyhjTSP.s:63     .text:0000000000000050 .L0 
C:\msys64\tmp\ccyhjTSP.s:84     .text:000000000000007c .L0 
C:\msys64\tmp\ccyhjTSP.s:91     .text:0000000000000088 .L0 
C:\msys64\tmp\ccyhjTSP.s:100    .text:000000000000009c .L0 
C:\msys64\tmp\ccyhjTSP.s:107    .text:00000000000000a8 .L0 
C:\msys64\tmp\ccyhjTSP.s:222    .text:0000000000000134 .L0 
C:\msys64\tmp\ccyhjTSP.s:278    .text:0000000000000184 .L0 
C:\msys64\tmp\ccyhjTSP.s:291    .text:0000000000000198 .L0 
C:\msys64\tmp\ccyhjTSP.s:298    .text:00000000000001a4 .L0 
C:\msys64\tmp\ccyhjTSP.s:307    .text:00000000000001b8 .L0 
C:\msys64\tmp\ccyhjTSP.s:314    .text:00000000000001c4 .L0 
C:\msys64\tmp\ccyhjTSP.s:323    .text:00000000000001d4 .L0 
C:\msys64\tmp\ccyhjTSP.s:330    .text:00000000000001e0 .L0 
C:\msys64\tmp\ccyhjTSP.s:339    .text:00000000000001f4 .L0 
C:\msys64\tmp\ccyhjTSP.s:345    .text:00000000000001fc .L0 
C:\msys64\tmp\ccyhjTSP.s:349    .text:000000000000020c .L0 
C:\msys64\tmp\ccyhjTSP.s:57     .text:0000000000000048 .L7
C:\msys64\tmp\ccyhjTSP.s:60     .text:000000000000004c .L2
C:\msys64\tmp\ccyhjTSP.s:112    .text:00000000000000bc .L8
C:\msys64\tmp\ccyhjTSP.s:130    .text:00000000000000e0 .L1
C:\msys64\tmp\ccyhjTSP.s:101    .text:00000000000000a4 .L5
C:\msys64\tmp\ccyhjTSP.s:70     .text:0000000000000068 .L3
C:\msys64\tmp\ccyhjTSP.s:317    .text:00000000000001d4 .L16
C:\msys64\tmp\ccyhjTSP.s:308    .text:00000000000001c0 .L17
C:\msys64\tmp\ccyhjTSP.s:340    .text:00000000000001fc .L18
C:\msys64\tmp\ccyhjTSP.s:358    .text:0000000000000228 .L15
C:\msys64\tmp\ccyhjTSP.s:37     .text:0000000000000020 .LEHB0
C:\msys64\tmp\ccyhjTSP.s:13     .text:0000000000000000 .LFB29
C:\msys64\tmp\ccyhjTSP.s:40     .text:0000000000000028 .LEHE0
C:\msys64\tmp\ccyhjTSP.s:53     .text:000000000000003c .LEHB1
C:\msys64\tmp\ccyhjTSP.s:110    .text:00000000000000b8 .LEHE1
C:\msys64\tmp\ccyhjTSP.s:116    .text:00000000000000c4 .L9
C:\msys64\tmp\ccyhjTSP.s:126    .text:00000000000000d8 .LEHB2
C:\msys64\tmp\ccyhjTSP.s:129    .text:00000000000000e0 .LEHE2
C:\msys64\tmp\ccyhjTSP.s:1402   .debug_abbrev:0000000000000000 .Ldebug_abbrev0
C:\msys64\tmp\ccyhjTSP.s:2518   .debug_str:00000000000000be .LASF94
C:\msys64\tmp\ccyhjTSP.s:2664   .debug_str:00000000000005d4 .LASF95
C:\msys64\tmp\ccyhjTSP.s:2632   .debug_str:00000000000004ce .LASF96
C:\msys64\tmp\ccyhjTSP.s:8      .text:0000000000000000 .Ltext0
C:\msys64\tmp\ccyhjTSP.s:401    .text:000000000000023c .Letext0
C:\msys64\tmp\ccyhjTSP.s:2488   .debug_line:0000000000000000 .Ldebug_line0
C:\msys64\tmp\ccyhjTSP.s:2604   .debug_str:0000000000000413 .LASF0
C:\msys64\tmp\ccyhjTSP.s:2618   .debug_str:0000000000000454 .LASF1
C:\msys64\tmp\ccyhjTSP.s:2590   .debug_str:00000000000003b2 .LASF2
C:\msys64\tmp\ccyhjTSP.s:2564   .debug_str:000000000000031f .LASF4
C:\msys64\tmp\ccyhjTSP.s:2650   .debug_str:0000000000000571 .LASF3
C:\msys64\tmp\ccyhjTSP.s:2504   .debug_str:0000000000000048 .LASF5
C:\msys64\tmp\ccyhjTSP.s:2620   .debug_str:0000000000000467 .LASF6
C:\msys64\tmp\ccyhjTSP.s:2602   .debug_str:0000000000000400 .LASF7
C:\msys64\tmp\ccyhjTSP.s:2630   .debug_str:00000000000004bf .LASF8
GAS LISTING C:\msys64\tmp\ccyhjTSP.s 			page 14


C:\msys64\tmp\ccyhjTSP.s:2516   .debug_str:00000000000000b2 .LASF9
C:\msys64\tmp\ccyhjTSP.s:2640   .debug_str:000000000000052d .LASF10
C:\msys64\tmp\ccyhjTSP.s:2526   .debug_str:00000000000001dd .LASF11
C:\msys64\tmp\ccyhjTSP.s:2544   .debug_str:0000000000000274 .LASF12
C:\msys64\tmp\ccyhjTSP.s:2626   .debug_str:000000000000049b .LASF13
C:\msys64\tmp\ccyhjTSP.s:2612   .debug_str:0000000000000436 .LASF45
C:\msys64\tmp\ccyhjTSP.s:2586   .debug_str:0000000000000392 .LASF47
C:\msys64\tmp\ccyhjTSP.s:2682   .debug_str:0000000000000678 .LASF26
C:\msys64\tmp\ccyhjTSP.s:2598   .debug_str:00000000000003db .LASF97
C:\msys64\tmp\ccyhjTSP.s:2692   .debug_str:00000000000006d6 .LASF98
C:\msys64\tmp\ccyhjTSP.s:2600   .debug_str:00000000000003e5 .LASF99
C:\msys64\tmp\ccyhjTSP.s:2562   .debug_str:000000000000030b .LASF100
C:\msys64\tmp\ccyhjTSP.s:2584   .debug_str:0000000000000380 .LASF32
C:\msys64\tmp\ccyhjTSP.s:2530   .debug_str:000000000000020c .LASF14
C:\msys64\tmp\ccyhjTSP.s:2594   .debug_str:00000000000003cc .LASF15
C:\msys64\tmp\ccyhjTSP.s:2686   .debug_str:0000000000000694 .LASF16
C:\msys64\tmp\ccyhjTSP.s:2496   .debug_str:0000000000000025 .LASF101
C:\msys64\tmp\ccyhjTSP.s:2646   .debug_str:0000000000000551 .LASF17
C:\msys64\tmp\ccyhjTSP.s:2614   .debug_str:000000000000043f .LASF19
C:\msys64\tmp\ccyhjTSP.s:2574   .debug_str:0000000000000347 .LASF18
C:\msys64\tmp\ccyhjTSP.s:2674   .debug_str:0000000000000634 .LASF20
C:\msys64\tmp\ccyhjTSP.s:2508   .debug_str:0000000000000073 .LASF102
C:\msys64\tmp\ccyhjTSP.s:2538   .debug_str:0000000000000243 .LASF103
C:\msys64\tmp\ccyhjTSP.s:2642   .debug_str:0000000000000543 .LASF21
C:\msys64\tmp\ccyhjTSP.s:2556   .debug_str:00000000000002de .LASF23
C:\msys64\tmp\ccyhjTSP.s:2608   .debug_str:0000000000000427 .LASF22
C:\msys64\tmp\ccyhjTSP.s:2550   .debug_str:00000000000002ac .LASF24
C:\msys64\tmp\ccyhjTSP.s:2622   .debug_str:000000000000047a .LASF25
C:\msys64\tmp\ccyhjTSP.s:2528   .debug_str:00000000000001f3 .LASF27
C:\msys64\tmp\ccyhjTSP.s:2582   .debug_str:0000000000000373 .LASF28
C:\msys64\tmp\ccyhjTSP.s:2522   .debug_str:00000000000001ad .LASF29
C:\msys64\tmp\ccyhjTSP.s:2592   .debug_str:00000000000003c0 .LASF30
C:\msys64\tmp\ccyhjTSP.s:2628   .debug_str:00000000000004a5 .LASF31
C:\msys64\tmp\ccyhjTSP.s:2492   .debug_str:0000000000000008 .LASF33
C:\msys64\tmp\ccyhjTSP.s:2578   .debug_str:000000000000035f .LASF104
C:\msys64\tmp\ccyhjTSP.s:2520   .debug_str:0000000000000191 .LASF105
C:\msys64\tmp\ccyhjTSP.s:2498   .debug_str:000000000000002d .LASF106
C:\msys64\tmp\ccyhjTSP.s:2546   .debug_str:0000000000000279 .LASF107
C:\msys64\tmp\ccyhjTSP.s:2708   .debug_str:0000000000000766 .LASF34
C:\msys64\tmp\ccyhjTSP.s:2568   .debug_str:000000000000032f .LASF35
C:\msys64\tmp\ccyhjTSP.s:2610   .debug_str:0000000000000430 .LASF36
C:\msys64\tmp\ccyhjTSP.s:2572   .debug_str:000000000000033f .LASF37
C:\msys64\tmp\ccyhjTSP.s:2678   .debug_str:000000000000065b .LASF38
C:\msys64\tmp\ccyhjTSP.s:2566   .debug_str:0000000000000326 .LASF39
C:\msys64\tmp\ccyhjTSP.s:2652   .debug_str:0000000000000583 .LASF108
C:\msys64\tmp\ccyhjTSP.s:2576   .debug_str:0000000000000354 .LASF40
C:\msys64\tmp\ccyhjTSP.s:2558   .debug_str:00000000000002f1 .LASF41
C:\msys64\tmp\ccyhjTSP.s:2616   .debug_str:000000000000044e .LASF42
C:\msys64\tmp\ccyhjTSP.s:2638   .debug_str:0000000000000522 .LASF43
C:\msys64\tmp\ccyhjTSP.s:2704   .debug_str:0000000000000743 .LASF44
C:\msys64\tmp\ccyhjTSP.s:2494   .debug_str:000000000000001c .LASF46
C:\msys64\tmp\ccyhjTSP.s:2540   .debug_str:000000000000024b .LASF48
C:\msys64\tmp\ccyhjTSP.s:2536   .debug_str:000000000000023a .LASF49
C:\msys64\tmp\ccyhjTSP.s:2534   .debug_str:0000000000000225 .LASF50
C:\msys64\tmp\ccyhjTSP.s:2654   .debug_str:0000000000000594 .LASF51
C:\msys64\tmp\ccyhjTSP.s:2634   .debug_str:00000000000004fd .LASF52
C:\msys64\tmp\ccyhjTSP.s:2684   .debug_str:000000000000068d .LASF53
GAS LISTING C:\msys64\tmp\ccyhjTSP.s 			page 15


C:\msys64\tmp\ccyhjTSP.s:2668   .debug_str:00000000000005fb .LASF54
C:\msys64\tmp\ccyhjTSP.s:2548   .debug_str:00000000000002a4 .LASF55
C:\msys64\tmp\ccyhjTSP.s:2542   .debug_str:0000000000000260 .LASF56
C:\msys64\tmp\ccyhjTSP.s:2490   .debug_str:0000000000000000 .LASF57
C:\msys64\tmp\ccyhjTSP.s:2656   .debug_str:000000000000059b .LASF58
C:\msys64\tmp\ccyhjTSP.s:2676   .debug_str:0000000000000653 .LASF59
C:\msys64\tmp\ccyhjTSP.s:2510   .debug_str:0000000000000078 .LASF60
C:\msys64\tmp\ccyhjTSP.s:2644   .debug_str:0000000000000549 .LASF61
C:\msys64\tmp\ccyhjTSP.s:2524   .debug_str:00000000000001c9 .LASF62
C:\msys64\tmp\ccyhjTSP.s:2606   .debug_str:0000000000000420 .LASF63
C:\msys64\tmp\ccyhjTSP.s:2700   .debug_str:000000000000072b .LASF64
C:\msys64\tmp\ccyhjTSP.s:2502   .debug_str:0000000000000041 .LASF65
C:\msys64\tmp\ccyhjTSP.s:2680   .debug_str:0000000000000665 .LASF66
C:\msys64\tmp\ccyhjTSP.s:2552   .debug_str:00000000000002c2 .LASF67
C:\msys64\tmp\ccyhjTSP.s:2672   .debug_str:0000000000000622 .LASF68
C:\msys64\tmp\ccyhjTSP.s:2500   .debug_str:000000000000003b .LASF69
C:\msys64\tmp\ccyhjTSP.s:2712   .debug_str:000000000000077b .LASF70
C:\msys64\tmp\ccyhjTSP.s:2706   .debug_str:000000000000075b .LASF71
C:\msys64\tmp\ccyhjTSP.s:2648   .debug_str:0000000000000559 .LASF72
C:\msys64\tmp\ccyhjTSP.s:2570   .debug_str:0000000000000334 .LASF73
C:\msys64\tmp\ccyhjTSP.s:2666   .debug_str:00000000000005e3 .LASF74
C:\msys64\tmp\ccyhjTSP.s:2514   .debug_str:00000000000000a8 .LASF75
C:\msys64\tmp\ccyhjTSP.s:2624   .debug_str:0000000000000485 .LASF76
C:\msys64\tmp\ccyhjTSP.s:2596   .debug_str:00000000000003d1 .LASF77
C:\msys64\tmp\ccyhjTSP.s:2554   .debug_str:00000000000002c8 .LASF78
C:\msys64\tmp\ccyhjTSP.s:2658   .debug_str:00000000000005af .LASF79
C:\msys64\tmp\ccyhjTSP.s:2512   .debug_str:000000000000008c .LASF80
C:\msys64\tmp\ccyhjTSP.s:2694   .debug_str:00000000000006eb .LASF109
C:\msys64\tmp\ccyhjTSP.s:2688   .debug_str:000000000000069b .LASF110
C:\msys64\tmp\ccyhjTSP.s:2532   .debug_str:0000000000000211 .LASF81
C:\msys64\tmp\ccyhjTSP.s:2696   .debug_str:0000000000000700 .LASF82
C:\msys64\tmp\ccyhjTSP.s:203    .text:0000000000000118 .LFB32
C:\msys64\tmp\ccyhjTSP.s:257    .text:0000000000000170 .LFE32
C:\msys64\tmp\ccyhjTSP.s:232    .text:000000000000014c .LBB38
C:\msys64\tmp\ccyhjTSP.s:240    .text:0000000000000154 .LBE38
C:\msys64\tmp\ccyhjTSP.s:2361   .debug_loc:0000000000000000 .LLST4
C:\msys64\tmp\ccyhjTSP.s:2369   .debug_loc:0000000000000024 .LLST5
C:\msys64\tmp\ccyhjTSP.s:219    .text:0000000000000134 .LVL13
C:\msys64\tmp\ccyhjTSP.s:244    .text:000000000000015c .LVL17
C:\msys64\tmp\ccyhjTSP.s:263    .text:0000000000000170 .LFB31
C:\msys64\tmp\ccyhjTSP.s:372    .text:000000000000023c .LFE31
C:\msys64\tmp\ccyhjTSP.s:2376   .debug_loc:0000000000000047 .LLST6
C:\msys64\tmp\ccyhjTSP.s:287    .text:0000000000000198 .LBB40
C:\msys64\tmp\ccyhjTSP.s:311    .text:00000000000001c0 .LBE40
C:\msys64\tmp\ccyhjTSP.s:294    .text:00000000000001a4 .LBB42
C:\msys64\tmp\ccyhjTSP.s:304    .text:00000000000001b4 .LBE42
C:\msys64\tmp\ccyhjTSP.s:2383   .debug_loc:000000000000006a .LLST7
C:\msys64\tmp\ccyhjTSP.s:319    .text:00000000000001d4 .LBB45
C:\msys64\tmp\ccyhjTSP.s:343    .text:00000000000001fc .LBE45
C:\msys64\tmp\ccyhjTSP.s:326    .text:00000000000001e0 .LBB47
C:\msys64\tmp\ccyhjTSP.s:336    .text:00000000000001f0 .LBE47
C:\msys64\tmp\ccyhjTSP.s:2392   .debug_loc:0000000000000096 .LLST8
C:\msys64\tmp\ccyhjTSP.s:316    .text:00000000000001d4 .LVL21
C:\msys64\tmp\ccyhjTSP.s:347    .text:000000000000020c .LVL24
C:\msys64\tmp\ccyhjTSP.s:357    .text:0000000000000228 .LVL25
C:\msys64\tmp\ccyhjTSP.s:174    .text:00000000000000fc .LFB30
C:\msys64\tmp\ccyhjTSP.s:197    .text:0000000000000118 .LFE30
GAS LISTING C:\msys64\tmp\ccyhjTSP.s 			page 16


C:\msys64\tmp\ccyhjTSP.s:148    .text:00000000000000fc .LFE29
C:\msys64\tmp\ccyhjTSP.s:2401   .debug_loc:00000000000000c2 .LLST0
C:\msys64\tmp\ccyhjTSP.s:43     .text:000000000000002c .LBB31
C:\msys64\tmp\ccyhjTSP.s:118    .text:00000000000000c4 .LBE31
C:\msys64\tmp\ccyhjTSP.s:2430   .debug_loc:0000000000000137 .LLST1
C:\msys64\tmp\ccyhjTSP.s:2455   .debug_loc:0000000000000199 .LLST2
C:\msys64\tmp\ccyhjTSP.s:79     .text:000000000000007c .LBB33
C:\msys64\tmp\ccyhjTSP.s:104    .text:00000000000000a4 .LBE33
C:\msys64\tmp\ccyhjTSP.s:87     .text:0000000000000088 .LBB35
C:\msys64\tmp\ccyhjTSP.s:97     .text:0000000000000098 .LBE35
C:\msys64\tmp\ccyhjTSP.s:2466   .debug_loc:00000000000001cf .LLST3
C:\msys64\tmp\ccyhjTSP.s:55     .text:0000000000000044 .LVL4
C:\msys64\tmp\ccyhjTSP.s:109    .text:00000000000000b8 .LVL7
C:\msys64\tmp\ccyhjTSP.s:39     .text:0000000000000028 .LVL2
C:\msys64\tmp\ccyhjTSP.s:124    .text:00000000000000d4 .LVL9
C:\msys64\tmp\ccyhjTSP.s:128    .text:00000000000000e0 .LVL10
C:\msys64\tmp\ccyhjTSP.s:2702   .debug_str:000000000000073e .LASF83
C:\msys64\tmp\ccyhjTSP.s:2670   .debug_str:000000000000060e .LASF84
C:\msys64\tmp\ccyhjTSP.s:2636   .debug_str:0000000000000510 .LASF85
C:\msys64\tmp\ccyhjTSP.s:2506   .debug_str:000000000000004f .LASF111
C:\msys64\tmp\ccyhjTSP.s:2662   .debug_str:00000000000005ce .LASF86
C:\msys64\tmp\ccyhjTSP.s:2710   .debug_str:000000000000076b .LASF88
C:\msys64\tmp\ccyhjTSP.s:2580   .debug_str:000000000000036d .LASF87
C:\msys64\tmp\ccyhjTSP.s:2698   .debug_str:000000000000071e .LASF89
C:\msys64\tmp\ccyhjTSP.s:2588   .debug_str:00000000000003ab .LASF90
C:\msys64\tmp\ccyhjTSP.s:2660   .debug_str:00000000000005be .LASF91
C:\msys64\tmp\ccyhjTSP.s:2560   .debug_str:00000000000002fc .LASF92
C:\msys64\tmp\ccyhjTSP.s:2690   .debug_str:00000000000006be .LASF93
C:\msys64\tmp\ccyhjTSP.s:231    .text:000000000000014c .LVL15
C:\msys64\tmp\ccyhjTSP.s:238    .text:0000000000000154 .LVL16
C:\msys64\tmp\ccyhjTSP.s:279    .text:000000000000018c .LVL18
C:\msys64\tmp\ccyhjTSP.s:367    .text:0000000000000234 .LVL26
C:\msys64\tmp\ccyhjTSP.s:293    .text:00000000000001a4 .LVL19
C:\msys64\tmp\ccyhjTSP.s:301    .text:00000000000001b4 .LVL20
C:\msys64\tmp\ccyhjTSP.s:325    .text:00000000000001e0 .LVL22
C:\msys64\tmp\ccyhjTSP.s:333    .text:00000000000001f0 .LVL23
C:\msys64\tmp\ccyhjTSP.s:19     .text:0000000000000000 .LVL0
C:\msys64\tmp\ccyhjTSP.s:36     .text:0000000000000020 .LVL1
C:\msys64\tmp\ccyhjTSP.s:121    .text:00000000000000c8 .LVL8
C:\msys64\tmp\ccyhjTSP.s:143    .text:00000000000000f4 .LVL12
C:\msys64\tmp\ccyhjTSP.s:42     .text:000000000000002c .LVL3
C:\msys64\tmp\ccyhjTSP.s:140    .text:00000000000000f0 .LVL11
C:\msys64\tmp\ccyhjTSP.s:86     .text:0000000000000088 .LVL5
C:\msys64\tmp\ccyhjTSP.s:94     .text:0000000000000098 .LVL6
C:\msys64\tmp\ccyhjTSP.s:405    .debug_info:0000000000000000 .Ldebug_info0
C:\msys64\tmp\ccyhjTSP.s:151    .gcc_except_table:0000000000000000 .LLSDA29

UNDEFINED SYMBOLS
_Znwm
_Znam
_ZN9Scheduler3putEP6Thread
_ZdlPv
_Unwind_Resume
__gxx_personality_v0
_ZN5Riscv10popSppSpieEv
_ZN9Scheduler3getEv
_ZN6Thread13switchContextEPNS_7ContextES1_
GAS LISTING C:\msys64\tmp\ccyhjTSP.s 			page 17


