GAS LISTING /tmp/ccD46UZN.s 			page 1


   1              		.file	"Thread.cpp"
   2              		.option pic
   3              		.option norelax
   4              		.text
   5              	.Ltext0:
   6              		.align	2
   7              		.globl	_ZN6Thread12createThreadEPFvvE
   9              	_ZN6Thread12createThreadEPFvvE:
  10              	.LFB30:
  11              		.file 1 "src/Thread.cpp"
   1:src/Thread.cpp **** #include "../h/Thread.h"
   2:src/Thread.cpp **** 
   3:src/Thread.cpp **** 
   4:src/Thread.cpp **** #include "../h/riscv.h"
   5:src/Thread.cpp **** #include "../h/Scheduler.h"
   6:src/Thread.cpp **** 
   7:src/Thread.cpp **** Thread* Thread::running = nullptr;
   8:src/Thread.cpp **** 
   9:src/Thread.cpp **** Thread* Thread::createThread(Body body) {
  12              		.loc 1 9 41
  13              		.cfi_startproc
  14              		.cfi_personality 0x9b,DW.ref.__gxx_personality_v0
  15              		.cfi_lsda 0x1b,.LLSDA30
  16              	.LVL0:
  17 0000 130101FE 		addi	sp,sp,-32
  18              		.cfi_def_cfa_offset 32
  19 0004 233C1100 		sd	ra,24(sp)
  20 0008 23388100 		sd	s0,16(sp)
  21 000c 23349100 		sd	s1,8(sp)
  22 0010 23302101 		sd	s2,0(sp)
  23              		.cfi_offset 1, -8
  24              		.cfi_offset 8, -16
  25              		.cfi_offset 9, -24
  26              		.cfi_offset 18, -32
  27 0014 13040102 		addi	s0,sp,32
  28              		.cfi_def_cfa 8, 0
  29 0018 13090500 		mv	s2,a0
  10:src/Thread.cpp ****     return new Thread(body);
  30              		.loc 1 10 5
  31              		.loc 1 10 27 is_stmt 0
  32 001c 13050003 		li	a0,48
  33              	.LVL1:
  34              	.LEHB0:
  35 0020 97000000 		call	_Znwm@plt
  35      E7800000 
  36              	.LVL2:
  37              	.LEHE0:
  38 0028 93040500 		mv	s1,a0
  39              	.LVL3:
  40              	.LBB29:
  41              	.LBB30:
  42              		.file 2 "src/../h/Thread.h"
   1:src/../h/Thread.h **** #ifndef PROJEKAT_THREAD_H
   2:src/../h/Thread.h **** #define PROJEKAT_THREAD_H
   3:src/../h/Thread.h **** 
   4:src/../h/Thread.h **** #include "../lib/hw.h"
   5:src/../h/Thread.h **** #include "MemoryAllocator.h"
GAS LISTING /tmp/ccD46UZN.s 			page 2


   6:src/../h/Thread.h **** #include "Scheduler.h"
   7:src/../h/Thread.h **** 
   8:src/../h/Thread.h **** class Thread {
   9:src/../h/Thread.h **** public:
  10:src/../h/Thread.h ****     ~Thread() {delete[] stack;};
  11:src/../h/Thread.h ****     using Body = void (*)();
  12:src/../h/Thread.h **** 
  13:src/../h/Thread.h ****     static Thread* createThread(Body body);
  14:src/../h/Thread.h ****     
  15:src/../h/Thread.h ****     static Thread* running;
  16:src/../h/Thread.h **** 
  17:src/../h/Thread.h ****     static void yield();
  18:src/../h/Thread.h **** 
  19:src/../h/Thread.h **** 
  20:src/../h/Thread.h ****     static void dispatch();
  21:src/../h/Thread.h **** 
  22:src/../h/Thread.h ****     bool isFinished(){return finished;};
  23:src/../h/Thread.h **** 
  24:src/../h/Thread.h ****     void setFinished(bool finished){Thread::finished = finished;};
  25:src/../h/Thread.h **** private:
  26:src/../h/Thread.h ****     // Konstruktor je privatan
  27:src/../h/Thread.h ****     friend class Scheduler;
  28:src/../h/Thread.h **** 
  29:src/../h/Thread.h ****     Thread(Body body): next(nullptr), body(body),stack(body!=nullptr ? new uint64[STACK_SIZE] : nul
  30:src/../h/Thread.h ****     body!=nullptr ? (uint64) body : 0, stack!= nullptr ? (uint64)& stack[STACK_SIZE] : 0}), finishe
  43              		.loc 2 30 107
  44 002c 23300500 		sd	zero,0(a0)
  45 0030 23342501 		sd	s2,8(a0)
  29:src/../h/Thread.h ****     body!=nullptr ? (uint64) body : 0, stack!= nullptr ? (uint64)& stack[STACK_SIZE] : 0}), finishe
  46              		.loc 2 29 70
  47 0034 630A0900 		beqz	s2,.L8
  29:src/../h/Thread.h ****     body!=nullptr ? (uint64) body : 0, stack!= nullptr ? (uint64)& stack[STACK_SIZE] : 0}), finishe
  48              		.loc 2 29 93
  49 0038 37250000 		li	a0,8192
  50              	.LEHB1:
  51 003c 97000000 		call	_Znam@plt
  51      E7800000 
  52              	.LVL4:
  53 0044 6F008000 		j	.L2
  54              	.L8:
  29:src/../h/Thread.h ****     body!=nullptr ? (uint64) body : 0, stack!= nullptr ? (uint64)& stack[STACK_SIZE] : 0}), finishe
  55              		.loc 2 29 70
  56 0048 13050000 		li	a0,0
  57              	.L2:
  58              		.loc 2 30 107
  59 004c 23B8A400 		sd	a0,16(s1)
  60              		.loc 2 30 19
  61 0050 63020906 		beqz	s2,.L9
  62 0054 93070900 		mv	a5,s2
  63              	.L3:
  64              		.loc 2 30 107
  65 0058 23BCF400 		sd	a5,24(s1)
  66              		.loc 2 30 56
  67 005c 63000506 		beqz	a0,.L10
  68              		.loc 2 30 66
  69 0060 B7270000 		li	a5,8192
  70 0064 3305F500 		add	a0,a0,a5
GAS LISTING /tmp/ccD46UZN.s 			page 3


  71              	.L4:
  72              		.loc 2 30 107
  73 0068 23B0A402 		sd	a0,32(s1)
  74 006c 23840402 		sb	zero,40(s1)
  31:src/../h/Thread.h ****         if (body!=nullptr) Scheduler::instance().put(this);
  75              		.loc 2 31 9 is_stmt 1
  76 0070 63080906 		beqz	s2,.L1
  77              		.loc 2 31 28
  78              	.LBB31:
  79              	.LBB32:
  80              		.file 3 "src/../h/Scheduler.h"
   1:src/../h/Scheduler.h **** //
   2:src/../h/Scheduler.h **** // Created by os on 4/1/26.
   3:src/../h/Scheduler.h **** //
   4:src/../h/Scheduler.h **** 
   5:src/../h/Scheduler.h **** #ifndef PROJEKAT_SCHEDULER_H
   6:src/../h/Scheduler.h **** #define PROJEKAT_SCHEDULER_H
   7:src/../h/Scheduler.h **** 
   8:src/../h/Scheduler.h **** class Thread;
   9:src/../h/Scheduler.h **** 
  10:src/../h/Scheduler.h **** class Scheduler {
  11:src/../h/Scheduler.h **** public:
  12:src/../h/Scheduler.h ****     static Scheduler& instance(){static Scheduler instance; return instance;}
  81              		.loc 3 12 34
  82              		.loc 3 12 51 is_stmt 0
  83 0074 97070000 		lbu	a5,_ZGVZN9Scheduler8instanceEvE8instance
  83      83C70700 
  84 007c 63900702 		bnez	a5,.L6
  85              	.LVL5:
  86              	.LBB33:
  87              	.LBB34:
  88              	.LBB35:
  13:src/../h/Scheduler.h **** 
  14:src/../h/Scheduler.h ****     Scheduler(const Scheduler&) = delete;
  15:src/../h/Scheduler.h ****     Scheduler& operator=(const Scheduler&) = delete;
  16:src/../h/Scheduler.h **** 
  17:src/../h/Scheduler.h **** 
  18:src/../h/Scheduler.h ****     void put(Thread* t);
  19:src/../h/Scheduler.h **** 
  20:src/../h/Scheduler.h ****     Thread* get();
  21:src/../h/Scheduler.h **** private:
  22:src/../h/Scheduler.h ****     Scheduler():head(nullptr), tail(nullptr){};
  89              		.loc 3 22 44
  90 0080 97070000 		lla	a5,_ZZN9Scheduler8instanceEvE8instance
  90      93870700 
  91 0088 23B00700 		sd	zero,0(a5)
  92 008c 23B40700 		sd	zero,8(a5)
  93              	.LVL6:
  94              	.LBE35:
  95              	.LBE34:
  96              	.LBE33:
  12:src/../h/Scheduler.h **** 
  97              		.loc 3 12 51
  98 0090 93071000 		li	a5,1
  99 0094 17070000 		sb	a5,_ZGVZN9Scheduler8instanceEvE8instance,a4
  99      2300F700 
 100              	.L6:
GAS LISTING /tmp/ccD46UZN.s 			page 4


  12:src/../h/Scheduler.h **** 
 101              		.loc 3 12 61 is_stmt 1
 102              	.LBE32:
 103              	.LBE31:
 104              		.loc 2 31 53 is_stmt 0
 105 009c 93850400 		mv	a1,s1
 106 00a0 17050000 		lla	a0,_ZZN9Scheduler8instanceEvE8instance
 106      13050500 
 107 00a8 97000000 		call	_ZN9Scheduler3putEP6Thread@plt
 107      E7800000 
 108              	.LVL7:
 109              	.LEHE1:
 110 00b0 6F000003 		j	.L1
 111              	.L9:
  30:src/../h/Thread.h ****         if (body!=nullptr) Scheduler::instance().put(this);
 112              		.loc 2 30 19
 113 00b4 93070000 		li	a5,0
 114 00b8 6FF01FFA 		j	.L3
 115              	.L10:
  30:src/../h/Thread.h ****         if (body!=nullptr) Scheduler::instance().put(this);
 116              		.loc 2 30 56
 117 00bc 13050000 		li	a0,0
 118 00c0 6FF09FFA 		j	.L4
 119              	.L11:
 120 00c4 13090500 		mv	s2,a0
 121              	.LVL8:
 122              	.LBE30:
 123              	.LBE29:
 124              		.loc 1 10 27
 125 00c8 13850400 		mv	a0,s1
 126 00cc 97000000 		call	_ZdlPv@plt
 126      E7800000 
 127              	.LVL9:
 128 00d4 13050900 		mv	a0,s2
 129              	.LEHB2:
 130 00d8 97000000 		call	_Unwind_Resume@plt
 130      E7800000 
 131              	.LVL10:
 132              	.LEHE2:
 133              	.L1:
  11:src/Thread.cpp **** }
 134              		.loc 1 11 1
 135 00e0 13850400 		mv	a0,s1
 136 00e4 83308101 		ld	ra,24(sp)
 137              		.cfi_restore 1
 138 00e8 03340101 		ld	s0,16(sp)
 139              		.cfi_restore 8
 140              		.cfi_def_cfa 2, 32
 141 00ec 83348100 		ld	s1,8(sp)
 142              		.cfi_restore 9
 143              	.LVL11:
 144 00f0 03390100 		ld	s2,0(sp)
 145              		.cfi_restore 18
 146              	.LVL12:
 147 00f4 13010102 		addi	sp,sp,32
 148              		.cfi_def_cfa_offset 0
 149 00f8 67800000 		jr	ra
GAS LISTING /tmp/ccD46UZN.s 			page 5


 150              		.cfi_endproc
 151              	.LFE30:
 152              		.globl	__gxx_personality_v0
 153              		.section	.gcc_except_table,"a",@progbits
 154              	.LLSDA30:
 155 0000 FF       		.byte	0xff
 156 0001 FF       		.byte	0xff
 157 0002 03       		.byte	0x3
 158 0003 27       		.byte	0x27
 159 0004 00000000 		.4byte	.LEHB0-.LFB30
 160 0008 00000000 		.4byte	.LEHE0-.LEHB0
 161 000c 00000000 		.4byte	0
 162 0010 00       		.byte	0
 163 0011 00000000 		.4byte	.LEHB1-.LFB30
 164 0015 00000000 		.4byte	.LEHE1-.LEHB1
 165 0019 00000000 		.4byte	.L11-.LFB30
 166 001d 00       		.byte	0
 167 001e 00000000 		.4byte	.LEHB2-.LFB30
 168 0022 00000000 		.4byte	.LEHE2-.LEHB2
 169 0026 00000000 		.4byte	0
 170 002a 00       		.byte	0
 171              		.text
 173              		.align	2
 174              		.globl	_ZN6Thread8dispatchEv
 176              	_ZN6Thread8dispatchEv:
 177              	.LFB32:
  12:src/Thread.cpp **** 
  13:src/Thread.cpp **** void Thread::yield() {
  14:src/Thread.cpp ****     Riscv::pushAllRegs();
  15:src/Thread.cpp **** 
  16:src/Thread.cpp ****     Thread::dispatch();
  17:src/Thread.cpp **** 
  18:src/Thread.cpp ****      Riscv::popAllRegs();
  19:src/Thread.cpp **** }
  20:src/Thread.cpp **** 
  21:src/Thread.cpp **** void Thread::dispatch() {
 178              		.loc 1 21 25 is_stmt 1
 179              		.cfi_startproc
 180 00fc 130101FE 		addi	sp,sp,-32
 181              		.cfi_def_cfa_offset 32
 182 0100 233C1100 		sd	ra,24(sp)
 183 0104 23388100 		sd	s0,16(sp)
 184 0108 23349100 		sd	s1,8(sp)
 185              		.cfi_offset 1, -8
 186              		.cfi_offset 8, -16
 187              		.cfi_offset 9, -24
 188 010c 13040102 		addi	s0,sp,32
 189              		.cfi_def_cfa 8, 0
  22:src/Thread.cpp ****     Thread* old = running;
 190              		.loc 1 22 5
 191              		.loc 1 22 13 is_stmt 0
 192 0110 97040000 		ld	s1,.LANCHOR0
 192      83B40400 
 193              	.LVL13:
  23:src/Thread.cpp **** 
  24:src/Thread.cpp ****     // Ako nije gotova, vrati je u Scheduler
  25:src/Thread.cpp ****     if (old && !old->finished) {
GAS LISTING /tmp/ccD46UZN.s 			page 6


 194              		.loc 1 25 5 is_stmt 1
 195 0118 63840404 		beqz	s1,.L14
 196              		.loc 1 25 22 is_stmt 0 discriminator 1
 197 011c 83C78402 		lbu	a5,40(s1)
 198              		.loc 1 25 13 discriminator 1
 199 0120 63900704 		bnez	a5,.L14
  26:src/Thread.cpp ****         Scheduler::instance().put(old);
 200              		.loc 1 26 9 is_stmt 1
 201              	.LBB36:
 202              	.LBB37:
  12:src/../h/Scheduler.h **** 
 203              		.loc 3 12 34
  12:src/../h/Scheduler.h **** 
 204              		.loc 3 12 51 is_stmt 0
 205 0124 97070000 		lbu	a5,_ZGVZN9Scheduler8instanceEvE8instance
 205      83C70700 
 206 012c 63900702 		bnez	a5,.L15
 207              	.LVL14:
 208              	.LBB38:
 209              	.LBB39:
 210              	.LBB40:
 211              		.loc 3 22 44
 212 0130 97070000 		lla	a5,_ZZN9Scheduler8instanceEvE8instance
 212      93870700 
 213 0138 23B00700 		sd	zero,0(a5)
 214 013c 23B40700 		sd	zero,8(a5)
 215              	.LVL15:
 216              	.LBE40:
 217              	.LBE39:
 218              	.LBE38:
  12:src/../h/Scheduler.h **** 
 219              		.loc 3 12 51
 220 0140 93071000 		li	a5,1
 221 0144 17070000 		sb	a5,_ZGVZN9Scheduler8instanceEvE8instance,a4
 221      2300F700 
 222              	.L15:
  12:src/../h/Scheduler.h **** 
 223              		.loc 3 12 61 is_stmt 1
 224              	.LBE37:
 225              	.LBE36:
 226              		.loc 1 26 34 is_stmt 0
 227 014c 93850400 		mv	a1,s1
 228 0150 17050000 		lla	a0,_ZZN9Scheduler8instanceEvE8instance
 228      13050500 
 229 0158 97000000 		call	_ZN9Scheduler3putEP6Thread@plt
 229      E7800000 
 230              	.LVL16:
 231              	.L14:
  27:src/Thread.cpp ****     }
  28:src/Thread.cpp **** 
  29:src/Thread.cpp ****     // Uzmi sledeću
  30:src/Thread.cpp ****     running = Scheduler::instance().get();
 232              		.loc 1 30 5 is_stmt 1
 233              	.LBB41:
 234              	.LBB42:
  12:src/../h/Scheduler.h **** 
 235              		.loc 3 12 34
GAS LISTING /tmp/ccD46UZN.s 			page 7


  12:src/../h/Scheduler.h **** 
 236              		.loc 3 12 51 is_stmt 0
 237 0160 97070000 		lbu	a5,_ZGVZN9Scheduler8instanceEvE8instance
 237      83C70700 
 238 0168 63900702 		bnez	a5,.L16
 239              	.LVL17:
 240              	.LBB43:
 241              	.LBB44:
 242              	.LBB45:
 243              		.loc 3 22 44
 244 016c 97070000 		lla	a5,_ZZN9Scheduler8instanceEvE8instance
 244      93870700 
 245 0174 23B00700 		sd	zero,0(a5)
 246 0178 23B40700 		sd	zero,8(a5)
 247              	.LVL18:
 248              	.LBE45:
 249              	.LBE44:
 250              	.LBE43:
  12:src/../h/Scheduler.h **** 
 251              		.loc 3 12 51
 252 017c 93071000 		li	a5,1
 253 0180 17070000 		sb	a5,_ZGVZN9Scheduler8instanceEvE8instance,a4
 253      2300F700 
 254              	.L16:
  12:src/../h/Scheduler.h **** 
 255              		.loc 3 12 61 is_stmt 1
 256              	.LBE42:
 257              	.LBE41:
 258              		.loc 1 30 40 is_stmt 0
 259 0188 17050000 		lla	a0,_ZZN9Scheduler8instanceEvE8instance
 259      13050500 
 260 0190 97000000 		call	_ZN9Scheduler3getEv@plt
 260      E7800000 
 261              	.LVL19:
 262              		.loc 1 30 13
 263 0198 97070000 		sd	a0,.LANCHOR0,a5
 263      23B0A700 
  31:src/Thread.cpp **** 
  32:src/Thread.cpp ****     // Ako smo zapravo promenili nit, uradi switch
  33:src/Thread.cpp ****     if (old != running) {
 264              		.loc 1 33 5 is_stmt 1
 265 01a0 638AA400 		beq	s1,a0,.L13
  34:src/Thread.cpp ****         switchContext(&old->context, &running->context);
 266              		.loc 1 34 9
 267              		.loc 1 34 22 is_stmt 0
 268 01a4 93058501 		addi	a1,a0,24
 269 01a8 13858401 		addi	a0,s1,24
 270 01ac 97000000 		call	_ZN6Thread13switchContextEPNS_7ContextES1_@plt
 270      E7800000 
 271              	.LVL20:
 272              	.L13:
  35:src/Thread.cpp ****     }
  36:src/Thread.cpp **** }
 273              		.loc 1 36 1
 274 01b4 83308101 		ld	ra,24(sp)
 275              		.cfi_restore 1
 276 01b8 03340101 		ld	s0,16(sp)
GAS LISTING /tmp/ccD46UZN.s 			page 8


 277              		.cfi_restore 8
 278              		.cfi_def_cfa 2, 32
 279 01bc 83348100 		ld	s1,8(sp)
 280              		.cfi_restore 9
 281              	.LVL21:
 282 01c0 13010102 		addi	sp,sp,32
 283              		.cfi_def_cfa_offset 0
 284 01c4 67800000 		jr	ra
 285              		.cfi_endproc
 286              	.LFE32:
 288              		.align	2
 289              		.globl	_ZN6Thread5yieldEv
 291              	_ZN6Thread5yieldEv:
 292              	.LFB31:
  13:src/Thread.cpp ****     Riscv::pushAllRegs();
 293              		.loc 1 13 22 is_stmt 1
 294              		.cfi_startproc
 295 01c8 130101FF 		addi	sp,sp,-16
 296              		.cfi_def_cfa_offset 16
 297 01cc 23341100 		sd	ra,8(sp)
 298 01d0 23308100 		sd	s0,0(sp)
 299              		.cfi_offset 1, -8
 300              		.cfi_offset 8, -16
 301 01d4 13040101 		addi	s0,sp,16
 302              		.cfi_def_cfa 8, 0
  14:src/Thread.cpp **** 
 303              		.loc 1 14 5
  14:src/Thread.cpp **** 
 304              		.loc 1 14 23 is_stmt 0
 305 01d8 97000000 		call	_ZN5Riscv11pushAllRegsEv@plt
 305      E7800000 
 306              	.LVL22:
  16:src/Thread.cpp **** 
 307              		.loc 1 16 5 is_stmt 1
  16:src/Thread.cpp **** 
 308              		.loc 1 16 21 is_stmt 0
 309 01e0 97000000 		call	_ZN6Thread8dispatchEv
 309      E7800000 
 310              	.LVL23:
  18:src/Thread.cpp **** }
 311              		.loc 1 18 6 is_stmt 1
  18:src/Thread.cpp **** }
 312              		.loc 1 18 23 is_stmt 0
 313 01e8 97000000 		call	_ZN5Riscv10popAllRegsEv@plt
 313      E7800000 
 314              	.LVL24:
  19:src/Thread.cpp **** 
 315              		.loc 1 19 1
 316 01f0 83308100 		ld	ra,8(sp)
 317              		.cfi_restore 1
 318 01f4 03340100 		ld	s0,0(sp)
 319              		.cfi_restore 8
 320              		.cfi_def_cfa 2, 16
 321 01f8 13010101 		addi	sp,sp,16
 322              		.cfi_def_cfa_offset 0
 323 01fc 67800000 		jr	ra
 324              		.cfi_endproc
GAS LISTING /tmp/ccD46UZN.s 			page 9


 325              	.LFE31:
 327              		.globl	_ZN6Thread7runningE
 328              		.weak	_ZGVZN9Scheduler8instanceEvE8instance
 329              		.section	.bss._ZGVZN9Scheduler8instanceEvE8instance,"awG",@nobits,_ZGVZN9Scheduler8instanceEvE8ins
 330              		.align	3
 333              	_ZGVZN9Scheduler8instanceEvE8instance:
 334 0000 00000000 		.zero	8
 334      00000000 
 335              		.weak	_ZZN9Scheduler8instanceEvE8instance
 336              		.section	.bss._ZZN9Scheduler8instanceEvE8instance,"awG",@nobits,_ZZN9Scheduler8instanceEvE8instanc
 337              		.align	3
 340              	_ZZN9Scheduler8instanceEvE8instance:
 341 0000 00000000 		.zero	16
 341      00000000 
 341      00000000 
 341      00000000 
 342              		.bss
 343              		.align	3
 344              		.set	.LANCHOR0,. + 0
 347              	_ZN6Thread7runningE:
 348 0000 00000000 		.zero	8
 348      00000000 
 349              		.text
 350              	.Letext0:
 351              		.file 4 "src/../h/../lib/hw.h"
 352              		.file 5 "src/../h/riscv.h"
 2579              		.align	3
 2582              	DW.ref.__gxx_personality_v0:
 2583 0000 00000000 		.dword	__gxx_personality_v0
 2583      00000000 
 2584              		.ident	"GCC: (Ubuntu 9.4.0-1ubuntu1~20.04) 9.4.0"
 2585              		.section	.note.GNU-stack,"",@progbits
GAS LISTING /tmp/ccD46UZN.s 			page 10


DEFINED SYMBOLS
                            *ABS*:0000000000000000 Thread.cpp
     /tmp/ccD46UZN.s:9      .text:0000000000000000 _ZN6Thread12createThreadEPFvvE
     /tmp/ccD46UZN.s:13     .text:0000000000000000 .L0 
     /tmp/ccD46UZN.s:2582   .data.rel.local.DW.ref.__gxx_personality_v0:0000000000000000 DW.ref.__gxx_personality_v0
     /tmp/ccD46UZN.s:17     .text:0000000000000000 .L0 
     /tmp/ccD46UZN.s:18     .text:0000000000000004 .L0 
     /tmp/ccD46UZN.s:23     .text:0000000000000014 .L0 
     /tmp/ccD46UZN.s:24     .text:0000000000000014 .L0 
     /tmp/ccD46UZN.s:25     .text:0000000000000014 .L0 
     /tmp/ccD46UZN.s:26     .text:0000000000000014 .L0 
     /tmp/ccD46UZN.s:28     .text:0000000000000018 .L0 
     /tmp/ccD46UZN.s:31     .text:000000000000001c .L0 
     /tmp/ccD46UZN.s:32     .text:000000000000001c .L0 
     /tmp/ccD46UZN.s:44     .text:000000000000002c .L0 
     /tmp/ccD46UZN.s:47     .text:0000000000000034 .L0 
     /tmp/ccD46UZN.s:49     .text:0000000000000038 .L0 
     /tmp/ccD46UZN.s:56     .text:0000000000000048 .L0 
     /tmp/ccD46UZN.s:59     .text:000000000000004c .L0 
     /tmp/ccD46UZN.s:61     .text:0000000000000050 .L0 
     /tmp/ccD46UZN.s:65     .text:0000000000000058 .L0 
     /tmp/ccD46UZN.s:67     .text:000000000000005c .L0 
     /tmp/ccD46UZN.s:69     .text:0000000000000060 .L0 
     /tmp/ccD46UZN.s:73     .text:0000000000000068 .L0 
     /tmp/ccD46UZN.s:76     .text:0000000000000070 .L0 
     /tmp/ccD46UZN.s:81     .text:0000000000000074 .L0 
     /tmp/ccD46UZN.s:82     .text:0000000000000074 .L0 
     /tmp/ccD46UZN.s:333    .bss._ZGVZN9Scheduler8instanceEvE8instance:0000000000000000 _ZGVZN9Scheduler8instanceEvE8instance
     /tmp/ccD46UZN.s:83     .text:0000000000000074 .L0 
     /tmp/ccD46UZN.s:340    .bss._ZZN9Scheduler8instanceEvE8instance:0000000000000000 _ZZN9Scheduler8instanceEvE8instance
     /tmp/ccD46UZN.s:90     .text:0000000000000080 .L0 
     /tmp/ccD46UZN.s:98     .text:0000000000000090 .L0 
     /tmp/ccD46UZN.s:104    .text:000000000000009c .L0 
     /tmp/ccD46UZN.s:105    .text:000000000000009c .L0 
     /tmp/ccD46UZN.s:113    .text:00000000000000b4 .L0 
     /tmp/ccD46UZN.s:117    .text:00000000000000bc .L0 
     /tmp/ccD46UZN.s:125    .text:00000000000000c8 .L0 
     /tmp/ccD46UZN.s:135    .text:00000000000000e0 .L0 
     /tmp/ccD46UZN.s:137    .text:00000000000000e8 .L0 
     /tmp/ccD46UZN.s:139    .text:00000000000000ec .L0 
     /tmp/ccD46UZN.s:140    .text:00000000000000ec .L0 
     /tmp/ccD46UZN.s:142    .text:00000000000000f0 .L0 
     /tmp/ccD46UZN.s:145    .text:00000000000000f4 .L0 
     /tmp/ccD46UZN.s:148    .text:00000000000000f8 .L0 
     /tmp/ccD46UZN.s:150    .text:00000000000000fc .L0 
     /tmp/ccD46UZN.s:176    .text:00000000000000fc _ZN6Thread8dispatchEv
     /tmp/ccD46UZN.s:179    .text:00000000000000fc .L0 
     /tmp/ccD46UZN.s:180    .text:00000000000000fc .L0 
     /tmp/ccD46UZN.s:181    .text:0000000000000100 .L0 
     /tmp/ccD46UZN.s:185    .text:000000000000010c .L0 
     /tmp/ccD46UZN.s:186    .text:000000000000010c .L0 
     /tmp/ccD46UZN.s:187    .text:000000000000010c .L0 
     /tmp/ccD46UZN.s:189    .text:0000000000000110 .L0 
     /tmp/ccD46UZN.s:191    .text:0000000000000110 .L0 
     /tmp/ccD46UZN.s:192    .text:0000000000000110 .L0 
     /tmp/ccD46UZN.s:195    .text:0000000000000118 .L0 
     /tmp/ccD46UZN.s:197    .text:000000000000011c .L0 
GAS LISTING /tmp/ccD46UZN.s 			page 11


     /tmp/ccD46UZN.s:199    .text:0000000000000120 .L0 
     /tmp/ccD46UZN.s:203    .text:0000000000000124 .L0 
     /tmp/ccD46UZN.s:204    .text:0000000000000124 .L0 
     /tmp/ccD46UZN.s:205    .text:0000000000000124 .L0 
     /tmp/ccD46UZN.s:212    .text:0000000000000130 .L0 
     /tmp/ccD46UZN.s:220    .text:0000000000000140 .L0 
     /tmp/ccD46UZN.s:226    .text:000000000000014c .L0 
     /tmp/ccD46UZN.s:227    .text:000000000000014c .L0 
     /tmp/ccD46UZN.s:235    .text:0000000000000160 .L0 
     /tmp/ccD46UZN.s:236    .text:0000000000000160 .L0 
     /tmp/ccD46UZN.s:237    .text:0000000000000160 .L0 
     /tmp/ccD46UZN.s:244    .text:000000000000016c .L0 
     /tmp/ccD46UZN.s:252    .text:000000000000017c .L0 
     /tmp/ccD46UZN.s:258    .text:0000000000000188 .L0 
     /tmp/ccD46UZN.s:259    .text:0000000000000188 .L0 
     /tmp/ccD46UZN.s:263    .text:0000000000000198 .L0 
     /tmp/ccD46UZN.s:265    .text:00000000000001a0 .L0 
     /tmp/ccD46UZN.s:267    .text:00000000000001a4 .L0 
     /tmp/ccD46UZN.s:268    .text:00000000000001a4 .L0 
     /tmp/ccD46UZN.s:274    .text:00000000000001b4 .L0 
     /tmp/ccD46UZN.s:275    .text:00000000000001b8 .L0 
     /tmp/ccD46UZN.s:277    .text:00000000000001bc .L0 
     /tmp/ccD46UZN.s:278    .text:00000000000001bc .L0 
     /tmp/ccD46UZN.s:280    .text:00000000000001c0 .L0 
     /tmp/ccD46UZN.s:283    .text:00000000000001c4 .L0 
     /tmp/ccD46UZN.s:285    .text:00000000000001c8 .L0 
     /tmp/ccD46UZN.s:291    .text:00000000000001c8 _ZN6Thread5yieldEv
     /tmp/ccD46UZN.s:294    .text:00000000000001c8 .L0 
     /tmp/ccD46UZN.s:295    .text:00000000000001c8 .L0 
     /tmp/ccD46UZN.s:296    .text:00000000000001cc .L0 
     /tmp/ccD46UZN.s:299    .text:00000000000001d4 .L0 
     /tmp/ccD46UZN.s:300    .text:00000000000001d4 .L0 
     /tmp/ccD46UZN.s:302    .text:00000000000001d8 .L0 
     /tmp/ccD46UZN.s:304    .text:00000000000001d8 .L0 
     /tmp/ccD46UZN.s:305    .text:00000000000001d8 .L0 
     /tmp/ccD46UZN.s:308    .text:00000000000001e0 .L0 
     /tmp/ccD46UZN.s:309    .text:00000000000001e0 .L0 
     /tmp/ccD46UZN.s:312    .text:00000000000001e8 .L0 
     /tmp/ccD46UZN.s:313    .text:00000000000001e8 .L0 
     /tmp/ccD46UZN.s:316    .text:00000000000001f0 .L0 
     /tmp/ccD46UZN.s:317    .text:00000000000001f4 .L0 
     /tmp/ccD46UZN.s:319    .text:00000000000001f8 .L0 
     /tmp/ccD46UZN.s:320    .text:00000000000001f8 .L0 
     /tmp/ccD46UZN.s:322    .text:00000000000001fc .L0 
     /tmp/ccD46UZN.s:324    .text:0000000000000200 .L0 
     /tmp/ccD46UZN.s:347    .bss:0000000000000000 _ZN6Thread7runningE
     /tmp/ccD46UZN.s:344    .bss:0000000000000000 .LANCHOR0
     /tmp/ccD46UZN.s:353    .text:0000000000000200 .L0 
     /tmp/ccD46UZN.s:83     .text:0000000000000074 .L0 
     /tmp/ccD46UZN.s:90     .text:0000000000000080 .L0 
     /tmp/ccD46UZN.s:99     .text:0000000000000094 .L0 
     /tmp/ccD46UZN.s:106    .text:00000000000000a0 .L0 
     /tmp/ccD46UZN.s:192    .text:0000000000000110 .L0 
     /tmp/ccD46UZN.s:205    .text:0000000000000124 .L0 
     /tmp/ccD46UZN.s:212    .text:0000000000000130 .L0 
     /tmp/ccD46UZN.s:221    .text:0000000000000144 .L0 
     /tmp/ccD46UZN.s:228    .text:0000000000000150 .L0 
GAS LISTING /tmp/ccD46UZN.s 			page 12


     /tmp/ccD46UZN.s:237    .text:0000000000000160 .L0 
     /tmp/ccD46UZN.s:244    .text:000000000000016c .L0 
     /tmp/ccD46UZN.s:253    .text:0000000000000180 .L0 
     /tmp/ccD46UZN.s:259    .text:0000000000000188 .L0 
     /tmp/ccD46UZN.s:263    .text:0000000000000198 .L0 
     /tmp/ccD46UZN.s:54     .text:0000000000000048 .L8
     /tmp/ccD46UZN.s:57     .text:000000000000004c .L2
     /tmp/ccD46UZN.s:111    .text:00000000000000b4 .L9
     /tmp/ccD46UZN.s:115    .text:00000000000000bc .L10
     /tmp/ccD46UZN.s:133    .text:00000000000000e0 .L1
     /tmp/ccD46UZN.s:100    .text:000000000000009c .L6
     /tmp/ccD46UZN.s:63     .text:0000000000000058 .L3
     /tmp/ccD46UZN.s:71     .text:0000000000000068 .L4
     /tmp/ccD46UZN.s:231    .text:0000000000000160 .L14
     /tmp/ccD46UZN.s:222    .text:000000000000014c .L15
     /tmp/ccD46UZN.s:254    .text:0000000000000188 .L16
     /tmp/ccD46UZN.s:272    .text:00000000000001b4 .L13
     /tmp/ccD46UZN.s:34     .text:0000000000000020 .LEHB0
     /tmp/ccD46UZN.s:10     .text:0000000000000000 .LFB30
     /tmp/ccD46UZN.s:37     .text:0000000000000028 .LEHE0
     /tmp/ccD46UZN.s:50     .text:000000000000003c .LEHB1
     /tmp/ccD46UZN.s:109    .text:00000000000000b0 .LEHE1
     /tmp/ccD46UZN.s:119    .text:00000000000000c4 .L11
     /tmp/ccD46UZN.s:129    .text:00000000000000d8 .LEHB2
     /tmp/ccD46UZN.s:132    .text:00000000000000e0 .LEHE2
     /tmp/ccD46UZN.s:1347   .debug_abbrev:0000000000000000 .Ldebug_abbrev0
     /tmp/ccD46UZN.s:2536   .debug_str:0000000000000646 .LASF106
     /tmp/ccD46UZN.s:2526   .debug_str:00000000000005db .LASF107
     /tmp/ccD46UZN.s:2478   .debug_str:0000000000000468 .LASF108
     /tmp/ccD46UZN.s:5      .text:0000000000000000 .Ltext0
     /tmp/ccD46UZN.s:350    .text:0000000000000200 .Letext0
     /tmp/ccD46UZN.s:2328   .debug_line:0000000000000000 .Ldebug_line0
     /tmp/ccD46UZN.s:2458   .debug_str:00000000000003f5 .LASF0
     /tmp/ccD46UZN.s:2474   .debug_str:0000000000000449 .LASF1
     /tmp/ccD46UZN.s:2440   .debug_str:0000000000000372 .LASF2
     /tmp/ccD46UZN.s:2416   .debug_str:00000000000002c6 .LASF4
     /tmp/ccD46UZN.s:2512   .debug_str:0000000000000571 .LASF3
     /tmp/ccD46UZN.s:2346   .debug_str:0000000000000057 .LASF5
     /tmp/ccD46UZN.s:2480   .debug_str:0000000000000482 .LASF6
     /tmp/ccD46UZN.s:2456   .debug_str:00000000000003e2 .LASF7
     /tmp/ccD46UZN.s:2552   .debug_str:0000000000000786 .LASF8
     /tmp/ccD46UZN.s:2404   .debug_str:0000000000000264 .LASF9
     /tmp/ccD46UZN.s:2490   .debug_str:00000000000004d7 .LASF10
     /tmp/ccD46UZN.s:2538   .debug_str:000000000000070a .LASF11
     /tmp/ccD46UZN.s:2350   .debug_str:0000000000000082 .LASF12
     /tmp/ccD46UZN.s:2332   .debug_str:0000000000000008 .LASF13
     /tmp/ccD46UZN.s:2360   .debug_str:00000000000000d7 .LASF14
     /tmp/ccD46UZN.s:2502   .debug_str:0000000000000525 .LASF15
     /tmp/ccD46UZN.s:2370   .debug_str:0000000000000129 .LASF16
     /tmp/ccD46UZN.s:2388   .debug_str:00000000000001c0 .LASF17
     /tmp/ccD46UZN.s:2486   .debug_str:00000000000004b3 .LASF18
     /tmp/ccD46UZN.s:2466   .debug_str:0000000000000418 .LASF43
     /tmp/ccD46UZN.s:2436   .debug_str:000000000000034b .LASF45
     /tmp/ccD46UZN.s:2542   .debug_str:000000000000072c .LASF31
     /tmp/ccD46UZN.s:2450   .debug_str:00000000000003a2 .LASF109
     /tmp/ccD46UZN.s:2554   .debug_str:0000000000000796 .LASF110
     /tmp/ccD46UZN.s:2454   .debug_str:00000000000003c7 .LASF111
GAS LISTING /tmp/ccD46UZN.s 			page 13


     /tmp/ccD46UZN.s:2414   .debug_str:00000000000002b2 .LASF112
     /tmp/ccD46UZN.s:2434   .debug_str:0000000000000339 .LASF35
     /tmp/ccD46UZN.s:2374   .debug_str:0000000000000158 .LASF19
     /tmp/ccD46UZN.s:2444   .debug_str:000000000000038c .LASF20
     /tmp/ccD46UZN.s:2544   .debug_str:0000000000000741 .LASF21
     /tmp/ccD46UZN.s:2338   .debug_str:000000000000003a .LASF113
     /tmp/ccD46UZN.s:2508   .debug_str:0000000000000551 .LASF22
     /tmp/ccD46UZN.s:2470   .debug_str:0000000000000434 .LASF24
     /tmp/ccD46UZN.s:2426   .debug_str:00000000000002ee .LASF23
     /tmp/ccD46UZN.s:2534   .debug_str:0000000000000627 .LASF25
     /tmp/ccD46UZN.s:2498   .debug_str:0000000000000519 .LASF114
     /tmp/ccD46UZN.s:2382   .debug_str:000000000000018f .LASF115
     /tmp/ccD46UZN.s:2504   .debug_str:000000000000053b .LASF26
     /tmp/ccD46UZN.s:2408   .debug_str:0000000000000288 .LASF28
     /tmp/ccD46UZN.s:2462   .debug_str:0000000000000409 .LASF27
     /tmp/ccD46UZN.s:2396   .debug_str:0000000000000213 .LASF29
     /tmp/ccD46UZN.s:2482   .debug_str:0000000000000495 .LASF30
     /tmp/ccD46UZN.s:2372   .debug_str:000000000000013f .LASF32
     /tmp/ccD46UZN.s:2442   .debug_str:0000000000000380 .LASF33
     /tmp/ccD46UZN.s:2488   .debug_str:00000000000004bd .LASF34
     /tmp/ccD46UZN.s:2468   .debug_str:0000000000000421 .LASF36
     /tmp/ccD46UZN.s:2362   .debug_str:00000000000000e3 .LASF116
     /tmp/ccD46UZN.s:2392   .debug_str:00000000000001e0 .LASF117
     /tmp/ccD46UZN.s:2570   .debug_str:0000000000000804 .LASF37
     /tmp/ccD46UZN.s:2420   .debug_str:00000000000002d6 .LASF38
     /tmp/ccD46UZN.s:2464   .debug_str:0000000000000412 .LASF39
     /tmp/ccD46UZN.s:2424   .debug_str:00000000000002e6 .LASF40
     /tmp/ccD46UZN.s:2418   .debug_str:00000000000002cd .LASF41
     /tmp/ccD46UZN.s:2428   .debug_str:00000000000002fb .LASF118
     /tmp/ccD46UZN.s:2472   .debug_str:0000000000000443 .LASF42
     /tmp/ccD46UZN.s:2334   .debug_str:0000000000000018 .LASF44
     /tmp/ccD46UZN.s:2384   .debug_str:0000000000000197 .LASF46
     /tmp/ccD46UZN.s:2380   .debug_str:0000000000000186 .LASF47
     /tmp/ccD46UZN.s:2378   .debug_str:0000000000000171 .LASF48
     /tmp/ccD46UZN.s:2514   .debug_str:0000000000000583 .LASF49
     /tmp/ccD46UZN.s:2492   .debug_str:00000000000004e6 .LASF50
     /tmp/ccD46UZN.s:2500   .debug_str:000000000000051e .LASF51
     /tmp/ccD46UZN.s:2530   .debug_str:0000000000000602 .LASF52
     /tmp/ccD46UZN.s:2394   .debug_str:000000000000020b .LASF53
     /tmp/ccD46UZN.s:2386   .debug_str:00000000000001ac .LASF54
     /tmp/ccD46UZN.s:2330   .debug_str:0000000000000000 .LASF55
     /tmp/ccD46UZN.s:2516   .debug_str:000000000000058a .LASF56
     /tmp/ccD46UZN.s:2344   .debug_str:000000000000004f .LASF57
     /tmp/ccD46UZN.s:2354   .debug_str:000000000000009d .LASF58
     /tmp/ccD46UZN.s:2410   .debug_str:000000000000029b .LASF59
     /tmp/ccD46UZN.s:2368   .debug_str:0000000000000115 .LASF60
     /tmp/ccD46UZN.s:2460   .debug_str:0000000000000402 .LASF61
     /tmp/ccD46UZN.s:2564   .debug_str:00000000000007e1 .LASF62
     /tmp/ccD46UZN.s:2342   .debug_str:0000000000000048 .LASF63
     /tmp/ccD46UZN.s:2540   .debug_str:0000000000000719 .LASF64
     /tmp/ccD46UZN.s:2398   .debug_str:0000000000000229 .LASF65
     /tmp/ccD46UZN.s:2532   .debug_str:0000000000000615 .LASF66
     /tmp/ccD46UZN.s:2340   .debug_str:0000000000000042 .LASF67
     /tmp/ccD46UZN.s:2574   .debug_str:0000000000000822 .LASF68
     /tmp/ccD46UZN.s:2568   .debug_str:00000000000007f9 .LASF69
     /tmp/ccD46UZN.s:2510   .debug_str:0000000000000559 .LASF70
     /tmp/ccD46UZN.s:2422   .debug_str:00000000000002db .LASF71
GAS LISTING /tmp/ccD46UZN.s 			page 14


     /tmp/ccD46UZN.s:2528   .debug_str:00000000000005ea .LASF72
     /tmp/ccD46UZN.s:2358   .debug_str:00000000000000cd .LASF73
     /tmp/ccD46UZN.s:2432   .debug_str:0000000000000323 .LASF74
     /tmp/ccD46UZN.s:2446   .debug_str:0000000000000391 .LASF75
     /tmp/ccD46UZN.s:2406   .debug_str:0000000000000272 .LASF76
     /tmp/ccD46UZN.s:2438   .debug_str:0000000000000364 .LASF77
     /tmp/ccD46UZN.s:2452   .debug_str:00000000000003ac .LASF78
     /tmp/ccD46UZN.s:2546   .debug_str:0000000000000748 .LASF79
     /tmp/ccD46UZN.s:2430   .debug_str:0000000000000306 .LASF80
     /tmp/ccD46UZN.s:2550   .debug_str:000000000000077a .LASF81
     /tmp/ccD46UZN.s:2402   .debug_str:000000000000024a .LASF82
     /tmp/ccD46UZN.s:2494   .debug_str:00000000000004f9 .LASF83
     /tmp/ccD46UZN.s:2390   .debug_str:00000000000001c5 .LASF84
     /tmp/ccD46UZN.s:2364   .debug_str:00000000000000f1 .LASF85
     /tmp/ccD46UZN.s:2572   .debug_str:0000000000000809 .LASF86
     /tmp/ccD46UZN.s:2562   .debug_str:00000000000007d3 .LASF87
     /tmp/ccD46UZN.s:2400   .debug_str:000000000000022f .LASF88
     /tmp/ccD46UZN.s:2476   .debug_str:000000000000045c .LASF89
     /tmp/ccD46UZN.s:2336   .debug_str:0000000000000021 .LASF90
     /tmp/ccD46UZN.s:2352   .debug_str:0000000000000092 .LASF91
     /tmp/ccD46UZN.s:2522   .debug_str:00000000000005bd .LASF92
     /tmp/ccD46UZN.s:2518   .debug_str:000000000000059e .LASF93
     /tmp/ccD46UZN.s:2356   .debug_str:00000000000000b1 .LASF94
     /tmp/ccD46UZN.s:2556   .debug_str:00000000000007ab .LASF119
     /tmp/ccD46UZN.s:2548   .debug_str:0000000000000757 .LASF120
     /tmp/ccD46UZN.s:2376   .debug_str:000000000000015d .LASF121
     /tmp/ccD46UZN.s:177    .text:00000000000000fc .LFB32
     /tmp/ccD46UZN.s:286    .text:00000000000001c8 .LFE32
     /tmp/ccD46UZN.s:2216   .debug_loc:0000000000000000 .LLST4
     /tmp/ccD46UZN.s:201    .text:0000000000000124 .LBB36
     /tmp/ccD46UZN.s:225    .text:000000000000014c .LBE36
     /tmp/ccD46UZN.s:208    .text:0000000000000130 .LBB38
     /tmp/ccD46UZN.s:218    .text:0000000000000140 .LBE38
     /tmp/ccD46UZN.s:2223   .debug_loc:0000000000000023 .LLST5
     /tmp/ccD46UZN.s:233    .text:0000000000000160 .LBB41
     /tmp/ccD46UZN.s:257    .text:0000000000000188 .LBE41
     /tmp/ccD46UZN.s:240    .text:000000000000016c .LBB43
     /tmp/ccD46UZN.s:250    .text:000000000000017c .LBE43
     /tmp/ccD46UZN.s:2232   .debug_loc:000000000000004f .LLST6
     /tmp/ccD46UZN.s:230    .text:0000000000000160 .LVL16
     /tmp/ccD46UZN.s:261    .text:0000000000000198 .LVL19
     /tmp/ccD46UZN.s:271    .text:00000000000001b4 .LVL20
     /tmp/ccD46UZN.s:292    .text:00000000000001c8 .LFB31
     /tmp/ccD46UZN.s:325    .text:0000000000000200 .LFE31
     /tmp/ccD46UZN.s:306    .text:00000000000001e0 .LVL22
     /tmp/ccD46UZN.s:310    .text:00000000000001e8 .LVL23
     /tmp/ccD46UZN.s:314    .text:00000000000001f0 .LVL24
     /tmp/ccD46UZN.s:151    .text:00000000000000fc .LFE30
     /tmp/ccD46UZN.s:2241   .debug_loc:000000000000007b .LLST0
     /tmp/ccD46UZN.s:40     .text:000000000000002c .LBB29
     /tmp/ccD46UZN.s:123    .text:00000000000000c8 .LBE29
     /tmp/ccD46UZN.s:2270   .debug_loc:00000000000000f0 .LLST1
     /tmp/ccD46UZN.s:2295   .debug_loc:0000000000000152 .LLST2
     /tmp/ccD46UZN.s:78     .text:0000000000000074 .LBB31
     /tmp/ccD46UZN.s:103    .text:000000000000009c .LBE31
     /tmp/ccD46UZN.s:86     .text:0000000000000080 .LBB33
     /tmp/ccD46UZN.s:96     .text:0000000000000090 .LBE33
GAS LISTING /tmp/ccD46UZN.s 			page 15


     /tmp/ccD46UZN.s:2306   .debug_loc:0000000000000188 .LLST3
     /tmp/ccD46UZN.s:52     .text:0000000000000044 .LVL4
     /tmp/ccD46UZN.s:108    .text:00000000000000b0 .LVL7
     /tmp/ccD46UZN.s:36     .text:0000000000000028 .LVL2
     /tmp/ccD46UZN.s:127    .text:00000000000000d4 .LVL9
     /tmp/ccD46UZN.s:131    .text:00000000000000e0 .LVL10
     /tmp/ccD46UZN.s:2566   .debug_str:00000000000007f4 .LASF95
     /tmp/ccD46UZN.s:2484   .debug_str:00000000000004a0 .LASF96
     /tmp/ccD46UZN.s:2496   .debug_str:0000000000000507 .LASF97
     /tmp/ccD46UZN.s:2348   .debug_str:000000000000005e .LASF122
     /tmp/ccD46UZN.s:2524   .debug_str:00000000000005d5 .LASF98
     /tmp/ccD46UZN.s:2506   .debug_str:0000000000000541 .LASF100
     /tmp/ccD46UZN.s:2560   .debug_str:00000000000007cd .LASF99
     /tmp/ccD46UZN.s:2558   .debug_str:00000000000007c0 .LASF101
     /tmp/ccD46UZN.s:2448   .debug_str:000000000000039b .LASF102
     /tmp/ccD46UZN.s:2520   .debug_str:00000000000005ad .LASF103
     /tmp/ccD46UZN.s:2412   .debug_str:00000000000002a3 .LASF104
     /tmp/ccD46UZN.s:2366   .debug_str:00000000000000fd .LASF105
     /tmp/ccD46UZN.s:193    .text:0000000000000118 .LVL13
     /tmp/ccD46UZN.s:281    .text:00000000000001c0 .LVL21
     /tmp/ccD46UZN.s:207    .text:0000000000000130 .LVL14
     /tmp/ccD46UZN.s:215    .text:0000000000000140 .LVL15
     /tmp/ccD46UZN.s:239    .text:000000000000016c .LVL17
     /tmp/ccD46UZN.s:247    .text:000000000000017c .LVL18
     /tmp/ccD46UZN.s:16     .text:0000000000000000 .LVL0
     /tmp/ccD46UZN.s:33     .text:0000000000000020 .LVL1
     /tmp/ccD46UZN.s:121    .text:00000000000000c8 .LVL8
     /tmp/ccD46UZN.s:146    .text:00000000000000f4 .LVL12
     /tmp/ccD46UZN.s:39     .text:000000000000002c .LVL3
     /tmp/ccD46UZN.s:143    .text:00000000000000f0 .LVL11
     /tmp/ccD46UZN.s:85     .text:0000000000000080 .LVL5
     /tmp/ccD46UZN.s:93     .text:0000000000000090 .LVL6
     /tmp/ccD46UZN.s:354    .debug_info:0000000000000000 .Ldebug_info0
     /tmp/ccD46UZN.s:154    .gcc_except_table:0000000000000000 .LLSDA30

UNDEFINED SYMBOLS
_Znwm
_Znam
_ZN9Scheduler3putEP6Thread
_ZdlPv
_Unwind_Resume
__gxx_personality_v0
_ZN9Scheduler3getEv
_ZN6Thread13switchContextEPNS_7ContextES1_
_ZN5Riscv11pushAllRegsEv
_ZN5Riscv10popAllRegsEv
