GAS LISTING /tmp/ccYz2Yxz.s 			page 1


   1              		.file	"workers.cpp"
   2              		.option pic
   3              		.option norelax
   4              		.text
   5              	.Ltext0:
   6              		.section	.rodata.str1.8,"aMS",@progbits,1
   7              		.align	3
   8              	.LC0:
   9 0000 413A2069 		.string	"A: i="
   9      3D00
  10 0006 0000     		.align	3
  11              	.LC1:
  12 0008 0A00     		.string	"\n"
  13              		.text
  14              		.align	2
  15              		.globl	_Z11workerBodyAv
  17              	_Z11workerBodyAv:
  18              	.LFB13:
  19              		.file 1 "src/workers.cpp"
   1:src/workers.cpp **** #include "../lib/hw.h"
   2:src/workers.cpp **** #include "../h/Thread.h"
   3:src/workers.cpp **** #include "../h/printer.h"
   4:src/workers.cpp **** 
   5:src/workers.cpp **** void workerBodyA()
   6:src/workers.cpp **** {
  20              		.loc 1 6 1
  21              		.cfi_startproc
  22 0000 130101FE 		addi	sp,sp,-32
  23              		.cfi_def_cfa_offset 32
  24 0004 233C1100 		sd	ra,24(sp)
  25 0008 23388100 		sd	s0,16(sp)
  26 000c 23349100 		sd	s1,8(sp)
  27              		.cfi_offset 1, -8
  28              		.cfi_offset 8, -16
  29              		.cfi_offset 9, -24
  30 0010 13040102 		addi	s0,sp,32
  31              		.cfi_def_cfa 8, 0
   7:src/workers.cpp ****     for (uint64 i = 0; i < 10; i++)
  32              		.loc 1 7 5
  33              	.LVL0:
  34              	.LBB2:
  35              		.loc 1 7 17 is_stmt 0
  36 0014 93040000 		li	s1,0
  37 0018 6F000003 		j	.L7
  38              	.LVL1:
  39              	.L4:
  40              	.LBB3:
  41              	.LBB4:
   8:src/workers.cpp ****     {
   9:src/workers.cpp ****         printString("A: i=");
  10:src/workers.cpp ****         printInteger(i);
  11:src/workers.cpp ****         printString("\n");
  12:src/workers.cpp ****         for (uint64 j = 0; j < 10000; j++)
  42              		.loc 1 12 9 is_stmt 1 discriminator 2
  43 001c 93861600 		addi	a3,a3,1
  44              	.LVL2:
  45              	.L6:
GAS LISTING /tmp/ccYz2Yxz.s 			page 2


  46              		.loc 1 12 30 discriminator 1
  47 0020 B7270000 		li	a5,8192
  48 0024 9387F770 		addi	a5,a5,1807
  49 0028 63EED700 		bgtu	a3,a5,.L3
  50              	.LBB5:
  13:src/workers.cpp ****         {
  14:src/workers.cpp ****             for (uint64 k = 0; k < 30000; k++)
  51              		.loc 1 14 25 is_stmt 0
  52 002c 13070000 		li	a4,0
  53              	.L5:
  54              	.LVL3:
  55              		.loc 1 14 34 is_stmt 1 discriminator 3
  56 0030 B7770000 		li	a5,28672
  57 0034 9387F752 		addi	a5,a5,1327
  58 0038 E3E2E7FE 		bgtu	a4,a5,.L4
  59              		.loc 1 14 13 discriminator 2
  60 003c 13071700 		addi	a4,a4,1
  61              	.LVL4:
  62 0040 6FF01FFF 		j	.L5
  63              	.LVL5:
  64              	.L3:
  65              	.LBE5:
  66              	.LBE4:
  67              	.LBE3:
   7:src/workers.cpp ****     {
  68              		.loc 1 7 5 discriminator 2
  69 0044 93841400 		addi	s1,s1,1
  70              	.LVL6:
  71              	.L7:
   7:src/workers.cpp ****     {
  72              		.loc 1 7 26 discriminator 1
  73 0048 93079000 		li	a5,9
  74 004c 63EC9702 		bgtu	s1,a5,.L1
  75              	.LBB7:
   9:src/workers.cpp ****         printInteger(i);
  76              		.loc 1 9 9
   9:src/workers.cpp ****         printInteger(i);
  77              		.loc 1 9 20 is_stmt 0
  78 0050 17050000 		lla	a0,.LC0
  78      13050500 
  79 0058 97000000 		call	_Z11printStringPKc@plt
  79      E7800000 
  80              	.LVL7:
  10:src/workers.cpp ****         printString("\n");
  81              		.loc 1 10 9 is_stmt 1
  10:src/workers.cpp ****         printString("\n");
  82              		.loc 1 10 21 is_stmt 0
  83 0060 13850400 		mv	a0,s1
  84 0064 97000000 		call	_Z12printIntegerm@plt
  84      E7800000 
  85              	.LVL8:
  11:src/workers.cpp ****         for (uint64 j = 0; j < 10000; j++)
  86              		.loc 1 11 9 is_stmt 1
  11:src/workers.cpp ****         for (uint64 j = 0; j < 10000; j++)
  87              		.loc 1 11 20 is_stmt 0
  88 006c 17050000 		lla	a0,.LC1
  88      13050500 
GAS LISTING /tmp/ccYz2Yxz.s 			page 3


  89 0074 97000000 		call	_Z11printStringPKc@plt
  89      E7800000 
  90              	.LVL9:
  12:src/workers.cpp ****         {
  91              		.loc 1 12 9 is_stmt 1
  92              	.LBB6:
  12:src/workers.cpp ****         {
  93              		.loc 1 12 21 is_stmt 0
  94 007c 93060000 		li	a3,0
  95 0080 6FF01FFA 		j	.L6
  96              	.LVL10:
  97              	.L1:
  98              	.LBE6:
  99              	.LBE7:
 100              	.LBE2:
  15:src/workers.cpp ****             {
  16:src/workers.cpp ****                 // busy wait
  17:src/workers.cpp ****             }
  18:src/workers.cpp ****         }
  19:src/workers.cpp ****      
  20:src/workers.cpp ****     }
  21:src/workers.cpp **** }
 101              		.loc 1 21 1
 102 0084 83308101 		ld	ra,24(sp)
 103              		.cfi_restore 1
 104 0088 03340101 		ld	s0,16(sp)
 105              		.cfi_restore 8
 106              		.cfi_def_cfa 2, 32
 107 008c 83348100 		ld	s1,8(sp)
 108              		.cfi_restore 9
 109              	.LVL11:
 110 0090 13010102 		addi	sp,sp,32
 111              		.cfi_def_cfa_offset 0
 112 0094 67800000 		jr	ra
 113              		.cfi_endproc
 114              	.LFE13:
 116              		.section	.rodata.str1.8
 117 000a 00000000 		.align	3
 117      0000
 118              	.LC2:
 119 0010 423A2069 		.string	"B: i="
 119      3D00
 120              		.text
 121              		.align	2
 122              		.globl	_Z11workerBodyBv
 124              	_Z11workerBodyBv:
 125              	.LFB14:
  22:src/workers.cpp **** 
  23:src/workers.cpp **** void workerBodyB()
  24:src/workers.cpp **** {
 126              		.loc 1 24 1 is_stmt 1
 127              		.cfi_startproc
 128 0098 130101FE 		addi	sp,sp,-32
 129              		.cfi_def_cfa_offset 32
 130 009c 233C1100 		sd	ra,24(sp)
 131 00a0 23388100 		sd	s0,16(sp)
 132 00a4 23349100 		sd	s1,8(sp)
GAS LISTING /tmp/ccYz2Yxz.s 			page 4


 133              		.cfi_offset 1, -8
 134              		.cfi_offset 8, -16
 135              		.cfi_offset 9, -24
 136 00a8 13040102 		addi	s0,sp,32
 137              		.cfi_def_cfa 8, 0
  25:src/workers.cpp ****     for (uint64 i = 0; i < 61; i++)
 138              		.loc 1 25 5
 139              	.LVL12:
 140              	.LBB8:
 141              		.loc 1 25 17 is_stmt 0
 142 00ac 93040000 		li	s1,0
 143 00b0 6F000003 		j	.L15
 144              	.LVL13:
 145              	.L12:
 146              	.LBB9:
 147              	.LBB10:
  26:src/workers.cpp ****     {
  27:src/workers.cpp ****         printString("B: i=");
  28:src/workers.cpp ****         printInteger(i);
  29:src/workers.cpp ****         printString("\n");
  30:src/workers.cpp ****         for (uint64 j = 0; j < 10000; j++)
 148              		.loc 1 30 9 is_stmt 1 discriminator 2
 149 00b4 93861600 		addi	a3,a3,1
 150              	.LVL14:
 151              	.L14:
 152              		.loc 1 30 30 discriminator 1
 153 00b8 B7270000 		li	a5,8192
 154 00bc 9387F770 		addi	a5,a5,1807
 155 00c0 63EED700 		bgtu	a3,a5,.L11
 156              	.LBB11:
  31:src/workers.cpp ****         {
  32:src/workers.cpp ****             for (uint64 k = 0; k < 30000; k++)
 157              		.loc 1 32 25 is_stmt 0
 158 00c4 13070000 		li	a4,0
 159              	.L13:
 160              	.LVL15:
 161              		.loc 1 32 34 is_stmt 1 discriminator 3
 162 00c8 B7770000 		li	a5,28672
 163 00cc 9387F752 		addi	a5,a5,1327
 164 00d0 E3E2E7FE 		bgtu	a4,a5,.L12
 165              		.loc 1 32 13 discriminator 2
 166 00d4 13071700 		addi	a4,a4,1
 167              	.LVL16:
 168 00d8 6FF01FFF 		j	.L13
 169              	.LVL17:
 170              	.L11:
 171              	.LBE11:
 172              	.LBE10:
 173              	.LBE9:
  25:src/workers.cpp ****     {
 174              		.loc 1 25 5 discriminator 2
 175 00dc 93841400 		addi	s1,s1,1
 176              	.LVL18:
 177              	.L15:
  25:src/workers.cpp ****     {
 178              		.loc 1 25 26 discriminator 1
 179 00e0 9307C003 		li	a5,60
GAS LISTING /tmp/ccYz2Yxz.s 			page 5


 180 00e4 63EC9702 		bgtu	s1,a5,.L9
 181              	.LBB13:
  27:src/workers.cpp ****         printInteger(i);
 182              		.loc 1 27 9
  27:src/workers.cpp ****         printInteger(i);
 183              		.loc 1 27 20 is_stmt 0
 184 00e8 17050000 		lla	a0,.LC2
 184      13050500 
 185 00f0 97000000 		call	_Z11printStringPKc@plt
 185      E7800000 
 186              	.LVL19:
  28:src/workers.cpp ****         printString("\n");
 187              		.loc 1 28 9 is_stmt 1
  28:src/workers.cpp ****         printString("\n");
 188              		.loc 1 28 21 is_stmt 0
 189 00f8 13850400 		mv	a0,s1
 190 00fc 97000000 		call	_Z12printIntegerm@plt
 190      E7800000 
 191              	.LVL20:
  29:src/workers.cpp ****         for (uint64 j = 0; j < 10000; j++)
 192              		.loc 1 29 9 is_stmt 1
  29:src/workers.cpp ****         for (uint64 j = 0; j < 10000; j++)
 193              		.loc 1 29 20 is_stmt 0
 194 0104 17050000 		lla	a0,.LC1
 194      13050500 
 195 010c 97000000 		call	_Z11printStringPKc@plt
 195      E7800000 
 196              	.LVL21:
  30:src/workers.cpp ****         {
 197              		.loc 1 30 9 is_stmt 1
 198              	.LBB12:
  30:src/workers.cpp ****         {
 199              		.loc 1 30 21 is_stmt 0
 200 0114 93060000 		li	a3,0
 201 0118 6FF01FFA 		j	.L14
 202              	.LVL22:
 203              	.L9:
 204              	.LBE12:
 205              	.LBE13:
 206              	.LBE8:
  33:src/workers.cpp ****             {
  34:src/workers.cpp ****                 // busy wait
  35:src/workers.cpp ****             }
  36:src/workers.cpp ****         }
  37:src/workers.cpp ****       
  38:src/workers.cpp ****     }
  39:src/workers.cpp **** }
 207              		.loc 1 39 1
 208 011c 83308101 		ld	ra,24(sp)
 209              		.cfi_restore 1
 210 0120 03340101 		ld	s0,16(sp)
 211              		.cfi_restore 8
 212              		.cfi_def_cfa 2, 32
 213 0124 83348100 		ld	s1,8(sp)
 214              		.cfi_restore 9
 215              	.LVL23:
 216 0128 13010102 		addi	sp,sp,32
GAS LISTING /tmp/ccYz2Yxz.s 			page 6


 217              		.cfi_def_cfa_offset 0
 218 012c 67800000 		jr	ra
 219              		.cfi_endproc
 220              	.LFE14:
 222              	.Letext0:
 223              		.file 2 "src/../lib/hw.h"
 224              		.file 3 "src/../h/printer.h"
GAS LISTING /tmp/ccYz2Yxz.s 			page 7


DEFINED SYMBOLS
                            *ABS*:0000000000000000 workers.cpp
     /tmp/ccYz2Yxz.s:17     .text:0000000000000000 _Z11workerBodyAv
     /tmp/ccYz2Yxz.s:21     .text:0000000000000000 .L0 
     /tmp/ccYz2Yxz.s:22     .text:0000000000000000 .L0 
     /tmp/ccYz2Yxz.s:23     .text:0000000000000004 .L0 
     /tmp/ccYz2Yxz.s:27     .text:0000000000000010 .L0 
     /tmp/ccYz2Yxz.s:28     .text:0000000000000010 .L0 
     /tmp/ccYz2Yxz.s:29     .text:0000000000000010 .L0 
     /tmp/ccYz2Yxz.s:31     .text:0000000000000014 .L0 
     /tmp/ccYz2Yxz.s:35     .text:0000000000000014 .L0 
     /tmp/ccYz2Yxz.s:36     .text:0000000000000014 .L0 
     /tmp/ccYz2Yxz.s:43     .text:000000000000001c .L0 
     /tmp/ccYz2Yxz.s:47     .text:0000000000000020 .L0 
     /tmp/ccYz2Yxz.s:52     .text:000000000000002c .L0 
     /tmp/ccYz2Yxz.s:56     .text:0000000000000030 .L0 
     /tmp/ccYz2Yxz.s:60     .text:000000000000003c .L0 
     /tmp/ccYz2Yxz.s:69     .text:0000000000000044 .L0 
     /tmp/ccYz2Yxz.s:73     .text:0000000000000048 .L0 
     /tmp/ccYz2Yxz.s:77     .text:0000000000000050 .L0 
     /tmp/ccYz2Yxz.s:78     .text:0000000000000050 .L0 
     /tmp/ccYz2Yxz.s:82     .text:0000000000000060 .L0 
     /tmp/ccYz2Yxz.s:83     .text:0000000000000060 .L0 
     /tmp/ccYz2Yxz.s:87     .text:000000000000006c .L0 
     /tmp/ccYz2Yxz.s:88     .text:000000000000006c .L0 
     /tmp/ccYz2Yxz.s:93     .text:000000000000007c .L0 
     /tmp/ccYz2Yxz.s:94     .text:000000000000007c .L0 
     /tmp/ccYz2Yxz.s:102    .text:0000000000000084 .L0 
     /tmp/ccYz2Yxz.s:103    .text:0000000000000088 .L0 
     /tmp/ccYz2Yxz.s:105    .text:000000000000008c .L0 
     /tmp/ccYz2Yxz.s:106    .text:000000000000008c .L0 
     /tmp/ccYz2Yxz.s:108    .text:0000000000000090 .L0 
     /tmp/ccYz2Yxz.s:111    .text:0000000000000094 .L0 
     /tmp/ccYz2Yxz.s:113    .text:0000000000000098 .L0 
     /tmp/ccYz2Yxz.s:124    .text:0000000000000098 _Z11workerBodyBv
     /tmp/ccYz2Yxz.s:127    .text:0000000000000098 .L0 
     /tmp/ccYz2Yxz.s:128    .text:0000000000000098 .L0 
     /tmp/ccYz2Yxz.s:129    .text:000000000000009c .L0 
     /tmp/ccYz2Yxz.s:133    .text:00000000000000a8 .L0 
     /tmp/ccYz2Yxz.s:134    .text:00000000000000a8 .L0 
     /tmp/ccYz2Yxz.s:135    .text:00000000000000a8 .L0 
     /tmp/ccYz2Yxz.s:137    .text:00000000000000ac .L0 
     /tmp/ccYz2Yxz.s:141    .text:00000000000000ac .L0 
     /tmp/ccYz2Yxz.s:142    .text:00000000000000ac .L0 
     /tmp/ccYz2Yxz.s:149    .text:00000000000000b4 .L0 
     /tmp/ccYz2Yxz.s:153    .text:00000000000000b8 .L0 
     /tmp/ccYz2Yxz.s:158    .text:00000000000000c4 .L0 
     /tmp/ccYz2Yxz.s:162    .text:00000000000000c8 .L0 
     /tmp/ccYz2Yxz.s:166    .text:00000000000000d4 .L0 
     /tmp/ccYz2Yxz.s:175    .text:00000000000000dc .L0 
     /tmp/ccYz2Yxz.s:179    .text:00000000000000e0 .L0 
     /tmp/ccYz2Yxz.s:183    .text:00000000000000e8 .L0 
     /tmp/ccYz2Yxz.s:184    .text:00000000000000e8 .L0 
     /tmp/ccYz2Yxz.s:188    .text:00000000000000f8 .L0 
     /tmp/ccYz2Yxz.s:189    .text:00000000000000f8 .L0 
     /tmp/ccYz2Yxz.s:193    .text:0000000000000104 .L0 
     /tmp/ccYz2Yxz.s:194    .text:0000000000000104 .L0 
GAS LISTING /tmp/ccYz2Yxz.s 			page 8


     /tmp/ccYz2Yxz.s:199    .text:0000000000000114 .L0 
     /tmp/ccYz2Yxz.s:200    .text:0000000000000114 .L0 
     /tmp/ccYz2Yxz.s:208    .text:000000000000011c .L0 
     /tmp/ccYz2Yxz.s:209    .text:0000000000000120 .L0 
     /tmp/ccYz2Yxz.s:211    .text:0000000000000124 .L0 
     /tmp/ccYz2Yxz.s:212    .text:0000000000000124 .L0 
     /tmp/ccYz2Yxz.s:214    .text:0000000000000128 .L0 
     /tmp/ccYz2Yxz.s:217    .text:000000000000012c .L0 
     /tmp/ccYz2Yxz.s:219    .text:0000000000000130 .L0 
     /tmp/ccYz2Yxz.s:225    .text:0000000000000130 .L0 
     /tmp/ccYz2Yxz.s:8      .rodata.str1.8:0000000000000000 .LC0
     /tmp/ccYz2Yxz.s:78     .text:0000000000000050 .L0 
     /tmp/ccYz2Yxz.s:11     .rodata.str1.8:0000000000000008 .LC1
     /tmp/ccYz2Yxz.s:88     .text:000000000000006c .L0 
     /tmp/ccYz2Yxz.s:118    .rodata.str1.8:0000000000000010 .LC2
     /tmp/ccYz2Yxz.s:184    .text:00000000000000e8 .L0 
     /tmp/ccYz2Yxz.s:194    .text:0000000000000104 .L0 
     /tmp/ccYz2Yxz.s:71     .text:0000000000000048 .L7
     /tmp/ccYz2Yxz.s:64     .text:0000000000000044 .L3
     /tmp/ccYz2Yxz.s:39     .text:000000000000001c .L4
     /tmp/ccYz2Yxz.s:53     .text:0000000000000030 .L5
     /tmp/ccYz2Yxz.s:97     .text:0000000000000084 .L1
     /tmp/ccYz2Yxz.s:45     .text:0000000000000020 .L6
     /tmp/ccYz2Yxz.s:177    .text:00000000000000e0 .L15
     /tmp/ccYz2Yxz.s:170    .text:00000000000000dc .L11
     /tmp/ccYz2Yxz.s:145    .text:00000000000000b4 .L12
     /tmp/ccYz2Yxz.s:159    .text:00000000000000c8 .L13
     /tmp/ccYz2Yxz.s:203    .text:000000000000011c .L9
     /tmp/ccYz2Yxz.s:151    .text:00000000000000b8 .L14
     /tmp/ccYz2Yxz.s:523    .debug_abbrev:0000000000000000 .Ldebug_abbrev0
     /tmp/ccYz2Yxz.s:914    .debug_str:000000000000016b .LASF26
     /tmp/ccYz2Yxz.s:880    .debug_str:000000000000005c .LASF27
     /tmp/ccYz2Yxz.s:902    .debug_str:00000000000000f6 .LASF28
     /tmp/ccYz2Yxz.s:5      .text:0000000000000000 .Ltext0
     /tmp/ccYz2Yxz.s:222    .text:0000000000000130 .Letext0
     /tmp/ccYz2Yxz.s:864    .debug_line:0000000000000000 .Ldebug_line0
     /tmp/ccYz2Yxz.s:898    .debug_str:00000000000000d6 .LASF0
     /tmp/ccYz2Yxz.s:900    .debug_str:00000000000000e3 .LASF1
     /tmp/ccYz2Yxz.s:894    .debug_str:00000000000000b5 .LASF2
     /tmp/ccYz2Yxz.s:890    .debug_str:00000000000000a2 .LASF4
     /tmp/ccYz2Yxz.s:910    .debug_str:0000000000000148 .LASF3
     /tmp/ccYz2Yxz.s:874    .debug_str:0000000000000039 .LASF5
     /tmp/ccYz2Yxz.s:904    .debug_str:0000000000000110 .LASF6
     /tmp/ccYz2Yxz.s:896    .debug_str:00000000000000c3 .LASF7
     /tmp/ccYz2Yxz.s:920    .debug_str:0000000000000250 .LASF8
     /tmp/ccYz2Yxz.s:888    .debug_str:0000000000000094 .LASF9
     /tmp/ccYz2Yxz.s:906    .debug_str:0000000000000123 .LASF10
     /tmp/ccYz2Yxz.s:916    .debug_str:000000000000022f .LASF11
     /tmp/ccYz2Yxz.s:876    .debug_str:0000000000000040 .LASF12
     /tmp/ccYz2Yxz.s:870    .debug_str:0000000000000018 .LASF13
     /tmp/ccYz2Yxz.s:878    .debug_str:0000000000000050 .LASF14
     /tmp/ccYz2Yxz.s:908    .debug_str:0000000000000132 .LASF15
     /tmp/ccYz2Yxz.s:882    .debug_str:000000000000006c .LASF16
     /tmp/ccYz2Yxz.s:884    .debug_str:0000000000000082 .LASF17
     /tmp/ccYz2Yxz.s:868    .debug_str:000000000000000c .LASF18
     /tmp/ccYz2Yxz.s:872    .debug_str:0000000000000028 .LASF20
     /tmp/ccYz2Yxz.s:125    .text:0000000000000098 .LFB14
GAS LISTING /tmp/ccYz2Yxz.s 			page 9


     /tmp/ccYz2Yxz.s:220    .text:0000000000000130 .LFE14
     /tmp/ccYz2Yxz.s:140    .text:00000000000000ac .LBB8
     /tmp/ccYz2Yxz.s:206    .text:000000000000011c .LBE8
     /tmp/ccYz2Yxz.s:767    .debug_loc:0000000000000000 .LLST3
     /tmp/ccYz2Yxz.s:850    .debug_ranges:0000000000000000 .Ldebug_ranges0
     /tmp/ccYz2Yxz.s:779    .debug_loc:0000000000000037 .LLST4
     /tmp/ccYz2Yxz.s:156    .text:00000000000000c4 .LBB11
     /tmp/ccYz2Yxz.s:171    .text:00000000000000dc .LBE11
     /tmp/ccYz2Yxz.s:791    .debug_loc:000000000000006e .LLST5
     /tmp/ccYz2Yxz.s:186    .text:00000000000000f8 .LVL19
     /tmp/ccYz2Yxz.s:191    .text:0000000000000104 .LVL20
     /tmp/ccYz2Yxz.s:196    .text:0000000000000114 .LVL21
     /tmp/ccYz2Yxz.s:866    .debug_str:0000000000000000 .LASF19
     /tmp/ccYz2Yxz.s:912    .debug_str:000000000000015a .LASF21
     /tmp/ccYz2Yxz.s:18     .text:0000000000000000 .LFB13
     /tmp/ccYz2Yxz.s:114    .text:0000000000000098 .LFE13
     /tmp/ccYz2Yxz.s:34     .text:0000000000000014 .LBB2
     /tmp/ccYz2Yxz.s:100    .text:0000000000000084 .LBE2
     /tmp/ccYz2Yxz.s:802    .debug_loc:00000000000000a4 .LLST0
     /tmp/ccYz2Yxz.s:814    .debug_loc:00000000000000db .LLST1
     /tmp/ccYz2Yxz.s:50     .text:000000000000002c .LBB5
     /tmp/ccYz2Yxz.s:65     .text:0000000000000044 .LBE5
     /tmp/ccYz2Yxz.s:826    .debug_loc:0000000000000112 .LLST2
     /tmp/ccYz2Yxz.s:80     .text:0000000000000060 .LVL7
     /tmp/ccYz2Yxz.s:85     .text:000000000000006c .LVL8
     /tmp/ccYz2Yxz.s:90     .text:000000000000007c .LVL9
     /tmp/ccYz2Yxz.s:922    .debug_str:0000000000000260 .LASF22
     /tmp/ccYz2Yxz.s:892    .debug_str:00000000000000a9 .LASF24
     /tmp/ccYz2Yxz.s:918    .debug_str:000000000000023e .LASF23
     /tmp/ccYz2Yxz.s:886    .debug_str:0000000000000087 .LASF25
     /tmp/ccYz2Yxz.s:139    .text:00000000000000ac .LVL12
     /tmp/ccYz2Yxz.s:144    .text:00000000000000b4 .LVL13
     /tmp/ccYz2Yxz.s:215    .text:0000000000000128 .LVL23
     /tmp/ccYz2Yxz.s:176    .text:00000000000000e0 .LVL18
     /tmp/ccYz2Yxz.s:202    .text:000000000000011c .LVL22
     /tmp/ccYz2Yxz.s:150    .text:00000000000000b8 .LVL14
     /tmp/ccYz2Yxz.s:160    .text:00000000000000c8 .LVL15
     /tmp/ccYz2Yxz.s:169    .text:00000000000000dc .LVL17
     /tmp/ccYz2Yxz.s:33     .text:0000000000000014 .LVL0
     /tmp/ccYz2Yxz.s:38     .text:000000000000001c .LVL1
     /tmp/ccYz2Yxz.s:109    .text:0000000000000090 .LVL11
     /tmp/ccYz2Yxz.s:70     .text:0000000000000048 .LVL6
     /tmp/ccYz2Yxz.s:96     .text:0000000000000084 .LVL10
     /tmp/ccYz2Yxz.s:44     .text:0000000000000020 .LVL2
     /tmp/ccYz2Yxz.s:54     .text:0000000000000030 .LVL3
     /tmp/ccYz2Yxz.s:63     .text:0000000000000044 .LVL5
     /tmp/ccYz2Yxz.s:226    .debug_info:0000000000000000 .Ldebug_info0
     /tmp/ccYz2Yxz.s:41     .text:000000000000001c .LBB4
     /tmp/ccYz2Yxz.s:66     .text:0000000000000044 .LBE4
     /tmp/ccYz2Yxz.s:92     .text:000000000000007c .LBB6
     /tmp/ccYz2Yxz.s:98     .text:0000000000000084 .LBE6
     /tmp/ccYz2Yxz.s:147    .text:00000000000000b4 .LBB10
     /tmp/ccYz2Yxz.s:172    .text:00000000000000dc .LBE10
     /tmp/ccYz2Yxz.s:198    .text:0000000000000114 .LBB12
     /tmp/ccYz2Yxz.s:204    .text:000000000000011c .LBE12

UNDEFINED SYMBOLS
GAS LISTING /tmp/ccYz2Yxz.s 			page 10


_Z11printStringPKc
_Z12printIntegerm
