GAS LISTING C:\msys64\tmp\cchBNOdf.s 			page 1


   1              		.file	"workers.cpp"
   2              		.option nopic
   3              		.option norelax
   4              		.attribute arch, "rv64i2p0_m2p0_a2p0"
   5              		.attribute unaligned_access, 0
   6              		.attribute stack_align, 16
   7              		.text
   8              	.Ltext0:
   9              		.section	.rodata.str1.8,"aMS",@progbits,1
  10              		.align	3
  11              	.LC0:
  12 0000 4E697420 		.string	"Nit A: krece na spavanje (10 tica)...\n"
  12      413A206B 
  12      72656365 
  12      206E6120 
  12      73706176 
  13 0027 00       		.align	3
  14              	.LC1:
  15 0028 4E697420 		.string	"Nit A: se probudila! Status: "
  15      413A2073 
  15      65207072 
  15      6F627564 
  15      696C6121 
  16 0046 0000     		.align	3
  17              	.LC2:
  18 0048 0A00     		.string	"\n"
  19              		.text
  20              		.align	2
  21              		.globl	_Z11workerBodyAPv
  23              	_Z11workerBodyAPv:
  24              	.LFB11:
  25              		.file 1 "src/workers.cpp"
   1:src/workers.cpp **** #include "../lib/hw.h"
   2:src/workers.cpp **** #include "../h/Thread.h"
   3:src/workers.cpp **** #include "../h/printer.h"
   4:src/workers.cpp **** #include  "../h/syscall_c.h"
   5:src/workers.cpp **** void workerBodyA(void* arg) {
  26              		.loc 1 5 29
  27              		.cfi_startproc
  28              	.LVL0:
  29 0000 130101FE 		addi	sp,sp,-32
  30              		.cfi_def_cfa_offset 32
  31 0004 233C1100 		sd	ra,24(sp)
  32 0008 23388100 		sd	s0,16(sp)
  33 000c 23349100 		sd	s1,8(sp)
  34 0010 23302101 		sd	s2,0(sp)
  35              		.cfi_offset 1, -8
  36              		.cfi_offset 8, -16
  37              		.cfi_offset 9, -24
  38              		.cfi_offset 18, -32
  39 0014 13040102 		addi	s0,sp,32
  40              		.cfi_def_cfa 8, 0
   6:src/workers.cpp ****     for (int i = 0; i < 3; i++) {
  41              		.loc 1 6 5
  42              	.LVL1:
  43              	.LBB2:
  44              		.loc 1 6 14 is_stmt 0
GAS LISTING C:\msys64\tmp\cchBNOdf.s 			page 2


  45 0018 13090000 		li	s2,0
  46 001c 6F00C005 		j	.L3
  47              	.LVL2:
  48              	.L5:
  49              	.LBB3:
   7:src/workers.cpp ****         printString("Nit A: krece na spavanje (10 tica)...\n");
  50              		.loc 1 7 9 is_stmt 1 discriminator 2
  51              		.loc 1 7 20 is_stmt 0 discriminator 2
  52 0020 17050000 		lla	a0,.LC0
  52      13050500 
  53 0028 97000000 		call	_Z11printStringPKc
  53      E7800000 
  54              	.LVL3:
   8:src/workers.cpp **** 
   9:src/workers.cpp ****         // Testiramo povratnu vrednost (treba da bude 0)
  10:src/workers.cpp ****         int res = time_sleep(10);
  55              		.loc 1 10 9 is_stmt 1 discriminator 2
  56              		.loc 1 10 29 is_stmt 0 discriminator 2
  57 0030 1305A000 		li	a0,10
  58 0034 97000000 		call	_Z10time_sleepm
  58      E7800000 
  59              	.LVL4:
  60 003c 93040500 		mv	s1,a0
  61              	.LVL5:
  11:src/workers.cpp **** 
  12:src/workers.cpp ****         printString("Nit A: se probudila! Status: ");
  62              		.loc 1 12 9 is_stmt 1 discriminator 2
  63              		.loc 1 12 20 is_stmt 0 discriminator 2
  64 0040 17050000 		lla	a0,.LC1
  64      13050500 
  65 0048 97000000 		call	_Z11printStringPKc
  65      E7800000 
  66              	.LVL6:
  13:src/workers.cpp ****         printInteger(res);
  67              		.loc 1 13 9 is_stmt 1 discriminator 2
  68              		.loc 1 13 21 is_stmt 0 discriminator 2
  69 0050 13850400 		mv	a0,s1
  70 0054 97000000 		call	_Z12printIntegerm
  70      E7800000 
  71              	.LVL7:
  14:src/workers.cpp ****         printString("\n");
  72              		.loc 1 14 9 is_stmt 1 discriminator 2
  73              		.loc 1 14 20 is_stmt 0 discriminator 2
  74 005c 17050000 		lla	a0,.LC2
  74      13050500 
  75 0064 97000000 		call	_Z11printStringPKc
  75      E7800000 
  76              	.LVL8:
  15:src/workers.cpp **** 
  16:src/workers.cpp ****         thread_dispatch();
  77              		.loc 1 16 9 is_stmt 1 discriminator 2
  78              		.loc 1 16 24 is_stmt 0 discriminator 2
  79 006c 97000000 		call	_Z15thread_dispatchv
  79      E7800000 
  80              	.LVL9:
  81              	.LBE3:
   6:src/workers.cpp ****         printString("Nit A: krece na spavanje (10 tica)...\n");
GAS LISTING C:\msys64\tmp\cchBNOdf.s 			page 3


  82              		.loc 1 6 5 is_stmt 1 discriminator 2
  83 0074 1B091900 		addiw	s2,s2,1
  84              	.LVL10:
  85              	.L3:
   6:src/workers.cpp ****         printString("Nit A: krece na spavanje (10 tica)...\n");
  86              		.loc 1 6 23 discriminator 3
  87 0078 93072000 		li	a5,2
  88 007c E3D227FB 		ble	s2,a5,.L5
  89              	.LBE2:
  17:src/workers.cpp ****     }
  18:src/workers.cpp **** }
  90              		.loc 1 18 1 is_stmt 0
  91 0080 83308101 		ld	ra,24(sp)
  92              		.cfi_restore 1
  93 0084 03340101 		ld	s0,16(sp)
  94              		.cfi_restore 8
  95              		.cfi_def_cfa 2, 32
  96 0088 83348100 		ld	s1,8(sp)
  97              		.cfi_restore 9
  98 008c 03390100 		ld	s2,0(sp)
  99              		.cfi_restore 18
 100              	.LVL11:
 101 0090 13010102 		addi	sp,sp,32
 102              		.cfi_def_cfa_offset 0
 103 0094 67800000 		jr	ra
 104              		.cfi_endproc
 105              	.LFE11:
 107              		.section	.rodata.str1.8
 108 004a 00000000 		.align	3
 108      0000
 109              	.LC3:
 110 0050 4E697420 		.string	"Nit B: krece na krace spavanje (5 tica)...\n"
 110      423A206B 
 110      72656365 
 110      206E6120 
 110      6B726163 
 111 007c 00000000 		.align	3
 112              	.LC4:
 113 0080 4E697420 		.string	"Nit B: se probudila!\n"
 113      423A2073 
 113      65207072 
 113      6F627564 
 113      696C6121 
 114              		.text
 115              		.align	2
 116              		.globl	_Z11workerBodyBPv
 118              	_Z11workerBodyBPv:
 119              	.LFB12:
  19:src/workers.cpp **** 
  20:src/workers.cpp **** void workerBodyB(void* arg) {
 120              		.loc 1 20 29 is_stmt 1
 121              		.cfi_startproc
 122              	.LVL12:
 123 0098 130101FE 		addi	sp,sp,-32
 124              		.cfi_def_cfa_offset 32
 125 009c 233C1100 		sd	ra,24(sp)
 126 00a0 23388100 		sd	s0,16(sp)
GAS LISTING C:\msys64\tmp\cchBNOdf.s 			page 4


 127 00a4 23349100 		sd	s1,8(sp)
 128              		.cfi_offset 1, -8
 129              		.cfi_offset 8, -16
 130              		.cfi_offset 9, -24
 131 00a8 13040102 		addi	s0,sp,32
 132              		.cfi_def_cfa 8, 0
  21:src/workers.cpp ****     for (int i = 0; i < 3; i++) {
 133              		.loc 1 21 5
 134              	.LVL13:
 135              	.LBB4:
 136              		.loc 1 21 14 is_stmt 0
 137 00ac 93040000 		li	s1,0
 138 00b0 6F00C003 		j	.L8
 139              	.LVL14:
 140              	.L10:
  22:src/workers.cpp ****         printString("Nit B: krece na krace spavanje (5 tica)...\n");
 141              		.loc 1 22 9 is_stmt 1 discriminator 2
 142              		.loc 1 22 20 is_stmt 0 discriminator 2
 143 00b4 17050000 		lla	a0,.LC3
 143      13050500 
 144 00bc 97000000 		call	_Z11printStringPKc
 144      E7800000 
 145              	.LVL15:
  23:src/workers.cpp **** 
  24:src/workers.cpp ****         time_sleep(5);
 146              		.loc 1 24 9 is_stmt 1 discriminator 2
 147              		.loc 1 24 19 is_stmt 0 discriminator 2
 148 00c4 13055000 		li	a0,5
 149 00c8 97000000 		call	_Z10time_sleepm
 149      E7800000 
 150              	.LVL16:
  25:src/workers.cpp **** 
  26:src/workers.cpp ****         printString("Nit B: se probudila!\n");
 151              		.loc 1 26 9 is_stmt 1 discriminator 2
 152              		.loc 1 26 20 is_stmt 0 discriminator 2
 153 00d0 17050000 		lla	a0,.LC4
 153      13050500 
 154 00d8 97000000 		call	_Z11printStringPKc
 154      E7800000 
 155              	.LVL17:
  27:src/workers.cpp **** 
  28:src/workers.cpp ****         thread_dispatch();
 156              		.loc 1 28 9 is_stmt 1 discriminator 2
 157              		.loc 1 28 24 is_stmt 0 discriminator 2
 158 00e0 97000000 		call	_Z15thread_dispatchv
 158      E7800000 
 159              	.LVL18:
  21:src/workers.cpp ****         printString("Nit B: krece na krace spavanje (5 tica)...\n");
 160              		.loc 1 21 5 is_stmt 1 discriminator 2
 161 00e8 9B841400 		addiw	s1,s1,1
 162              	.LVL19:
 163              	.L8:
  21:src/workers.cpp ****         printString("Nit B: krece na krace spavanje (5 tica)...\n");
 164              		.loc 1 21 23 discriminator 3
 165 00ec 93072000 		li	a5,2
 166 00f0 E3D297FC 		ble	s1,a5,.L10
 167              	.LBE4:
GAS LISTING C:\msys64\tmp\cchBNOdf.s 			page 5


  29:src/workers.cpp ****     }
  30:src/workers.cpp **** }
 168              		.loc 1 30 1 is_stmt 0
 169 00f4 83308101 		ld	ra,24(sp)
 170              		.cfi_restore 1
 171 00f8 03340101 		ld	s0,16(sp)
 172              		.cfi_restore 8
 173              		.cfi_def_cfa 2, 32
 174 00fc 83348100 		ld	s1,8(sp)
 175              		.cfi_restore 9
 176              	.LVL20:
 177 0100 13010102 		addi	sp,sp,32
 178              		.cfi_def_cfa_offset 0
 179 0104 67800000 		jr	ra
 180              		.cfi_endproc
 181              	.LFE12:
 183              	.Letext0:
 184              		.file 2 "src/../lib/hw.h"
 185              		.file 3 "src/../h/syscall_c.h"
 186              		.file 4 "src/../h/printer.h"
GAS LISTING C:\msys64\tmp\cchBNOdf.s 			page 6


DEFINED SYMBOLS
                            *ABS*:0000000000000000 workers.cpp
C:\msys64\tmp\cchBNOdf.s:23     .text:0000000000000000 _Z11workerBodyAPv
C:\msys64\tmp\cchBNOdf.s:27     .text:0000000000000000 .L0 
C:\msys64\tmp\cchBNOdf.s:29     .text:0000000000000000 .L0 
C:\msys64\tmp\cchBNOdf.s:30     .text:0000000000000004 .L0 
C:\msys64\tmp\cchBNOdf.s:35     .text:0000000000000014 .L0 
C:\msys64\tmp\cchBNOdf.s:36     .text:0000000000000014 .L0 
C:\msys64\tmp\cchBNOdf.s:37     .text:0000000000000014 .L0 
C:\msys64\tmp\cchBNOdf.s:38     .text:0000000000000014 .L0 
C:\msys64\tmp\cchBNOdf.s:40     .text:0000000000000018 .L0 
C:\msys64\tmp\cchBNOdf.s:44     .text:0000000000000018 .L0 
C:\msys64\tmp\cchBNOdf.s:45     .text:0000000000000018 .L0 
C:\msys64\tmp\cchBNOdf.s:51     .text:0000000000000020 .L0 
C:\msys64\tmp\cchBNOdf.s:52     .text:0000000000000020 .L0 
C:\msys64\tmp\cchBNOdf.s:56     .text:0000000000000030 .L0 
C:\msys64\tmp\cchBNOdf.s:57     .text:0000000000000030 .L0 
C:\msys64\tmp\cchBNOdf.s:63     .text:0000000000000040 .L0 
C:\msys64\tmp\cchBNOdf.s:64     .text:0000000000000040 .L0 
C:\msys64\tmp\cchBNOdf.s:68     .text:0000000000000050 .L0 
C:\msys64\tmp\cchBNOdf.s:69     .text:0000000000000050 .L0 
C:\msys64\tmp\cchBNOdf.s:73     .text:000000000000005c .L0 
C:\msys64\tmp\cchBNOdf.s:74     .text:000000000000005c .L0 
C:\msys64\tmp\cchBNOdf.s:78     .text:000000000000006c .L0 
C:\msys64\tmp\cchBNOdf.s:79     .text:000000000000006c .L0 
C:\msys64\tmp\cchBNOdf.s:83     .text:0000000000000074 .L0 
C:\msys64\tmp\cchBNOdf.s:87     .text:0000000000000078 .L0 
C:\msys64\tmp\cchBNOdf.s:91     .text:0000000000000080 .L0 
C:\msys64\tmp\cchBNOdf.s:92     .text:0000000000000084 .L0 
C:\msys64\tmp\cchBNOdf.s:94     .text:0000000000000088 .L0 
C:\msys64\tmp\cchBNOdf.s:95     .text:0000000000000088 .L0 
C:\msys64\tmp\cchBNOdf.s:97     .text:000000000000008c .L0 
C:\msys64\tmp\cchBNOdf.s:99     .text:0000000000000090 .L0 
C:\msys64\tmp\cchBNOdf.s:102    .text:0000000000000094 .L0 
C:\msys64\tmp\cchBNOdf.s:104    .text:0000000000000098 .L0 
C:\msys64\tmp\cchBNOdf.s:118    .text:0000000000000098 _Z11workerBodyBPv
C:\msys64\tmp\cchBNOdf.s:121    .text:0000000000000098 .L0 
C:\msys64\tmp\cchBNOdf.s:123    .text:0000000000000098 .L0 
C:\msys64\tmp\cchBNOdf.s:124    .text:000000000000009c .L0 
C:\msys64\tmp\cchBNOdf.s:128    .text:00000000000000a8 .L0 
C:\msys64\tmp\cchBNOdf.s:129    .text:00000000000000a8 .L0 
C:\msys64\tmp\cchBNOdf.s:130    .text:00000000000000a8 .L0 
C:\msys64\tmp\cchBNOdf.s:132    .text:00000000000000ac .L0 
C:\msys64\tmp\cchBNOdf.s:136    .text:00000000000000ac .L0 
C:\msys64\tmp\cchBNOdf.s:137    .text:00000000000000ac .L0 
C:\msys64\tmp\cchBNOdf.s:142    .text:00000000000000b4 .L0 
C:\msys64\tmp\cchBNOdf.s:143    .text:00000000000000b4 .L0 
C:\msys64\tmp\cchBNOdf.s:147    .text:00000000000000c4 .L0 
C:\msys64\tmp\cchBNOdf.s:148    .text:00000000000000c4 .L0 
C:\msys64\tmp\cchBNOdf.s:152    .text:00000000000000d0 .L0 
C:\msys64\tmp\cchBNOdf.s:153    .text:00000000000000d0 .L0 
C:\msys64\tmp\cchBNOdf.s:157    .text:00000000000000e0 .L0 
C:\msys64\tmp\cchBNOdf.s:158    .text:00000000000000e0 .L0 
C:\msys64\tmp\cchBNOdf.s:161    .text:00000000000000e8 .L0 
C:\msys64\tmp\cchBNOdf.s:165    .text:00000000000000ec .L0 
C:\msys64\tmp\cchBNOdf.s:169    .text:00000000000000f4 .L0 
C:\msys64\tmp\cchBNOdf.s:170    .text:00000000000000f8 .L0 
GAS LISTING C:\msys64\tmp\cchBNOdf.s 			page 7


C:\msys64\tmp\cchBNOdf.s:172    .text:00000000000000fc .L0 
C:\msys64\tmp\cchBNOdf.s:173    .text:00000000000000fc .L0 
C:\msys64\tmp\cchBNOdf.s:175    .text:0000000000000100 .L0 
C:\msys64\tmp\cchBNOdf.s:178    .text:0000000000000104 .L0 
C:\msys64\tmp\cchBNOdf.s:180    .text:0000000000000108 .L0 
C:\msys64\tmp\cchBNOdf.s:187    .text:0000000000000108 .L0 
C:\msys64\tmp\cchBNOdf.s:11     .rodata.str1.8:0000000000000000 .LC0
C:\msys64\tmp\cchBNOdf.s:52     .text:0000000000000020 .L0 
C:\msys64\tmp\cchBNOdf.s:14     .rodata.str1.8:0000000000000028 .LC1
C:\msys64\tmp\cchBNOdf.s:64     .text:0000000000000040 .L0 
C:\msys64\tmp\cchBNOdf.s:17     .rodata.str1.8:0000000000000048 .LC2
C:\msys64\tmp\cchBNOdf.s:74     .text:000000000000005c .L0 
C:\msys64\tmp\cchBNOdf.s:109    .rodata.str1.8:0000000000000050 .LC3
C:\msys64\tmp\cchBNOdf.s:143    .text:00000000000000b4 .L0 
C:\msys64\tmp\cchBNOdf.s:112    .rodata.str1.8:0000000000000080 .LC4
C:\msys64\tmp\cchBNOdf.s:153    .text:00000000000000d0 .L0 
C:\msys64\tmp\cchBNOdf.s:85     .text:0000000000000078 .L3
C:\msys64\tmp\cchBNOdf.s:48     .text:0000000000000020 .L5
C:\msys64\tmp\cchBNOdf.s:163    .text:00000000000000ec .L8
C:\msys64\tmp\cchBNOdf.s:140    .text:00000000000000b4 .L10
C:\msys64\tmp\cchBNOdf.s:483    .debug_abbrev:0000000000000000 .Ldebug_abbrev0
C:\msys64\tmp\cchBNOdf.s:810    .debug_str:000000000000003b .LASF25
C:\msys64\tmp\cchBNOdf.s:808    .debug_str:000000000000002b .LASF26
C:\msys64\tmp\cchBNOdf.s:838    .debug_str:00000000000001d1 .LASF27
C:\msys64\tmp\cchBNOdf.s:8      .text:0000000000000000 .Ltext0
C:\msys64\tmp\cchBNOdf.s:183    .text:0000000000000108 .Letext0
C:\msys64\tmp\cchBNOdf.s:798    .debug_line:0000000000000000 .Ldebug_line0
C:\msys64\tmp\cchBNOdf.s:830    .debug_str:000000000000018f .LASF0
C:\msys64\tmp\cchBNOdf.s:832    .debug_str:000000000000019c .LASF1
C:\msys64\tmp\cchBNOdf.s:826    .debug_str:000000000000016e .LASF2
C:\msys64\tmp\cchBNOdf.s:822    .debug_str:000000000000015b .LASF4
C:\msys64\tmp\cchBNOdf.s:844    .debug_str:0000000000000221 .LASF3
C:\msys64\tmp\cchBNOdf.s:804    .debug_str:0000000000000018 .LASF5
C:\msys64\tmp\cchBNOdf.s:834    .debug_str:00000000000001af .LASF6
C:\msys64\tmp\cchBNOdf.s:828    .debug_str:000000000000017c .LASF7
C:\msys64\tmp\cchBNOdf.s:836    .debug_str:00000000000001c2 .LASF8
C:\msys64\tmp\cchBNOdf.s:806    .debug_str:000000000000001f .LASF9
C:\msys64\tmp\cchBNOdf.s:840    .debug_str:0000000000000200 .LASF10
C:\msys64\tmp\cchBNOdf.s:814    .debug_str:000000000000011e .LASF11
C:\msys64\tmp\cchBNOdf.s:816    .debug_str:0000000000000134 .LASF12
C:\msys64\tmp\cchBNOdf.s:802    .debug_str:000000000000000c .LASF13
C:\msys64\tmp\cchBNOdf.s:850    .debug_str:0000000000000257 .LASF15
C:\msys64\tmp\cchBNOdf.s:119    .text:0000000000000098 .LFB12
C:\msys64\tmp\cchBNOdf.s:181    .text:0000000000000108 .LFE12
C:\msys64\tmp\cchBNOdf.s:726    .debug_loc:0000000000000000 .LLST3
C:\msys64\tmp\cchBNOdf.s:135    .text:00000000000000ac .LBB4
C:\msys64\tmp\cchBNOdf.s:167    .text:00000000000000f4 .LBE4
C:\msys64\tmp\cchBNOdf.s:740    .debug_loc:0000000000000039 .LLST4
C:\msys64\tmp\cchBNOdf.s:145    .text:00000000000000c4 .LVL15
C:\msys64\tmp\cchBNOdf.s:150    .text:00000000000000d0 .LVL16
C:\msys64\tmp\cchBNOdf.s:155    .text:00000000000000e0 .LVL17
C:\msys64\tmp\cchBNOdf.s:159    .text:00000000000000e8 .LVL18
C:\msys64\tmp\cchBNOdf.s:800    .debug_str:0000000000000000 .LASF14
C:\msys64\tmp\cchBNOdf.s:846    .debug_str:0000000000000233 .LASF16
C:\msys64\tmp\cchBNOdf.s:24     .text:0000000000000000 .LFB11
C:\msys64\tmp\cchBNOdf.s:105    .text:0000000000000098 .LFE11
C:\msys64\tmp\cchBNOdf.s:752    .debug_loc:0000000000000070 .LLST0
GAS LISTING C:\msys64\tmp\cchBNOdf.s 			page 8


C:\msys64\tmp\cchBNOdf.s:43     .text:0000000000000018 .LBB2
C:\msys64\tmp\cchBNOdf.s:89     .text:0000000000000080 .LBE2
C:\msys64\tmp\cchBNOdf.s:766    .debug_loc:00000000000000a9 .LLST1
C:\msys64\tmp\cchBNOdf.s:49     .text:0000000000000020 .LBB3
C:\msys64\tmp\cchBNOdf.s:81     .text:0000000000000074 .LBE3
C:\msys64\tmp\cchBNOdf.s:778    .debug_loc:00000000000000e0 .LLST2
C:\msys64\tmp\cchBNOdf.s:54     .text:0000000000000030 .LVL3
C:\msys64\tmp\cchBNOdf.s:59     .text:000000000000003c .LVL4
C:\msys64\tmp\cchBNOdf.s:66     .text:0000000000000050 .LVL6
C:\msys64\tmp\cchBNOdf.s:71     .text:000000000000005c .LVL7
C:\msys64\tmp\cchBNOdf.s:76     .text:000000000000006c .LVL8
C:\msys64\tmp\cchBNOdf.s:80     .text:0000000000000074 .LVL9
C:\msys64\tmp\cchBNOdf.s:852    .debug_str:0000000000000269 .LASF17
C:\msys64\tmp\cchBNOdf.s:824    .debug_str:0000000000000162 .LASF19
C:\msys64\tmp\cchBNOdf.s:854    .debug_str:000000000000027c .LASF18
C:\msys64\tmp\cchBNOdf.s:842    .debug_str:0000000000000216 .LASF20
C:\msys64\tmp\cchBNOdf.s:818    .debug_str:0000000000000139 .LASF21
C:\msys64\tmp\cchBNOdf.s:812    .debug_str:000000000000010e .LASF22
C:\msys64\tmp\cchBNOdf.s:848    .debug_str:0000000000000245 .LASF23
C:\msys64\tmp\cchBNOdf.s:820    .debug_str:000000000000014e .LASF24
C:\msys64\tmp\cchBNOdf.s:122    .text:0000000000000098 .LVL12
C:\msys64\tmp\cchBNOdf.s:139    .text:00000000000000b4 .LVL14
C:\msys64\tmp\cchBNOdf.s:134    .text:00000000000000ac .LVL13
C:\msys64\tmp\cchBNOdf.s:176    .text:0000000000000100 .LVL20
C:\msys64\tmp\cchBNOdf.s:28     .text:0000000000000000 .LVL0
C:\msys64\tmp\cchBNOdf.s:47     .text:0000000000000020 .LVL2
C:\msys64\tmp\cchBNOdf.s:42     .text:0000000000000018 .LVL1
C:\msys64\tmp\cchBNOdf.s:100    .text:0000000000000090 .LVL11
C:\msys64\tmp\cchBNOdf.s:61     .text:0000000000000040 .LVL5
C:\msys64\tmp\cchBNOdf.s:84     .text:0000000000000078 .LVL10
C:\msys64\tmp\cchBNOdf.s:188    .debug_info:0000000000000000 .Ldebug_info0

UNDEFINED SYMBOLS
_Z11printStringPKc
_Z10time_sleepm
_Z12printIntegerm
_Z15thread_dispatchv
