GAS LISTING C:\msys64\tmp\cc3QDhfw.s 			page 1


   1              		.file	"buffer_CPP_API.cpp"
   2              		.option nopic
   3              		.option norelax
   4              		.attribute arch, "rv64i2p0_m2p0_a2p0"
   5              		.attribute unaligned_access, 0
   6              		.attribute stack_align, 16
   7              		.text
   8              	.Ltext0:
   9              		.align	2
  10              		.globl	_ZN9BufferCPPC2Ei
  12              	_ZN9BufferCPPC2Ei:
  13              	.LFB3:
  14              		.file 1 "test/buffer_CPP_API.cpp"
   1:test/buffer_CPP_API.cpp **** #include "buffer_CPP_API.hpp"
   2:test/buffer_CPP_API.cpp **** 
   3:test/buffer_CPP_API.cpp **** BufferCPP::BufferCPP(int _cap) : cap(_cap + 1), head(0), tail(0) {
  15              		.loc 1 3 1
  16              		.cfi_startproc
  17              		.cfi_personality 0x9b,DW.ref.__gxx_personality_v0
  18              		.cfi_lsda 0x1b,.LLSDA3
  19              	.LVL0:
  20 0000 130101FD 		addi	sp,sp,-48
  21              		.cfi_def_cfa_offset 48
  22 0004 23341102 		sd	ra,40(sp)
  23 0008 23308102 		sd	s0,32(sp)
  24 000c 233C9100 		sd	s1,24(sp)
  25 0010 23382101 		sd	s2,16(sp)
  26 0014 23343101 		sd	s3,8(sp)
  27              		.cfi_offset 1, -8
  28              		.cfi_offset 8, -16
  29              		.cfi_offset 9, -24
  30              		.cfi_offset 18, -32
  31              		.cfi_offset 19, -40
  32 0018 13040103 		addi	s0,sp,48
  33              		.cfi_def_cfa 8, 0
  34 001c 93040500 		mv	s1,a0
  35 0020 13890500 		mv	s2,a1
  36              	.LBB2:
  37              		.loc 1 3 43 is_stmt 0
  38 0024 9B871500 		addiw	a5,a1,1
  39 0028 1B850700 		sext.w	a0,a5
  40              	.LVL1:
  41              		.loc 1 3 64
  42 002c 23A0F400 		sw	a5,0(s1)
  43 0030 23A80400 		sw	zero,16(s1)
  44 0034 23AA0400 		sw	zero,20(s1)
   4:test/buffer_CPP_API.cpp ****     buffer = (int *)mem_alloc(sizeof(int) * cap);
  45              		.loc 1 4 5 is_stmt 1
  46              		.loc 1 4 30 is_stmt 0
  47 0038 13152500 		slli	a0,a0,2
  48              	.LEHB0:
  49 003c 97000000 		call	_Z9mem_allocm
  49      E7800000 
  50              	.LVL2:
  51              		.loc 1 4 12
  52 0044 23B4A400 		sd	a0,8(s1)
   5:test/buffer_CPP_API.cpp ****     itemAvailable = new Semaphore(0);
GAS LISTING C:\msys64\tmp\cc3QDhfw.s 			page 2


  53              		.loc 1 5 5 is_stmt 1
  54              		.loc 1 5 36 is_stmt 0
  55 0048 13050001 		li	a0,16
  56 004c 97000000 		call	_Znwm
  56      E7800000 
  57              	.LVL3:
  58              	.LEHE0:
  59 0054 93090500 		mv	s3,a0
  60 0058 93050000 		li	a1,0
  61              	.LEHB1:
  62 005c 97000000 		call	_ZN9SemaphoreC1Ej
  62      E7800000 
  63              	.LVL4:
  64              	.LEHE1:
  65              		.loc 1 5 19 discriminator 2
  66 0064 23B03403 		sd	s3,32(s1)
   6:test/buffer_CPP_API.cpp ****     spaceAvailable = new Semaphore(_cap);
  67              		.loc 1 6 5 is_stmt 1 discriminator 2
  68              		.loc 1 6 40 is_stmt 0 discriminator 2
  69 0068 13050001 		li	a0,16
  70              	.LEHB2:
  71 006c 97000000 		call	_Znwm
  71      E7800000 
  72              	.LVL5:
  73              	.LEHE2:
  74 0074 93090500 		mv	s3,a0
  75 0078 93050900 		mv	a1,s2
  76              	.LEHB3:
  77 007c 97000000 		call	_ZN9SemaphoreC1Ej
  77      E7800000 
  78              	.LVL6:
  79              	.LEHE3:
  80              		.loc 1 6 20 discriminator 2
  81 0084 23BC3401 		sd	s3,24(s1)
   7:test/buffer_CPP_API.cpp ****     mutexHead = new Semaphore(1);
  82              		.loc 1 7 5 is_stmt 1 discriminator 2
  83              		.loc 1 7 32 is_stmt 0 discriminator 2
  84 0088 13050001 		li	a0,16
  85              	.LEHB4:
  86 008c 97000000 		call	_Znwm
  86      E7800000 
  87              	.LVL7:
  88              	.LEHE4:
  89 0094 13090500 		mv	s2,a0
  90 0098 93051000 		li	a1,1
  91              	.LEHB5:
  92 009c 97000000 		call	_ZN9SemaphoreC1Ej
  92      E7800000 
  93              	.LVL8:
  94              	.LEHE5:
  95              		.loc 1 7 15 discriminator 2
  96 00a4 23B42403 		sd	s2,40(s1)
   8:test/buffer_CPP_API.cpp ****     mutexTail = new Semaphore(1);
  97              		.loc 1 8 5 is_stmt 1 discriminator 2
  98              		.loc 1 8 32 is_stmt 0 discriminator 2
  99 00a8 13050001 		li	a0,16
 100              	.LEHB6:
GAS LISTING C:\msys64\tmp\cc3QDhfw.s 			page 3


 101 00ac 97000000 		call	_Znwm
 101      E7800000 
 102              	.LVL9:
 103              	.LEHE6:
 104 00b4 13090500 		mv	s2,a0
 105 00b8 93051000 		li	a1,1
 106              	.LEHB7:
 107 00bc 97000000 		call	_ZN9SemaphoreC1Ej
 107      E7800000 
 108              	.LVL10:
 109              	.LEHE7:
 110              		.loc 1 8 15 discriminator 2
 111 00c4 23B82403 		sd	s2,48(s1)
 112              	.LBE2:
   9:test/buffer_CPP_API.cpp **** }
 113              		.loc 1 9 1 discriminator 2
 114 00c8 83308102 		ld	ra,40(sp)
 115              		.cfi_remember_state
 116              		.cfi_restore 1
 117 00cc 03340102 		ld	s0,32(sp)
 118              		.cfi_restore 8
 119              		.cfi_def_cfa 2, 48
 120 00d0 83348101 		ld	s1,24(sp)
 121              		.cfi_restore 9
 122              	.LVL11:
 123 00d4 03390101 		ld	s2,16(sp)
 124              		.cfi_restore 18
 125 00d8 83398100 		ld	s3,8(sp)
 126              		.cfi_restore 19
 127 00dc 13010103 		addi	sp,sp,48
 128              		.cfi_def_cfa_offset 0
 129 00e0 67800000 		jr	ra
 130              	.LVL12:
 131              	.L6:
 132              		.cfi_restore_state
 133              	.LBB3:
   5:test/buffer_CPP_API.cpp ****     spaceAvailable = new Semaphore(_cap);
 134              		.loc 1 5 36
 135 00e4 93040500 		mv	s1,a0
 136              	.LVL13:
 137 00e8 13850900 		mv	a0,s3
 138 00ec 97000000 		call	_ZdlPv
 138      E7800000 
 139              	.LVL14:
 140 00f4 13850400 		mv	a0,s1
 141              	.LEHB8:
 142 00f8 97000000 		call	_Unwind_Resume
 142      E7800000 
 143              	.LVL15:
 144              	.LEHE8:
 145              	.L7:
   6:test/buffer_CPP_API.cpp ****     mutexHead = new Semaphore(1);
 146              		.loc 1 6 40
 147 0100 93040500 		mv	s1,a0
 148              	.LVL16:
 149 0104 13850900 		mv	a0,s3
 150 0108 97000000 		call	_ZdlPv
GAS LISTING C:\msys64\tmp\cc3QDhfw.s 			page 4


 150      E7800000 
 151              	.LVL17:
 152 0110 13850400 		mv	a0,s1
 153              	.LEHB9:
 154 0114 97000000 		call	_Unwind_Resume
 154      E7800000 
 155              	.LVL18:
 156              	.LEHE9:
 157              	.L8:
   7:test/buffer_CPP_API.cpp ****     mutexTail = new Semaphore(1);
 158              		.loc 1 7 32
 159 011c 93040500 		mv	s1,a0
 160              	.LVL19:
 161 0120 13050900 		mv	a0,s2
 162 0124 97000000 		call	_ZdlPv
 162      E7800000 
 163              	.LVL20:
 164 012c 13850400 		mv	a0,s1
 165              	.LEHB10:
 166 0130 97000000 		call	_Unwind_Resume
 166      E7800000 
 167              	.LVL21:
 168              	.LEHE10:
 169              	.L9:
   8:test/buffer_CPP_API.cpp **** }
 170              		.loc 1 8 32
 171 0138 93040500 		mv	s1,a0
 172              	.LVL22:
 173 013c 13050900 		mv	a0,s2
 174 0140 97000000 		call	_ZdlPv
 174      E7800000 
 175              	.LVL23:
 176 0148 13850400 		mv	a0,s1
 177              	.LEHB11:
 178 014c 97000000 		call	_Unwind_Resume
 178      E7800000 
 179              	.LVL24:
 180              	.LEHE11:
 181              	.LBE3:
 182              		.cfi_endproc
 183              	.LFE3:
 184              		.globl	__gxx_personality_v0
 185              		.section	.gcc_except_table,"aw",@progbits
 186              	.LLSDA3:
 187 0000 FF       		.byte	0xff
 188 0001 FF       		.byte	0xff
 189 0002 03       		.byte	0x3
 190 0003 9C01     		.byte	0x9c,0x1
 191 0005 00000000 		.4byte	.LEHB0-.LFB3
 192 0009 00000000 		.4byte	.LEHE0-.LEHB0
 193 000d 00000000 		.4byte	0
 194 0011 00       		.byte	0
 195 0012 00000000 		.4byte	.LEHB1-.LFB3
 196 0016 00000000 		.4byte	.LEHE1-.LEHB1
 197 001a 00000000 		.4byte	.L6-.LFB3
 198 001e 00       		.byte	0
 199 001f 00000000 		.4byte	.LEHB2-.LFB3
GAS LISTING C:\msys64\tmp\cc3QDhfw.s 			page 5


 200 0023 00000000 		.4byte	.LEHE2-.LEHB2
 201 0027 00000000 		.4byte	0
 202 002b 00       		.byte	0
 203 002c 00000000 		.4byte	.LEHB3-.LFB3
 204 0030 00000000 		.4byte	.LEHE3-.LEHB3
 205 0034 00000000 		.4byte	.L7-.LFB3
 206 0038 00       		.byte	0
 207 0039 00000000 		.4byte	.LEHB4-.LFB3
 208 003d 00000000 		.4byte	.LEHE4-.LEHB4
 209 0041 00000000 		.4byte	0
 210 0045 00       		.byte	0
 211 0046 00000000 		.4byte	.LEHB5-.LFB3
 212 004a 00000000 		.4byte	.LEHE5-.LEHB5
 213 004e 00000000 		.4byte	.L8-.LFB3
 214 0052 00       		.byte	0
 215 0053 00000000 		.4byte	.LEHB6-.LFB3
 216 0057 00000000 		.4byte	.LEHE6-.LEHB6
 217 005b 00000000 		.4byte	0
 218 005f 00       		.byte	0
 219 0060 00000000 		.4byte	.LEHB7-.LFB3
 220 0064 00000000 		.4byte	.LEHE7-.LEHB7
 221 0068 00000000 		.4byte	.L9-.LFB3
 222 006c 00       		.byte	0
 223 006d 00000000 		.4byte	.LEHB8-.LFB3
 224 0071 00000000 		.4byte	.LEHE8-.LEHB8
 225 0075 00000000 		.4byte	0
 226 0079 00       		.byte	0
 227 007a 00000000 		.4byte	.LEHB9-.LFB3
 228 007e 00000000 		.4byte	.LEHE9-.LEHB9
 229 0082 00000000 		.4byte	0
 230 0086 00       		.byte	0
 231 0087 00000000 		.4byte	.LEHB10-.LFB3
 232 008b 00000000 		.4byte	.LEHE10-.LEHB10
 233 008f 00000000 		.4byte	0
 234 0093 00       		.byte	0
 235 0094 00000000 		.4byte	.LEHB11-.LFB3
 236 0098 00000000 		.4byte	.LEHE11-.LEHB11
 237 009c 00000000 		.4byte	0
 238 00a0 00       		.byte	0
 239              		.text
 241              		.globl	_ZN9BufferCPPC1Ei
 242              		.set	_ZN9BufferCPPC1Ei,_ZN9BufferCPPC2Ei
 243              		.align	2
 244              		.globl	_ZN9BufferCPP3putEi
 246              	_ZN9BufferCPP3putEi:
 247              	.LFB8:
  10:test/buffer_CPP_API.cpp **** 
  11:test/buffer_CPP_API.cpp **** BufferCPP::~BufferCPP() {
  12:test/buffer_CPP_API.cpp ****     Console::putc('\n');
  13:test/buffer_CPP_API.cpp ****     printString("Buffer deleted!\n");
  14:test/buffer_CPP_API.cpp ****     while (getCnt()) {
  15:test/buffer_CPP_API.cpp ****         char ch = buffer[head];
  16:test/buffer_CPP_API.cpp ****         Console::putc(ch);
  17:test/buffer_CPP_API.cpp ****         head = (head + 1) % cap;
  18:test/buffer_CPP_API.cpp ****     }
  19:test/buffer_CPP_API.cpp ****     Console::putc('!');
  20:test/buffer_CPP_API.cpp ****     Console::putc('\n');
GAS LISTING C:\msys64\tmp\cc3QDhfw.s 			page 6


  21:test/buffer_CPP_API.cpp **** 
  22:test/buffer_CPP_API.cpp ****     mem_free(buffer);
  23:test/buffer_CPP_API.cpp ****     delete itemAvailable;
  24:test/buffer_CPP_API.cpp ****     delete spaceAvailable;
  25:test/buffer_CPP_API.cpp ****     delete mutexTail;
  26:test/buffer_CPP_API.cpp ****     delete mutexHead;
  27:test/buffer_CPP_API.cpp **** 
  28:test/buffer_CPP_API.cpp **** }
  29:test/buffer_CPP_API.cpp **** 
  30:test/buffer_CPP_API.cpp **** void BufferCPP::put(int val) {
 248              		.loc 1 30 30 is_stmt 1
 249              		.cfi_startproc
 250              	.LVL25:
 251 0154 130101FE 		addi	sp,sp,-32
 252              		.cfi_def_cfa_offset 32
 253 0158 233C1100 		sd	ra,24(sp)
 254 015c 23388100 		sd	s0,16(sp)
 255 0160 23349100 		sd	s1,8(sp)
 256 0164 23302101 		sd	s2,0(sp)
 257              		.cfi_offset 1, -8
 258              		.cfi_offset 8, -16
 259              		.cfi_offset 9, -24
 260              		.cfi_offset 18, -32
 261 0168 13040102 		addi	s0,sp,32
 262              		.cfi_def_cfa 8, 0
 263 016c 93040500 		mv	s1,a0
 264 0170 13890500 		mv	s2,a1
  31:test/buffer_CPP_API.cpp ****     spaceAvailable->wait();
 265              		.loc 1 31 5
 266              		.loc 1 31 25 is_stmt 0
 267 0174 03358501 		ld	a0,24(a0)
 268              	.LVL26:
 269 0178 97000000 		call	_ZN9Semaphore4waitEv
 269      E7800000 
 270              	.LVL27:
  32:test/buffer_CPP_API.cpp **** 
  33:test/buffer_CPP_API.cpp ****     mutexTail->wait();
 271              		.loc 1 33 5 is_stmt 1
 272              		.loc 1 33 20 is_stmt 0
 273 0180 03B50403 		ld	a0,48(s1)
 274 0184 97000000 		call	_ZN9Semaphore4waitEv
 274      E7800000 
 275              	.LVL28:
  34:test/buffer_CPP_API.cpp ****     buffer[tail] = val;
 276              		.loc 1 34 5 is_stmt 1
 277 018c 83B78400 		ld	a5,8(s1)
 278              		.loc 1 34 12 is_stmt 0
 279 0190 03A74401 		lw	a4,20(s1)
 280              		.loc 1 34 16
 281 0194 13172700 		slli	a4,a4,2
 282 0198 B387E700 		add	a5,a5,a4
 283              		.loc 1 34 18
 284 019c 23A02701 		sw	s2,0(a5)
  35:test/buffer_CPP_API.cpp ****     tail = (tail + 1) % cap;
 285              		.loc 1 35 5 is_stmt 1
 286              		.loc 1 35 13 is_stmt 0
 287 01a0 83A74401 		lw	a5,20(s1)
GAS LISTING C:\msys64\tmp\cc3QDhfw.s 			page 7


 288              		.loc 1 35 18
 289 01a4 9B871700 		addiw	a5,a5,1
 290              		.loc 1 35 25
 291 01a8 03A70400 		lw	a4,0(s1)
 292              		.loc 1 35 23
 293 01ac BBE7E702 		remw	a5,a5,a4
 294              		.loc 1 35 10
 295 01b0 23AAF400 		sw	a5,20(s1)
  36:test/buffer_CPP_API.cpp ****     mutexTail->signal();
 296              		.loc 1 36 5 is_stmt 1
 297              		.loc 1 36 22 is_stmt 0
 298 01b4 03B50403 		ld	a0,48(s1)
 299 01b8 97000000 		call	_ZN9Semaphore6signalEv
 299      E7800000 
 300              	.LVL29:
  37:test/buffer_CPP_API.cpp **** 
  38:test/buffer_CPP_API.cpp ****     itemAvailable->signal();
 301              		.loc 1 38 5 is_stmt 1
 302              		.loc 1 38 26 is_stmt 0
 303 01c0 03B50402 		ld	a0,32(s1)
 304 01c4 97000000 		call	_ZN9Semaphore6signalEv
 304      E7800000 
 305              	.LVL30:
  39:test/buffer_CPP_API.cpp **** 
  40:test/buffer_CPP_API.cpp **** }
 306              		.loc 1 40 1
 307 01cc 83308101 		ld	ra,24(sp)
 308              		.cfi_restore 1
 309 01d0 03340101 		ld	s0,16(sp)
 310              		.cfi_restore 8
 311              		.cfi_def_cfa 2, 32
 312 01d4 83348100 		ld	s1,8(sp)
 313              		.cfi_restore 9
 314              	.LVL31:
 315 01d8 03390100 		ld	s2,0(sp)
 316              		.cfi_restore 18
 317 01dc 13010102 		addi	sp,sp,32
 318              		.cfi_def_cfa_offset 0
 319 01e0 67800000 		jr	ra
 320              		.cfi_endproc
 321              	.LFE8:
 323              		.align	2
 324              		.globl	_ZN9BufferCPP3getEv
 326              	_ZN9BufferCPP3getEv:
 327              	.LFB9:
  41:test/buffer_CPP_API.cpp **** 
  42:test/buffer_CPP_API.cpp **** int BufferCPP::get() {
 328              		.loc 1 42 22 is_stmt 1
 329              		.cfi_startproc
 330              	.LVL32:
 331 01e4 130101FE 		addi	sp,sp,-32
 332              		.cfi_def_cfa_offset 32
 333 01e8 233C1100 		sd	ra,24(sp)
 334 01ec 23388100 		sd	s0,16(sp)
 335 01f0 23349100 		sd	s1,8(sp)
 336 01f4 23302101 		sd	s2,0(sp)
 337              		.cfi_offset 1, -8
GAS LISTING C:\msys64\tmp\cc3QDhfw.s 			page 8


 338              		.cfi_offset 8, -16
 339              		.cfi_offset 9, -24
 340              		.cfi_offset 18, -32
 341 01f8 13040102 		addi	s0,sp,32
 342              		.cfi_def_cfa 8, 0
 343 01fc 93040500 		mv	s1,a0
  43:test/buffer_CPP_API.cpp ****     itemAvailable->wait();
 344              		.loc 1 43 5
 345              		.loc 1 43 24 is_stmt 0
 346 0200 03350502 		ld	a0,32(a0)
 347              	.LVL33:
 348 0204 97000000 		call	_ZN9Semaphore4waitEv
 348      E7800000 
 349              	.LVL34:
  44:test/buffer_CPP_API.cpp **** 
  45:test/buffer_CPP_API.cpp ****     mutexHead->wait();
 350              		.loc 1 45 5 is_stmt 1
 351              		.loc 1 45 20 is_stmt 0
 352 020c 03B58402 		ld	a0,40(s1)
 353 0210 97000000 		call	_ZN9Semaphore4waitEv
 353      E7800000 
 354              	.LVL35:
  46:test/buffer_CPP_API.cpp **** 
  47:test/buffer_CPP_API.cpp ****     int ret = buffer[head];
 355              		.loc 1 47 5 is_stmt 1
 356              		.loc 1 47 15 is_stmt 0
 357 0218 03B78400 		ld	a4,8(s1)
 358              		.loc 1 47 22
 359 021c 83A70401 		lw	a5,16(s1)
 360              		.loc 1 47 26
 361 0220 93962700 		slli	a3,a5,2
 362 0224 3307D700 		add	a4,a4,a3
 363              		.loc 1 47 9
 364 0228 03290700 		lw	s2,0(a4)
 365              	.LVL36:
  48:test/buffer_CPP_API.cpp ****     head = (head + 1) % cap;
 366              		.loc 1 48 5 is_stmt 1
 367              		.loc 1 48 18 is_stmt 0
 368 022c 9B871700 		addiw	a5,a5,1
 369              		.loc 1 48 25
 370 0230 03A70400 		lw	a4,0(s1)
 371              		.loc 1 48 23
 372 0234 BBE7E702 		remw	a5,a5,a4
 373              		.loc 1 48 10
 374 0238 23A8F400 		sw	a5,16(s1)
  49:test/buffer_CPP_API.cpp ****     mutexHead->signal();
 375              		.loc 1 49 5 is_stmt 1
 376              		.loc 1 49 22 is_stmt 0
 377 023c 03B58402 		ld	a0,40(s1)
 378 0240 97000000 		call	_ZN9Semaphore6signalEv
 378      E7800000 
 379              	.LVL37:
  50:test/buffer_CPP_API.cpp **** 
  51:test/buffer_CPP_API.cpp ****     spaceAvailable->signal();
 380              		.loc 1 51 5 is_stmt 1
 381              		.loc 1 51 27 is_stmt 0
 382 0248 03B58401 		ld	a0,24(s1)
GAS LISTING C:\msys64\tmp\cc3QDhfw.s 			page 9


 383 024c 97000000 		call	_ZN9Semaphore6signalEv
 383      E7800000 
 384              	.LVL38:
  52:test/buffer_CPP_API.cpp **** 
  53:test/buffer_CPP_API.cpp ****     return ret;
 385              		.loc 1 53 5 is_stmt 1
  54:test/buffer_CPP_API.cpp **** }
 386              		.loc 1 54 1 is_stmt 0
 387 0254 13050900 		mv	a0,s2
 388 0258 83308101 		ld	ra,24(sp)
 389              		.cfi_restore 1
 390 025c 03340101 		ld	s0,16(sp)
 391              		.cfi_restore 8
 392              		.cfi_def_cfa 2, 32
 393 0260 83348100 		ld	s1,8(sp)
 394              		.cfi_restore 9
 395              	.LVL39:
 396 0264 03390100 		ld	s2,0(sp)
 397              		.cfi_restore 18
 398              	.LVL40:
 399 0268 13010102 		addi	sp,sp,32
 400              		.cfi_def_cfa_offset 0
 401 026c 67800000 		jr	ra
 402              		.cfi_endproc
 403              	.LFE9:
 405              		.align	2
 406              		.globl	_ZN9BufferCPP6getCntEv
 408              	_ZN9BufferCPP6getCntEv:
 409              	.LFB10:
  55:test/buffer_CPP_API.cpp **** 
  56:test/buffer_CPP_API.cpp **** int BufferCPP::getCnt() {
 410              		.loc 1 56 25 is_stmt 1
 411              		.cfi_startproc
 412              	.LVL41:
 413 0270 130101FE 		addi	sp,sp,-32
 414              		.cfi_def_cfa_offset 32
 415 0274 233C1100 		sd	ra,24(sp)
 416 0278 23388100 		sd	s0,16(sp)
 417 027c 23349100 		sd	s1,8(sp)
 418 0280 23302101 		sd	s2,0(sp)
 419              		.cfi_offset 1, -8
 420              		.cfi_offset 8, -16
 421              		.cfi_offset 9, -24
 422              		.cfi_offset 18, -32
 423 0284 13040102 		addi	s0,sp,32
 424              		.cfi_def_cfa 8, 0
 425 0288 93040500 		mv	s1,a0
  57:test/buffer_CPP_API.cpp ****     int ret;
 426              		.loc 1 57 5
  58:test/buffer_CPP_API.cpp **** 
  59:test/buffer_CPP_API.cpp ****     mutexHead->wait();
 427              		.loc 1 59 5
 428              		.loc 1 59 20 is_stmt 0
 429 028c 03358502 		ld	a0,40(a0)
 430              	.LVL42:
 431 0290 97000000 		call	_ZN9Semaphore4waitEv
 431      E7800000 
GAS LISTING C:\msys64\tmp\cc3QDhfw.s 			page 10


 432              	.LVL43:
  60:test/buffer_CPP_API.cpp ****     mutexTail->wait();
 433              		.loc 1 60 5 is_stmt 1
 434              		.loc 1 60 20 is_stmt 0
 435 0298 03B50403 		ld	a0,48(s1)
 436 029c 97000000 		call	_ZN9Semaphore4waitEv
 436      E7800000 
 437              	.LVL44:
  61:test/buffer_CPP_API.cpp **** 
  62:test/buffer_CPP_API.cpp ****     if (tail >= head) {
 438              		.loc 1 62 5 is_stmt 1
 439              		.loc 1 62 9 is_stmt 0
 440 02a4 83A74401 		lw	a5,20(s1)
 441              		.loc 1 62 17
 442 02a8 03A90401 		lw	s2,16(s1)
 443              		.loc 1 62 5
 444 02ac 63CE2703 		blt	a5,s2,.L17
  63:test/buffer_CPP_API.cpp ****         ret = tail - head;
 445              		.loc 1 63 9 is_stmt 1
 446              		.loc 1 63 13 is_stmt 0
 447 02b0 3B892741 		subw	s2,a5,s2
 448              	.LVL45:
 449              	.L18:
  64:test/buffer_CPP_API.cpp ****     } else {
  65:test/buffer_CPP_API.cpp ****         ret = cap - head + tail;
  66:test/buffer_CPP_API.cpp ****     }
  67:test/buffer_CPP_API.cpp **** 
  68:test/buffer_CPP_API.cpp ****     mutexTail->signal();
 450              		.loc 1 68 5 is_stmt 1
 451              		.loc 1 68 22 is_stmt 0
 452 02b4 03B50403 		ld	a0,48(s1)
 453 02b8 97000000 		call	_ZN9Semaphore6signalEv
 453      E7800000 
 454              	.LVL46:
  69:test/buffer_CPP_API.cpp ****     mutexHead->signal();
 455              		.loc 1 69 5 is_stmt 1
 456              		.loc 1 69 22 is_stmt 0
 457 02c0 03B58402 		ld	a0,40(s1)
 458 02c4 97000000 		call	_ZN9Semaphore6signalEv
 458      E7800000 
 459              	.LVL47:
  70:test/buffer_CPP_API.cpp **** 
  71:test/buffer_CPP_API.cpp ****     return ret;
 460              		.loc 1 71 5 is_stmt 1
  72:test/buffer_CPP_API.cpp **** }
 461              		.loc 1 72 1 is_stmt 0
 462 02cc 13050900 		mv	a0,s2
 463 02d0 83308101 		ld	ra,24(sp)
 464              		.cfi_remember_state
 465              		.cfi_restore 1
 466 02d4 03340101 		ld	s0,16(sp)
 467              		.cfi_restore 8
 468              		.cfi_def_cfa 2, 32
 469 02d8 83348100 		ld	s1,8(sp)
 470              		.cfi_restore 9
 471              	.LVL48:
 472 02dc 03390100 		ld	s2,0(sp)
GAS LISTING C:\msys64\tmp\cc3QDhfw.s 			page 11


 473              		.cfi_restore 18
 474              	.LVL49:
 475 02e0 13010102 		addi	sp,sp,32
 476              		.cfi_def_cfa_offset 0
 477 02e4 67800000 		jr	ra
 478              	.LVL50:
 479              	.L17:
 480              		.cfi_restore_state
  65:test/buffer_CPP_API.cpp ****     }
 481              		.loc 1 65 9 is_stmt 1
  65:test/buffer_CPP_API.cpp ****     }
 482              		.loc 1 65 15 is_stmt 0
 483 02e8 03A70400 		lw	a4,0(s1)
  65:test/buffer_CPP_API.cpp ****     }
 484              		.loc 1 65 19
 485 02ec 3B092741 		subw	s2,a4,s2
  65:test/buffer_CPP_API.cpp ****     }
 486              		.loc 1 65 13
 487 02f0 3B09F900 		addw	s2,s2,a5
 488 02f4 6FF01FFC 		j	.L18
 489              		.cfi_endproc
 490              	.LFE10:
 492              		.section	.rodata.str1.8,"aMS",@progbits,1
 493              		.align	3
 494              	.LC0:
 495 0000 42756666 		.string	"Buffer deleted!\n"
 495      65722064 
 495      656C6574 
 495      6564210A 
 495      00
 496              		.text
 497              		.align	2
 498              		.globl	_ZN9BufferCPPD2Ev
 500              	_ZN9BufferCPPD2Ev:
 501              	.LFB6:
  11:test/buffer_CPP_API.cpp ****     Console::putc('\n');
 502              		.loc 1 11 1 is_stmt 1
 503              		.cfi_startproc
 504              		.cfi_personality 0x9b,DW.ref.__gxx_personality_v0
 505              		.cfi_lsda 0x1b,.LLSDA6
 506              	.LVL51:
 507 02f8 130101FE 		addi	sp,sp,-32
 508              		.cfi_def_cfa_offset 32
 509 02fc 233C1100 		sd	ra,24(sp)
 510 0300 23388100 		sd	s0,16(sp)
 511 0304 23349100 		sd	s1,8(sp)
 512              		.cfi_offset 1, -8
 513              		.cfi_offset 8, -16
 514              		.cfi_offset 9, -24
 515 0308 13040102 		addi	s0,sp,32
 516              		.cfi_def_cfa 8, 0
 517 030c 93040500 		mv	s1,a0
 518              	.LBB4:
  12:test/buffer_CPP_API.cpp ****     printString("Buffer deleted!\n");
 519              		.loc 1 12 5
  12:test/buffer_CPP_API.cpp ****     printString("Buffer deleted!\n");
 520              		.loc 1 12 18 is_stmt 0
GAS LISTING C:\msys64\tmp\cc3QDhfw.s 			page 12


 521 0310 1305A000 		li	a0,10
 522              	.LVL52:
 523 0314 97000000 		call	_ZN7Console4putcEc
 523      E7800000 
 524              	.LVL53:
  13:test/buffer_CPP_API.cpp ****     while (getCnt()) {
 525              		.loc 1 13 5 is_stmt 1
  13:test/buffer_CPP_API.cpp ****     while (getCnt()) {
 526              		.loc 1 13 16 is_stmt 0
 527 031c 17050000 		lla	a0,.LC0
 527      13050500 
 528 0324 97000000 		call	_Z11printStringPKc
 528      E7800000 
 529              	.LVL54:
 530 032c 6F004003 		j	.L22
 531              	.L28:
 532              	.LBB5:
  15:test/buffer_CPP_API.cpp ****         Console::putc(ch);
 533              		.loc 1 15 9 is_stmt 1
  15:test/buffer_CPP_API.cpp ****         Console::putc(ch);
 534              		.loc 1 15 19 is_stmt 0
 535 0330 83B78400 		ld	a5,8(s1)
  15:test/buffer_CPP_API.cpp ****         Console::putc(ch);
 536              		.loc 1 15 26
 537 0334 03A70401 		lw	a4,16(s1)
  15:test/buffer_CPP_API.cpp ****         Console::putc(ch);
 538              		.loc 1 15 30
 539 0338 13172700 		slli	a4,a4,2
 540 033c B387E700 		add	a5,a5,a4
 541              	.LVL55:
  16:test/buffer_CPP_API.cpp ****         head = (head + 1) % cap;
 542              		.loc 1 16 9 is_stmt 1
  16:test/buffer_CPP_API.cpp ****         head = (head + 1) % cap;
 543              		.loc 1 16 22 is_stmt 0
 544 0340 03C50700 		lbu	a0,0(a5)
 545 0344 97000000 		call	_ZN7Console4putcEc
 545      E7800000 
 546              	.LVL56:
  17:test/buffer_CPP_API.cpp ****     }
 547              		.loc 1 17 9 is_stmt 1
  17:test/buffer_CPP_API.cpp ****     }
 548              		.loc 1 17 17 is_stmt 0
 549 034c 83A70401 		lw	a5,16(s1)
  17:test/buffer_CPP_API.cpp ****     }
 550              		.loc 1 17 22
 551 0350 9B871700 		addiw	a5,a5,1
  17:test/buffer_CPP_API.cpp ****     }
 552              		.loc 1 17 29
 553 0354 03A70400 		lw	a4,0(s1)
  17:test/buffer_CPP_API.cpp ****     }
 554              		.loc 1 17 27
 555 0358 BBE7E702 		remw	a5,a5,a4
  17:test/buffer_CPP_API.cpp ****     }
 556              		.loc 1 17 14
 557 035c 23A8F400 		sw	a5,16(s1)
 558              	.L22:
 559              	.LBE5:
GAS LISTING C:\msys64\tmp\cc3QDhfw.s 			page 13


  14:test/buffer_CPP_API.cpp ****         char ch = buffer[head];
 560              		.loc 1 14 5 is_stmt 1
  14:test/buffer_CPP_API.cpp ****         char ch = buffer[head];
 561              		.loc 1 14 18
 562 0360 13850400 		mv	a0,s1
 563 0364 97000000 		call	_ZN9BufferCPP6getCntEv
 563      E7800000 
 564              	.LVL57:
 565 036c E31205FC 		bne	a0,zero,.L28
  19:test/buffer_CPP_API.cpp ****     Console::putc('\n');
 566              		.loc 1 19 5
  19:test/buffer_CPP_API.cpp ****     Console::putc('\n');
 567              		.loc 1 19 18 is_stmt 0
 568 0370 13051002 		li	a0,33
 569 0374 97000000 		call	_ZN7Console4putcEc
 569      E7800000 
 570              	.LVL58:
  20:test/buffer_CPP_API.cpp **** 
 571              		.loc 1 20 5 is_stmt 1
  20:test/buffer_CPP_API.cpp **** 
 572              		.loc 1 20 18 is_stmt 0
 573 037c 1305A000 		li	a0,10
 574 0380 97000000 		call	_ZN7Console4putcEc
 574      E7800000 
 575              	.LVL59:
  22:test/buffer_CPP_API.cpp ****     delete itemAvailable;
 576              		.loc 1 22 5 is_stmt 1
  22:test/buffer_CPP_API.cpp ****     delete itemAvailable;
 577              		.loc 1 22 13 is_stmt 0
 578 0388 03B58400 		ld	a0,8(s1)
 579 038c 97000000 		call	_Z8mem_freePv
 579      E7800000 
 580              	.LVL60:
  23:test/buffer_CPP_API.cpp ****     delete spaceAvailable;
 581              		.loc 1 23 5 is_stmt 1
  23:test/buffer_CPP_API.cpp ****     delete spaceAvailable;
 582              		.loc 1 23 12 is_stmt 0
 583 0394 03B50402 		ld	a0,32(s1)
  23:test/buffer_CPP_API.cpp ****     delete spaceAvailable;
 584              		.loc 1 23 5
 585 0398 63080500 		beq	a0,zero,.L23
  23:test/buffer_CPP_API.cpp ****     delete spaceAvailable;
 586              		.loc 1 23 12 discriminator 1
 587 039c 83370500 		ld	a5,0(a0)
 588 03a0 83B78700 		ld	a5,8(a5)
 589 03a4 E7800700 		jalr	a5
 590              	.LVL61:
 591              	.L23:
  24:test/buffer_CPP_API.cpp ****     delete mutexTail;
 592              		.loc 1 24 5 is_stmt 1
  24:test/buffer_CPP_API.cpp ****     delete mutexTail;
 593              		.loc 1 24 12 is_stmt 0
 594 03a8 03B58401 		ld	a0,24(s1)
  24:test/buffer_CPP_API.cpp ****     delete mutexTail;
 595              		.loc 1 24 5
 596 03ac 63080500 		beq	a0,zero,.L24
  24:test/buffer_CPP_API.cpp ****     delete mutexTail;
GAS LISTING C:\msys64\tmp\cc3QDhfw.s 			page 14


 597              		.loc 1 24 12 discriminator 1
 598 03b0 83370500 		ld	a5,0(a0)
 599 03b4 83B78700 		ld	a5,8(a5)
 600 03b8 E7800700 		jalr	a5
 601              	.LVL62:
 602              	.L24:
  25:test/buffer_CPP_API.cpp ****     delete mutexHead;
 603              		.loc 1 25 5 is_stmt 1
  25:test/buffer_CPP_API.cpp ****     delete mutexHead;
 604              		.loc 1 25 12 is_stmt 0
 605 03bc 03B50403 		ld	a0,48(s1)
  25:test/buffer_CPP_API.cpp ****     delete mutexHead;
 606              		.loc 1 25 5
 607 03c0 63080500 		beq	a0,zero,.L25
  25:test/buffer_CPP_API.cpp ****     delete mutexHead;
 608              		.loc 1 25 12 discriminator 1
 609 03c4 83370500 		ld	a5,0(a0)
 610 03c8 83B78700 		ld	a5,8(a5)
 611 03cc E7800700 		jalr	a5
 612              	.LVL63:
 613              	.L25:
  26:test/buffer_CPP_API.cpp **** 
 614              		.loc 1 26 5 is_stmt 1
  26:test/buffer_CPP_API.cpp **** 
 615              		.loc 1 26 12 is_stmt 0
 616 03d0 03B58402 		ld	a0,40(s1)
  26:test/buffer_CPP_API.cpp **** 
 617              		.loc 1 26 5
 618 03d4 63080500 		beq	a0,zero,.L20
  26:test/buffer_CPP_API.cpp **** 
 619              		.loc 1 26 12 discriminator 1
 620 03d8 83370500 		ld	a5,0(a0)
 621 03dc 83B78700 		ld	a5,8(a5)
 622 03e0 E7800700 		jalr	a5
 623              	.LVL64:
 624              	.L20:
 625              	.LBE4:
  28:test/buffer_CPP_API.cpp **** 
 626              		.loc 1 28 1
 627 03e4 83308101 		ld	ra,24(sp)
 628              		.cfi_restore 1
 629 03e8 03340101 		ld	s0,16(sp)
 630              		.cfi_restore 8
 631              		.cfi_def_cfa 2, 32
 632 03ec 83348100 		ld	s1,8(sp)
 633              		.cfi_restore 9
 634              	.LVL65:
 635 03f0 13010102 		addi	sp,sp,32
 636              		.cfi_def_cfa_offset 0
 637 03f4 67800000 		jr	ra
 638              		.cfi_endproc
 639              	.LFE6:
 640              		.section	.gcc_except_table
 641              	.LLSDA6:
 642 00a1 FF       		.byte	0xff
 643 00a2 FF       		.byte	0xff
 644 00a3 03       		.byte	0x3
GAS LISTING C:\msys64\tmp\cc3QDhfw.s 			page 15


 645 00a4 00       		.byte	0
 646              		.text
 648              		.globl	_ZN9BufferCPPD1Ev
 649              		.set	_ZN9BufferCPPD1Ev,_ZN9BufferCPPD2Ev
 650              	.Letext0:
 651              		.file 2 "test/../h/../lib/hw.h"
 652              		.file 3 "test/../h/syscall_cpp.hpp"
 653              		.file 4 "test/buffer_CPP_API.hpp"
 654              		.file 5 "test/../h/syscall_c.h"
 655              		.file 6 "test/printing.hpp"
 2421              		.align	3
 2424              	DW.ref.__gxx_personality_v0:
 2425 0000 00000000 		.dword	__gxx_personality_v0
 2425      00000000 
 2426              		.ident	"GCC: (GNU) 10.1.0"
GAS LISTING C:\msys64\tmp\cc3QDhfw.s 			page 16


DEFINED SYMBOLS
                            *ABS*:0000000000000000 buffer_CPP_API.cpp
C:\msys64\tmp\cc3QDhfw.s:12     .text:0000000000000000 _ZN9BufferCPPC2Ei
C:\msys64\tmp\cc3QDhfw.s:16     .text:0000000000000000 .L0 
C:\msys64\tmp\cc3QDhfw.s:2424   .sdata.DW.ref.__gxx_personality_v0:0000000000000000 DW.ref.__gxx_personality_v0
C:\msys64\tmp\cc3QDhfw.s:20     .text:0000000000000000 .L0 
C:\msys64\tmp\cc3QDhfw.s:21     .text:0000000000000004 .L0 
C:\msys64\tmp\cc3QDhfw.s:27     .text:0000000000000018 .L0 
C:\msys64\tmp\cc3QDhfw.s:28     .text:0000000000000018 .L0 
C:\msys64\tmp\cc3QDhfw.s:29     .text:0000000000000018 .L0 
C:\msys64\tmp\cc3QDhfw.s:30     .text:0000000000000018 .L0 
C:\msys64\tmp\cc3QDhfw.s:31     .text:0000000000000018 .L0 
C:\msys64\tmp\cc3QDhfw.s:33     .text:000000000000001c .L0 
C:\msys64\tmp\cc3QDhfw.s:38     .text:0000000000000024 .L0 
C:\msys64\tmp\cc3QDhfw.s:42     .text:000000000000002c .L0 
C:\msys64\tmp\cc3QDhfw.s:46     .text:0000000000000038 .L0 
C:\msys64\tmp\cc3QDhfw.s:47     .text:0000000000000038 .L0 
C:\msys64\tmp\cc3QDhfw.s:52     .text:0000000000000044 .L0 
C:\msys64\tmp\cc3QDhfw.s:54     .text:0000000000000048 .L0 
C:\msys64\tmp\cc3QDhfw.s:55     .text:0000000000000048 .L0 
C:\msys64\tmp\cc3QDhfw.s:66     .text:0000000000000064 .L0 
C:\msys64\tmp\cc3QDhfw.s:68     .text:0000000000000068 .L0 
C:\msys64\tmp\cc3QDhfw.s:69     .text:0000000000000068 .L0 
C:\msys64\tmp\cc3QDhfw.s:81     .text:0000000000000084 .L0 
C:\msys64\tmp\cc3QDhfw.s:83     .text:0000000000000088 .L0 
C:\msys64\tmp\cc3QDhfw.s:84     .text:0000000000000088 .L0 
C:\msys64\tmp\cc3QDhfw.s:96     .text:00000000000000a4 .L0 
C:\msys64\tmp\cc3QDhfw.s:98     .text:00000000000000a8 .L0 
C:\msys64\tmp\cc3QDhfw.s:99     .text:00000000000000a8 .L0 
C:\msys64\tmp\cc3QDhfw.s:111    .text:00000000000000c4 .L0 
C:\msys64\tmp\cc3QDhfw.s:114    .text:00000000000000c8 .L0 
C:\msys64\tmp\cc3QDhfw.s:115    .text:00000000000000cc .L0 
C:\msys64\tmp\cc3QDhfw.s:116    .text:00000000000000cc .L0 
C:\msys64\tmp\cc3QDhfw.s:118    .text:00000000000000d0 .L0 
C:\msys64\tmp\cc3QDhfw.s:119    .text:00000000000000d0 .L0 
C:\msys64\tmp\cc3QDhfw.s:121    .text:00000000000000d4 .L0 
C:\msys64\tmp\cc3QDhfw.s:124    .text:00000000000000d8 .L0 
C:\msys64\tmp\cc3QDhfw.s:126    .text:00000000000000dc .L0 
C:\msys64\tmp\cc3QDhfw.s:128    .text:00000000000000e0 .L0 
C:\msys64\tmp\cc3QDhfw.s:132    .text:00000000000000e4 .L0 
C:\msys64\tmp\cc3QDhfw.s:135    .text:00000000000000e4 .L0 
C:\msys64\tmp\cc3QDhfw.s:147    .text:0000000000000100 .L0 
C:\msys64\tmp\cc3QDhfw.s:159    .text:000000000000011c .L0 
C:\msys64\tmp\cc3QDhfw.s:171    .text:0000000000000138 .L0 
C:\msys64\tmp\cc3QDhfw.s:182    .text:0000000000000154 .L0 
C:\msys64\tmp\cc3QDhfw.s:12     .text:0000000000000000 _ZN9BufferCPPC1Ei
C:\msys64\tmp\cc3QDhfw.s:246    .text:0000000000000154 _ZN9BufferCPP3putEi
C:\msys64\tmp\cc3QDhfw.s:249    .text:0000000000000154 .L0 
C:\msys64\tmp\cc3QDhfw.s:251    .text:0000000000000154 .L0 
C:\msys64\tmp\cc3QDhfw.s:252    .text:0000000000000158 .L0 
C:\msys64\tmp\cc3QDhfw.s:257    .text:0000000000000168 .L0 
C:\msys64\tmp\cc3QDhfw.s:258    .text:0000000000000168 .L0 
C:\msys64\tmp\cc3QDhfw.s:259    .text:0000000000000168 .L0 
C:\msys64\tmp\cc3QDhfw.s:260    .text:0000000000000168 .L0 
C:\msys64\tmp\cc3QDhfw.s:262    .text:000000000000016c .L0 
C:\msys64\tmp\cc3QDhfw.s:266    .text:0000000000000174 .L0 
C:\msys64\tmp\cc3QDhfw.s:267    .text:0000000000000174 .L0 
GAS LISTING C:\msys64\tmp\cc3QDhfw.s 			page 17


C:\msys64\tmp\cc3QDhfw.s:272    .text:0000000000000180 .L0 
C:\msys64\tmp\cc3QDhfw.s:273    .text:0000000000000180 .L0 
C:\msys64\tmp\cc3QDhfw.s:277    .text:000000000000018c .L0 
C:\msys64\tmp\cc3QDhfw.s:279    .text:0000000000000190 .L0 
C:\msys64\tmp\cc3QDhfw.s:281    .text:0000000000000194 .L0 
C:\msys64\tmp\cc3QDhfw.s:284    .text:000000000000019c .L0 
C:\msys64\tmp\cc3QDhfw.s:286    .text:00000000000001a0 .L0 
C:\msys64\tmp\cc3QDhfw.s:287    .text:00000000000001a0 .L0 
C:\msys64\tmp\cc3QDhfw.s:289    .text:00000000000001a4 .L0 
C:\msys64\tmp\cc3QDhfw.s:291    .text:00000000000001a8 .L0 
C:\msys64\tmp\cc3QDhfw.s:293    .text:00000000000001ac .L0 
C:\msys64\tmp\cc3QDhfw.s:295    .text:00000000000001b0 .L0 
C:\msys64\tmp\cc3QDhfw.s:297    .text:00000000000001b4 .L0 
C:\msys64\tmp\cc3QDhfw.s:298    .text:00000000000001b4 .L0 
C:\msys64\tmp\cc3QDhfw.s:302    .text:00000000000001c0 .L0 
C:\msys64\tmp\cc3QDhfw.s:303    .text:00000000000001c0 .L0 
C:\msys64\tmp\cc3QDhfw.s:307    .text:00000000000001cc .L0 
C:\msys64\tmp\cc3QDhfw.s:308    .text:00000000000001d0 .L0 
C:\msys64\tmp\cc3QDhfw.s:310    .text:00000000000001d4 .L0 
C:\msys64\tmp\cc3QDhfw.s:311    .text:00000000000001d4 .L0 
C:\msys64\tmp\cc3QDhfw.s:313    .text:00000000000001d8 .L0 
C:\msys64\tmp\cc3QDhfw.s:316    .text:00000000000001dc .L0 
C:\msys64\tmp\cc3QDhfw.s:318    .text:00000000000001e0 .L0 
C:\msys64\tmp\cc3QDhfw.s:320    .text:00000000000001e4 .L0 
C:\msys64\tmp\cc3QDhfw.s:326    .text:00000000000001e4 _ZN9BufferCPP3getEv
C:\msys64\tmp\cc3QDhfw.s:329    .text:00000000000001e4 .L0 
C:\msys64\tmp\cc3QDhfw.s:331    .text:00000000000001e4 .L0 
C:\msys64\tmp\cc3QDhfw.s:332    .text:00000000000001e8 .L0 
C:\msys64\tmp\cc3QDhfw.s:337    .text:00000000000001f8 .L0 
C:\msys64\tmp\cc3QDhfw.s:338    .text:00000000000001f8 .L0 
C:\msys64\tmp\cc3QDhfw.s:339    .text:00000000000001f8 .L0 
C:\msys64\tmp\cc3QDhfw.s:340    .text:00000000000001f8 .L0 
C:\msys64\tmp\cc3QDhfw.s:342    .text:00000000000001fc .L0 
C:\msys64\tmp\cc3QDhfw.s:345    .text:0000000000000200 .L0 
C:\msys64\tmp\cc3QDhfw.s:346    .text:0000000000000200 .L0 
C:\msys64\tmp\cc3QDhfw.s:351    .text:000000000000020c .L0 
C:\msys64\tmp\cc3QDhfw.s:352    .text:000000000000020c .L0 
C:\msys64\tmp\cc3QDhfw.s:356    .text:0000000000000218 .L0 
C:\msys64\tmp\cc3QDhfw.s:357    .text:0000000000000218 .L0 
C:\msys64\tmp\cc3QDhfw.s:359    .text:000000000000021c .L0 
C:\msys64\tmp\cc3QDhfw.s:361    .text:0000000000000220 .L0 
C:\msys64\tmp\cc3QDhfw.s:364    .text:0000000000000228 .L0 
C:\msys64\tmp\cc3QDhfw.s:367    .text:000000000000022c .L0 
C:\msys64\tmp\cc3QDhfw.s:368    .text:000000000000022c .L0 
C:\msys64\tmp\cc3QDhfw.s:370    .text:0000000000000230 .L0 
C:\msys64\tmp\cc3QDhfw.s:372    .text:0000000000000234 .L0 
C:\msys64\tmp\cc3QDhfw.s:374    .text:0000000000000238 .L0 
C:\msys64\tmp\cc3QDhfw.s:376    .text:000000000000023c .L0 
C:\msys64\tmp\cc3QDhfw.s:377    .text:000000000000023c .L0 
C:\msys64\tmp\cc3QDhfw.s:381    .text:0000000000000248 .L0 
C:\msys64\tmp\cc3QDhfw.s:382    .text:0000000000000248 .L0 
C:\msys64\tmp\cc3QDhfw.s:386    .text:0000000000000254 .L0 
C:\msys64\tmp\cc3QDhfw.s:387    .text:0000000000000254 .L0 
C:\msys64\tmp\cc3QDhfw.s:389    .text:000000000000025c .L0 
C:\msys64\tmp\cc3QDhfw.s:391    .text:0000000000000260 .L0 
C:\msys64\tmp\cc3QDhfw.s:392    .text:0000000000000260 .L0 
C:\msys64\tmp\cc3QDhfw.s:394    .text:0000000000000264 .L0 
GAS LISTING C:\msys64\tmp\cc3QDhfw.s 			page 18


C:\msys64\tmp\cc3QDhfw.s:397    .text:0000000000000268 .L0 
C:\msys64\tmp\cc3QDhfw.s:400    .text:000000000000026c .L0 
C:\msys64\tmp\cc3QDhfw.s:402    .text:0000000000000270 .L0 
C:\msys64\tmp\cc3QDhfw.s:408    .text:0000000000000270 _ZN9BufferCPP6getCntEv
C:\msys64\tmp\cc3QDhfw.s:411    .text:0000000000000270 .L0 
C:\msys64\tmp\cc3QDhfw.s:413    .text:0000000000000270 .L0 
C:\msys64\tmp\cc3QDhfw.s:414    .text:0000000000000274 .L0 
C:\msys64\tmp\cc3QDhfw.s:419    .text:0000000000000284 .L0 
C:\msys64\tmp\cc3QDhfw.s:420    .text:0000000000000284 .L0 
C:\msys64\tmp\cc3QDhfw.s:421    .text:0000000000000284 .L0 
C:\msys64\tmp\cc3QDhfw.s:422    .text:0000000000000284 .L0 
C:\msys64\tmp\cc3QDhfw.s:424    .text:0000000000000288 .L0 
C:\msys64\tmp\cc3QDhfw.s:427    .text:000000000000028c .L0 
C:\msys64\tmp\cc3QDhfw.s:428    .text:000000000000028c .L0 
C:\msys64\tmp\cc3QDhfw.s:429    .text:000000000000028c .L0 
C:\msys64\tmp\cc3QDhfw.s:434    .text:0000000000000298 .L0 
C:\msys64\tmp\cc3QDhfw.s:435    .text:0000000000000298 .L0 
C:\msys64\tmp\cc3QDhfw.s:439    .text:00000000000002a4 .L0 
C:\msys64\tmp\cc3QDhfw.s:440    .text:00000000000002a4 .L0 
C:\msys64\tmp\cc3QDhfw.s:442    .text:00000000000002a8 .L0 
C:\msys64\tmp\cc3QDhfw.s:444    .text:00000000000002ac .L0 
C:\msys64\tmp\cc3QDhfw.s:446    .text:00000000000002b0 .L0 
C:\msys64\tmp\cc3QDhfw.s:447    .text:00000000000002b0 .L0 
C:\msys64\tmp\cc3QDhfw.s:451    .text:00000000000002b4 .L0 
C:\msys64\tmp\cc3QDhfw.s:452    .text:00000000000002b4 .L0 
C:\msys64\tmp\cc3QDhfw.s:456    .text:00000000000002c0 .L0 
C:\msys64\tmp\cc3QDhfw.s:457    .text:00000000000002c0 .L0 
C:\msys64\tmp\cc3QDhfw.s:461    .text:00000000000002cc .L0 
C:\msys64\tmp\cc3QDhfw.s:462    .text:00000000000002cc .L0 
C:\msys64\tmp\cc3QDhfw.s:464    .text:00000000000002d4 .L0 
C:\msys64\tmp\cc3QDhfw.s:465    .text:00000000000002d4 .L0 
C:\msys64\tmp\cc3QDhfw.s:467    .text:00000000000002d8 .L0 
C:\msys64\tmp\cc3QDhfw.s:468    .text:00000000000002d8 .L0 
C:\msys64\tmp\cc3QDhfw.s:470    .text:00000000000002dc .L0 
C:\msys64\tmp\cc3QDhfw.s:473    .text:00000000000002e0 .L0 
C:\msys64\tmp\cc3QDhfw.s:476    .text:00000000000002e4 .L0 
C:\msys64\tmp\cc3QDhfw.s:480    .text:00000000000002e8 .L0 
C:\msys64\tmp\cc3QDhfw.s:482    .text:00000000000002e8 .L0 
C:\msys64\tmp\cc3QDhfw.s:483    .text:00000000000002e8 .L0 
C:\msys64\tmp\cc3QDhfw.s:485    .text:00000000000002ec .L0 
C:\msys64\tmp\cc3QDhfw.s:487    .text:00000000000002f0 .L0 
C:\msys64\tmp\cc3QDhfw.s:489    .text:00000000000002f8 .L0 
C:\msys64\tmp\cc3QDhfw.s:500    .text:00000000000002f8 _ZN9BufferCPPD2Ev
C:\msys64\tmp\cc3QDhfw.s:503    .text:00000000000002f8 .L0 
C:\msys64\tmp\cc3QDhfw.s:507    .text:00000000000002f8 .L0 
C:\msys64\tmp\cc3QDhfw.s:508    .text:00000000000002fc .L0 
C:\msys64\tmp\cc3QDhfw.s:512    .text:0000000000000308 .L0 
C:\msys64\tmp\cc3QDhfw.s:513    .text:0000000000000308 .L0 
C:\msys64\tmp\cc3QDhfw.s:514    .text:0000000000000308 .L0 
C:\msys64\tmp\cc3QDhfw.s:516    .text:000000000000030c .L0 
C:\msys64\tmp\cc3QDhfw.s:520    .text:0000000000000310 .L0 
C:\msys64\tmp\cc3QDhfw.s:521    .text:0000000000000310 .L0 
C:\msys64\tmp\cc3QDhfw.s:526    .text:000000000000031c .L0 
C:\msys64\tmp\cc3QDhfw.s:527    .text:000000000000031c .L0 
C:\msys64\tmp\cc3QDhfw.s:534    .text:0000000000000330 .L0 
C:\msys64\tmp\cc3QDhfw.s:535    .text:0000000000000330 .L0 
C:\msys64\tmp\cc3QDhfw.s:537    .text:0000000000000334 .L0 
GAS LISTING C:\msys64\tmp\cc3QDhfw.s 			page 19


C:\msys64\tmp\cc3QDhfw.s:539    .text:0000000000000338 .L0 
C:\msys64\tmp\cc3QDhfw.s:543    .text:0000000000000340 .L0 
C:\msys64\tmp\cc3QDhfw.s:544    .text:0000000000000340 .L0 
C:\msys64\tmp\cc3QDhfw.s:548    .text:000000000000034c .L0 
C:\msys64\tmp\cc3QDhfw.s:549    .text:000000000000034c .L0 
C:\msys64\tmp\cc3QDhfw.s:551    .text:0000000000000350 .L0 
C:\msys64\tmp\cc3QDhfw.s:553    .text:0000000000000354 .L0 
C:\msys64\tmp\cc3QDhfw.s:555    .text:0000000000000358 .L0 
C:\msys64\tmp\cc3QDhfw.s:557    .text:000000000000035c .L0 
C:\msys64\tmp\cc3QDhfw.s:561    .text:0000000000000360 .L0 
C:\msys64\tmp\cc3QDhfw.s:562    .text:0000000000000360 .L0 
C:\msys64\tmp\cc3QDhfw.s:567    .text:0000000000000370 .L0 
C:\msys64\tmp\cc3QDhfw.s:568    .text:0000000000000370 .L0 
C:\msys64\tmp\cc3QDhfw.s:572    .text:000000000000037c .L0 
C:\msys64\tmp\cc3QDhfw.s:573    .text:000000000000037c .L0 
C:\msys64\tmp\cc3QDhfw.s:577    .text:0000000000000388 .L0 
C:\msys64\tmp\cc3QDhfw.s:578    .text:0000000000000388 .L0 
C:\msys64\tmp\cc3QDhfw.s:582    .text:0000000000000394 .L0 
C:\msys64\tmp\cc3QDhfw.s:583    .text:0000000000000394 .L0 
C:\msys64\tmp\cc3QDhfw.s:585    .text:0000000000000398 .L0 
C:\msys64\tmp\cc3QDhfw.s:587    .text:000000000000039c .L0 
C:\msys64\tmp\cc3QDhfw.s:593    .text:00000000000003a8 .L0 
C:\msys64\tmp\cc3QDhfw.s:594    .text:00000000000003a8 .L0 
C:\msys64\tmp\cc3QDhfw.s:596    .text:00000000000003ac .L0 
C:\msys64\tmp\cc3QDhfw.s:598    .text:00000000000003b0 .L0 
C:\msys64\tmp\cc3QDhfw.s:604    .text:00000000000003bc .L0 
C:\msys64\tmp\cc3QDhfw.s:605    .text:00000000000003bc .L0 
C:\msys64\tmp\cc3QDhfw.s:607    .text:00000000000003c0 .L0 
C:\msys64\tmp\cc3QDhfw.s:609    .text:00000000000003c4 .L0 
C:\msys64\tmp\cc3QDhfw.s:615    .text:00000000000003d0 .L0 
C:\msys64\tmp\cc3QDhfw.s:616    .text:00000000000003d0 .L0 
C:\msys64\tmp\cc3QDhfw.s:618    .text:00000000000003d4 .L0 
C:\msys64\tmp\cc3QDhfw.s:620    .text:00000000000003d8 .L0 
C:\msys64\tmp\cc3QDhfw.s:627    .text:00000000000003e4 .L0 
C:\msys64\tmp\cc3QDhfw.s:628    .text:00000000000003e8 .L0 
C:\msys64\tmp\cc3QDhfw.s:630    .text:00000000000003ec .L0 
C:\msys64\tmp\cc3QDhfw.s:631    .text:00000000000003ec .L0 
C:\msys64\tmp\cc3QDhfw.s:633    .text:00000000000003f0 .L0 
C:\msys64\tmp\cc3QDhfw.s:636    .text:00000000000003f4 .L0 
C:\msys64\tmp\cc3QDhfw.s:638    .text:00000000000003f8 .L0 
C:\msys64\tmp\cc3QDhfw.s:500    .text:00000000000002f8 _ZN9BufferCPPD1Ev
C:\msys64\tmp\cc3QDhfw.s:656    .text:00000000000003f8 .L0 
C:\msys64\tmp\cc3QDhfw.s:494    .rodata.str1.8:0000000000000000 .LC0
C:\msys64\tmp\cc3QDhfw.s:527    .text:000000000000031c .L0 
C:\msys64\tmp\cc3QDhfw.s:479    .text:00000000000002e8 .L17
C:\msys64\tmp\cc3QDhfw.s:449    .text:00000000000002b4 .L18
C:\msys64\tmp\cc3QDhfw.s:558    .text:0000000000000360 .L22
C:\msys64\tmp\cc3QDhfw.s:531    .text:0000000000000330 .L28
C:\msys64\tmp\cc3QDhfw.s:591    .text:00000000000003a8 .L23
C:\msys64\tmp\cc3QDhfw.s:602    .text:00000000000003bc .L24
C:\msys64\tmp\cc3QDhfw.s:613    .text:00000000000003d0 .L25
C:\msys64\tmp\cc3QDhfw.s:624    .text:00000000000003e4 .L20
C:\msys64\tmp\cc3QDhfw.s:48     .text:000000000000003c .LEHB0
C:\msys64\tmp\cc3QDhfw.s:13     .text:0000000000000000 .LFB3
C:\msys64\tmp\cc3QDhfw.s:58     .text:0000000000000054 .LEHE0
C:\msys64\tmp\cc3QDhfw.s:61     .text:000000000000005c .LEHB1
C:\msys64\tmp\cc3QDhfw.s:64     .text:0000000000000064 .LEHE1
GAS LISTING C:\msys64\tmp\cc3QDhfw.s 			page 20


C:\msys64\tmp\cc3QDhfw.s:131    .text:00000000000000e4 .L6
C:\msys64\tmp\cc3QDhfw.s:70     .text:000000000000006c .LEHB2
C:\msys64\tmp\cc3QDhfw.s:73     .text:0000000000000074 .LEHE2
C:\msys64\tmp\cc3QDhfw.s:76     .text:000000000000007c .LEHB3
C:\msys64\tmp\cc3QDhfw.s:79     .text:0000000000000084 .LEHE3
C:\msys64\tmp\cc3QDhfw.s:145    .text:0000000000000100 .L7
C:\msys64\tmp\cc3QDhfw.s:85     .text:000000000000008c .LEHB4
C:\msys64\tmp\cc3QDhfw.s:88     .text:0000000000000094 .LEHE4
C:\msys64\tmp\cc3QDhfw.s:91     .text:000000000000009c .LEHB5
C:\msys64\tmp\cc3QDhfw.s:94     .text:00000000000000a4 .LEHE5
C:\msys64\tmp\cc3QDhfw.s:157    .text:000000000000011c .L8
C:\msys64\tmp\cc3QDhfw.s:100    .text:00000000000000ac .LEHB6
C:\msys64\tmp\cc3QDhfw.s:103    .text:00000000000000b4 .LEHE6
C:\msys64\tmp\cc3QDhfw.s:106    .text:00000000000000bc .LEHB7
C:\msys64\tmp\cc3QDhfw.s:109    .text:00000000000000c4 .LEHE7
C:\msys64\tmp\cc3QDhfw.s:169    .text:0000000000000138 .L9
C:\msys64\tmp\cc3QDhfw.s:141    .text:00000000000000f8 .LEHB8
C:\msys64\tmp\cc3QDhfw.s:144    .text:0000000000000100 .LEHE8
C:\msys64\tmp\cc3QDhfw.s:153    .text:0000000000000114 .LEHB9
C:\msys64\tmp\cc3QDhfw.s:156    .text:000000000000011c .LEHE9
C:\msys64\tmp\cc3QDhfw.s:165    .text:0000000000000130 .LEHB10
C:\msys64\tmp\cc3QDhfw.s:168    .text:0000000000000138 .LEHE10
C:\msys64\tmp\cc3QDhfw.s:177    .text:000000000000014c .LEHB11
C:\msys64\tmp\cc3QDhfw.s:180    .text:0000000000000154 .LEHE11
C:\msys64\tmp\cc3QDhfw.s:1439   .debug_abbrev:0000000000000000 .Ldebug_abbrev0
C:\msys64\tmp\cc3QDhfw.s:2370   .debug_str:000000000000020c .LASF45
C:\msys64\tmp\cc3QDhfw.s:2308   .debug_str:000000000000002c .LASF46
C:\msys64\tmp\cc3QDhfw.s:2366   .debug_str:00000000000001d0 .LASF47
C:\msys64\tmp\cc3QDhfw.s:8      .text:0000000000000000 .Ltext0
C:\msys64\tmp\cc3QDhfw.s:650    .text:00000000000003f8 .Letext0
C:\msys64\tmp\cc3QDhfw.s:2300   .debug_line:0000000000000000 .Ldebug_line0
C:\msys64\tmp\cc3QDhfw.s:2368   .debug_str:00000000000001ff .LASF0
C:\msys64\tmp\cc3QDhfw.s:2342   .debug_str:0000000000000116 .LASF1
C:\msys64\tmp\cc3QDhfw.s:2336   .debug_str:00000000000000f1 .LASF2
C:\msys64\tmp\cc3QDhfw.s:2318   .debug_str:0000000000000083 .LASF4
C:\msys64\tmp\cc3QDhfw.s:2340   .debug_str:0000000000000104 .LASF3
C:\msys64\tmp\cc3QDhfw.s:2344   .debug_str:0000000000000129 .LASF5
C:\msys64\tmp\cc3QDhfw.s:2304   .debug_str:0000000000000005 .LASF6
C:\msys64\tmp\cc3QDhfw.s:2328   .debug_str:00000000000000b9 .LASF7
C:\msys64\tmp\cc3QDhfw.s:2416   .debug_str:00000000000003dd .LASF8
C:\msys64\tmp\cc3QDhfw.s:2348   .debug_str:000000000000013f .LASF9
C:\msys64\tmp\cc3QDhfw.s:2314   .debug_str:000000000000005b .LASF10
C:\msys64\tmp\cc3QDhfw.s:2378   .debug_str:00000000000002f9 .LASF11
C:\msys64\tmp\cc3QDhfw.s:2386   .debug_str:0000000000000338 .LASF13
C:\msys64\tmp\cc3QDhfw.s:2338   .debug_str:00000000000000ff .LASF48
C:\msys64\tmp\cc3QDhfw.s:2392   .debug_str:000000000000035c .LASF49
C:\msys64\tmp\cc3QDhfw.s:2390   .debug_str:0000000000000357 .LASF50
C:\msys64\tmp\cc3QDhfw.s:2352   .debug_str:0000000000000155 .LASF51
C:\msys64\tmp\cc3QDhfw.s:2374   .debug_str:00000000000002e9 .LASF12
C:\msys64\tmp\cc3QDhfw.s:2350   .debug_str:000000000000014b .LASF14
C:\msys64\tmp\cc3QDhfw.s:2396   .debug_str:0000000000000381 .LASF15
C:\msys64\tmp\cc3QDhfw.s:2362   .debug_str:00000000000001b7 .LASF16
C:\msys64\tmp\cc3QDhfw.s:2398   .debug_str:0000000000000388 .LASF17
C:\msys64\tmp\cc3QDhfw.s:2346   .debug_str:0000000000000130 .LASF18
C:\msys64\tmp\cc3QDhfw.s:2326   .debug_str:00000000000000ab .LASF19
C:\msys64\tmp\cc3QDhfw.s:2372   .debug_str:00000000000002df .LASF20
C:\msys64\tmp\cc3QDhfw.s:2412   .debug_str:00000000000003c7 .LASF21
GAS LISTING C:\msys64\tmp\cc3QDhfw.s 			page 21


C:\msys64\tmp\cc3QDhfw.s:2332   .debug_str:00000000000000da .LASF23
C:\msys64\tmp\cc3QDhfw.s:2376   .debug_str:00000000000002ee .LASF22
C:\msys64\tmp\cc3QDhfw.s:2394   .debug_str:000000000000036f .LASF24
C:\msys64\tmp\cc3QDhfw.s:2364   .debug_str:00000000000001bc .LASF52
C:\msys64\tmp\cc3QDhfw.s:2306   .debug_str:0000000000000018 .LASF53
C:\msys64\tmp\cc3QDhfw.s:2322   .debug_str:000000000000008f .LASF25
C:\msys64\tmp\cc3QDhfw.s:2388   .debug_str:0000000000000340 .LASF26
C:\msys64\tmp\cc3QDhfw.s:2406   .debug_str:00000000000003a8 .LASF54
C:\msys64\tmp\cc3QDhfw.s:2324   .debug_str:0000000000000096 .LASF27
C:\msys64\tmp\cc3QDhfw.s:2334   .debug_str:00000000000000ec .LASF29
C:\msys64\tmp\cc3QDhfw.s:2358   .debug_str:0000000000000188 .LASF28
C:\msys64\tmp\cc3QDhfw.s:2312   .debug_str:0000000000000054 .LASF30
C:\msys64\tmp\cc3QDhfw.s:409    .text:0000000000000270 .LFB10
C:\msys64\tmp\cc3QDhfw.s:490    .text:00000000000002f8 .LFE10
C:\msys64\tmp\cc3QDhfw.s:2320   .debug_str:000000000000008a .LASF31
C:\msys64\tmp\cc3QDhfw.s:2095   .debug_loc:0000000000000000 .LLST6
C:\msys64\tmp\cc3QDhfw.s:2117   .debug_loc:000000000000005f .LLST7
C:\msys64\tmp\cc3QDhfw.s:432    .text:0000000000000298 .LVL43
C:\msys64\tmp\cc3QDhfw.s:437    .text:00000000000002a4 .LVL44
C:\msys64\tmp\cc3QDhfw.s:454    .text:00000000000002c0 .LVL46
C:\msys64\tmp\cc3QDhfw.s:459    .text:00000000000002cc .LVL47
C:\msys64\tmp\cc3QDhfw.s:327    .text:00000000000001e4 .LFB9
C:\msys64\tmp\cc3QDhfw.s:403    .text:0000000000000270 .LFE9
C:\msys64\tmp\cc3QDhfw.s:2124   .debug_loc:0000000000000082 .LLST4
C:\msys64\tmp\cc3QDhfw.s:2142   .debug_loc:00000000000000ce .LLST5
C:\msys64\tmp\cc3QDhfw.s:349    .text:000000000000020c .LVL34
C:\msys64\tmp\cc3QDhfw.s:354    .text:0000000000000218 .LVL35
C:\msys64\tmp\cc3QDhfw.s:379    .text:0000000000000248 .LVL37
C:\msys64\tmp\cc3QDhfw.s:384    .text:0000000000000254 .LVL38
C:\msys64\tmp\cc3QDhfw.s:247    .text:0000000000000154 .LFB8
C:\msys64\tmp\cc3QDhfw.s:321    .text:00000000000001e4 .LFE8
C:\msys64\tmp\cc3QDhfw.s:2153   .debug_loc:0000000000000104 .LLST2
C:\msys64\tmp\cc3QDhfw.s:2171   .debug_loc:0000000000000150 .LLST3
C:\msys64\tmp\cc3QDhfw.s:270    .text:0000000000000180 .LVL27
C:\msys64\tmp\cc3QDhfw.s:275    .text:000000000000018c .LVL28
C:\msys64\tmp\cc3QDhfw.s:300    .text:00000000000001c0 .LVL29
C:\msys64\tmp\cc3QDhfw.s:305    .text:00000000000001cc .LVL30
C:\msys64\tmp\cc3QDhfw.s:2400   .debug_str:000000000000038d .LASF32
C:\msys64\tmp\cc3QDhfw.s:2354   .debug_str:0000000000000168 .LASF33
C:\msys64\tmp\cc3QDhfw.s:501    .text:00000000000002f8 .LFB6
C:\msys64\tmp\cc3QDhfw.s:639    .text:00000000000003f8 .LFE6
C:\msys64\tmp\cc3QDhfw.s:2185   .debug_loc:0000000000000189 .LLST8
C:\msys64\tmp\cc3QDhfw.s:546    .text:000000000000034c .LVL56
C:\msys64\tmp\cc3QDhfw.s:532    .text:0000000000000330 .LBB5
C:\msys64\tmp\cc3QDhfw.s:559    .text:0000000000000360 .LBE5
C:\msys64\tmp\cc3QDhfw.s:2203   .debug_loc:00000000000001d5 .LLST9
C:\msys64\tmp\cc3QDhfw.s:524    .text:000000000000031c .LVL53
C:\msys64\tmp\cc3QDhfw.s:529    .text:000000000000032c .LVL54
C:\msys64\tmp\cc3QDhfw.s:564    .text:000000000000036c .LVL57
C:\msys64\tmp\cc3QDhfw.s:570    .text:000000000000037c .LVL58
C:\msys64\tmp\cc3QDhfw.s:575    .text:0000000000000388 .LVL59
C:\msys64\tmp\cc3QDhfw.s:580    .text:0000000000000394 .LVL60
C:\msys64\tmp\cc3QDhfw.s:2302   .debug_str:0000000000000000 .LASF55
C:\msys64\tmp\cc3QDhfw.s:2316   .debug_str:0000000000000071 .LASF34
C:\msys64\tmp\cc3QDhfw.s:183    .text:0000000000000154 .LFE3
C:\msys64\tmp\cc3QDhfw.s:2211   .debug_loc:00000000000001f9 .LLST0
C:\msys64\tmp\cc3QDhfw.s:2273   .debug_loc:00000000000002e9 .LLST1
GAS LISTING C:\msys64\tmp\cc3QDhfw.s 			page 22


C:\msys64\tmp\cc3QDhfw.s:50     .text:0000000000000044 .LVL2
C:\msys64\tmp\cc3QDhfw.s:57     .text:0000000000000054 .LVL3
C:\msys64\tmp\cc3QDhfw.s:63     .text:0000000000000064 .LVL4
C:\msys64\tmp\cc3QDhfw.s:72     .text:0000000000000074 .LVL5
C:\msys64\tmp\cc3QDhfw.s:78     .text:0000000000000084 .LVL6
C:\msys64\tmp\cc3QDhfw.s:87     .text:0000000000000094 .LVL7
C:\msys64\tmp\cc3QDhfw.s:93     .text:00000000000000a4 .LVL8
C:\msys64\tmp\cc3QDhfw.s:102    .text:00000000000000b4 .LVL9
C:\msys64\tmp\cc3QDhfw.s:108    .text:00000000000000c4 .LVL10
C:\msys64\tmp\cc3QDhfw.s:139    .text:00000000000000f4 .LVL14
C:\msys64\tmp\cc3QDhfw.s:143    .text:0000000000000100 .LVL15
C:\msys64\tmp\cc3QDhfw.s:151    .text:0000000000000110 .LVL17
C:\msys64\tmp\cc3QDhfw.s:155    .text:000000000000011c .LVL18
C:\msys64\tmp\cc3QDhfw.s:163    .text:000000000000012c .LVL20
C:\msys64\tmp\cc3QDhfw.s:167    .text:0000000000000138 .LVL21
C:\msys64\tmp\cc3QDhfw.s:175    .text:0000000000000148 .LVL23
C:\msys64\tmp\cc3QDhfw.s:179    .text:0000000000000154 .LVL24
C:\msys64\tmp\cc3QDhfw.s:2382   .debug_str:000000000000031c .LASF35
C:\msys64\tmp\cc3QDhfw.s:2414   .debug_str:00000000000003d1 .LASF36
C:\msys64\tmp\cc3QDhfw.s:2330   .debug_str:00000000000000cc .LASF37
C:\msys64\tmp\cc3QDhfw.s:2384   .debug_str:000000000000032f .LASF38
C:\msys64\tmp\cc3QDhfw.s:2356   .debug_str:000000000000017a .LASF39
C:\msys64\tmp\cc3QDhfw.s:2404   .debug_str:000000000000039e .LASF40
C:\msys64\tmp\cc3QDhfw.s:2408   .debug_str:00000000000003b2 .LASF41
C:\msys64\tmp\cc3QDhfw.s:2380   .debug_str:000000000000030f .LASF42
C:\msys64\tmp\cc3QDhfw.s:2402   .debug_str:0000000000000397 .LASF43
C:\msys64\tmp\cc3QDhfw.s:2310   .debug_str:0000000000000044 .LASF44
C:\msys64\tmp\cc3QDhfw.s:2410   .debug_str:00000000000003b8 .LASF56
C:\msys64\tmp\cc3QDhfw.s:2360   .debug_str:000000000000019f .LASF57
C:\msys64\tmp\cc3QDhfw.s:412    .text:0000000000000270 .LVL41
C:\msys64\tmp\cc3QDhfw.s:430    .text:0000000000000290 .LVL42
C:\msys64\tmp\cc3QDhfw.s:471    .text:00000000000002dc .LVL48
C:\msys64\tmp\cc3QDhfw.s:478    .text:00000000000002e8 .LVL50
C:\msys64\tmp\cc3QDhfw.s:448    .text:00000000000002b4 .LVL45
C:\msys64\tmp\cc3QDhfw.s:474    .text:00000000000002e0 .LVL49
C:\msys64\tmp\cc3QDhfw.s:330    .text:00000000000001e4 .LVL32
C:\msys64\tmp\cc3QDhfw.s:347    .text:0000000000000204 .LVL33
C:\msys64\tmp\cc3QDhfw.s:395    .text:0000000000000264 .LVL39
C:\msys64\tmp\cc3QDhfw.s:365    .text:000000000000022c .LVL36
C:\msys64\tmp\cc3QDhfw.s:398    .text:0000000000000268 .LVL40
C:\msys64\tmp\cc3QDhfw.s:250    .text:0000000000000154 .LVL25
C:\msys64\tmp\cc3QDhfw.s:268    .text:0000000000000178 .LVL26
C:\msys64\tmp\cc3QDhfw.s:314    .text:00000000000001d8 .LVL31
C:\msys64\tmp\cc3QDhfw.s:506    .text:00000000000002f8 .LVL51
C:\msys64\tmp\cc3QDhfw.s:522    .text:0000000000000314 .LVL52
C:\msys64\tmp\cc3QDhfw.s:634    .text:00000000000003f0 .LVL65
C:\msys64\tmp\cc3QDhfw.s:541    .text:0000000000000340 .LVL55
C:\msys64\tmp\cc3QDhfw.s:19     .text:0000000000000000 .LVL0
C:\msys64\tmp\cc3QDhfw.s:40     .text:000000000000002c .LVL1
C:\msys64\tmp\cc3QDhfw.s:122    .text:00000000000000d4 .LVL11
C:\msys64\tmp\cc3QDhfw.s:130    .text:00000000000000e4 .LVL12
C:\msys64\tmp\cc3QDhfw.s:136    .text:00000000000000e8 .LVL13
C:\msys64\tmp\cc3QDhfw.s:148    .text:0000000000000104 .LVL16
C:\msys64\tmp\cc3QDhfw.s:160    .text:0000000000000120 .LVL19
C:\msys64\tmp\cc3QDhfw.s:172    .text:000000000000013c .LVL22
C:\msys64\tmp\cc3QDhfw.s:657    .debug_info:0000000000000000 .Ldebug_info0
C:\msys64\tmp\cc3QDhfw.s:186    .gcc_except_table:0000000000000000 .LLSDA3
GAS LISTING C:\msys64\tmp\cc3QDhfw.s 			page 23


C:\msys64\tmp\cc3QDhfw.s:641    .gcc_except_table:00000000000000a1 .LLSDA6

UNDEFINED SYMBOLS
_Z9mem_allocm
_Znwm
_ZN9SemaphoreC1Ej
_ZdlPv
_Unwind_Resume
__gxx_personality_v0
_ZN9Semaphore4waitEv
_ZN9Semaphore6signalEv
_ZN7Console4putcEc
_Z11printStringPKc
_Z8mem_freePv
