GAS LISTING C:\msys64\tmp\ccpioIaW.s 			page 1


   1              		.file	"ConsumerProducer_CPP_API_test.cpp"
   2              		.option nopic
   3              		.option norelax
   4              		.attribute arch, "rv64i2p0_m2p0_a2p0"
   5              		.attribute unaligned_access, 0
   6              		.attribute stack_align, 16
   7              		.text
   8              	.Ltext0:
   9              		.section	.text._ZN8Consumer3runEv,"axG",@progbits,_ZN8Consumer3runEv,comdat
  10              		.align	2
  11              		.weak	_ZN8Consumer3runEv
  13              	_ZN8Consumer3runEv:
  14              	.LFB13:
  15              		.file 1 "test/ConsumerProducer_CPP_API_test.cpp"
   1:test/ConsumerProducer_CPP_API_test.cpp **** #include "../h/syscall_cpp.hpp"
   2:test/ConsumerProducer_CPP_API_test.cpp **** 
   3:test/ConsumerProducer_CPP_API_test.cpp **** #include "buffer_CPP_API.hpp"
   4:test/ConsumerProducer_CPP_API_test.cpp **** #include "printing.hpp"
   5:test/ConsumerProducer_CPP_API_test.cpp **** 
   6:test/ConsumerProducer_CPP_API_test.cpp **** 
   7:test/ConsumerProducer_CPP_API_test.cpp **** static Semaphore *waitForAll;
   8:test/ConsumerProducer_CPP_API_test.cpp **** 
   9:test/ConsumerProducer_CPP_API_test.cpp **** struct thread_data {
  10:test/ConsumerProducer_CPP_API_test.cpp ****     int id;
  11:test/ConsumerProducer_CPP_API_test.cpp ****     BufferCPP *buffer;
  12:test/ConsumerProducer_CPP_API_test.cpp ****     Semaphore *sem;
  13:test/ConsumerProducer_CPP_API_test.cpp **** };
  14:test/ConsumerProducer_CPP_API_test.cpp **** 
  15:test/ConsumerProducer_CPP_API_test.cpp **** static volatile int threadEnd = 0;
  16:test/ConsumerProducer_CPP_API_test.cpp **** 
  17:test/ConsumerProducer_CPP_API_test.cpp **** class ProducerKeyborad : public Thread {
  18:test/ConsumerProducer_CPP_API_test.cpp ****     thread_data *td;
  19:test/ConsumerProducer_CPP_API_test.cpp **** public:
  20:test/ConsumerProducer_CPP_API_test.cpp ****     ProducerKeyborad(thread_data *_td) : Thread(), td(_td) {}
  21:test/ConsumerProducer_CPP_API_test.cpp **** 
  22:test/ConsumerProducer_CPP_API_test.cpp ****     void run() override {
  23:test/ConsumerProducer_CPP_API_test.cpp ****         int key;
  24:test/ConsumerProducer_CPP_API_test.cpp ****         int i = 0;
  25:test/ConsumerProducer_CPP_API_test.cpp ****         while ((key = getc()) != 0x1b) {
  26:test/ConsumerProducer_CPP_API_test.cpp ****             td->buffer->put(key);
  27:test/ConsumerProducer_CPP_API_test.cpp ****             i++;
  28:test/ConsumerProducer_CPP_API_test.cpp ****         }
  29:test/ConsumerProducer_CPP_API_test.cpp **** 
  30:test/ConsumerProducer_CPP_API_test.cpp ****         threadEnd = 1;
  31:test/ConsumerProducer_CPP_API_test.cpp ****         td->buffer->put('!');
  32:test/ConsumerProducer_CPP_API_test.cpp **** 
  33:test/ConsumerProducer_CPP_API_test.cpp ****         td->sem->signal();
  34:test/ConsumerProducer_CPP_API_test.cpp ****     }
  35:test/ConsumerProducer_CPP_API_test.cpp **** };
  36:test/ConsumerProducer_CPP_API_test.cpp **** 
  37:test/ConsumerProducer_CPP_API_test.cpp **** class Producer : public Thread {
  38:test/ConsumerProducer_CPP_API_test.cpp ****     thread_data *td;
  39:test/ConsumerProducer_CPP_API_test.cpp **** public:
  40:test/ConsumerProducer_CPP_API_test.cpp ****     Producer(thread_data *_td) : Thread(), td(_td) {}
  41:test/ConsumerProducer_CPP_API_test.cpp **** 
  42:test/ConsumerProducer_CPP_API_test.cpp ****     void run() override {
  43:test/ConsumerProducer_CPP_API_test.cpp ****         int i = 0;
GAS LISTING C:\msys64\tmp\ccpioIaW.s 			page 2


  44:test/ConsumerProducer_CPP_API_test.cpp ****         while (!threadEnd) {
  45:test/ConsumerProducer_CPP_API_test.cpp ****             td->buffer->put(td->id + '0');
  46:test/ConsumerProducer_CPP_API_test.cpp ****             i++;
  47:test/ConsumerProducer_CPP_API_test.cpp ****             Thread::sleep((i + td->id) % 5);
  48:test/ConsumerProducer_CPP_API_test.cpp ****         }
  49:test/ConsumerProducer_CPP_API_test.cpp **** 
  50:test/ConsumerProducer_CPP_API_test.cpp ****         td->sem->signal();
  51:test/ConsumerProducer_CPP_API_test.cpp ****     }
  52:test/ConsumerProducer_CPP_API_test.cpp **** };
  53:test/ConsumerProducer_CPP_API_test.cpp **** 
  54:test/ConsumerProducer_CPP_API_test.cpp **** class Consumer : public Thread {
  55:test/ConsumerProducer_CPP_API_test.cpp ****     thread_data *td;
  56:test/ConsumerProducer_CPP_API_test.cpp **** public:
  57:test/ConsumerProducer_CPP_API_test.cpp ****     Consumer(thread_data *_td) : Thread(), td(_td) {}
  58:test/ConsumerProducer_CPP_API_test.cpp **** 
  59:test/ConsumerProducer_CPP_API_test.cpp ****     void run() override {
  16              		.loc 1 59 10
  17              		.cfi_startproc
  18              	.LVL0:
  19 0000 130101FD 		addi	sp,sp,-48
  20              		.cfi_def_cfa_offset 48
  21 0004 23341102 		sd	ra,40(sp)
  22 0008 23308102 		sd	s0,32(sp)
  23 000c 233C9100 		sd	s1,24(sp)
  24 0010 23382101 		sd	s2,16(sp)
  25 0014 23343101 		sd	s3,8(sp)
  26              		.cfi_offset 1, -8
  27              		.cfi_offset 8, -16
  28              		.cfi_offset 9, -24
  29              		.cfi_offset 18, -32
  30              		.cfi_offset 19, -40
  31 0018 13040103 		addi	s0,sp,48
  32              		.cfi_def_cfa 8, 0
  33 001c 13090500 		mv	s2,a0
  60:test/ConsumerProducer_CPP_API_test.cpp ****         int i = 0;
  34              		.loc 1 60 9
  35              	.LVL1:
  36              		.loc 1 60 13 is_stmt 0
  37 0020 93090000 		li	s3,0
  38              	.LVL2:
  39              	.L2:
  61:test/ConsumerProducer_CPP_API_test.cpp ****         while (!threadEnd) {
  40              		.loc 1 61 9 is_stmt 1
  41              		.loc 1 61 16
  42 0024 97070000 		lw	a5,_ZL9threadEnd
  42      83A70700 
  43 002c 63900706 		bne	a5,zero,.L3
  44              	.LBB23:
  62:test/ConsumerProducer_CPP_API_test.cpp ****             int key = td->buffer->get();
  45              		.loc 1 62 13
  46              		.loc 1 62 23 is_stmt 0
  47 0030 83370902 		ld	a5,32(s2)
  48              		.loc 1 62 38
  49 0034 03B58700 		ld	a0,8(a5)
  50 0038 97000000 		call	_ZN9BufferCPP3getEv
  50      E7800000 
  51              	.LVL3:
GAS LISTING C:\msys64\tmp\ccpioIaW.s 			page 3


  63:test/ConsumerProducer_CPP_API_test.cpp ****             i++;
  52              		.loc 1 63 13 is_stmt 1
  53              		.loc 1 63 14 is_stmt 0
  54 0040 9B841900 		addiw	s1,s3,1
  55 0044 9B890400 		sext.w	s3,s1
  56              	.LVL4:
  64:test/ConsumerProducer_CPP_API_test.cpp **** 
  65:test/ConsumerProducer_CPP_API_test.cpp ****             Console::putc(key);
  57              		.loc 1 65 13 is_stmt 1
  58              		.loc 1 65 26 is_stmt 0
  59 0048 1375F50F 		andi	a0,a0,0xff
  60              	.LVL5:
  61 004c 97000000 		call	_ZN7Console4putcEc
  61      E7800000 
  62              	.LVL6:
  66:test/ConsumerProducer_CPP_API_test.cpp **** 
  67:test/ConsumerProducer_CPP_API_test.cpp ****             if (i % 80 == 0) {
  63              		.loc 1 67 13 is_stmt 1
  64              		.loc 1 67 19 is_stmt 0
  65 0054 93070005 		li	a5,80
  66 0058 BBE4F402 		remw	s1,s1,a5
  67              	.LVL7:
  68              		.loc 1 67 13
  69 005c E39404FC 		bne	s1,zero,.L2
  68:test/ConsumerProducer_CPP_API_test.cpp ****                 Console::putc('\n');
  70              		.loc 1 68 17 is_stmt 1
  71              		.loc 1 68 30 is_stmt 0
  72 0060 1305A000 		li	a0,10
  73 0064 97000000 		call	_ZN7Console4putcEc
  73      E7800000 
  74              	.LVL8:
  75 006c 6FF09FFB 		j	.L2
  76              	.L7:
  77              	.LBE23:
  78              	.LBB24:
  69:test/ConsumerProducer_CPP_API_test.cpp ****             }
  70:test/ConsumerProducer_CPP_API_test.cpp ****         }
  71:test/ConsumerProducer_CPP_API_test.cpp **** 
  72:test/ConsumerProducer_CPP_API_test.cpp ****         while (td->buffer->getCnt() > 0) {
  73:test/ConsumerProducer_CPP_API_test.cpp ****             int key = td->buffer->get();
  79              		.loc 1 73 13 is_stmt 1
  80              		.loc 1 73 23 is_stmt 0
  81 0070 83370902 		ld	a5,32(s2)
  82              		.loc 1 73 38
  83 0074 03B58700 		ld	a0,8(a5)
  84 0078 97000000 		call	_ZN9BufferCPP3getEv
  84      E7800000 
  85              	.LVL9:
  74:test/ConsumerProducer_CPP_API_test.cpp ****             Console::putc(key);
  86              		.loc 1 74 13 is_stmt 1
  87              		.loc 1 74 26 is_stmt 0
  88 0080 1375F50F 		andi	a0,a0,0xff
  89              	.LVL10:
  90 0084 97000000 		call	_ZN7Console4putcEc
  90      E7800000 
  91              	.LVL11:
  92              	.L3:
GAS LISTING C:\msys64\tmp\ccpioIaW.s 			page 4


  93              	.LBE24:
  72:test/ConsumerProducer_CPP_API_test.cpp ****             int key = td->buffer->get();
  94              		.loc 1 72 9 is_stmt 1
  72:test/ConsumerProducer_CPP_API_test.cpp ****             int key = td->buffer->get();
  95              		.loc 1 72 37
  72:test/ConsumerProducer_CPP_API_test.cpp ****             int key = td->buffer->get();
  96              		.loc 1 72 16 is_stmt 0
  97 008c 83370902 		ld	a5,32(s2)
  72:test/ConsumerProducer_CPP_API_test.cpp ****             int key = td->buffer->get();
  98              		.loc 1 72 34
  99 0090 03B58700 		ld	a0,8(a5)
 100 0094 97000000 		call	_ZN9BufferCPP6getCntEv
 100      E7800000 
 101              	.LVL12:
  72:test/ConsumerProducer_CPP_API_test.cpp ****             int key = td->buffer->get();
 102              		.loc 1 72 37
 103 009c E34AA0FC 		bgt	a0,zero,.L7
  75:test/ConsumerProducer_CPP_API_test.cpp ****         }
  76:test/ConsumerProducer_CPP_API_test.cpp **** 
  77:test/ConsumerProducer_CPP_API_test.cpp ****         td->sem->signal();
 104              		.loc 1 77 9 is_stmt 1
 105 00a0 83370902 		ld	a5,32(s2)
 106              		.loc 1 77 24 is_stmt 0
 107 00a4 03B50701 		ld	a0,16(a5)
 108 00a8 97000000 		call	_ZN9Semaphore6signalEv
 108      E7800000 
 109              	.LVL13:
  78:test/ConsumerProducer_CPP_API_test.cpp ****     }
 110              		.loc 1 78 5
 111 00b0 83308102 		ld	ra,40(sp)
 112              		.cfi_restore 1
 113 00b4 03340102 		ld	s0,32(sp)
 114              		.cfi_restore 8
 115              		.cfi_def_cfa 2, 48
 116 00b8 83348101 		ld	s1,24(sp)
 117              		.cfi_restore 9
 118 00bc 03390101 		ld	s2,16(sp)
 119              		.cfi_restore 18
 120              	.LVL14:
 121 00c0 83398100 		ld	s3,8(sp)
 122              		.cfi_restore 19
 123              	.LVL15:
 124 00c4 13010103 		addi	sp,sp,48
 125              		.cfi_def_cfa_offset 0
 126 00c8 67800000 		jr	ra
 127              		.cfi_endproc
 128              	.LFE13:
 130              		.section	.text._ZN8ConsumerD2Ev,"axG",@progbits,_ZN8ConsumerD5Ev,comdat
 131              		.align	2
 132              		.weak	_ZN8ConsumerD2Ev
 134              	_ZN8ConsumerD2Ev:
 135              	.LFB16:
  54:test/ConsumerProducer_CPP_API_test.cpp ****     thread_data *td;
 136              		.loc 1 54 7 is_stmt 1
 137              		.cfi_startproc
 138              	.LVL16:
 139 0000 130101FF 		addi	sp,sp,-16
GAS LISTING C:\msys64\tmp\ccpioIaW.s 			page 5


 140              		.cfi_def_cfa_offset 16
 141 0004 23341100 		sd	ra,8(sp)
 142 0008 23308100 		sd	s0,0(sp)
 143              		.cfi_offset 1, -8
 144              		.cfi_offset 8, -16
 145 000c 13040101 		addi	s0,sp,16
 146              		.cfi_def_cfa 8, 0
 147              	.LBB25:
  54:test/ConsumerProducer_CPP_API_test.cpp ****     thread_data *td;
 148              		.loc 1 54 7 is_stmt 0
 149 0010 97070000 		lla	a5,_ZTV8Consumer+16
 149      93870700 
 150 0018 2330F500 		sd	a5,0(a0)
 151 001c 97000000 		call	_ZN6ThreadD2Ev
 151      E7800000 
 152              	.LVL17:
 153              	.LBE25:
 154 0024 83308100 		ld	ra,8(sp)
 155              		.cfi_restore 1
 156 0028 03340100 		ld	s0,0(sp)
 157              		.cfi_restore 8
 158              		.cfi_def_cfa 2, 16
 159 002c 13010101 		addi	sp,sp,16
 160              		.cfi_def_cfa_offset 0
 161 0030 67800000 		jr	ra
 162              		.cfi_endproc
 163              	.LFE16:
 165              		.weak	_ZN8ConsumerD1Ev
 166              		.set	_ZN8ConsumerD1Ev,_ZN8ConsumerD2Ev
 167              		.section	.text._ZN8ConsumerD0Ev,"axG",@progbits,_ZN8ConsumerD5Ev,comdat
 168              		.align	2
 169              		.weak	_ZN8ConsumerD0Ev
 171              	_ZN8ConsumerD0Ev:
 172              	.LFB18:
  54:test/ConsumerProducer_CPP_API_test.cpp ****     thread_data *td;
 173              		.loc 1 54 7 is_stmt 1
 174              		.cfi_startproc
 175              	.LVL18:
 176 0000 130101FE 		addi	sp,sp,-32
 177              		.cfi_def_cfa_offset 32
 178 0004 233C1100 		sd	ra,24(sp)
 179 0008 23388100 		sd	s0,16(sp)
 180 000c 23349100 		sd	s1,8(sp)
 181              		.cfi_offset 1, -8
 182              		.cfi_offset 8, -16
 183              		.cfi_offset 9, -24
 184 0010 13040102 		addi	s0,sp,32
 185              		.cfi_def_cfa 8, 0
 186 0014 93040500 		mv	s1,a0
 187              	.LVL19:
 188              	.LBB26:
 189              	.LBB27:
  54:test/ConsumerProducer_CPP_API_test.cpp ****     thread_data *td;
 190              		.loc 1 54 7 is_stmt 0
 191 0018 97070000 		lla	a5,_ZTV8Consumer+16
 191      93870700 
 192 0020 2330F500 		sd	a5,0(a0)
GAS LISTING C:\msys64\tmp\ccpioIaW.s 			page 6


 193 0024 97000000 		call	_ZN6ThreadD2Ev
 193      E7800000 
 194              	.LVL20:
 195              	.LBE27:
 196              	.LBE26:
 197 002c 13850400 		mv	a0,s1
 198 0030 97000000 		call	_ZdlPv
 198      E7800000 
 199              	.LVL21:
 200 0038 83308101 		ld	ra,24(sp)
 201              		.cfi_restore 1
 202 003c 03340101 		ld	s0,16(sp)
 203              		.cfi_restore 8
 204              		.cfi_def_cfa 2, 32
 205 0040 83348100 		ld	s1,8(sp)
 206              		.cfi_restore 9
 207              	.LVL22:
 208 0044 13010102 		addi	sp,sp,32
 209              		.cfi_def_cfa_offset 0
 210 0048 67800000 		jr	ra
 211              		.cfi_endproc
 212              	.LFE18:
 214              		.section	.text._ZN16ProducerKeyboradD2Ev,"axG",@progbits,_ZN16ProducerKeyboradD5Ev,comdat
 215              		.align	2
 216              		.weak	_ZN16ProducerKeyboradD2Ev
 218              	_ZN16ProducerKeyboradD2Ev:
 219              	.LFB24:
  17:test/ConsumerProducer_CPP_API_test.cpp ****     thread_data *td;
 220              		.loc 1 17 7 is_stmt 1
 221              		.cfi_startproc
 222              	.LVL23:
 223 0000 130101FF 		addi	sp,sp,-16
 224              		.cfi_def_cfa_offset 16
 225 0004 23341100 		sd	ra,8(sp)
 226 0008 23308100 		sd	s0,0(sp)
 227              		.cfi_offset 1, -8
 228              		.cfi_offset 8, -16
 229 000c 13040101 		addi	s0,sp,16
 230              		.cfi_def_cfa 8, 0
 231              	.LBB28:
  17:test/ConsumerProducer_CPP_API_test.cpp ****     thread_data *td;
 232              		.loc 1 17 7 is_stmt 0
 233 0010 97070000 		lla	a5,_ZTV16ProducerKeyborad+16
 233      93870700 
 234 0018 2330F500 		sd	a5,0(a0)
 235 001c 97000000 		call	_ZN6ThreadD2Ev
 235      E7800000 
 236              	.LVL24:
 237              	.LBE28:
 238 0024 83308100 		ld	ra,8(sp)
 239              		.cfi_restore 1
 240 0028 03340100 		ld	s0,0(sp)
 241              		.cfi_restore 8
 242              		.cfi_def_cfa 2, 16
 243 002c 13010101 		addi	sp,sp,16
 244              		.cfi_def_cfa_offset 0
 245 0030 67800000 		jr	ra
GAS LISTING C:\msys64\tmp\ccpioIaW.s 			page 7


 246              		.cfi_endproc
 247              	.LFE24:
 249              		.weak	_ZN16ProducerKeyboradD1Ev
 250              		.set	_ZN16ProducerKeyboradD1Ev,_ZN16ProducerKeyboradD2Ev
 251              		.section	.text._ZN16ProducerKeyboradD0Ev,"axG",@progbits,_ZN16ProducerKeyboradD5Ev,comdat
 252              		.align	2
 253              		.weak	_ZN16ProducerKeyboradD0Ev
 255              	_ZN16ProducerKeyboradD0Ev:
 256              	.LFB26:
  17:test/ConsumerProducer_CPP_API_test.cpp ****     thread_data *td;
 257              		.loc 1 17 7 is_stmt 1
 258              		.cfi_startproc
 259              	.LVL25:
 260 0000 130101FE 		addi	sp,sp,-32
 261              		.cfi_def_cfa_offset 32
 262 0004 233C1100 		sd	ra,24(sp)
 263 0008 23388100 		sd	s0,16(sp)
 264 000c 23349100 		sd	s1,8(sp)
 265              		.cfi_offset 1, -8
 266              		.cfi_offset 8, -16
 267              		.cfi_offset 9, -24
 268 0010 13040102 		addi	s0,sp,32
 269              		.cfi_def_cfa 8, 0
 270 0014 93040500 		mv	s1,a0
 271              	.LVL26:
 272              	.LBB29:
 273              	.LBB30:
  17:test/ConsumerProducer_CPP_API_test.cpp ****     thread_data *td;
 274              		.loc 1 17 7 is_stmt 0
 275 0018 97070000 		lla	a5,_ZTV16ProducerKeyborad+16
 275      93870700 
 276 0020 2330F500 		sd	a5,0(a0)
 277 0024 97000000 		call	_ZN6ThreadD2Ev
 277      E7800000 
 278              	.LVL27:
 279              	.LBE30:
 280              	.LBE29:
 281 002c 13850400 		mv	a0,s1
 282 0030 97000000 		call	_ZdlPv
 282      E7800000 
 283              	.LVL28:
 284 0038 83308101 		ld	ra,24(sp)
 285              		.cfi_restore 1
 286 003c 03340101 		ld	s0,16(sp)
 287              		.cfi_restore 8
 288              		.cfi_def_cfa 2, 32
 289 0040 83348100 		ld	s1,8(sp)
 290              		.cfi_restore 9
 291              	.LVL29:
 292 0044 13010102 		addi	sp,sp,32
 293              		.cfi_def_cfa_offset 0
 294 0048 67800000 		jr	ra
 295              		.cfi_endproc
 296              	.LFE26:
 298              		.section	.text._ZN8ProducerD2Ev,"axG",@progbits,_ZN8ProducerD5Ev,comdat
 299              		.align	2
 300              		.weak	_ZN8ProducerD2Ev
GAS LISTING C:\msys64\tmp\ccpioIaW.s 			page 8


 302              	_ZN8ProducerD2Ev:
 303              	.LFB20:
  37:test/ConsumerProducer_CPP_API_test.cpp ****     thread_data *td;
 304              		.loc 1 37 7 is_stmt 1
 305              		.cfi_startproc
 306              	.LVL30:
 307 0000 130101FF 		addi	sp,sp,-16
 308              		.cfi_def_cfa_offset 16
 309 0004 23341100 		sd	ra,8(sp)
 310 0008 23308100 		sd	s0,0(sp)
 311              		.cfi_offset 1, -8
 312              		.cfi_offset 8, -16
 313 000c 13040101 		addi	s0,sp,16
 314              		.cfi_def_cfa 8, 0
 315              	.LBB31:
  37:test/ConsumerProducer_CPP_API_test.cpp ****     thread_data *td;
 316              		.loc 1 37 7 is_stmt 0
 317 0010 97070000 		lla	a5,_ZTV8Producer+16
 317      93870700 
 318 0018 2330F500 		sd	a5,0(a0)
 319 001c 97000000 		call	_ZN6ThreadD2Ev
 319      E7800000 
 320              	.LVL31:
 321              	.LBE31:
 322 0024 83308100 		ld	ra,8(sp)
 323              		.cfi_restore 1
 324 0028 03340100 		ld	s0,0(sp)
 325              		.cfi_restore 8
 326              		.cfi_def_cfa 2, 16
 327 002c 13010101 		addi	sp,sp,16
 328              		.cfi_def_cfa_offset 0
 329 0030 67800000 		jr	ra
 330              		.cfi_endproc
 331              	.LFE20:
 333              		.weak	_ZN8ProducerD1Ev
 334              		.set	_ZN8ProducerD1Ev,_ZN8ProducerD2Ev
 335              		.section	.text._ZN8ProducerD0Ev,"axG",@progbits,_ZN8ProducerD5Ev,comdat
 336              		.align	2
 337              		.weak	_ZN8ProducerD0Ev
 339              	_ZN8ProducerD0Ev:
 340              	.LFB22:
  37:test/ConsumerProducer_CPP_API_test.cpp ****     thread_data *td;
 341              		.loc 1 37 7 is_stmt 1
 342              		.cfi_startproc
 343              	.LVL32:
 344 0000 130101FE 		addi	sp,sp,-32
 345              		.cfi_def_cfa_offset 32
 346 0004 233C1100 		sd	ra,24(sp)
 347 0008 23388100 		sd	s0,16(sp)
 348 000c 23349100 		sd	s1,8(sp)
 349              		.cfi_offset 1, -8
 350              		.cfi_offset 8, -16
 351              		.cfi_offset 9, -24
 352 0010 13040102 		addi	s0,sp,32
 353              		.cfi_def_cfa 8, 0
 354 0014 93040500 		mv	s1,a0
 355              	.LVL33:
GAS LISTING C:\msys64\tmp\ccpioIaW.s 			page 9


 356              	.LBB32:
 357              	.LBB33:
  37:test/ConsumerProducer_CPP_API_test.cpp ****     thread_data *td;
 358              		.loc 1 37 7 is_stmt 0
 359 0018 97070000 		lla	a5,_ZTV8Producer+16
 359      93870700 
 360 0020 2330F500 		sd	a5,0(a0)
 361 0024 97000000 		call	_ZN6ThreadD2Ev
 361      E7800000 
 362              	.LVL34:
 363              	.LBE33:
 364              	.LBE32:
 365 002c 13850400 		mv	a0,s1
 366 0030 97000000 		call	_ZdlPv
 366      E7800000 
 367              	.LVL35:
 368 0038 83308101 		ld	ra,24(sp)
 369              		.cfi_restore 1
 370 003c 03340101 		ld	s0,16(sp)
 371              		.cfi_restore 8
 372              		.cfi_def_cfa 2, 32
 373 0040 83348100 		ld	s1,8(sp)
 374              		.cfi_restore 9
 375              	.LVL36:
 376 0044 13010102 		addi	sp,sp,32
 377              		.cfi_def_cfa_offset 0
 378 0048 67800000 		jr	ra
 379              		.cfi_endproc
 380              	.LFE22:
 382              		.section	.text._ZN16ProducerKeyborad3runEv,"axG",@progbits,_ZN16ProducerKeyborad3runEv,comdat
 383              		.align	2
 384              		.weak	_ZN16ProducerKeyborad3runEv
 386              	_ZN16ProducerKeyborad3runEv:
 387              	.LFB5:
  22:test/ConsumerProducer_CPP_API_test.cpp ****         int key;
 388              		.loc 1 22 10 is_stmt 1
 389              		.cfi_startproc
 390              	.LVL37:
 391 0000 130101FE 		addi	sp,sp,-32
 392              		.cfi_def_cfa_offset 32
 393 0004 233C1100 		sd	ra,24(sp)
 394 0008 23388100 		sd	s0,16(sp)
 395 000c 23349100 		sd	s1,8(sp)
 396              		.cfi_offset 1, -8
 397              		.cfi_offset 8, -16
 398              		.cfi_offset 9, -24
 399 0010 13040102 		addi	s0,sp,32
 400              		.cfi_def_cfa 8, 0
 401 0014 93040500 		mv	s1,a0
  23:test/ConsumerProducer_CPP_API_test.cpp ****         int i = 0;
 402              		.loc 1 23 9
  24:test/ConsumerProducer_CPP_API_test.cpp ****         while ((key = getc()) != 0x1b) {
 403              		.loc 1 24 9
 404              	.LVL38:
 405 0018 6F004001 		j	.L22
 406              	.LVL39:
 407              	.L24:
GAS LISTING C:\msys64\tmp\ccpioIaW.s 			page 10


  26:test/ConsumerProducer_CPP_API_test.cpp ****             i++;
 408              		.loc 1 26 13
 409 001c 83B70402 		ld	a5,32(s1)
  26:test/ConsumerProducer_CPP_API_test.cpp ****             i++;
 410              		.loc 1 26 28 is_stmt 0
 411 0020 03B58700 		ld	a0,8(a5)
 412 0024 97000000 		call	_ZN9BufferCPP3putEi
 412      E7800000 
 413              	.LVL40:
  27:test/ConsumerProducer_CPP_API_test.cpp ****         }
 414              		.loc 1 27 13 is_stmt 1
 415              	.L22:
  25:test/ConsumerProducer_CPP_API_test.cpp ****             td->buffer->put(key);
 416              		.loc 1 25 9
  25:test/ConsumerProducer_CPP_API_test.cpp ****             td->buffer->put(key);
 417              		.loc 1 25 31
  25:test/ConsumerProducer_CPP_API_test.cpp ****             td->buffer->put(key);
 418              		.loc 1 25 27 is_stmt 0
 419 002c 97000000 		call	_Z4getcv
 419      E7800000 
 420              	.LVL41:
  25:test/ConsumerProducer_CPP_API_test.cpp ****             td->buffer->put(key);
 421              		.loc 1 25 21
 422 0034 9B050500 		sext.w	a1,a0
 423              	.LVL42:
  25:test/ConsumerProducer_CPP_API_test.cpp ****             td->buffer->put(key);
 424              		.loc 1 25 31
 425 0038 9307B001 		li	a5,27
 426 003c E390F5FE 		bne	a1,a5,.L24
  30:test/ConsumerProducer_CPP_API_test.cpp ****         td->buffer->put('!');
 427              		.loc 1 30 9 is_stmt 1
  30:test/ConsumerProducer_CPP_API_test.cpp ****         td->buffer->put('!');
 428              		.loc 1 30 19 is_stmt 0
 429 0040 93071000 		li	a5,1
 430 0044 17070000 		sw	a5,_ZL9threadEnd,a4
 430      2320F700 
  31:test/ConsumerProducer_CPP_API_test.cpp **** 
 431              		.loc 1 31 9 is_stmt 1
 432 004c 83B70402 		ld	a5,32(s1)
  31:test/ConsumerProducer_CPP_API_test.cpp **** 
 433              		.loc 1 31 24 is_stmt 0
 434 0050 93051002 		li	a1,33
 435              	.LVL43:
 436 0054 03B58700 		ld	a0,8(a5)
 437              	.LVL44:
 438 0058 97000000 		call	_ZN9BufferCPP3putEi
 438      E7800000 
 439              	.LVL45:
  33:test/ConsumerProducer_CPP_API_test.cpp ****     }
 440              		.loc 1 33 9 is_stmt 1
 441 0060 83B70402 		ld	a5,32(s1)
  33:test/ConsumerProducer_CPP_API_test.cpp ****     }
 442              		.loc 1 33 24 is_stmt 0
 443 0064 03B50701 		ld	a0,16(a5)
 444 0068 97000000 		call	_ZN9Semaphore6signalEv
 444      E7800000 
 445              	.LVL46:
GAS LISTING C:\msys64\tmp\ccpioIaW.s 			page 11


  34:test/ConsumerProducer_CPP_API_test.cpp **** };
 446              		.loc 1 34 5
 447 0070 83308101 		ld	ra,24(sp)
 448              		.cfi_restore 1
 449 0074 03340101 		ld	s0,16(sp)
 450              		.cfi_restore 8
 451              		.cfi_def_cfa 2, 32
 452 0078 83348100 		ld	s1,8(sp)
 453              		.cfi_restore 9
 454              	.LVL47:
 455 007c 13010102 		addi	sp,sp,32
 456              		.cfi_def_cfa_offset 0
 457 0080 67800000 		jr	ra
 458              		.cfi_endproc
 459              	.LFE5:
 461              		.section	.text._ZN8Producer3runEv,"axG",@progbits,_ZN8Producer3runEv,comdat
 462              		.align	2
 463              		.weak	_ZN8Producer3runEv
 465              	_ZN8Producer3runEv:
 466              	.LFB9:
  42:test/ConsumerProducer_CPP_API_test.cpp ****         int i = 0;
 467              		.loc 1 42 10 is_stmt 1
 468              		.cfi_startproc
 469              	.LVL48:
 470 0000 130101FE 		addi	sp,sp,-32
 471              		.cfi_def_cfa_offset 32
 472 0004 233C1100 		sd	ra,24(sp)
 473 0008 23388100 		sd	s0,16(sp)
 474 000c 23349100 		sd	s1,8(sp)
 475 0010 23302101 		sd	s2,0(sp)
 476              		.cfi_offset 1, -8
 477              		.cfi_offset 8, -16
 478              		.cfi_offset 9, -24
 479              		.cfi_offset 18, -32
 480 0014 13040102 		addi	s0,sp,32
 481              		.cfi_def_cfa 8, 0
 482 0018 93040500 		mv	s1,a0
  43:test/ConsumerProducer_CPP_API_test.cpp ****         while (!threadEnd) {
 483              		.loc 1 43 9
 484              	.LVL49:
  43:test/ConsumerProducer_CPP_API_test.cpp ****         while (!threadEnd) {
 485              		.loc 1 43 13 is_stmt 0
 486 001c 13090000 		li	s2,0
 487 0020 6F000004 		j	.L27
 488              	.LVL50:
 489              	.L29:
  45:test/ConsumerProducer_CPP_API_test.cpp ****             i++;
 490              		.loc 1 45 13 is_stmt 1
 491 0024 83B70402 		ld	a5,32(s1)
  45:test/ConsumerProducer_CPP_API_test.cpp ****             i++;
 492              		.loc 1 45 33 is_stmt 0
 493 0028 83A50700 		lw	a1,0(a5)
  45:test/ConsumerProducer_CPP_API_test.cpp ****             i++;
 494              		.loc 1 45 28
 495 002c 9B850503 		addiw	a1,a1,48
 496 0030 03B58700 		ld	a0,8(a5)
 497 0034 97000000 		call	_ZN9BufferCPP3putEi
GAS LISTING C:\msys64\tmp\ccpioIaW.s 			page 12


 497      E7800000 
 498              	.LVL51:
  46:test/ConsumerProducer_CPP_API_test.cpp ****             Thread::sleep((i + td->id) % 5);
 499              		.loc 1 46 13 is_stmt 1
  46:test/ConsumerProducer_CPP_API_test.cpp ****             Thread::sleep((i + td->id) % 5);
 500              		.loc 1 46 14 is_stmt 0
 501 003c 1B071900 		addiw	a4,s2,1
 502 0040 1B090700 		sext.w	s2,a4
 503              	.LVL52:
  47:test/ConsumerProducer_CPP_API_test.cpp ****         }
 504              		.loc 1 47 13 is_stmt 1
  47:test/ConsumerProducer_CPP_API_test.cpp ****         }
 505              		.loc 1 47 32 is_stmt 0
 506 0044 83B70402 		ld	a5,32(s1)
  47:test/ConsumerProducer_CPP_API_test.cpp ****         }
 507              		.loc 1 47 36
 508 0048 83A70700 		lw	a5,0(a5)
  47:test/ConsumerProducer_CPP_API_test.cpp ****         }
 509              		.loc 1 47 30
 510 004c BB87E700 		addw	a5,a5,a4
  47:test/ConsumerProducer_CPP_API_test.cpp ****         }
 511              		.loc 1 47 26
 512 0050 13055000 		li	a0,5
 513 0054 3BE5A702 		remw	a0,a5,a0
 514 0058 97000000 		call	_ZN6Thread5sleepEm
 514      E7800000 
 515              	.LVL53:
 516              	.L27:
  44:test/ConsumerProducer_CPP_API_test.cpp ****             td->buffer->put(td->id + '0');
 517              		.loc 1 44 9 is_stmt 1
  44:test/ConsumerProducer_CPP_API_test.cpp ****             td->buffer->put(td->id + '0');
 518              		.loc 1 44 16
 519 0060 97070000 		lw	a5,_ZL9threadEnd
 519      83A70700 
 520 0068 E38E07FA 		beq	a5,zero,.L29
  50:test/ConsumerProducer_CPP_API_test.cpp ****     }
 521              		.loc 1 50 9
 522 006c 83B70402 		ld	a5,32(s1)
  50:test/ConsumerProducer_CPP_API_test.cpp ****     }
 523              		.loc 1 50 24 is_stmt 0
 524 0070 03B50701 		ld	a0,16(a5)
 525 0074 97000000 		call	_ZN9Semaphore6signalEv
 525      E7800000 
 526              	.LVL54:
  51:test/ConsumerProducer_CPP_API_test.cpp **** };
 527              		.loc 1 51 5
 528 007c 83308101 		ld	ra,24(sp)
 529              		.cfi_restore 1
 530 0080 03340101 		ld	s0,16(sp)
 531              		.cfi_restore 8
 532              		.cfi_def_cfa 2, 32
 533 0084 83348100 		ld	s1,8(sp)
 534              		.cfi_restore 9
 535              	.LVL55:
 536 0088 03390100 		ld	s2,0(sp)
 537              		.cfi_restore 18
 538              	.LVL56:
GAS LISTING C:\msys64\tmp\ccpioIaW.s 			page 13


 539 008c 13010102 		addi	sp,sp,32
 540              		.cfi_def_cfa_offset 0
 541 0090 67800000 		jr	ra
 542              		.cfi_endproc
 543              	.LFE9:
 545              		.section	.rodata.str1.8,"aMS",@progbits,1
 546              		.align	3
 547              	.LC0:
 548 0000 556E6573 		.string	"Unesite broj proizvodjaca?\n"
 548      69746520 
 548      62726F6A 
 548      2070726F 
 548      697A766F 
 549 001c 00000000 		.align	3
 550              	.LC1:
 551 0020 556E6573 		.string	"Unesite velicinu bafera?\n"
 551      69746520 
 551      76656C69 
 551      63696E75 
 551      20626166 
 552 003a 00000000 		.align	3
 552      0000
 553              	.LC2:
 554 0040 42726F6A 		.string	"Broj proizvodjaca "
 554      2070726F 
 554      697A766F 
 554      646A6163 
 554      612000
 555 0053 00000000 		.align	3
 555      00
 556              	.LC3:
 557 0058 20692076 		.string	" i velicina bafera "
 557      656C6963 
 557      696E6120 
 557      62616665 
 557      72612000 
 558 006c 00000000 		.align	3
 559              	.LC4:
 560 0070 2E0A00   		.string	".\n"
 561 0073 00000000 		.align	3
 561      00
 562              	.LC5:
 563 0078 42726F6A 		.string	"Broj proizvodjaca ne sme biti manji od velicine bafera!\n"
 563      2070726F 
 563      697A766F 
 563      646A6163 
 563      61206E65 
 564 00b1 00000000 		.align	3
 564      000000
 565              	.LC6:
 566 00b8 42726F6A 		.string	"Broj proizvodjaca mora biti veci od nula!\n"
 566      2070726F 
 566      697A766F 
 566      646A6163 
 566      61206D6F 
 567              		.text
 568              		.align	2
GAS LISTING C:\msys64\tmp\ccpioIaW.s 			page 14


 569              		.globl	_Z20testConsumerProducerv
 571              	_Z20testConsumerProducerv:
 572              	.LFB14:
  79:test/ConsumerProducer_CPP_API_test.cpp **** };
  80:test/ConsumerProducer_CPP_API_test.cpp **** 
  81:test/ConsumerProducer_CPP_API_test.cpp **** void testConsumerProducer() {
 573              		.loc 1 81 29 is_stmt 1
 574              		.cfi_startproc
 575              		.cfi_personality 0x9b,DW.ref.__gxx_personality_v0
 576              		.cfi_lsda 0x1b,.LLSDA14
 577 0000 130101F8 		addi	sp,sp,-128
 578              		.cfi_def_cfa_offset 128
 579 0004 233C1106 		sd	ra,120(sp)
 580 0008 23388106 		sd	s0,112(sp)
 581 000c 23349106 		sd	s1,104(sp)
 582 0010 23302107 		sd	s2,96(sp)
 583 0014 233C3105 		sd	s3,88(sp)
 584 0018 23384105 		sd	s4,80(sp)
 585 001c 23345105 		sd	s5,72(sp)
 586 0020 23306105 		sd	s6,64(sp)
 587 0024 233C7103 		sd	s7,56(sp)
 588 0028 23388103 		sd	s8,48(sp)
 589 002c 23349103 		sd	s9,40(sp)
 590              		.cfi_offset 1, -8
 591              		.cfi_offset 8, -16
 592              		.cfi_offset 9, -24
 593              		.cfi_offset 18, -32
 594              		.cfi_offset 19, -40
 595              		.cfi_offset 20, -48
 596              		.cfi_offset 21, -56
 597              		.cfi_offset 22, -64
 598              		.cfi_offset 23, -72
 599              		.cfi_offset 24, -80
 600              		.cfi_offset 25, -88
 601 0030 13040108 		addi	s0,sp,128
 602              		.cfi_def_cfa 8, 0
  82:test/ConsumerProducer_CPP_API_test.cpp ****     char input[30];
  83:test/ConsumerProducer_CPP_API_test.cpp ****     int n, threadNum;
  84:test/ConsumerProducer_CPP_API_test.cpp **** 
  85:test/ConsumerProducer_CPP_API_test.cpp ****     printString("Unesite broj proizvodjaca?\n");
  86:test/ConsumerProducer_CPP_API_test.cpp ****     getString(input, 30);
  87:test/ConsumerProducer_CPP_API_test.cpp ****     threadNum = stringToInt(input);
  88:test/ConsumerProducer_CPP_API_test.cpp **** 
  89:test/ConsumerProducer_CPP_API_test.cpp ****     printString("Unesite velicinu bafera?\n");
  90:test/ConsumerProducer_CPP_API_test.cpp ****     getString(input, 30);
  91:test/ConsumerProducer_CPP_API_test.cpp ****     n = stringToInt(input);
  92:test/ConsumerProducer_CPP_API_test.cpp **** 
  93:test/ConsumerProducer_CPP_API_test.cpp ****     printString("Broj proizvodjaca ");
  94:test/ConsumerProducer_CPP_API_test.cpp ****     printInt(threadNum);
  95:test/ConsumerProducer_CPP_API_test.cpp ****     printString(" i velicina bafera ");
  96:test/ConsumerProducer_CPP_API_test.cpp ****     printInt(n);
  97:test/ConsumerProducer_CPP_API_test.cpp ****     printString(".\n");
  98:test/ConsumerProducer_CPP_API_test.cpp **** 
  99:test/ConsumerProducer_CPP_API_test.cpp ****     if (threadNum > n) {
 100:test/ConsumerProducer_CPP_API_test.cpp ****         printString("Broj proizvodjaca ne sme biti manji od velicine bafera!\n");
 101:test/ConsumerProducer_CPP_API_test.cpp ****         return;
 102:test/ConsumerProducer_CPP_API_test.cpp ****     } else if (threadNum < 1) {
GAS LISTING C:\msys64\tmp\ccpioIaW.s 			page 15


 103:test/ConsumerProducer_CPP_API_test.cpp ****         printString("Broj proizvodjaca mora biti veci od nula!\n");
 104:test/ConsumerProducer_CPP_API_test.cpp ****         return;
 105:test/ConsumerProducer_CPP_API_test.cpp ****     }
 106:test/ConsumerProducer_CPP_API_test.cpp **** 
 107:test/ConsumerProducer_CPP_API_test.cpp ****     BufferCPP *buffer = new BufferCPP(n);
 108:test/ConsumerProducer_CPP_API_test.cpp **** 
 109:test/ConsumerProducer_CPP_API_test.cpp ****     waitForAll = new Semaphore(0);
 110:test/ConsumerProducer_CPP_API_test.cpp ****     Thread *producers[threadNum];
 111:test/ConsumerProducer_CPP_API_test.cpp ****     thread_data threadData[threadNum + 1];
 112:test/ConsumerProducer_CPP_API_test.cpp **** 
 113:test/ConsumerProducer_CPP_API_test.cpp ****     threadData[threadNum].id = threadNum;
 114:test/ConsumerProducer_CPP_API_test.cpp ****     threadData[threadNum].buffer = buffer;
 115:test/ConsumerProducer_CPP_API_test.cpp ****     threadData[threadNum].sem = waitForAll;
 116:test/ConsumerProducer_CPP_API_test.cpp ****     Thread *consumer = new Consumer(&threadData[threadNum]);
 117:test/ConsumerProducer_CPP_API_test.cpp ****     consumer->start();
 118:test/ConsumerProducer_CPP_API_test.cpp **** 
 119:test/ConsumerProducer_CPP_API_test.cpp ****     threadData[0].id = 0;
 120:test/ConsumerProducer_CPP_API_test.cpp ****     threadData[0].buffer = buffer;
 121:test/ConsumerProducer_CPP_API_test.cpp ****     threadData[0].sem = waitForAll;
 122:test/ConsumerProducer_CPP_API_test.cpp ****     producers[0] = new ProducerKeyborad(&threadData[0]);
 123:test/ConsumerProducer_CPP_API_test.cpp ****     producers[0]->start();
 124:test/ConsumerProducer_CPP_API_test.cpp **** 
 125:test/ConsumerProducer_CPP_API_test.cpp ****     for (int i = 1; i < threadNum; i++) {
 126:test/ConsumerProducer_CPP_API_test.cpp ****         threadData[i].id = i;
 127:test/ConsumerProducer_CPP_API_test.cpp ****         threadData[i].buffer = buffer;
 128:test/ConsumerProducer_CPP_API_test.cpp ****         threadData[i].sem = waitForAll;
 129:test/ConsumerProducer_CPP_API_test.cpp **** 
 130:test/ConsumerProducer_CPP_API_test.cpp ****         producers[i] = new Producer(&threadData[i]);
 131:test/ConsumerProducer_CPP_API_test.cpp ****         producers[i]->start();
 132:test/ConsumerProducer_CPP_API_test.cpp **** 
 133:test/ConsumerProducer_CPP_API_test.cpp ****     }
 134:test/ConsumerProducer_CPP_API_test.cpp **** 
 135:test/ConsumerProducer_CPP_API_test.cpp ****     Thread::dispatch();
 136:test/ConsumerProducer_CPP_API_test.cpp **** 
 137:test/ConsumerProducer_CPP_API_test.cpp ****     for (int i = 0; i <= threadNum; i++) {
 138:test/ConsumerProducer_CPP_API_test.cpp ****         waitForAll->wait();
 139:test/ConsumerProducer_CPP_API_test.cpp ****     }
 140:test/ConsumerProducer_CPP_API_test.cpp **** 
 141:test/ConsumerProducer_CPP_API_test.cpp ****     delete waitForAll;
 142:test/ConsumerProducer_CPP_API_test.cpp ****     for (int i = 0; i < threadNum; i++) {
 143:test/ConsumerProducer_CPP_API_test.cpp ****         delete producers[i];
 144:test/ConsumerProducer_CPP_API_test.cpp ****     }
 145:test/ConsumerProducer_CPP_API_test.cpp ****     delete consumer;
 146:test/ConsumerProducer_CPP_API_test.cpp ****     delete buffer;
 603              		.loc 1 146 18 is_stmt 0
 604 0034 130C0100 		mv	s8,sp
  82:test/ConsumerProducer_CPP_API_test.cpp ****     char input[30];
 605              		.loc 1 82 5 is_stmt 1
  83:test/ConsumerProducer_CPP_API_test.cpp **** 
 606              		.loc 1 83 5
  85:test/ConsumerProducer_CPP_API_test.cpp ****     getString(input, 30);
 607              		.loc 1 85 5
  85:test/ConsumerProducer_CPP_API_test.cpp ****     getString(input, 30);
 608              		.loc 1 85 16 is_stmt 0
 609 0038 17050000 		lla	a0,.LC0
 609      13050500 
 610              	.LEHB0:
GAS LISTING C:\msys64\tmp\ccpioIaW.s 			page 16


 611 0040 97000000 		call	_Z11printStringPKc
 611      E7800000 
 612              	.LVL57:
  86:test/ConsumerProducer_CPP_API_test.cpp ****     threadNum = stringToInt(input);
 613              		.loc 1 86 5 is_stmt 1
  86:test/ConsumerProducer_CPP_API_test.cpp ****     threadNum = stringToInt(input);
 614              		.loc 1 86 14 is_stmt 0
 615 0048 9305E001 		li	a1,30
 616 004c 130504F8 		addi	a0,s0,-128
 617 0050 97000000 		call	_Z9getStringPci
 617      E7800000 
 618              	.LVL58:
  87:test/ConsumerProducer_CPP_API_test.cpp **** 
 619              		.loc 1 87 5 is_stmt 1
  87:test/ConsumerProducer_CPP_API_test.cpp **** 
 620              		.loc 1 87 28 is_stmt 0
 621 0058 130504F8 		addi	a0,s0,-128
 622 005c 97000000 		call	_Z11stringToIntPKc
 622      E7800000 
 623              	.LVL59:
 624 0064 93090500 		mv	s3,a0
 625              	.LVL60:
  89:test/ConsumerProducer_CPP_API_test.cpp ****     getString(input, 30);
 626              		.loc 1 89 5 is_stmt 1
  89:test/ConsumerProducer_CPP_API_test.cpp ****     getString(input, 30);
 627              		.loc 1 89 16 is_stmt 0
 628 0068 17050000 		lla	a0,.LC1
 628      13050500 
 629 0070 97000000 		call	_Z11printStringPKc
 629      E7800000 
 630              	.LVL61:
  90:test/ConsumerProducer_CPP_API_test.cpp ****     n = stringToInt(input);
 631              		.loc 1 90 5 is_stmt 1
  90:test/ConsumerProducer_CPP_API_test.cpp ****     n = stringToInt(input);
 632              		.loc 1 90 14 is_stmt 0
 633 0078 9305E001 		li	a1,30
 634 007c 130504F8 		addi	a0,s0,-128
 635 0080 97000000 		call	_Z9getStringPci
 635      E7800000 
 636              	.LVL62:
  91:test/ConsumerProducer_CPP_API_test.cpp **** 
 637              		.loc 1 91 5 is_stmt 1
  91:test/ConsumerProducer_CPP_API_test.cpp **** 
 638              		.loc 1 91 20 is_stmt 0
 639 0088 130504F8 		addi	a0,s0,-128
 640 008c 97000000 		call	_Z11stringToIntPKc
 640      E7800000 
 641              	.LVL63:
 642 0094 93040500 		mv	s1,a0
 643              	.LVL64:
  93:test/ConsumerProducer_CPP_API_test.cpp ****     printInt(threadNum);
 644              		.loc 1 93 5 is_stmt 1
  93:test/ConsumerProducer_CPP_API_test.cpp ****     printInt(threadNum);
 645              		.loc 1 93 16 is_stmt 0
 646 0098 17050000 		lla	a0,.LC2
 646      13050500 
 647 00a0 97000000 		call	_Z11printStringPKc
GAS LISTING C:\msys64\tmp\ccpioIaW.s 			page 17


 647      E7800000 
 648              	.LVL65:
  94:test/ConsumerProducer_CPP_API_test.cpp ****     printString(" i velicina bafera ");
 649              		.loc 1 94 5 is_stmt 1
  94:test/ConsumerProducer_CPP_API_test.cpp ****     printString(" i velicina bafera ");
 650              		.loc 1 94 13 is_stmt 0
 651 00a8 13060000 		li	a2,0
 652 00ac 9305A000 		li	a1,10
 653 00b0 13850900 		mv	a0,s3
 654 00b4 97000000 		call	_Z8printIntiii
 654      E7800000 
 655              	.LVL66:
  95:test/ConsumerProducer_CPP_API_test.cpp ****     printInt(n);
 656              		.loc 1 95 5 is_stmt 1
  95:test/ConsumerProducer_CPP_API_test.cpp ****     printInt(n);
 657              		.loc 1 95 16 is_stmt 0
 658 00bc 17050000 		lla	a0,.LC3
 658      13050500 
 659 00c4 97000000 		call	_Z11printStringPKc
 659      E7800000 
 660              	.LVL67:
  96:test/ConsumerProducer_CPP_API_test.cpp ****     printString(".\n");
 661              		.loc 1 96 5 is_stmt 1
  96:test/ConsumerProducer_CPP_API_test.cpp ****     printString(".\n");
 662              		.loc 1 96 13 is_stmt 0
 663 00cc 13060000 		li	a2,0
 664 00d0 9305A000 		li	a1,10
 665 00d4 13850400 		mv	a0,s1
 666 00d8 97000000 		call	_Z8printIntiii
 666      E7800000 
 667              	.LVL68:
  97:test/ConsumerProducer_CPP_API_test.cpp **** 
 668              		.loc 1 97 5 is_stmt 1
  97:test/ConsumerProducer_CPP_API_test.cpp **** 
 669              		.loc 1 97 16 is_stmt 0
 670 00e0 17050000 		lla	a0,.LC4
 670      13050500 
 671 00e8 97000000 		call	_Z11printStringPKc
 671      E7800000 
 672              	.LVL69:
  99:test/ConsumerProducer_CPP_API_test.cpp ****         printString("Broj proizvodjaca ne sme biti manji od velicine bafera!\n");
 673              		.loc 1 99 5 is_stmt 1
 674 00f0 63C43403 		bgt	s3,s1,.L56
 102:test/ConsumerProducer_CPP_API_test.cpp ****         printString("Broj proizvodjaca mora biti veci od nula!\n");
 675              		.loc 1 102 12
 676 00f4 635C3003 		ble	s3,zero,.L57
 107:test/ConsumerProducer_CPP_API_test.cpp **** 
 677              		.loc 1 107 5
 107:test/ConsumerProducer_CPP_API_test.cpp **** 
 678              		.loc 1 107 40 is_stmt 0
 679 00f8 13058003 		li	a0,56
 680 00fc 97000000 		call	_Znwm
 680      E7800000 
 681              	.LVL70:
 682              	.LEHE0:
 683 0104 930A0500 		mv	s5,a0
 684 0108 93850400 		mv	a1,s1
GAS LISTING C:\msys64\tmp\ccpioIaW.s 			page 18


 685              	.LEHB1:
 686 010c 97000000 		call	_ZN9BufferCPPC1Ei
 686      E7800000 
 687              	.LVL71:
 688              	.LEHE1:
 689 0114 6F000003 		j	.L58
 690              	.L56:
 100:test/ConsumerProducer_CPP_API_test.cpp ****         return;
 691              		.loc 1 100 9 is_stmt 1
 100:test/ConsumerProducer_CPP_API_test.cpp ****         return;
 692              		.loc 1 100 20 is_stmt 0
 693 0118 17050000 		lla	a0,.LC5
 693      13050500 
 694              	.LEHB2:
 695 0120 97000000 		call	_Z11printStringPKc
 695      E7800000 
 696              	.LVL72:
 101:test/ConsumerProducer_CPP_API_test.cpp ****     } else if (threadNum < 1) {
 697              		.loc 1 101 9 is_stmt 1
 698 0128 6F004001 		j	.L32
 699              	.L57:
 103:test/ConsumerProducer_CPP_API_test.cpp ****         return;
 700              		.loc 1 103 9
 103:test/ConsumerProducer_CPP_API_test.cpp ****         return;
 701              		.loc 1 103 20 is_stmt 0
 702 012c 17050000 		lla	a0,.LC6
 702      13050500 
 703 0134 97000000 		call	_Z11printStringPKc
 703      E7800000 
 704              	.LVL73:
 104:test/ConsumerProducer_CPP_API_test.cpp ****     }
 705              		.loc 1 104 9 is_stmt 1
 706              	.L32:
 707 013c 13010C00 		mv	sp,s8
 708 0140 6F004021 		j	.L30
 709              	.L58:
 710              	.LVL74:
 109:test/ConsumerProducer_CPP_API_test.cpp ****     Thread *producers[threadNum];
 711              		.loc 1 109 5 discriminator 3
 109:test/ConsumerProducer_CPP_API_test.cpp ****     Thread *producers[threadNum];
 712              		.loc 1 109 33 is_stmt 0 discriminator 3
 713 0144 13050001 		li	a0,16
 714 0148 97000000 		call	_Znwm
 714      E7800000 
 715              	.LVL75:
 716              	.LEHE2:
 717 0150 13090500 		mv	s2,a0
 718 0154 93050000 		li	a1,0
 719              	.LEHB3:
 720 0158 97000000 		call	_ZN9SemaphoreC1Ej
 720      E7800000 
 721              	.LVL76:
 722              	.LEHE3:
 109:test/ConsumerProducer_CPP_API_test.cpp ****     Thread *producers[threadNum];
 723              		.loc 1 109 16 discriminator 3
 724 0160 97070000 		sd	s2,_ZL10waitForAll,a5
 724      23B02701 
GAS LISTING C:\msys64\tmp\ccpioIaW.s 			page 19


 110:test/ConsumerProducer_CPP_API_test.cpp ****     thread_data threadData[threadNum + 1];
 725              		.loc 1 110 5 is_stmt 1 discriminator 3
 726              	.LVL77:
 110:test/ConsumerProducer_CPP_API_test.cpp ****     thread_data threadData[threadNum + 1];
 727              		.loc 1 110 13 is_stmt 0 discriminator 3
 728 0168 93973900 		slli	a5,s3,3
 729 016c 9387F700 		addi	a5,a5,15
 730 0170 93F707FF 		andi	a5,a5,-16
 731 0174 3301F140 		sub	sp,sp,a5
 732 0178 130A0100 		mv	s4,sp
 733              	.LVL78:
 111:test/ConsumerProducer_CPP_API_test.cpp **** 
 734              		.loc 1 111 5 is_stmt 1 discriminator 3
 111:test/ConsumerProducer_CPP_API_test.cpp **** 
 735              		.loc 1 111 38 is_stmt 0 discriminator 3
 736 017c 1B871900 		addiw	a4,s3,1
 737              	.LVL79:
 111:test/ConsumerProducer_CPP_API_test.cpp **** 
 738              		.loc 1 111 17 discriminator 3
 739 0180 93171700 		slli	a5,a4,1
 740 0184 B387E700 		add	a5,a5,a4
 741 0188 93973700 		slli	a5,a5,3
 742 018c 9387F700 		addi	a5,a5,15
 743 0190 93F707FF 		andi	a5,a5,-16
 744 0194 3301F140 		sub	sp,sp,a5
 745              	.LVL80:
 746 0198 130B0100 		mv	s6,sp
 747              	.LVL81:
 113:test/ConsumerProducer_CPP_API_test.cpp ****     threadData[threadNum].buffer = buffer;
 748              		.loc 1 113 5 is_stmt 1 discriminator 3
 113:test/ConsumerProducer_CPP_API_test.cpp ****     threadData[threadNum].buffer = buffer;
 749              		.loc 1 113 30 is_stmt 0 discriminator 3
 750 019c 93941900 		slli	s1,s3,1
 751              	.LVL82:
 752 01a0 B3843401 		add	s1,s1,s3
 753 01a4 93943400 		slli	s1,s1,3
 754 01a8 B3049B00 		add	s1,s6,s1
 755 01ac 23A03401 		sw	s3,0(s1)
 114:test/ConsumerProducer_CPP_API_test.cpp ****     threadData[threadNum].sem = waitForAll;
 756              		.loc 1 114 5 is_stmt 1 discriminator 3
 114:test/ConsumerProducer_CPP_API_test.cpp ****     threadData[threadNum].sem = waitForAll;
 757              		.loc 1 114 34 is_stmt 0 discriminator 3
 758 01b0 23B45401 		sd	s5,8(s1)
 115:test/ConsumerProducer_CPP_API_test.cpp ****     Thread *consumer = new Consumer(&threadData[threadNum]);
 759              		.loc 1 115 5 is_stmt 1 discriminator 3
 115:test/ConsumerProducer_CPP_API_test.cpp ****     Thread *consumer = new Consumer(&threadData[threadNum]);
 760              		.loc 1 115 31 is_stmt 0 discriminator 3
 761 01b4 23B82401 		sd	s2,16(s1)
 116:test/ConsumerProducer_CPP_API_test.cpp ****     consumer->start();
 762              		.loc 1 116 5 is_stmt 1 discriminator 3
 116:test/ConsumerProducer_CPP_API_test.cpp ****     consumer->start();
 763              		.loc 1 116 59 is_stmt 0 discriminator 3
 764 01b8 13058002 		li	a0,40
 765              	.LEHB4:
 766 01bc 97000000 		call	_Znwm
 766      E7800000 
 767              	.LVL83:
GAS LISTING C:\msys64\tmp\ccpioIaW.s 			page 20


 768              	.LEHE4:
 769 01c4 930B0500 		mv	s7,a0
 770              	.LVL84:
 771              	.LEHB5:
 772              	.LBB34:
 773              	.LBB35:
  57:test/ConsumerProducer_CPP_API_test.cpp **** 
 774              		.loc 1 57 50 discriminator 3
 775 01c8 97000000 		call	_ZN6ThreadC2Ev
 775      E7800000 
 776              	.LVL85:
 777              	.LEHE5:
  57:test/ConsumerProducer_CPP_API_test.cpp **** 
 778              		.loc 1 57 50
 779 01d0 97070000 		lla	a5,_ZTV8Consumer+16
 779      93870700 
 780 01d8 23B0FB00 		sd	a5,0(s7)
 781 01dc 23B09B02 		sd	s1,32(s7)
 782              	.LVL86:
 783              	.LBE35:
 784              	.LBE34:
 117:test/ConsumerProducer_CPP_API_test.cpp **** 
 785              		.loc 1 117 5 is_stmt 1
 117:test/ConsumerProducer_CPP_API_test.cpp **** 
 786              		.loc 1 117 20 is_stmt 0
 787 01e0 13850B00 		mv	a0,s7
 788              	.LEHB6:
 789 01e4 97000000 		call	_ZN6Thread5startEv
 789      E7800000 
 790              	.LVL87:
 119:test/ConsumerProducer_CPP_API_test.cpp ****     threadData[0].buffer = buffer;
 791              		.loc 1 119 5 is_stmt 1
 119:test/ConsumerProducer_CPP_API_test.cpp ****     threadData[0].buffer = buffer;
 792              		.loc 1 119 22 is_stmt 0
 793 01ec 23200B00 		sw	zero,0(s6)
 120:test/ConsumerProducer_CPP_API_test.cpp ****     threadData[0].sem = waitForAll;
 794              		.loc 1 120 5 is_stmt 1
 120:test/ConsumerProducer_CPP_API_test.cpp ****     threadData[0].sem = waitForAll;
 795              		.loc 1 120 26 is_stmt 0
 796 01f0 23345B01 		sd	s5,8(s6)
 121:test/ConsumerProducer_CPP_API_test.cpp ****     producers[0] = new ProducerKeyborad(&threadData[0]);
 797              		.loc 1 121 5 is_stmt 1
 121:test/ConsumerProducer_CPP_API_test.cpp ****     producers[0] = new ProducerKeyborad(&threadData[0]);
 798              		.loc 1 121 23 is_stmt 0
 799 01f4 97070000 		ld	a5,_ZL10waitForAll
 799      83B70700 
 800 01fc 2338FB00 		sd	a5,16(s6)
 122:test/ConsumerProducer_CPP_API_test.cpp ****     producers[0]->start();
 801              		.loc 1 122 5 is_stmt 1
 122:test/ConsumerProducer_CPP_API_test.cpp ****     producers[0]->start();
 802              		.loc 1 122 55 is_stmt 0
 803 0200 13058002 		li	a0,40
 804 0204 97000000 		call	_Znwm
 804      E7800000 
 805              	.LVL88:
 806              	.LEHE6:
 807 020c 93040500 		mv	s1,a0
GAS LISTING C:\msys64\tmp\ccpioIaW.s 			page 21


 808              	.LVL89:
 809              	.LEHB7:
 810              	.LBB36:
 811              	.LBB37:
  20:test/ConsumerProducer_CPP_API_test.cpp **** 
 812              		.loc 1 20 58
 813 0210 97000000 		call	_ZN6ThreadC2Ev
 813      E7800000 
 814              	.LVL90:
 815              	.LEHE7:
 816 0218 97070000 		lla	a5,_ZTV16ProducerKeyborad+16
 816      93870700 
 817 0220 23B0F400 		sd	a5,0(s1)
 818 0224 23B06403 		sd	s6,32(s1)
 819              	.LVL91:
 820              	.LBE37:
 821              	.LBE36:
 122:test/ConsumerProducer_CPP_API_test.cpp ****     producers[0]->start();
 822              		.loc 1 122 18
 823 0228 23309A00 		sd	s1,0(s4)
 123:test/ConsumerProducer_CPP_API_test.cpp **** 
 824              		.loc 1 123 5 is_stmt 1
 123:test/ConsumerProducer_CPP_API_test.cpp **** 
 825              		.loc 1 123 24 is_stmt 0
 826 022c 13850400 		mv	a0,s1
 827              	.LEHB8:
 828 0230 97000000 		call	_ZN6Thread5startEv
 828      E7800000 
 829              	.LVL92:
 830              	.LBB38:
 125:test/ConsumerProducer_CPP_API_test.cpp ****         threadData[i].id = i;
 831              		.loc 1 125 14
 832 0238 13091000 		li	s2,1
 833 023c 6F000003 		j	.L35
 834              	.LVL93:
 835              	.L59:
 836              	.LBB39:
 837              	.LBB40:
  40:test/ConsumerProducer_CPP_API_test.cpp **** 
 838              		.loc 1 40 50
 839 0240 97070000 		lla	a5,_ZTV8Producer+16
 839      93870700 
 840 0248 23B0FC00 		sd	a5,0(s9)
 841 024c 23B09C02 		sd	s1,32(s9)
 842              	.LVL94:
 843              	.LBE40:
 844              	.LBE39:
 130:test/ConsumerProducer_CPP_API_test.cpp ****         producers[i]->start();
 845              		.loc 1 130 22
 846 0250 93173900 		slli	a5,s2,3
 847 0254 B307FA00 		add	a5,s4,a5
 848 0258 23B09701 		sd	s9,0(a5)
 131:test/ConsumerProducer_CPP_API_test.cpp **** 
 849              		.loc 1 131 9 is_stmt 1
 131:test/ConsumerProducer_CPP_API_test.cpp **** 
 850              		.loc 1 131 28 is_stmt 0
 851 025c 13850C00 		mv	a0,s9
GAS LISTING C:\msys64\tmp\ccpioIaW.s 			page 22


 852 0260 97000000 		call	_ZN6Thread5startEv
 852      E7800000 
 853              	.LVL95:
 125:test/ConsumerProducer_CPP_API_test.cpp ****         threadData[i].id = i;
 854              		.loc 1 125 5 is_stmt 1
 855 0268 1B091900 		addiw	s2,s2,1
 856              	.LVL96:
 857              	.L35:
 125:test/ConsumerProducer_CPP_API_test.cpp ****         threadData[i].id = i;
 858              		.loc 1 125 23 discriminator 1
 859 026c 63523905 		bge	s2,s3,.L34
 126:test/ConsumerProducer_CPP_API_test.cpp ****         threadData[i].buffer = buffer;
 860              		.loc 1 126 9
 126:test/ConsumerProducer_CPP_API_test.cpp ****         threadData[i].buffer = buffer;
 861              		.loc 1 126 26 is_stmt 0
 862 0270 93141900 		slli	s1,s2,1
 863 0274 B3842401 		add	s1,s1,s2
 864 0278 93943400 		slli	s1,s1,3
 865 027c B3049B00 		add	s1,s6,s1
 866 0280 23A02401 		sw	s2,0(s1)
 127:test/ConsumerProducer_CPP_API_test.cpp ****         threadData[i].sem = waitForAll;
 867              		.loc 1 127 9 is_stmt 1
 127:test/ConsumerProducer_CPP_API_test.cpp ****         threadData[i].sem = waitForAll;
 868              		.loc 1 127 30 is_stmt 0
 869 0284 23B45401 		sd	s5,8(s1)
 128:test/ConsumerProducer_CPP_API_test.cpp **** 
 870              		.loc 1 128 9 is_stmt 1
 128:test/ConsumerProducer_CPP_API_test.cpp **** 
 871              		.loc 1 128 27 is_stmt 0
 872 0288 97070000 		ld	a5,_ZL10waitForAll
 872      83B70700 
 873 0290 23B8F400 		sd	a5,16(s1)
 130:test/ConsumerProducer_CPP_API_test.cpp ****         producers[i]->start();
 874              		.loc 1 130 9 is_stmt 1
 130:test/ConsumerProducer_CPP_API_test.cpp ****         producers[i]->start();
 875              		.loc 1 130 51 is_stmt 0
 876 0294 13058002 		li	a0,40
 877 0298 97000000 		call	_Znwm
 877      E7800000 
 878              	.LVL97:
 879              	.LEHE8:
 880 02a0 930C0500 		mv	s9,a0
 881              	.LVL98:
 882              	.LEHB9:
 883              	.LBB42:
 884              	.LBB41:
  40:test/ConsumerProducer_CPP_API_test.cpp **** 
 885              		.loc 1 40 50
 886 02a4 97000000 		call	_ZN6ThreadC2Ev
 886      E7800000 
 887              	.LVL99:
 888              	.LEHE9:
 889 02ac 6FF05FF9 		j	.L59
 890              	.LVL100:
 891              	.L34:
 892              	.LBE41:
 893              	.LBE42:
GAS LISTING C:\msys64\tmp\ccpioIaW.s 			page 23


 894              	.LBE38:
 135:test/ConsumerProducer_CPP_API_test.cpp **** 
 895              		.loc 1 135 5 is_stmt 1
 896              	.LEHB10:
 135:test/ConsumerProducer_CPP_API_test.cpp **** 
 897              		.loc 1 135 21 is_stmt 0
 898 02b0 97000000 		call	_ZN6Thread8dispatchEv
 898      E7800000 
 899              	.LVL101:
 900              	.LBB43:
 137:test/ConsumerProducer_CPP_API_test.cpp ****         waitForAll->wait();
 901              		.loc 1 137 14
 902 02b8 93040000 		li	s1,0
 903 02bc 6F008001 		j	.L37
 904              	.LVL102:
 905              	.L60:
 138:test/ConsumerProducer_CPP_API_test.cpp ****     }
 906              		.loc 1 138 9 is_stmt 1
 138:test/ConsumerProducer_CPP_API_test.cpp ****     }
 907              		.loc 1 138 25 is_stmt 0
 908 02c0 17050000 		ld	a0,_ZL10waitForAll
 908      03350500 
 909 02c8 97000000 		call	_ZN9Semaphore4waitEv
 909      E7800000 
 910              	.LVL103:
 137:test/ConsumerProducer_CPP_API_test.cpp ****         waitForAll->wait();
 911              		.loc 1 137 5 is_stmt 1
 912 02d0 9B841400 		addiw	s1,s1,1
 913              	.LVL104:
 914              	.L37:
 137:test/ConsumerProducer_CPP_API_test.cpp ****         waitForAll->wait();
 915              		.loc 1 137 23 discriminator 1
 916 02d4 E3D699FE 		ble	s1,s3,.L60
 917              	.LBE43:
 141:test/ConsumerProducer_CPP_API_test.cpp ****     for (int i = 0; i < threadNum; i++) {
 918              		.loc 1 141 5
 141:test/ConsumerProducer_CPP_API_test.cpp ****     for (int i = 0; i < threadNum; i++) {
 919              		.loc 1 141 12 is_stmt 0
 920 02d8 17050000 		ld	a0,_ZL10waitForAll
 920      03350500 
 141:test/ConsumerProducer_CPP_API_test.cpp ****     for (int i = 0; i < threadNum; i++) {
 921              		.loc 1 141 5
 922 02e0 63080500 		beq	a0,zero,.L38
 141:test/ConsumerProducer_CPP_API_test.cpp ****     for (int i = 0; i < threadNum; i++) {
 923              		.loc 1 141 12 discriminator 1
 924 02e4 83370500 		ld	a5,0(a0)
 925 02e8 83B78700 		ld	a5,8(a5)
 926 02ec E7800700 		jalr	a5
 927              	.LVL105:
 928              	.L38:
 929              	.LBB44:
 137:test/ConsumerProducer_CPP_API_test.cpp ****         waitForAll->wait();
 930              		.loc 1 137 14 discriminator 1
 931 02f0 93040000 		li	s1,0
 932              	.LVL106:
 933 02f4 6F008000 		j	.L41
 934              	.LVL107:
GAS LISTING C:\msys64\tmp\ccpioIaW.s 			page 24


 935              	.L40:
 936              	.LBE44:
 937              	.LBB45:
 142:test/ConsumerProducer_CPP_API_test.cpp ****         delete producers[i];
 938              		.loc 1 142 5 is_stmt 1 discriminator 2
 939 02f8 9B841400 		addiw	s1,s1,1
 940              	.LVL108:
 941              	.L41:
 142:test/ConsumerProducer_CPP_API_test.cpp ****         delete producers[i];
 942              		.loc 1 142 23 discriminator 1
 943 02fc 63D23403 		bge	s1,s3,.L39
 143:test/ConsumerProducer_CPP_API_test.cpp ****     }
 944              		.loc 1 143 9
 143:test/ConsumerProducer_CPP_API_test.cpp ****     }
 945              		.loc 1 143 27 is_stmt 0
 946 0300 93973400 		slli	a5,s1,3
 947 0304 B307FA00 		add	a5,s4,a5
 948 0308 03B50700 		ld	a0,0(a5)
 143:test/ConsumerProducer_CPP_API_test.cpp ****     }
 949              		.loc 1 143 9
 950 030c E30605FE 		beq	a0,zero,.L40
 143:test/ConsumerProducer_CPP_API_test.cpp ****     }
 951              		.loc 1 143 27 discriminator 1
 952 0310 83370500 		ld	a5,0(a0)
 953 0314 83B78700 		ld	a5,8(a5)
 954 0318 E7800700 		jalr	a5
 955              	.LVL109:
 956 031c 6FF0DFFD 		j	.L40
 957              	.L39:
 958              	.LBE45:
 145:test/ConsumerProducer_CPP_API_test.cpp ****     delete buffer;
 959              		.loc 1 145 5 is_stmt 1
 960 0320 638A0B00 		beq	s7,zero,.L42
 145:test/ConsumerProducer_CPP_API_test.cpp ****     delete buffer;
 961              		.loc 1 145 12 is_stmt 0 discriminator 1
 962 0324 83B70B00 		ld	a5,0(s7)
 963 0328 83B78700 		ld	a5,8(a5)
 964 032c 13850B00 		mv	a0,s7
 965 0330 E7800700 		jalr	a5
 966              	.LVL110:
 967              	.L42:
 968              		.loc 1 146 5 is_stmt 1
 969 0334 638E0A00 		beq	s5,zero,.L43
 970              		.loc 1 146 12 is_stmt 0 discriminator 1
 971 0338 13850A00 		mv	a0,s5
 972 033c 97000000 		call	_ZN9BufferCPPD1Ev
 972      E7800000 
 973              	.LVL111:
 974 0344 13850A00 		mv	a0,s5
 975 0348 97000000 		call	_ZdlPv
 975      E7800000 
 976              	.LVL112:
 977              	.LEHE10:
 978              	.L43:
 979 0350 13010C00 		mv	sp,s8
 980              	.LVL113:
 981              	.L30:
GAS LISTING C:\msys64\tmp\ccpioIaW.s 			page 25


 147:test/ConsumerProducer_CPP_API_test.cpp **** }
 982              		.loc 1 147 1
 983 0354 130104F8 		addi	sp,s0,-128
 984              		.cfi_remember_state
 985              		.cfi_def_cfa 2, 128
 986 0358 83308107 		ld	ra,120(sp)
 987              		.cfi_restore 1
 988 035c 03340107 		ld	s0,112(sp)
 989              		.cfi_restore 8
 990 0360 83348106 		ld	s1,104(sp)
 991              		.cfi_restore 9
 992 0364 03390106 		ld	s2,96(sp)
 993              		.cfi_restore 18
 994 0368 83398105 		ld	s3,88(sp)
 995              		.cfi_restore 19
 996              	.LVL114:
 997 036c 033A0105 		ld	s4,80(sp)
 998              		.cfi_restore 20
 999 0370 833A8104 		ld	s5,72(sp)
 1000              		.cfi_restore 21
 1001 0374 033B0104 		ld	s6,64(sp)
 1002              		.cfi_restore 22
 1003 0378 833B8103 		ld	s7,56(sp)
 1004              		.cfi_restore 23
 1005 037c 033C0103 		ld	s8,48(sp)
 1006              		.cfi_restore 24
 1007 0380 833C8102 		ld	s9,40(sp)
 1008              		.cfi_restore 25
 1009 0384 13010108 		addi	sp,sp,128
 1010              		.cfi_def_cfa_offset 0
 1011 0388 67800000 		jr	ra
 1012              	.LVL115:
 1013              	.L50:
 1014              		.cfi_restore_state
 107:test/ConsumerProducer_CPP_API_test.cpp **** 
 1015              		.loc 1 107 40
 1016 038c 93040500 		mv	s1,a0
 1017              	.LVL116:
 1018 0390 13850A00 		mv	a0,s5
 1019 0394 97000000 		call	_ZdlPv
 1019      E7800000 
 1020              	.LVL117:
 1021 039c 13850400 		mv	a0,s1
 1022              	.LEHB11:
 1023 03a0 97000000 		call	_Unwind_Resume
 1023      E7800000 
 1024              	.LVL118:
 1025              	.LEHE11:
 1026              	.L51:
 109:test/ConsumerProducer_CPP_API_test.cpp ****     Thread *producers[threadNum];
 1027              		.loc 1 109 33
 1028 03a8 93040500 		mv	s1,a0
 1029              	.LVL119:
 1030 03ac 13050900 		mv	a0,s2
 1031 03b0 97000000 		call	_ZdlPv
 1031      E7800000 
 1032              	.LVL120:
GAS LISTING C:\msys64\tmp\ccpioIaW.s 			page 26


 1033 03b8 13850400 		mv	a0,s1
 1034              	.LEHB12:
 1035 03bc 97000000 		call	_Unwind_Resume
 1035      E7800000 
 1036              	.LVL121:
 1037              	.LEHE12:
 1038              	.L52:
 116:test/ConsumerProducer_CPP_API_test.cpp ****     consumer->start();
 1039              		.loc 1 116 59
 1040 03c4 93040500 		mv	s1,a0
 1041              	.LVL122:
 1042 03c8 13850B00 		mv	a0,s7
 1043 03cc 97000000 		call	_ZdlPv
 1043      E7800000 
 1044              	.LVL123:
 1045 03d4 13850400 		mv	a0,s1
 1046              	.LEHB13:
 1047 03d8 97000000 		call	_Unwind_Resume
 1047      E7800000 
 1048              	.LVL124:
 1049              	.LEHE13:
 1050              	.L53:
 122:test/ConsumerProducer_CPP_API_test.cpp ****     producers[0]->start();
 1051              		.loc 1 122 55
 1052 03e0 13090500 		mv	s2,a0
 1053 03e4 13850400 		mv	a0,s1
 1054 03e8 97000000 		call	_ZdlPv
 1054      E7800000 
 1055              	.LVL125:
 1056 03f0 13050900 		mv	a0,s2
 1057              	.LEHB14:
 1058 03f4 97000000 		call	_Unwind_Resume
 1058      E7800000 
 1059              	.LVL126:
 1060              	.LEHE14:
 1061              	.L54:
 1062              	.LBB46:
 130:test/ConsumerProducer_CPP_API_test.cpp ****         producers[i]->start();
 1063              		.loc 1 130 51
 1064 03fc 93040500 		mv	s1,a0
 1065              	.LVL127:
 1066 0400 13850C00 		mv	a0,s9
 1067 0404 97000000 		call	_ZdlPv
 1067      E7800000 
 1068              	.LVL128:
 1069 040c 13850400 		mv	a0,s1
 1070              	.LEHB15:
 1071 0410 97000000 		call	_Unwind_Resume
 1071      E7800000 
 1072              	.LVL129:
 1073              	.LEHE15:
 1074              	.LBE46:
 1075              		.cfi_endproc
 1076              	.LFE14:
 1077              		.globl	__gxx_personality_v0
 1078              		.section	.gcc_except_table,"aw",@progbits
 1079              	.LLSDA14:
GAS LISTING C:\msys64\tmp\ccpioIaW.s 			page 27


 1080 0000 FF       		.byte	0xff
 1081 0001 FF       		.byte	0xff
 1082 0002 03       		.byte	0x3
 1083 0003 D001     		.byte	0xd0,0x1
 1084 0005 00000000 		.4byte	.LEHB0-.LFB14
 1085 0009 00000000 		.4byte	.LEHE0-.LEHB0
 1086 000d 00000000 		.4byte	0
 1087 0011 00       		.byte	0
 1088 0012 00000000 		.4byte	.LEHB1-.LFB14
 1089 0016 00000000 		.4byte	.LEHE1-.LEHB1
 1090 001a 00000000 		.4byte	.L50-.LFB14
 1091 001e 00       		.byte	0
 1092 001f 00000000 		.4byte	.LEHB2-.LFB14
 1093 0023 00000000 		.4byte	.LEHE2-.LEHB2
 1094 0027 00000000 		.4byte	0
 1095 002b 00       		.byte	0
 1096 002c 00000000 		.4byte	.LEHB3-.LFB14
 1097 0030 00000000 		.4byte	.LEHE3-.LEHB3
 1098 0034 00000000 		.4byte	.L51-.LFB14
 1099 0038 00       		.byte	0
 1100 0039 00000000 		.4byte	.LEHB4-.LFB14
 1101 003d 00000000 		.4byte	.LEHE4-.LEHB4
 1102 0041 00000000 		.4byte	0
 1103 0045 00       		.byte	0
 1104 0046 00000000 		.4byte	.LEHB5-.LFB14
 1105 004a 00000000 		.4byte	.LEHE5-.LEHB5
 1106 004e 00000000 		.4byte	.L52-.LFB14
 1107 0052 00       		.byte	0
 1108 0053 00000000 		.4byte	.LEHB6-.LFB14
 1109 0057 00000000 		.4byte	.LEHE6-.LEHB6
 1110 005b 00000000 		.4byte	0
 1111 005f 00       		.byte	0
 1112 0060 00000000 		.4byte	.LEHB7-.LFB14
 1113 0064 00000000 		.4byte	.LEHE7-.LEHB7
 1114 0068 00000000 		.4byte	.L53-.LFB14
 1115 006c 00       		.byte	0
 1116 006d 00000000 		.4byte	.LEHB8-.LFB14
 1117 0071 00000000 		.4byte	.LEHE8-.LEHB8
 1118 0075 00000000 		.4byte	0
 1119 0079 00       		.byte	0
 1120 007a 00000000 		.4byte	.LEHB9-.LFB14
 1121 007e 00000000 		.4byte	.LEHE9-.LEHB9
 1122 0082 00000000 		.4byte	.L54-.LFB14
 1123 0086 00       		.byte	0
 1124 0087 00000000 		.4byte	.LEHB10-.LFB14
 1125 008b 00000000 		.4byte	.LEHE10-.LEHB10
 1126 008f 00000000 		.4byte	0
 1127 0093 00       		.byte	0
 1128 0094 00000000 		.4byte	.LEHB11-.LFB14
 1129 0098 00000000 		.4byte	.LEHE11-.LEHB11
 1130 009c 00000000 		.4byte	0
 1131 00a0 00       		.byte	0
 1132 00a1 00000000 		.4byte	.LEHB12-.LFB14
 1133 00a5 00000000 		.4byte	.LEHE12-.LEHB12
 1134 00a9 00000000 		.4byte	0
 1135 00ad 00       		.byte	0
 1136 00ae 00000000 		.4byte	.LEHB13-.LFB14
GAS LISTING C:\msys64\tmp\ccpioIaW.s 			page 28


 1137 00b2 00000000 		.4byte	.LEHE13-.LEHB13
 1138 00b6 00000000 		.4byte	0
 1139 00ba 00       		.byte	0
 1140 00bb 00000000 		.4byte	.LEHB14-.LFB14
 1141 00bf 00000000 		.4byte	.LEHE14-.LEHB14
 1142 00c3 00000000 		.4byte	0
 1143 00c7 00       		.byte	0
 1144 00c8 00000000 		.4byte	.LEHB15-.LFB14
 1145 00cc 00000000 		.4byte	.LEHE15-.LEHB15
 1146 00d0 00000000 		.4byte	0
 1147 00d4 00       		.byte	0
 1148              		.text
 1150              		.weak	_ZTV16ProducerKeyborad
 1151              		.section	.rodata._ZTV16ProducerKeyborad,"aG",@progbits,_ZTV16ProducerKeyborad,comdat
 1152              		.align	3
 1155              	_ZTV16ProducerKeyborad:
 1156 0000 00000000 		.dword	0
 1156      00000000 
 1157 0008 00000000 		.dword	0
 1157      00000000 
 1158 0010 00000000 		.dword	_ZN16ProducerKeyboradD1Ev
 1158      00000000 
 1159 0018 00000000 		.dword	_ZN16ProducerKeyboradD0Ev
 1159      00000000 
 1160 0020 00000000 		.dword	_ZN16ProducerKeyborad3runEv
 1160      00000000 
 1161              		.weak	_ZTV8Producer
 1162              		.section	.rodata._ZTV8Producer,"aG",@progbits,_ZTV8Producer,comdat
 1163              		.align	3
 1166              	_ZTV8Producer:
 1167 0000 00000000 		.dword	0
 1167      00000000 
 1168 0008 00000000 		.dword	0
 1168      00000000 
 1169 0010 00000000 		.dword	_ZN8ProducerD1Ev
 1169      00000000 
 1170 0018 00000000 		.dword	_ZN8ProducerD0Ev
 1170      00000000 
 1171 0020 00000000 		.dword	_ZN8Producer3runEv
 1171      00000000 
 1172              		.weak	_ZTV8Consumer
 1173              		.section	.rodata._ZTV8Consumer,"aG",@progbits,_ZTV8Consumer,comdat
 1174              		.align	3
 1177              	_ZTV8Consumer:
 1178 0000 00000000 		.dword	0
 1178      00000000 
 1179 0008 00000000 		.dword	0
 1179      00000000 
 1180 0010 00000000 		.dword	_ZN8ConsumerD1Ev
 1180      00000000 
 1181 0018 00000000 		.dword	_ZN8ConsumerD0Ev
 1181      00000000 
 1182 0020 00000000 		.dword	_ZN8Consumer3runEv
 1182      00000000 
 1183              		.section	.sbss,"aw",@nobits
 1184              		.align	3
 1187              	_ZL9threadEnd:
GAS LISTING C:\msys64\tmp\ccpioIaW.s 			page 29


 1188 0000 00000000 		.zero	4
 1189 0004 00000000 		.zero	4
 1192              	_ZL10waitForAll:
 1193 0008 00000000 		.zero	8
 1193      00000000 
 1194              		.text
 1195              	.Letext0:
 1196              		.file 2 "test/../h/../lib/hw.h"
 1197              		.file 3 "test/../h/syscall_cpp.hpp"
 1198              		.file 4 "test/buffer_CPP_API.hpp"
 1199              		.file 5 "test/../h/syscall_c.h"
 1200              		.file 6 "test/printing.hpp"
 4732              		.align	3
 4735              	DW.ref.__gxx_personality_v0:
 4736 0000 00000000 		.dword	__gxx_personality_v0
 4736      00000000 
 4737              		.ident	"GCC: (GNU) 10.1.0"
GAS LISTING C:\msys64\tmp\ccpioIaW.s 			page 30

