GAS LISTING C:\msys64\tmp\cctfsZud.s 			page 1


   1              		.file	"printing.cpp"
   2              		.option nopic
   3              		.option norelax
   4              		.attribute arch, "rv64i2p0_m2p0_a2p0"
   5              		.attribute unaligned_access, 0
   6              		.attribute stack_align, 16
   7              		.text
   8              	.Ltext0:
   9              		.align	2
  10              		.globl	_Z11printStringPKc
  12              	_Z11printStringPKc:
  13              	.LFB0:
  14              		.file 1 "test/printing.cpp"
   1:test/printing.cpp **** //
   2:test/printing.cpp **** // Created by os on 5/18/22.
   3:test/printing.cpp **** //
   4:test/printing.cpp **** 
   5:test/printing.cpp **** #include "printing.hpp"
   6:test/printing.cpp **** 
   7:test/printing.cpp **** uint64 lockPrint = 0;
   8:test/printing.cpp **** 
   9:test/printing.cpp **** #define LOCK() while(copy_and_swap(lockPrint, 0, 1)) thread_dispatch()
  10:test/printing.cpp **** #define UNLOCK() while(copy_and_swap(lockPrint, 1, 0))
  11:test/printing.cpp **** 
  12:test/printing.cpp **** void printString(char const *string)
  13:test/printing.cpp **** {
  15              		.loc 1 13 1
  16              		.cfi_startproc
  17              	.LVL0:
  18 0000 130101FE 		addi	sp,sp,-32
  19              		.cfi_def_cfa_offset 32
  20 0004 233C1100 		sd	ra,24(sp)
  21 0008 23388100 		sd	s0,16(sp)
  22 000c 23349100 		sd	s1,8(sp)
  23              		.cfi_offset 1, -8
  24              		.cfi_offset 8, -16
  25              		.cfi_offset 9, -24
  26 0010 13040102 		addi	s0,sp,32
  27              		.cfi_def_cfa 8, 0
  28 0014 93040500 		mv	s1,a0
  29 0018 6F00C000 		j	.L3
  30              	.LVL1:
  31              	.L6:
  14:test/printing.cpp ****     LOCK();
  32              		.loc 1 14 5 discriminator 1
  33 001c 97000000 		call	_Z15thread_dispatchv
  33      E7800000 
  34              	.LVL2:
  35              	.L3:
  36              		.loc 1 14 5 discriminator 2
  37              		.loc 1 14 5 discriminator 2
  38 0024 13061000 		li	a2,1
  39 0028 93050000 		li	a1,0
  40 002c 17050000 		lla	a0,lockPrint
  40      13050500 
  41 0034 97000000 		call	copy_and_swap
  41      E7800000 
GAS LISTING C:\msys64\tmp\cctfsZud.s 			page 2


  42              	.LVL3:
  43 003c E31005FE 		bne	a0,zero,.L6
  44 0040 6F000001 		j	.L2
  45              	.L7:
  15:test/printing.cpp ****     while (*string != '\0')
  16:test/printing.cpp ****     {
  17:test/printing.cpp ****         putc(*string);
  46              		.loc 1 17 9
  47              		.loc 1 17 13 is_stmt 0
  48 0044 97000000 		call	_Z4putcc
  48      E7800000 
  49              	.LVL4:
  18:test/printing.cpp ****         string++;
  50              		.loc 1 18 9 is_stmt 1
  51              		.loc 1 18 15 is_stmt 0
  52 004c 93841400 		addi	s1,s1,1
  53              	.LVL5:
  54              	.L2:
  15:test/printing.cpp ****     while (*string != '\0')
  55              		.loc 1 15 5 is_stmt 1
  15:test/printing.cpp ****     while (*string != '\0')
  56              		.loc 1 15 20
  15:test/printing.cpp ****     while (*string != '\0')
  57              		.loc 1 15 12 is_stmt 0
  58 0050 03C50400 		lbu	a0,0(s1)
  15:test/printing.cpp ****     while (*string != '\0')
  59              		.loc 1 15 20
  60 0054 E31805FE 		bne	a0,zero,.L7
  61              	.L4:
  19:test/printing.cpp ****     }
  20:test/printing.cpp ****     UNLOCK();
  62              		.loc 1 20 5 is_stmt 1
  63              		.loc 1 20 5
  64 0058 13060000 		li	a2,0
  65 005c 93051000 		li	a1,1
  66 0060 17050000 		lla	a0,lockPrint
  66      13050500 
  67 0068 97000000 		call	copy_and_swap
  67      E7800000 
  68              	.LVL6:
  69 0070 E31405FE 		bne	a0,zero,.L4
  21:test/printing.cpp **** }
  70              		.loc 1 21 1 is_stmt 0
  71 0074 83308101 		ld	ra,24(sp)
  72              		.cfi_restore 1
  73 0078 03340101 		ld	s0,16(sp)
  74              		.cfi_restore 8
  75              		.cfi_def_cfa 2, 32
  76 007c 83348100 		ld	s1,8(sp)
  77              		.cfi_restore 9
  78              	.LVL7:
  79 0080 13010102 		addi	sp,sp,32
  80              		.cfi_def_cfa_offset 0
  81 0084 67800000 		jr	ra
  82              		.cfi_endproc
  83              	.LFE0:
  85              		.align	2
GAS LISTING C:\msys64\tmp\cctfsZud.s 			page 3


  86              		.globl	_Z9getStringPci
  88              	_Z9getStringPci:
  89              	.LFB1:
  22:test/printing.cpp **** 
  23:test/printing.cpp **** char* getString(char *buf, int max) {
  90              		.loc 1 23 37 is_stmt 1
  91              		.cfi_startproc
  92              	.LVL8:
  93 0088 130101FD 		addi	sp,sp,-48
  94              		.cfi_def_cfa_offset 48
  95 008c 23341102 		sd	ra,40(sp)
  96 0090 23308102 		sd	s0,32(sp)
  97 0094 233C9100 		sd	s1,24(sp)
  98 0098 23382101 		sd	s2,16(sp)
  99 009c 23343101 		sd	s3,8(sp)
 100 00a0 23304101 		sd	s4,0(sp)
 101              		.cfi_offset 1, -8
 102              		.cfi_offset 8, -16
 103              		.cfi_offset 9, -24
 104              		.cfi_offset 18, -32
 105              		.cfi_offset 19, -40
 106              		.cfi_offset 20, -48
 107 00a4 13040103 		addi	s0,sp,48
 108              		.cfi_def_cfa 8, 0
 109 00a8 93090500 		mv	s3,a0
 110 00ac 138A0500 		mv	s4,a1
 111              	.LVL9:
 112              	.L10:
  24:test/printing.cpp ****     LOCK();
 113              		.loc 1 24 5 discriminator 2
 114              		.loc 1 24 5 discriminator 2
 115 00b0 13061000 		li	a2,1
 116 00b4 93050000 		li	a1,0
 117 00b8 17050000 		lla	a0,lockPrint
 117      13050500 
 118 00c0 97000000 		call	copy_and_swap
 118      E7800000 
 119              	.LVL10:
 120 00c8 63080500 		beq	a0,zero,.L13
 121              		.loc 1 24 5 discriminator 1
 122 00cc 97000000 		call	_Z15thread_dispatchv
 122      E7800000 
 123              	.LVL11:
 124 00d4 6FF0DFFD 		j	.L10
 125              	.L13:
  25:test/printing.cpp ****     int i, cc;
  26:test/printing.cpp ****     char c;
  27:test/printing.cpp **** 
  28:test/printing.cpp ****     for(i=0; i+1 < max; ){
 126              		.loc 1 28 10 is_stmt 0
 127 00d8 13090000 		li	s2,0
 128              	.L9:
 129              	.LVL12:
 130              		.loc 1 28 18 is_stmt 1 discriminator 1
 131 00dc 93040900 		mv	s1,s2
 132              		.loc 1 28 15 is_stmt 0 discriminator 1
 133 00e0 1B091900 		addiw	s2,s2,1
GAS LISTING C:\msys64\tmp\cctfsZud.s 			page 4


 134              	.LVL13:
 135              		.loc 1 28 18 discriminator 1
 136 00e4 635A4903 		bge	s2,s4,.L11
  29:test/printing.cpp ****         cc = getc();
 137              		.loc 1 29 9 is_stmt 1
 138              		.loc 1 29 18 is_stmt 0
 139 00e8 97000000 		call	_Z4getcv
 139      E7800000 
 140              	.LVL14:
  30:test/printing.cpp ****         if(cc < 1)
 141              		.loc 1 30 9 is_stmt 1
 142 00f0 63040502 		beq	a0,zero,.L11
  31:test/printing.cpp ****             break;
  32:test/printing.cpp ****         c = cc;
 143              		.loc 1 32 9
 144              	.LVL15:
  33:test/printing.cpp ****         buf[i++] = c;
 145              		.loc 1 33 9
 146              		.loc 1 33 16 is_stmt 0
 147 00f4 B3849900 		add	s1,s3,s1
 148              		.loc 1 33 18
 149 00f8 2380A400 		sb	a0,0(s1)
  34:test/printing.cpp ****         if(c == '\n' || c == '\r')
 150              		.loc 1 34 9 is_stmt 1
 151 00fc 9307A000 		li	a5,10
 152 0100 630AF500 		beq	a0,a5,.L14
 153              		.loc 1 34 22 is_stmt 0 discriminator 1
 154 0104 9307D000 		li	a5,13
 155 0108 E31AF5FC 		bne	a0,a5,.L9
  33:test/printing.cpp ****         buf[i++] = c;
 156              		.loc 1 33 14
 157 010c 93040900 		mv	s1,s2
 158 0110 6F008000 		j	.L11
 159              	.L14:
 160 0114 93040900 		mv	s1,s2
 161              	.LVL16:
 162              	.L11:
  35:test/printing.cpp ****             break;
  36:test/printing.cpp ****     }
  37:test/printing.cpp ****     buf[i] = '\0';
 163              		.loc 1 37 5 is_stmt 1
 164              		.loc 1 37 10 is_stmt 0
 165 0118 B3849900 		add	s1,s3,s1
 166              	.LVL17:
 167              		.loc 1 37 12
 168 011c 23800400 		sb	zero,0(s1)
 169              	.L12:
  38:test/printing.cpp **** 
  39:test/printing.cpp ****     UNLOCK();
 170              		.loc 1 39 5 is_stmt 1
 171              		.loc 1 39 5
 172 0120 13060000 		li	a2,0
 173 0124 93051000 		li	a1,1
 174 0128 17050000 		lla	a0,lockPrint
 174      13050500 
 175 0130 97000000 		call	copy_and_swap
 175      E7800000 
GAS LISTING C:\msys64\tmp\cctfsZud.s 			page 5


 176              	.LVL18:
 177 0138 E31405FE 		bne	a0,zero,.L12
  40:test/printing.cpp ****     return buf;
 178              		.loc 1 40 5
  41:test/printing.cpp **** }
 179              		.loc 1 41 1 is_stmt 0
 180 013c 13850900 		mv	a0,s3
 181 0140 83308102 		ld	ra,40(sp)
 182              		.cfi_restore 1
 183 0144 03340102 		ld	s0,32(sp)
 184              		.cfi_restore 8
 185              		.cfi_def_cfa 2, 48
 186 0148 83348101 		ld	s1,24(sp)
 187              		.cfi_restore 9
 188 014c 03390101 		ld	s2,16(sp)
 189              		.cfi_restore 18
 190 0150 83398100 		ld	s3,8(sp)
 191              		.cfi_restore 19
 192              	.LVL19:
 193 0154 033A0100 		ld	s4,0(sp)
 194              		.cfi_restore 20
 195 0158 13010103 		addi	sp,sp,48
 196              		.cfi_def_cfa_offset 0
 197 015c 67800000 		jr	ra
 198              		.cfi_endproc
 199              	.LFE1:
 201              		.align	2
 202              		.globl	_Z11stringToIntPKc
 204              	_Z11stringToIntPKc:
 205              	.LFB2:
  42:test/printing.cpp **** 
  43:test/printing.cpp **** int stringToInt(const char *s) {
 206              		.loc 1 43 32 is_stmt 1
 207              		.cfi_startproc
 208              	.LVL20:
 209 0160 130101FF 		addi	sp,sp,-16
 210              		.cfi_def_cfa_offset 16
 211 0164 23348100 		sd	s0,8(sp)
 212              		.cfi_offset 8, -8
 213 0168 13040101 		addi	s0,sp,16
 214              		.cfi_def_cfa 8, 0
 215 016c 93060500 		mv	a3,a0
  44:test/printing.cpp ****     int n;
 216              		.loc 1 44 5
  45:test/printing.cpp **** 
  46:test/printing.cpp ****     n = 0;
 217              		.loc 1 46 5
 218              	.LVL21:
 219              		.loc 1 46 7 is_stmt 0
 220 0170 13050000 		li	a0,0
 221              	.LVL22:
 222 0174 6F00C001 		j	.L18
 223              	.LVL23:
 224              	.L20:
  47:test/printing.cpp ****     while ('0' <= *s && *s <= '9')
  48:test/printing.cpp ****         n = n * 10 + *s++ - '0';
 225              		.loc 1 48 9 is_stmt 1
GAS LISTING C:\msys64\tmp\cctfsZud.s 			page 6


 226              		.loc 1 48 15 is_stmt 0
 227 0178 9B172500 		slliw	a5,a0,2
 228 017c BB87A700 		addw	a5,a5,a0
 229 0180 9B971700 		slliw	a5,a5,1
 230              		.loc 1 48 24
 231 0184 93861600 		addi	a3,a3,1
 232              	.LVL24:
 233              		.loc 1 48 20
 234 0188 BB87C700 		addw	a5,a5,a2
 235              		.loc 1 48 11
 236 018c 1B8507FD 		addiw	a0,a5,-48
 237              	.LVL25:
 238              	.L18:
  47:test/printing.cpp ****     while ('0' <= *s && *s <= '9')
 239              		.loc 1 47 5 is_stmt 1
  47:test/printing.cpp ****     while ('0' <= *s && *s <= '9')
 240              		.loc 1 47 22
  47:test/printing.cpp ****     while ('0' <= *s && *s <= '9')
 241              		.loc 1 47 19 is_stmt 0
 242 0190 03C60600 		lbu	a2,0(a3)
  47:test/printing.cpp ****     while ('0' <= *s && *s <= '9')
 243              		.loc 1 47 22
 244 0194 1B0706FD 		addiw	a4,a2,-48
 245 0198 1377F70F 		andi	a4,a4,0xff
 246 019c 93079000 		li	a5,9
 247 01a0 E3FCE7FC 		bleu	a4,a5,.L20
  49:test/printing.cpp ****     return n;
 248              		.loc 1 49 5 is_stmt 1
  50:test/printing.cpp **** }
 249              		.loc 1 50 1 is_stmt 0
 250 01a4 03348100 		ld	s0,8(sp)
 251              		.cfi_restore 8
 252              		.cfi_def_cfa 2, 16
 253 01a8 13010101 		addi	sp,sp,16
 254              		.cfi_def_cfa_offset 0
 255 01ac 67800000 		jr	ra
 256              		.cfi_endproc
 257              	.LFE2:
 259              		.align	2
 260              		.globl	_Z8printIntiii
 262              	_Z8printIntiii:
 263              	.LFB3:
  51:test/printing.cpp **** 
  52:test/printing.cpp **** char digits[] = "0123456789ABCDEF";
  53:test/printing.cpp **** 
  54:test/printing.cpp **** void printInt(int xx, int base, int sgn)
  55:test/printing.cpp **** {
 264              		.loc 1 55 1 is_stmt 1
 265              		.cfi_startproc
 266              	.LVL26:
 267 01b0 130101FC 		addi	sp,sp,-64
 268              		.cfi_def_cfa_offset 64
 269 01b4 233C1102 		sd	ra,56(sp)
 270 01b8 23388102 		sd	s0,48(sp)
 271 01bc 23349102 		sd	s1,40(sp)
 272 01c0 23302103 		sd	s2,32(sp)
 273 01c4 233C3101 		sd	s3,24(sp)
GAS LISTING C:\msys64\tmp\cctfsZud.s 			page 7


 274              		.cfi_offset 1, -8
 275              		.cfi_offset 8, -16
 276              		.cfi_offset 9, -24
 277              		.cfi_offset 18, -32
 278              		.cfi_offset 19, -40
 279 01c8 13040104 		addi	s0,sp,64
 280              		.cfi_def_cfa 8, 0
 281 01cc 93040500 		mv	s1,a0
 282 01d0 13890500 		mv	s2,a1
 283 01d4 93090600 		mv	s3,a2
 284 01d8 6F00C000 		j	.L23
 285              	.LVL27:
 286              	.L31:
  56:test/printing.cpp ****     LOCK();
 287              		.loc 1 56 5 discriminator 2
 288 01dc 97000000 		call	_Z15thread_dispatchv
 288      E7800000 
 289              	.LVL28:
 290              	.L23:
 291              		.loc 1 56 5
 292              		.loc 1 56 5
 293 01e4 13061000 		li	a2,1
 294 01e8 93050000 		li	a1,0
 295 01ec 17050000 		lla	a0,lockPrint
 295      13050500 
 296 01f4 97000000 		call	copy_and_swap
 296      E7800000 
 297              	.LVL29:
 298 01fc E31005FE 		bne	a0,zero,.L31
  57:test/printing.cpp ****     char buf[16];
 299              		.loc 1 57 5
  58:test/printing.cpp ****     int i, neg;
 300              		.loc 1 58 5
  59:test/printing.cpp ****     uint x;
 301              		.loc 1 59 5
  60:test/printing.cpp **** 
  61:test/printing.cpp ****     neg = 0;
 302              		.loc 1 61 5
 303              	.LVL30:
  62:test/printing.cpp ****     if(sgn && xx < 0){
 304              		.loc 1 62 5
 305 0200 63840900 		beq	s3,zero,.L24
 306              		.loc 1 62 12 is_stmt 0 discriminator 1
 307 0204 63C60406 		blt	s1,zero,.L32
 308              	.L24:
  63:test/printing.cpp ****         neg = 1;
  64:test/printing.cpp ****         x = -xx;
  65:test/printing.cpp ****     } else {
  66:test/printing.cpp ****         x = xx;
 309              		.loc 1 66 9 is_stmt 1
 310              		.loc 1 66 11 is_stmt 0
 311 0208 1B850400 		sext.w	a0,s1
 312              	.LVL31:
  61:test/printing.cpp ****     if(sgn && xx < 0){
 313              		.loc 1 61 9
 314 020c 93050000 		li	a1,0
 315              	.LVL32:
GAS LISTING C:\msys64\tmp\cctfsZud.s 			page 8


 316              	.L25:
  67:test/printing.cpp ****     }
  68:test/printing.cpp **** 
  69:test/printing.cpp ****     i = 0;
 317              		.loc 1 69 5 is_stmt 1
 318              		.loc 1 69 7 is_stmt 0
 319 0210 93040000 		li	s1,0
 320              	.LVL33:
 321              	.L26:
  70:test/printing.cpp ****     do{
 322              		.loc 1 70 5 is_stmt 1
  71:test/printing.cpp ****         buf[i++] = digits[x % base];
 323              		.loc 1 71 9
 324              		.loc 1 71 31 is_stmt 0
 325 0214 9B070900 		sext.w	a5,s2
 326              		.loc 1 71 29
 327 0218 3B772503 		remuw	a4,a0,s2
 328 021c 13860400 		mv	a2,s1
 329              		.loc 1 71 14
 330 0220 9B841400 		addiw	s1,s1,1
 331              	.LVL34:
 332              		.loc 1 71 35
 333 0224 93160702 		slli	a3,a4,32
 334 0228 93D60602 		srli	a3,a3,32
 335 022c 17070000 		lla	a4,.LANCHOR0
 335      13070700 
 336 0234 3307D700 		add	a4,a4,a3
 337 0238 83460700 		lbu	a3,0(a4)
 338              		.loc 1 71 18
 339 023c 130704FD 		addi	a4,s0,-48
 340 0240 3307C700 		add	a4,a4,a2
 341 0244 2308D7FE 		sb	a3,-16(a4)
  72:test/printing.cpp ****     }while((x /= base) != 0);
 342              		.loc 1 72 24 is_stmt 1
 343 0248 1B070500 		sext.w	a4,a0
 344              		.loc 1 72 15 is_stmt 0
 345 024c 3B552503 		divuw	a0,a0,s2
 346              	.LVL35:
 347              		.loc 1 72 24
 348 0250 E372F7FC 		bleu	a5,a4,.L26
  73:test/printing.cpp ****     if(neg)
 349              		.loc 1 73 5 is_stmt 1
 350 0254 638E0502 		beq	a1,zero,.L29
  74:test/printing.cpp ****         buf[i++] = '-';
 351              		.loc 1 74 9
 352              	.LVL36:
 353              		.loc 1 74 18 is_stmt 0
 354 0258 930704FD 		addi	a5,s0,-48
 355 025c B3849700 		add	s1,a5,s1
 356 0260 9307D002 		li	a5,45
 357 0264 2388F4FE 		sb	a5,-16(s1)
 358              		.loc 1 74 14
 359 0268 9B042600 		addiw	s1,a2,2
 360 026c 6F004002 		j	.L29
 361              	.LVL37:
 362              	.L32:
  63:test/printing.cpp ****         x = -xx;
GAS LISTING C:\msys64\tmp\cctfsZud.s 			page 9


 363              		.loc 1 63 9 is_stmt 1
  64:test/printing.cpp ****     } else {
 364              		.loc 1 64 9
  64:test/printing.cpp ****     } else {
 365              		.loc 1 64 11 is_stmt 0
 366 0270 3B059040 		negw	a0,s1
 367              	.LVL38:
  63:test/printing.cpp ****         x = -xx;
 368              		.loc 1 63 13
 369 0274 93051000 		li	a1,1
  64:test/printing.cpp ****     } else {
 370              		.loc 1 64 11
 371 0278 6FF09FF9 		j	.L25
 372              	.LVL39:
 373              	.L33:
  75:test/printing.cpp **** 
  76:test/printing.cpp ****     while(--i >= 0)
  77:test/printing.cpp ****         putc(buf[i]);
 374              		.loc 1 77 9 is_stmt 1
 375              		.loc 1 77 13 is_stmt 0
 376 027c 930704FD 		addi	a5,s0,-48
 377 0280 B3879700 		add	a5,a5,s1
 378 0284 03C507FF 		lbu	a0,-16(a5)
 379 0288 97000000 		call	_Z4putcc
 379      E7800000 
 380              	.LVL40:
 381              	.L29:
  76:test/printing.cpp ****         putc(buf[i]);
 382              		.loc 1 76 5 is_stmt 1
  76:test/printing.cpp ****         putc(buf[i]);
 383              		.loc 1 76 15
 384 0290 9B84F4FF 		addiw	s1,s1,-1
 385              	.LVL41:
 386 0294 E3D404FE 		bge	s1,zero,.L33
 387              	.L28:
  78:test/printing.cpp **** 
  79:test/printing.cpp ****     UNLOCK();
 388              		.loc 1 79 5
 389              		.loc 1 79 5
 390 0298 13060000 		li	a2,0
 391 029c 93051000 		li	a1,1
 392 02a0 17050000 		lla	a0,lockPrint
 392      13050500 
 393 02a8 97000000 		call	copy_and_swap
 393      E7800000 
 394              	.LVL42:
 395 02b0 E31405FE 		bne	a0,zero,.L28
  80:test/printing.cpp **** }...
 396              		.loc 1 80 1 is_stmt 0
 397 02b4 83308103 		ld	ra,56(sp)
 398              		.cfi_restore 1
 399 02b8 03340103 		ld	s0,48(sp)
 400              		.cfi_restore 8
 401              		.cfi_def_cfa 2, 64
 402 02bc 83348102 		ld	s1,40(sp)
 403              		.cfi_restore 9
 404 02c0 03390102 		ld	s2,32(sp)
GAS LISTING C:\msys64\tmp\cctfsZud.s 			page 10


 405              		.cfi_restore 18
 406 02c4 83398101 		ld	s3,24(sp)
 407              		.cfi_restore 19
 408 02c8 13010104 		addi	sp,sp,64
 409              		.cfi_def_cfa_offset 0
 410 02cc 67800000 		jr	ra
 411              		.cfi_endproc
 412              	.LFE3:
 414              		.globl	digits
 415              		.globl	lockPrint
 416              		.data
 417              		.align	3
 418              		.set	.LANCHOR0,. + 0
 421              	digits:
 422 0000 30313233 		.string	"0123456789ABCDEF"
 422      34353637 
 422      38394142 
 422      43444546 
 422      00
 423              		.section	.sbss,"aw",@nobits
 424              		.align	3
 427              	lockPrint:
 428 0000 00000000 		.zero	8
 428      00000000 
 429              		.text
 430              	.Letext0:
 431              		.file 2 "test/../h/../lib/hw.h"
 432              		.file 3 "test/../h/syscall_c.h"
 433              		.file 4 "test/printing.hpp"
GAS LISTING C:\msys64\tmp\cctfsZud.s 			page 11


DEFINED SYMBOLS
                            *ABS*:0000000000000000 printing.cpp
C:\msys64\tmp\cctfsZud.s:12     .text:0000000000000000 _Z11printStringPKc
C:\msys64\tmp\cctfsZud.s:16     .text:0000000000000000 .L0 
C:\msys64\tmp\cctfsZud.s:18     .text:0000000000000000 .L0 
C:\msys64\tmp\cctfsZud.s:19     .text:0000000000000004 .L0 
C:\msys64\tmp\cctfsZud.s:23     .text:0000000000000010 .L0 
C:\msys64\tmp\cctfsZud.s:24     .text:0000000000000010 .L0 
C:\msys64\tmp\cctfsZud.s:25     .text:0000000000000010 .L0 
C:\msys64\tmp\cctfsZud.s:27     .text:0000000000000014 .L0 
C:\msys64\tmp\cctfsZud.s:33     .text:000000000000001c .L0 
C:\msys64\tmp\cctfsZud.s:37     .text:0000000000000024 .L0 
C:\msys64\tmp\cctfsZud.s:38     .text:0000000000000024 .L0 
C:\msys64\tmp\cctfsZud.s:427    .sbss:0000000000000000 lockPrint
C:\msys64\tmp\cctfsZud.s:47     .text:0000000000000044 .L0 
C:\msys64\tmp\cctfsZud.s:48     .text:0000000000000044 .L0 
C:\msys64\tmp\cctfsZud.s:51     .text:000000000000004c .L0 
C:\msys64\tmp\cctfsZud.s:52     .text:000000000000004c .L0 
C:\msys64\tmp\cctfsZud.s:56     .text:0000000000000050 .L0 
C:\msys64\tmp\cctfsZud.s:57     .text:0000000000000050 .L0 
C:\msys64\tmp\cctfsZud.s:58     .text:0000000000000050 .L0 
C:\msys64\tmp\cctfsZud.s:60     .text:0000000000000054 .L0 
C:\msys64\tmp\cctfsZud.s:63     .text:0000000000000058 .L0 
C:\msys64\tmp\cctfsZud.s:64     .text:0000000000000058 .L0 
C:\msys64\tmp\cctfsZud.s:71     .text:0000000000000074 .L0 
C:\msys64\tmp\cctfsZud.s:72     .text:0000000000000078 .L0 
C:\msys64\tmp\cctfsZud.s:74     .text:000000000000007c .L0 
C:\msys64\tmp\cctfsZud.s:75     .text:000000000000007c .L0 
C:\msys64\tmp\cctfsZud.s:77     .text:0000000000000080 .L0 
C:\msys64\tmp\cctfsZud.s:80     .text:0000000000000084 .L0 
C:\msys64\tmp\cctfsZud.s:82     .text:0000000000000088 .L0 
C:\msys64\tmp\cctfsZud.s:88     .text:0000000000000088 _Z9getStringPci
C:\msys64\tmp\cctfsZud.s:91     .text:0000000000000088 .L0 
C:\msys64\tmp\cctfsZud.s:93     .text:0000000000000088 .L0 
C:\msys64\tmp\cctfsZud.s:94     .text:000000000000008c .L0 
C:\msys64\tmp\cctfsZud.s:101    .text:00000000000000a4 .L0 
C:\msys64\tmp\cctfsZud.s:102    .text:00000000000000a4 .L0 
C:\msys64\tmp\cctfsZud.s:103    .text:00000000000000a4 .L0 
C:\msys64\tmp\cctfsZud.s:104    .text:00000000000000a4 .L0 
C:\msys64\tmp\cctfsZud.s:105    .text:00000000000000a4 .L0 
C:\msys64\tmp\cctfsZud.s:106    .text:00000000000000a4 .L0 
C:\msys64\tmp\cctfsZud.s:108    .text:00000000000000a8 .L0 
C:\msys64\tmp\cctfsZud.s:114    .text:00000000000000b0 .L0 
C:\msys64\tmp\cctfsZud.s:115    .text:00000000000000b0 .L0 
C:\msys64\tmp\cctfsZud.s:122    .text:00000000000000cc .L0 
C:\msys64\tmp\cctfsZud.s:127    .text:00000000000000d8 .L0 
C:\msys64\tmp\cctfsZud.s:131    .text:00000000000000dc .L0 
C:\msys64\tmp\cctfsZud.s:133    .text:00000000000000e0 .L0 
C:\msys64\tmp\cctfsZud.s:136    .text:00000000000000e4 .L0 
C:\msys64\tmp\cctfsZud.s:138    .text:00000000000000e8 .L0 
C:\msys64\tmp\cctfsZud.s:139    .text:00000000000000e8 .L0 
C:\msys64\tmp\cctfsZud.s:142    .text:00000000000000f0 .L0 
C:\msys64\tmp\cctfsZud.s:145    .text:00000000000000f4 .L0 
C:\msys64\tmp\cctfsZud.s:146    .text:00000000000000f4 .L0 
C:\msys64\tmp\cctfsZud.s:147    .text:00000000000000f4 .L0 
C:\msys64\tmp\cctfsZud.s:149    .text:00000000000000f8 .L0 
C:\msys64\tmp\cctfsZud.s:151    .text:00000000000000fc .L0 
GAS LISTING C:\msys64\tmp\cctfsZud.s 			page 12


C:\msys64\tmp\cctfsZud.s:154    .text:0000000000000104 .L0 
C:\msys64\tmp\cctfsZud.s:157    .text:000000000000010c .L0 
C:\msys64\tmp\cctfsZud.s:164    .text:0000000000000118 .L0 
C:\msys64\tmp\cctfsZud.s:165    .text:0000000000000118 .L0 
C:\msys64\tmp\cctfsZud.s:168    .text:000000000000011c .L0 
C:\msys64\tmp\cctfsZud.s:171    .text:0000000000000120 .L0 
C:\msys64\tmp\cctfsZud.s:172    .text:0000000000000120 .L0 
C:\msys64\tmp\cctfsZud.s:179    .text:000000000000013c .L0 
C:\msys64\tmp\cctfsZud.s:180    .text:000000000000013c .L0 
C:\msys64\tmp\cctfsZud.s:182    .text:0000000000000144 .L0 
C:\msys64\tmp\cctfsZud.s:184    .text:0000000000000148 .L0 
C:\msys64\tmp\cctfsZud.s:185    .text:0000000000000148 .L0 
C:\msys64\tmp\cctfsZud.s:187    .text:000000000000014c .L0 
C:\msys64\tmp\cctfsZud.s:189    .text:0000000000000150 .L0 
C:\msys64\tmp\cctfsZud.s:191    .text:0000000000000154 .L0 
C:\msys64\tmp\cctfsZud.s:194    .text:0000000000000158 .L0 
C:\msys64\tmp\cctfsZud.s:196    .text:000000000000015c .L0 
C:\msys64\tmp\cctfsZud.s:198    .text:0000000000000160 .L0 
C:\msys64\tmp\cctfsZud.s:204    .text:0000000000000160 _Z11stringToIntPKc
C:\msys64\tmp\cctfsZud.s:207    .text:0000000000000160 .L0 
C:\msys64\tmp\cctfsZud.s:209    .text:0000000000000160 .L0 
C:\msys64\tmp\cctfsZud.s:210    .text:0000000000000164 .L0 
C:\msys64\tmp\cctfsZud.s:212    .text:0000000000000168 .L0 
C:\msys64\tmp\cctfsZud.s:214    .text:000000000000016c .L0 
C:\msys64\tmp\cctfsZud.s:217    .text:0000000000000170 .L0 
C:\msys64\tmp\cctfsZud.s:219    .text:0000000000000170 .L0 
C:\msys64\tmp\cctfsZud.s:220    .text:0000000000000170 .L0 
C:\msys64\tmp\cctfsZud.s:226    .text:0000000000000178 .L0 
C:\msys64\tmp\cctfsZud.s:227    .text:0000000000000178 .L0 
C:\msys64\tmp\cctfsZud.s:231    .text:0000000000000184 .L0 
C:\msys64\tmp\cctfsZud.s:234    .text:0000000000000188 .L0 
C:\msys64\tmp\cctfsZud.s:236    .text:000000000000018c .L0 
C:\msys64\tmp\cctfsZud.s:240    .text:0000000000000190 .L0 
C:\msys64\tmp\cctfsZud.s:241    .text:0000000000000190 .L0 
C:\msys64\tmp\cctfsZud.s:242    .text:0000000000000190 .L0 
C:\msys64\tmp\cctfsZud.s:244    .text:0000000000000194 .L0 
C:\msys64\tmp\cctfsZud.s:249    .text:00000000000001a4 .L0 
C:\msys64\tmp\cctfsZud.s:250    .text:00000000000001a4 .L0 
C:\msys64\tmp\cctfsZud.s:251    .text:00000000000001a8 .L0 
C:\msys64\tmp\cctfsZud.s:252    .text:00000000000001a8 .L0 
C:\msys64\tmp\cctfsZud.s:254    .text:00000000000001ac .L0 
C:\msys64\tmp\cctfsZud.s:256    .text:00000000000001b0 .L0 
C:\msys64\tmp\cctfsZud.s:262    .text:00000000000001b0 _Z8printIntiii
C:\msys64\tmp\cctfsZud.s:265    .text:00000000000001b0 .L0 
C:\msys64\tmp\cctfsZud.s:267    .text:00000000000001b0 .L0 
C:\msys64\tmp\cctfsZud.s:268    .text:00000000000001b4 .L0 
C:\msys64\tmp\cctfsZud.s:274    .text:00000000000001c8 .L0 
C:\msys64\tmp\cctfsZud.s:275    .text:00000000000001c8 .L0 
C:\msys64\tmp\cctfsZud.s:276    .text:00000000000001c8 .L0 
C:\msys64\tmp\cctfsZud.s:277    .text:00000000000001c8 .L0 
C:\msys64\tmp\cctfsZud.s:278    .text:00000000000001c8 .L0 
C:\msys64\tmp\cctfsZud.s:280    .text:00000000000001cc .L0 
C:\msys64\tmp\cctfsZud.s:288    .text:00000000000001dc .L0 
C:\msys64\tmp\cctfsZud.s:292    .text:00000000000001e4 .L0 
C:\msys64\tmp\cctfsZud.s:293    .text:00000000000001e4 .L0 
C:\msys64\tmp\cctfsZud.s:300    .text:0000000000000200 .L0 
C:\msys64\tmp\cctfsZud.s:301    .text:0000000000000200 .L0 
GAS LISTING C:\msys64\tmp\cctfsZud.s 			page 13


C:\msys64\tmp\cctfsZud.s:302    .text:0000000000000200 .L0 
C:\msys64\tmp\cctfsZud.s:304    .text:0000000000000200 .L0 
C:\msys64\tmp\cctfsZud.s:305    .text:0000000000000200 .L0 
C:\msys64\tmp\cctfsZud.s:307    .text:0000000000000204 .L0 
C:\msys64\tmp\cctfsZud.s:310    .text:0000000000000208 .L0 
C:\msys64\tmp\cctfsZud.s:311    .text:0000000000000208 .L0 
C:\msys64\tmp\cctfsZud.s:314    .text:000000000000020c .L0 
C:\msys64\tmp\cctfsZud.s:318    .text:0000000000000210 .L0 
C:\msys64\tmp\cctfsZud.s:319    .text:0000000000000210 .L0 
C:\msys64\tmp\cctfsZud.s:323    .text:0000000000000214 .L0 
C:\msys64\tmp\cctfsZud.s:324    .text:0000000000000214 .L0 
C:\msys64\tmp\cctfsZud.s:325    .text:0000000000000214 .L0 
C:\msys64\tmp\cctfsZud.s:327    .text:0000000000000218 .L0 
C:\msys64\tmp\cctfsZud.s:330    .text:0000000000000220 .L0 
C:\msys64\tmp\cctfsZud.s:333    .text:0000000000000224 .L0 
C:\msys64\tmp\cctfsZud.s:339    .text:000000000000023c .L0 
C:\msys64\tmp\cctfsZud.s:343    .text:0000000000000248 .L0 
C:\msys64\tmp\cctfsZud.s:345    .text:000000000000024c .L0 
C:\msys64\tmp\cctfsZud.s:348    .text:0000000000000250 .L0 
C:\msys64\tmp\cctfsZud.s:350    .text:0000000000000254 .L0 
C:\msys64\tmp\cctfsZud.s:353    .text:0000000000000258 .L0 
C:\msys64\tmp\cctfsZud.s:354    .text:0000000000000258 .L0 
C:\msys64\tmp\cctfsZud.s:359    .text:0000000000000268 .L0 
C:\msys64\tmp\cctfsZud.s:364    .text:0000000000000270 .L0 
C:\msys64\tmp\cctfsZud.s:365    .text:0000000000000270 .L0 
C:\msys64\tmp\cctfsZud.s:366    .text:0000000000000270 .L0 
C:\msys64\tmp\cctfsZud.s:369    .text:0000000000000274 .L0 
C:\msys64\tmp\cctfsZud.s:371    .text:0000000000000278 .L0 
C:\msys64\tmp\cctfsZud.s:375    .text:000000000000027c .L0 
C:\msys64\tmp\cctfsZud.s:376    .text:000000000000027c .L0 
C:\msys64\tmp\cctfsZud.s:383    .text:0000000000000290 .L0 
C:\msys64\tmp\cctfsZud.s:384    .text:0000000000000290 .L0 
C:\msys64\tmp\cctfsZud.s:389    .text:0000000000000298 .L0 
C:\msys64\tmp\cctfsZud.s:390    .text:0000000000000298 .L0 
C:\msys64\tmp\cctfsZud.s:397    .text:00000000000002b4 .L0 
C:\msys64\tmp\cctfsZud.s:398    .text:00000000000002b8 .L0 
C:\msys64\tmp\cctfsZud.s:400    .text:00000000000002bc .L0 
C:\msys64\tmp\cctfsZud.s:401    .text:00000000000002bc .L0 
C:\msys64\tmp\cctfsZud.s:403    .text:00000000000002c0 .L0 
C:\msys64\tmp\cctfsZud.s:405    .text:00000000000002c4 .L0 
C:\msys64\tmp\cctfsZud.s:407    .text:00000000000002c8 .L0 
C:\msys64\tmp\cctfsZud.s:409    .text:00000000000002cc .L0 
C:\msys64\tmp\cctfsZud.s:411    .text:00000000000002d0 .L0 
C:\msys64\tmp\cctfsZud.s:421    .data:0000000000000000 digits
C:\msys64\tmp\cctfsZud.s:418    .data:0000000000000000 .LANCHOR0
C:\msys64\tmp\cctfsZud.s:434    .text:00000000000002d0 .L0 
C:\msys64\tmp\cctfsZud.s:40     .text:000000000000002c .L0 
C:\msys64\tmp\cctfsZud.s:66     .text:0000000000000060 .L0 
C:\msys64\tmp\cctfsZud.s:117    .text:00000000000000b8 .L0 
C:\msys64\tmp\cctfsZud.s:174    .text:0000000000000128 .L0 
C:\msys64\tmp\cctfsZud.s:295    .text:00000000000001ec .L0 
C:\msys64\tmp\cctfsZud.s:335    .text:000000000000022c .L0 
C:\msys64\tmp\cctfsZud.s:392    .text:00000000000002a0 .L0 
C:\msys64\tmp\cctfsZud.s:35     .text:0000000000000024 .L3
C:\msys64\tmp\cctfsZud.s:31     .text:000000000000001c .L6
C:\msys64\tmp\cctfsZud.s:54     .text:0000000000000050 .L2
C:\msys64\tmp\cctfsZud.s:45     .text:0000000000000044 .L7
GAS LISTING C:\msys64\tmp\cctfsZud.s 			page 14


C:\msys64\tmp\cctfsZud.s:61     .text:0000000000000058 .L4
C:\msys64\tmp\cctfsZud.s:125    .text:00000000000000d8 .L13
C:\msys64\tmp\cctfsZud.s:112    .text:00000000000000b0 .L10
C:\msys64\tmp\cctfsZud.s:162    .text:0000000000000118 .L11
C:\msys64\tmp\cctfsZud.s:159    .text:0000000000000114 .L14
C:\msys64\tmp\cctfsZud.s:128    .text:00000000000000dc .L9
C:\msys64\tmp\cctfsZud.s:169    .text:0000000000000120 .L12
C:\msys64\tmp\cctfsZud.s:238    .text:0000000000000190 .L18
C:\msys64\tmp\cctfsZud.s:224    .text:0000000000000178 .L20
C:\msys64\tmp\cctfsZud.s:290    .text:00000000000001e4 .L23
C:\msys64\tmp\cctfsZud.s:286    .text:00000000000001dc .L31
C:\msys64\tmp\cctfsZud.s:308    .text:0000000000000208 .L24
C:\msys64\tmp\cctfsZud.s:362    .text:0000000000000270 .L32
C:\msys64\tmp\cctfsZud.s:321    .text:0000000000000214 .L26
C:\msys64\tmp\cctfsZud.s:381    .text:0000000000000290 .L29
C:\msys64\tmp\cctfsZud.s:316    .text:0000000000000210 .L25
C:\msys64\tmp\cctfsZud.s:373    .text:000000000000027c .L33
C:\msys64\tmp\cctfsZud.s:387    .text:0000000000000298 .L28
C:\msys64\tmp\cctfsZud.s:925    .debug_abbrev:0000000000000000 .Ldebug_abbrev0
C:\msys64\tmp\cctfsZud.s:1532   .debug_str:0000000000000134 .LASF33
C:\msys64\tmp\cctfsZud.s:1552   .debug_str:000000000000027f .LASF34
C:\msys64\tmp\cctfsZud.s:1526   .debug_str:00000000000000f3 .LASF35
C:\msys64\tmp\cctfsZud.s:8      .text:0000000000000000 .Ltext0
C:\msys64\tmp\cctfsZud.s:430    .text:00000000000002d0 .Letext0
C:\msys64\tmp\cctfsZud.s:1486   .debug_line:0000000000000000 .Ldebug_line0
C:\msys64\tmp\cctfsZud.s:1530   .debug_str:0000000000000127 .LASF0
C:\msys64\tmp\cctfsZud.s:1524   .debug_str:00000000000000ee .LASF3
C:\msys64\tmp\cctfsZud.s:1518   .debug_str:00000000000000c6 .LASF1
C:\msys64\tmp\cctfsZud.s:1510   .debug_str:0000000000000097 .LASF2
C:\msys64\tmp\cctfsZud.s:1494   .debug_str:0000000000000030 .LASF4
C:\msys64\tmp\cctfsZud.s:1516   .debug_str:00000000000000b4 .LASF5
C:\msys64\tmp\cctfsZud.s:1490   .debug_str:0000000000000013 .LASF6
C:\msys64\tmp\cctfsZud.s:1488   .debug_str:0000000000000000 .LASF7
C:\msys64\tmp\cctfsZud.s:1506   .debug_str:000000000000007a .LASF8
C:\msys64\tmp\cctfsZud.s:1558   .debug_str:00000000000002a6 .LASF9
C:\msys64\tmp\cctfsZud.s:1522   .debug_str:00000000000000e2 .LASF10
C:\msys64\tmp\cctfsZud.s:1492   .debug_str:000000000000001a .LASF11
C:\msys64\tmp\cctfsZud.s:1538   .debug_str:0000000000000211 .LASF12
C:\msys64\tmp\cctfsZud.s:1508   .debug_str:000000000000008d .LASF14
C:\msys64\tmp\cctfsZud.s:1536   .debug_str:000000000000020c .LASF13
C:\msys64\tmp\cctfsZud.s:1548   .debug_str:0000000000000265 .LASF15
C:\msys64\tmp\cctfsZud.s:1498   .debug_str:0000000000000047 .LASF21
C:\msys64\tmp\cctfsZud.s:1546   .debug_str:0000000000000256 .LASF23
C:\msys64\tmp\cctfsZud.s:263    .text:00000000000001b0 .LFB3
C:\msys64\tmp\cctfsZud.s:412    .text:00000000000002d0 .LFE3
C:\msys64\tmp\cctfsZud.s:1270   .debug_loc:0000000000000000 .LLST8
C:\msys64\tmp\cctfsZud.s:1528   .debug_str:0000000000000122 .LASF16
C:\msys64\tmp\cctfsZud.s:1284   .debug_loc:0000000000000039 .LLST9
C:\msys64\tmp\cctfsZud.s:1298   .debug_loc:0000000000000072 .LLST10
C:\msys64\tmp\cctfsZud.s:1312   .debug_loc:00000000000000ab .LLST11
C:\msys64\tmp\cctfsZud.s:1334   .debug_loc:000000000000010a .LLST12
C:\msys64\tmp\cctfsZud.s:1351   .debug_loc:0000000000000155 .LLST13
C:\msys64\tmp\cctfsZud.s:289    .text:00000000000001e4 .LVL28
C:\msys64\tmp\cctfsZud.s:297    .text:00000000000001fc .LVL29
C:\msys64\tmp\cctfsZud.s:380    .text:0000000000000290 .LVL40
C:\msys64\tmp\cctfsZud.s:394    .text:00000000000002b0 .LVL42
C:\msys64\tmp\cctfsZud.s:1542   .debug_str:000000000000023a .LASF17
GAS LISTING C:\msys64\tmp\cctfsZud.s 			page 15


C:\msys64\tmp\cctfsZud.s:1550   .debug_str:000000000000026c .LASF19
C:\msys64\tmp\cctfsZud.s:205    .text:0000000000000160 .LFB2
C:\msys64\tmp\cctfsZud.s:257    .text:00000000000001b0 .LFE2
C:\msys64\tmp\cctfsZud.s:1380   .debug_loc:00000000000001ac .LLST6
C:\msys64\tmp\cctfsZud.s:1391   .debug_loc:00000000000001e2 .LLST7
C:\msys64\tmp\cctfsZud.s:1514   .debug_str:00000000000000aa .LASF18
C:\msys64\tmp\cctfsZud.s:1496   .debug_str:0000000000000037 .LASF20
C:\msys64\tmp\cctfsZud.s:89     .text:0000000000000088 .LFB1
C:\msys64\tmp\cctfsZud.s:199    .text:0000000000000160 .LFE1
C:\msys64\tmp\cctfsZud.s:1403   .debug_loc:0000000000000219 .LLST1
C:\msys64\tmp\cctfsZud.s:1418   .debug_loc:0000000000000262 .LLST2
C:\msys64\tmp\cctfsZud.s:1432   .debug_loc:000000000000029b .LLST3
C:\msys64\tmp\cctfsZud.s:1443   .debug_loc:00000000000002d1 .LLST4
C:\msys64\tmp\cctfsZud.s:1455   .debug_loc:00000000000002f9 .LLST5
C:\msys64\tmp\cctfsZud.s:119    .text:00000000000000c8 .LVL10
C:\msys64\tmp\cctfsZud.s:123    .text:00000000000000d4 .LVL11
C:\msys64\tmp\cctfsZud.s:140    .text:00000000000000f0 .LVL14
C:\msys64\tmp\cctfsZud.s:176    .text:0000000000000138 .LVL18
C:\msys64\tmp\cctfsZud.s:1556   .debug_str:000000000000029a .LASF22
C:\msys64\tmp\cctfsZud.s:1540   .debug_str:0000000000000227 .LASF24
C:\msys64\tmp\cctfsZud.s:13     .text:0000000000000000 .LFB0
C:\msys64\tmp\cctfsZud.s:83     .text:0000000000000088 .LFE0
C:\msys64\tmp\cctfsZud.s:1502   .debug_str:000000000000005e .LASF25
C:\msys64\tmp\cctfsZud.s:1462   .debug_loc:000000000000031c .LLST0
C:\msys64\tmp\cctfsZud.s:34     .text:0000000000000024 .LVL2
C:\msys64\tmp\cctfsZud.s:42     .text:000000000000003c .LVL3
C:\msys64\tmp\cctfsZud.s:49     .text:000000000000004c .LVL4
C:\msys64\tmp\cctfsZud.s:68     .text:0000000000000070 .LVL6
C:\msys64\tmp\cctfsZud.s:1504   .debug_str:0000000000000065 .LASF26
C:\msys64\tmp\cctfsZud.s:1544   .debug_str:0000000000000246 .LASF28
C:\msys64\tmp\cctfsZud.s:1500   .debug_str:0000000000000050 .LASF27
C:\msys64\tmp\cctfsZud.s:1520   .debug_str:00000000000000d9 .LASF29
C:\msys64\tmp\cctfsZud.s:1534   .debug_str:0000000000000207 .LASF30
C:\msys64\tmp\cctfsZud.s:1554   .debug_str:0000000000000291 .LASF31
C:\msys64\tmp\cctfsZud.s:1512   .debug_str:00000000000000a5 .LASF32
C:\msys64\tmp\cctfsZud.s:266    .text:00000000000001b0 .LVL26
C:\msys64\tmp\cctfsZud.s:285    .text:00000000000001dc .LVL27
C:\msys64\tmp\cctfsZud.s:315    .text:0000000000000210 .LVL32
C:\msys64\tmp\cctfsZud.s:320    .text:0000000000000214 .LVL33
C:\msys64\tmp\cctfsZud.s:331    .text:0000000000000224 .LVL34
C:\msys64\tmp\cctfsZud.s:352    .text:0000000000000258 .LVL36
C:\msys64\tmp\cctfsZud.s:361    .text:0000000000000270 .LVL37
C:\msys64\tmp\cctfsZud.s:385    .text:0000000000000294 .LVL41
C:\msys64\tmp\cctfsZud.s:303    .text:0000000000000200 .LVL30
C:\msys64\tmp\cctfsZud.s:372    .text:000000000000027c .LVL39
C:\msys64\tmp\cctfsZud.s:312    .text:000000000000020c .LVL31
C:\msys64\tmp\cctfsZud.s:346    .text:0000000000000250 .LVL35
C:\msys64\tmp\cctfsZud.s:367    .text:0000000000000274 .LVL38
C:\msys64\tmp\cctfsZud.s:208    .text:0000000000000160 .LVL20
C:\msys64\tmp\cctfsZud.s:221    .text:0000000000000174 .LVL22
C:\msys64\tmp\cctfsZud.s:218    .text:0000000000000170 .LVL21
C:\msys64\tmp\cctfsZud.s:223    .text:0000000000000178 .LVL23
C:\msys64\tmp\cctfsZud.s:92     .text:0000000000000088 .LVL8
C:\msys64\tmp\cctfsZud.s:111    .text:00000000000000b0 .LVL9
C:\msys64\tmp\cctfsZud.s:192    .text:0000000000000154 .LVL19
C:\msys64\tmp\cctfsZud.s:129    .text:00000000000000dc .LVL12
C:\msys64\tmp\cctfsZud.s:134    .text:00000000000000e4 .LVL13
GAS LISTING C:\msys64\tmp\cctfsZud.s 			page 16


C:\msys64\tmp\cctfsZud.s:161    .text:0000000000000118 .LVL16
C:\msys64\tmp\cctfsZud.s:166    .text:000000000000011c .LVL17
C:\msys64\tmp\cctfsZud.s:144    .text:00000000000000f4 .LVL15
C:\msys64\tmp\cctfsZud.s:17     .text:0000000000000000 .LVL0
C:\msys64\tmp\cctfsZud.s:30     .text:000000000000001c .LVL1
C:\msys64\tmp\cctfsZud.s:78     .text:0000000000000080 .LVL7
C:\msys64\tmp\cctfsZud.s:435    .debug_info:0000000000000000 .Ldebug_info0

UNDEFINED SYMBOLS
_Z15thread_dispatchv
copy_and_swap
_Z4putcc
_Z4getcv
