GAS LISTING C:\msys64\tmp\cc5khA4C.s 			page 1


   1              		.file	"System_Mode_test.cpp"
   2              		.option nopic
   3              		.option norelax
   4              		.attribute arch, "rv64i2p0_m2p0_a2p0"
   5              		.attribute unaligned_access, 0
   6              		.attribute stack_align, 16
   7              		.text
   8              	.Ltext0:
   9              		.align	2
  11              	_ZL9fibonaccim:
  12              	.LFB0:
  13              		.file 1 "test/System_Mode_test.cpp"
   1:test/System_Mode_test.cpp **** 
   2:test/System_Mode_test.cpp **** #include "../h/syscall_c.h"
   3:test/System_Mode_test.cpp **** 
   4:test/System_Mode_test.cpp **** #include "printing.hpp"
   5:test/System_Mode_test.cpp **** 
   6:test/System_Mode_test.cpp **** static volatile bool finishedA = false;
   7:test/System_Mode_test.cpp **** static volatile bool finishedB = false;
   8:test/System_Mode_test.cpp **** static volatile bool finishedC = false;
   9:test/System_Mode_test.cpp **** static volatile bool finishedD = false;
  10:test/System_Mode_test.cpp **** 
  11:test/System_Mode_test.cpp **** static uint64 fibonacci(uint64 n) {
  14              		.loc 1 11 35
  15              		.cfi_startproc
  16              	.LVL0:
  17 0000 130101FE 		addi	sp,sp,-32
  18              		.cfi_def_cfa_offset 32
  19 0004 233C1100 		sd	ra,24(sp)
  20 0008 23388100 		sd	s0,16(sp)
  21 000c 23349100 		sd	s1,8(sp)
  22 0010 23302101 		sd	s2,0(sp)
  23              		.cfi_offset 1, -8
  24              		.cfi_offset 8, -16
  25              		.cfi_offset 9, -24
  26              		.cfi_offset 18, -32
  27 0014 13040102 		addi	s0,sp,32
  28              		.cfi_def_cfa 8, 0
  29 0018 93040500 		mv	s1,a0
  12:test/System_Mode_test.cpp ****     if (n == 0 || n == 1) { return n; }
  30              		.loc 1 12 5
  31 001c 93071000 		li	a5,1
  32 0020 63F8A702 		bleu	a0,a5,.L1
  13:test/System_Mode_test.cpp ****     if (n % 10 == 0) { thread_dispatch(); }
  33              		.loc 1 13 5
  34              		.loc 1 13 11 is_stmt 0
  35 0024 9307A000 		li	a5,10
  36 0028 B377F502 		remu	a5,a0,a5
  37              		.loc 1 13 5
  38 002c 638E0702 		beq	a5,zero,.L6
  39              	.LVL1:
  40              	.L3:
  14:test/System_Mode_test.cpp ****     return fibonacci(n - 1) + fibonacci(n - 2);
  41              		.loc 1 14 5 is_stmt 1
  42              		.loc 1 14 21 is_stmt 0
  43 0030 1385F4FF 		addi	a0,s1,-1
  44 0034 97000000 		call	_ZL9fibonaccim
GAS LISTING C:\msys64\tmp\cc5khA4C.s 			page 2


  44      E7800000 
  45              	.LVL2:
  46 003c 13090500 		mv	s2,a0
  47              		.loc 1 14 40
  48 0040 1385E4FF 		addi	a0,s1,-2
  49 0044 97000000 		call	_ZL9fibonaccim
  49      E7800000 
  50              	.LVL3:
  51              		.loc 1 14 46
  52 004c 3305A900 		add	a0,s2,a0
  53              	.L1:
  15:test/System_Mode_test.cpp **** }
  54              		.loc 1 15 1
  55 0050 83308101 		ld	ra,24(sp)
  56              		.cfi_remember_state
  57              		.cfi_restore 1
  58 0054 03340101 		ld	s0,16(sp)
  59              		.cfi_restore 8
  60              		.cfi_def_cfa 2, 32
  61 0058 83348100 		ld	s1,8(sp)
  62              		.cfi_restore 9
  63              	.LVL4:
  64 005c 03390100 		ld	s2,0(sp)
  65              		.cfi_restore 18
  66 0060 13010102 		addi	sp,sp,32
  67              		.cfi_def_cfa_offset 0
  68 0064 67800000 		jr	ra
  69              	.LVL5:
  70              	.L6:
  71              		.cfi_restore_state
  13:test/System_Mode_test.cpp ****     if (n % 10 == 0) { thread_dispatch(); }
  72              		.loc 1 13 24 is_stmt 1 discriminator 1
  13:test/System_Mode_test.cpp ****     if (n % 10 == 0) { thread_dispatch(); }
  73              		.loc 1 13 39 is_stmt 0 discriminator 1
  74 0068 97000000 		call	_Z15thread_dispatchv
  74      E7800000 
  75              	.LVL6:
  76 0070 6FF01FFC 		j	.L3
  77              		.cfi_endproc
  78              	.LFE0:
  80              		.section	.rodata.str1.8,"aMS",@progbits,1
  81              		.align	3
  82              	.LC0:
  83 0000 443A2069 		.string	"D: i="
  83      3D00
  84 0006 0000     		.align	3
  85              	.LC1:
  86 0008 0A00     		.string	"\n"
  87 000a 00000000 		.align	3
  87      0000
  88              	.LC2:
  89 0010 443A2064 		.string	"D: dispatch\n"
  89      69737061 
  89      7463680A 
  89      00
  90 001d 000000   		.align	3
  91              	.LC3:
GAS LISTING C:\msys64\tmp\cc5khA4C.s 			page 3


  92 0020 443A2066 		.string	"D: fibonaci="
  92      69626F6E 
  92      6163693D 
  92      00
  93 002d 000000   		.align	3
  94              	.LC4:
  95 0030 44206669 		.string	"D finished!\n"
  95      6E697368 
  95      6564210A 
  95      00
  96              		.text
  97              		.align	2
  99              	_ZL11workerBodyDPv:
 100              	.LFB4:
  16:test/System_Mode_test.cpp **** 
  17:test/System_Mode_test.cpp **** static void workerBodyA(void* arg) {
  18:test/System_Mode_test.cpp ****     for (uint64 i = 0; i < 10; i++) {
  19:test/System_Mode_test.cpp ****         printString("A: i="); printInt(i); printString("\n");
  20:test/System_Mode_test.cpp ****         for (uint64 j = 0; j < 10000; j++) {
  21:test/System_Mode_test.cpp ****             for (uint64 k = 0; k < 30000; k++) { /* busy wait */ }
  22:test/System_Mode_test.cpp ****             thread_dispatch();
  23:test/System_Mode_test.cpp ****         }
  24:test/System_Mode_test.cpp ****     }
  25:test/System_Mode_test.cpp ****     printString("A finished!\n");
  26:test/System_Mode_test.cpp ****     finishedA = true;
  27:test/System_Mode_test.cpp **** }
  28:test/System_Mode_test.cpp **** 
  29:test/System_Mode_test.cpp **** static void workerBodyB(void* arg) {
  30:test/System_Mode_test.cpp ****     for (uint64 i = 0; i < 16; i++) {
  31:test/System_Mode_test.cpp ****         printString("B: i="); printInt(i); printString("\n");
  32:test/System_Mode_test.cpp ****         for (uint64 j = 0; j < 10000; j++) {
  33:test/System_Mode_test.cpp ****             for (uint64 k = 0; k < 30000; k++) { /* busy wait */ }
  34:test/System_Mode_test.cpp ****             thread_dispatch();
  35:test/System_Mode_test.cpp ****         }
  36:test/System_Mode_test.cpp ****         if (i == 10) {
  37:test/System_Mode_test.cpp ****             asm volatile("csrr t6, sepc");
  38:test/System_Mode_test.cpp ****         }
  39:test/System_Mode_test.cpp ****     }
  40:test/System_Mode_test.cpp ****     printString("B finished!\n");
  41:test/System_Mode_test.cpp ****     finishedB = true;
  42:test/System_Mode_test.cpp ****     thread_dispatch();
  43:test/System_Mode_test.cpp **** }
  44:test/System_Mode_test.cpp **** 
  45:test/System_Mode_test.cpp **** static void workerBodyC(void* arg) {
  46:test/System_Mode_test.cpp ****     uint8 i = 0;
  47:test/System_Mode_test.cpp ****     for (; i < 3; i++) {
  48:test/System_Mode_test.cpp ****         printString("C: i="); printInt(i); printString("\n");
  49:test/System_Mode_test.cpp ****     }
  50:test/System_Mode_test.cpp **** 
  51:test/System_Mode_test.cpp ****     printString("C: dispatch\n");
  52:test/System_Mode_test.cpp ****     __asm__ ("li t1, 7");
  53:test/System_Mode_test.cpp ****     thread_dispatch();
  54:test/System_Mode_test.cpp **** 
  55:test/System_Mode_test.cpp ****     uint64 t1 = 0;
  56:test/System_Mode_test.cpp ****     __asm__ ("mv %[t1], t1" : [t1] "=r"(t1));
  57:test/System_Mode_test.cpp **** 
  58:test/System_Mode_test.cpp ****     printString("C: t1="); printInt(t1); printString("\n");
GAS LISTING C:\msys64\tmp\cc5khA4C.s 			page 4


  59:test/System_Mode_test.cpp **** 
  60:test/System_Mode_test.cpp ****     uint64 result = fibonacci(12);
  61:test/System_Mode_test.cpp ****     printString("C: fibonaci="); printInt(result); printString("\n");
  62:test/System_Mode_test.cpp **** 
  63:test/System_Mode_test.cpp ****     for (; i < 6; i++) {
  64:test/System_Mode_test.cpp ****         printString("C: i="); printInt(i); printString("\n");
  65:test/System_Mode_test.cpp ****     }
  66:test/System_Mode_test.cpp **** 
  67:test/System_Mode_test.cpp ****     printString("A finished!\n");
  68:test/System_Mode_test.cpp ****     finishedC = true;
  69:test/System_Mode_test.cpp ****     thread_dispatch();
  70:test/System_Mode_test.cpp **** }
  71:test/System_Mode_test.cpp **** 
  72:test/System_Mode_test.cpp **** static void workerBodyD(void* arg) {
 101              		.loc 1 72 36 is_stmt 1
 102              		.cfi_startproc
 103              	.LVL7:
 104 0074 130101FE 		addi	sp,sp,-32
 105              		.cfi_def_cfa_offset 32
 106 0078 233C1100 		sd	ra,24(sp)
 107 007c 23388100 		sd	s0,16(sp)
 108 0080 23349100 		sd	s1,8(sp)
 109 0084 23302101 		sd	s2,0(sp)
 110              		.cfi_offset 1, -8
 111              		.cfi_offset 8, -16
 112              		.cfi_offset 9, -24
 113              		.cfi_offset 18, -32
 114 0088 13040102 		addi	s0,sp,32
 115              		.cfi_def_cfa 8, 0
  73:test/System_Mode_test.cpp ****     uint8 i = 10;
 116              		.loc 1 73 5
 117              	.LVL8:
 118              		.loc 1 73 11 is_stmt 0
 119 008c 9304A000 		li	s1,10
 120 0090 6F000004 		j	.L9
 121              	.LVL9:
 122              	.L13:
  74:test/System_Mode_test.cpp ****     for (; i < 13; i++) {
  75:test/System_Mode_test.cpp ****         printString("D: i="); printInt(i); printString("\n");
 123              		.loc 1 75 9 is_stmt 1 discriminator 1
 124              		.loc 1 75 20 is_stmt 0 discriminator 1
 125 0094 17050000 		lla	a0,.LC0
 125      13050500 
 126 009c 97000000 		call	_Z11printStringPKc
 126      E7800000 
 127              	.LVL10:
 128              		.loc 1 75 31 is_stmt 1 discriminator 1
 129              		.loc 1 75 39 is_stmt 0 discriminator 1
 130 00a4 13060000 		li	a2,0
 131 00a8 9305A000 		li	a1,10
 132 00ac 13850400 		mv	a0,s1
 133 00b0 97000000 		call	_Z8printIntiii
 133      E7800000 
 134              	.LVL11:
 135              		.loc 1 75 44 is_stmt 1 discriminator 1
 136              		.loc 1 75 55 is_stmt 0 discriminator 1
 137 00b8 17050000 		lla	a0,.LC1
GAS LISTING C:\msys64\tmp\cc5khA4C.s 			page 5


 137      13050500 
 138 00c0 97000000 		call	_Z11printStringPKc
 138      E7800000 
 139              	.LVL12:
  74:test/System_Mode_test.cpp ****     for (; i < 13; i++) {
 140              		.loc 1 74 5 is_stmt 1 discriminator 1
 141 00c8 9B841400 		addiw	s1,s1,1
 142              	.LVL13:
 143 00cc 93F4F40F 		andi	s1,s1,0xff
 144              	.LVL14:
 145              	.L9:
  74:test/System_Mode_test.cpp ****     for (; i < 13; i++) {
 146              		.loc 1 74 5 discriminator 2
  74:test/System_Mode_test.cpp ****     for (; i < 13; i++) {
 147              		.loc 1 74 14 discriminator 2
 148 00d0 9307C000 		li	a5,12
 149 00d4 E3F097FC 		bleu	s1,a5,.L13
  76:test/System_Mode_test.cpp ****     }
  77:test/System_Mode_test.cpp **** 
  78:test/System_Mode_test.cpp ****     printString("D: dispatch\n");
 150              		.loc 1 78 5
 151              		.loc 1 78 16 is_stmt 0
 152 00d8 17050000 		lla	a0,.LC2
 152      13050500 
 153 00e0 97000000 		call	_Z11printStringPKc
 153      E7800000 
 154              	.LVL15:
  79:test/System_Mode_test.cpp ****     __asm__ ("li t1, 5");
 155              		.loc 1 79 5 is_stmt 1
 156              	 #APP
 157              	# 79 "test/System_Mode_test.cpp" 1
  80              	    thread_dispatch();
 158              		li t1, 5
 159              	# 0 "" 2
 160              		.loc 1 80 5
 161              		.loc 1 80 20 is_stmt 0
 162              	 #NO_APP
 163 00ec 97000000 		call	_Z15thread_dispatchv
 163      E7800000 
 164              	.LVL16:
  81:test/System_Mode_test.cpp **** 
  82:test/System_Mode_test.cpp ****     uint64 result = fibonacci(16);
 165              		.loc 1 82 5 is_stmt 1
 166              		.loc 1 82 30 is_stmt 0
 167 00f4 13050001 		li	a0,16
 168 00f8 97000000 		call	_ZL9fibonaccim
 168      E7800000 
 169              	.LVL17:
 170 0100 13090500 		mv	s2,a0
 171              	.LVL18:
  83:test/System_Mode_test.cpp ****     printString("D: fibonaci="); printInt(result); printString("\n");
 172              		.loc 1 83 5 is_stmt 1
 173              		.loc 1 83 16 is_stmt 0
 174 0104 17050000 		lla	a0,.LC3
 174      13050500 
 175              	.LVL19:
 176 010c 97000000 		call	_Z11printStringPKc
GAS LISTING C:\msys64\tmp\cc5khA4C.s 			page 6


 176      E7800000 
 177              	.LVL20:
 178              		.loc 1 83 34 is_stmt 1
 179              		.loc 1 83 42 is_stmt 0
 180 0114 13060000 		li	a2,0
 181 0118 9305A000 		li	a1,10
 182 011c 1B050900 		sext.w	a0,s2
 183 0120 97000000 		call	_Z8printIntiii
 183      E7800000 
 184              	.LVL21:
 185              		.loc 1 83 52 is_stmt 1
 186              		.loc 1 83 63 is_stmt 0
 187 0128 17050000 		lla	a0,.LC1
 187      13050500 
 188 0130 97000000 		call	_Z11printStringPKc
 188      E7800000 
 189              	.LVL22:
 190 0138 6F000004 		j	.L11
 191              	.L14:
  84:test/System_Mode_test.cpp **** 
  85:test/System_Mode_test.cpp ****     for (; i < 16; i++) {
  86:test/System_Mode_test.cpp ****         printString("D: i="); printInt(i); printString("\n");
 192              		.loc 1 86 9 is_stmt 1 discriminator 1
 193              		.loc 1 86 20 is_stmt 0 discriminator 1
 194 013c 17050000 		lla	a0,.LC0
 194      13050500 
 195 0144 97000000 		call	_Z11printStringPKc
 195      E7800000 
 196              	.LVL23:
 197              		.loc 1 86 31 is_stmt 1 discriminator 1
 198              		.loc 1 86 39 is_stmt 0 discriminator 1
 199 014c 13060000 		li	a2,0
 200 0150 9305A000 		li	a1,10
 201 0154 13850400 		mv	a0,s1
 202 0158 97000000 		call	_Z8printIntiii
 202      E7800000 
 203              	.LVL24:
 204              		.loc 1 86 44 is_stmt 1 discriminator 1
 205              		.loc 1 86 55 is_stmt 0 discriminator 1
 206 0160 17050000 		lla	a0,.LC1
 206      13050500 
 207 0168 97000000 		call	_Z11printStringPKc
 207      E7800000 
 208              	.LVL25:
  85:test/System_Mode_test.cpp ****         printString("D: i="); printInt(i); printString("\n");
 209              		.loc 1 85 5 is_stmt 1 discriminator 1
 210 0170 9B841400 		addiw	s1,s1,1
 211              	.LVL26:
 212 0174 93F4F40F 		andi	s1,s1,0xff
 213              	.LVL27:
 214              	.L11:
  85:test/System_Mode_test.cpp ****         printString("D: i="); printInt(i); printString("\n");
 215              		.loc 1 85 5 discriminator 2
  85:test/System_Mode_test.cpp ****         printString("D: i="); printInt(i); printString("\n");
 216              		.loc 1 85 14 discriminator 2
 217 0178 9307F000 		li	a5,15
 218 017c E3F097FC 		bleu	s1,a5,.L14
GAS LISTING C:\msys64\tmp\cc5khA4C.s 			page 7


  87:test/System_Mode_test.cpp ****     }
  88:test/System_Mode_test.cpp **** 
  89:test/System_Mode_test.cpp ****     printString("D finished!\n");
 219              		.loc 1 89 5
 220              		.loc 1 89 16 is_stmt 0
 221 0180 17050000 		lla	a0,.LC4
 221      13050500 
 222 0188 97000000 		call	_Z11printStringPKc
 222      E7800000 
 223              	.LVL28:
  90:test/System_Mode_test.cpp ****     finishedD = true;
 224              		.loc 1 90 5 is_stmt 1
 225              		.loc 1 90 15 is_stmt 0
 226 0190 93071000 		li	a5,1
 227 0194 17070000 		sb	a5,_ZL9finishedD,a4
 227      2300F700 
  91:test/System_Mode_test.cpp ****     thread_dispatch();
 228              		.loc 1 91 5 is_stmt 1
 229              		.loc 1 91 20 is_stmt 0
 230 019c 97000000 		call	_Z15thread_dispatchv
 230      E7800000 
 231              	.LVL29:
  92:test/System_Mode_test.cpp **** }
 232              		.loc 1 92 1
 233 01a4 83308101 		ld	ra,24(sp)
 234              		.cfi_restore 1
 235 01a8 03340101 		ld	s0,16(sp)
 236              		.cfi_restore 8
 237              		.cfi_def_cfa 2, 32
 238 01ac 83348100 		ld	s1,8(sp)
 239              		.cfi_restore 9
 240              	.LVL30:
 241 01b0 03390100 		ld	s2,0(sp)
 242              		.cfi_restore 18
 243              	.LVL31:
 244 01b4 13010102 		addi	sp,sp,32
 245              		.cfi_def_cfa_offset 0
 246 01b8 67800000 		jr	ra
 247              		.cfi_endproc
 248              	.LFE4:
 250              		.section	.rodata.str1.8
 251 003d 000000   		.align	3
 252              	.LC5:
 253 0040 433A2069 		.string	"C: i="
 253      3D00
 254 0046 0000     		.align	3
 255              	.LC6:
 256 0048 433A2064 		.string	"C: dispatch\n"
 256      69737061 
 256      7463680A 
 256      00
 257 0055 000000   		.align	3
 258              	.LC7:
 259 0058 433A2074 		.string	"C: t1="
 259      313D00
 260 005f 00       		.align	3
 261              	.LC8:
GAS LISTING C:\msys64\tmp\cc5khA4C.s 			page 8


 262 0060 433A2066 		.string	"C: fibonaci="
 262      69626F6E 
 262      6163693D 
 262      00
 263 006d 000000   		.align	3
 264              	.LC9:
 265 0070 41206669 		.string	"A finished!\n"
 265      6E697368 
 265      6564210A 
 265      00
 266              		.text
 267              		.align	2
 269              	_ZL11workerBodyCPv:
 270              	.LFB3:
  45:test/System_Mode_test.cpp ****     uint8 i = 0;
 271              		.loc 1 45 36 is_stmt 1
 272              		.cfi_startproc
 273              	.LVL32:
 274 01bc 130101FE 		addi	sp,sp,-32
 275              		.cfi_def_cfa_offset 32
 276 01c0 233C1100 		sd	ra,24(sp)
 277 01c4 23388100 		sd	s0,16(sp)
 278 01c8 23349100 		sd	s1,8(sp)
 279 01cc 23302101 		sd	s2,0(sp)
 280              		.cfi_offset 1, -8
 281              		.cfi_offset 8, -16
 282              		.cfi_offset 9, -24
 283              		.cfi_offset 18, -32
 284 01d0 13040102 		addi	s0,sp,32
 285              		.cfi_def_cfa 8, 0
  46:test/System_Mode_test.cpp ****     for (; i < 3; i++) {
 286              		.loc 1 46 5
 287              	.LVL33:
  46:test/System_Mode_test.cpp ****     for (; i < 3; i++) {
 288              		.loc 1 46 11 is_stmt 0
 289 01d4 93040000 		li	s1,0
 290 01d8 6F000004 		j	.L17
 291              	.LVL34:
 292              	.L21:
  48:test/System_Mode_test.cpp ****     }
 293              		.loc 1 48 9 is_stmt 1 discriminator 1
  48:test/System_Mode_test.cpp ****     }
 294              		.loc 1 48 20 is_stmt 0 discriminator 1
 295 01dc 17050000 		lla	a0,.LC5
 295      13050500 
 296 01e4 97000000 		call	_Z11printStringPKc
 296      E7800000 
 297              	.LVL35:
  48:test/System_Mode_test.cpp ****     }
 298              		.loc 1 48 31 is_stmt 1 discriminator 1
  48:test/System_Mode_test.cpp ****     }
 299              		.loc 1 48 39 is_stmt 0 discriminator 1
 300 01ec 13060000 		li	a2,0
 301 01f0 9305A000 		li	a1,10
 302 01f4 13850400 		mv	a0,s1
 303 01f8 97000000 		call	_Z8printIntiii
 303      E7800000 
GAS LISTING C:\msys64\tmp\cc5khA4C.s 			page 9


 304              	.LVL36:
  48:test/System_Mode_test.cpp ****     }
 305              		.loc 1 48 44 is_stmt 1 discriminator 1
  48:test/System_Mode_test.cpp ****     }
 306              		.loc 1 48 55 is_stmt 0 discriminator 1
 307 0200 17050000 		lla	a0,.LC1
 307      13050500 
 308 0208 97000000 		call	_Z11printStringPKc
 308      E7800000 
 309              	.LVL37:
  47:test/System_Mode_test.cpp ****         printString("C: i="); printInt(i); printString("\n");
 310              		.loc 1 47 5 is_stmt 1 discriminator 1
 311 0210 9B841400 		addiw	s1,s1,1
 312              	.LVL38:
 313 0214 93F4F40F 		andi	s1,s1,0xff
 314              	.LVL39:
 315              	.L17:
  47:test/System_Mode_test.cpp ****         printString("C: i="); printInt(i); printString("\n");
 316              		.loc 1 47 5 discriminator 2
  47:test/System_Mode_test.cpp ****         printString("C: i="); printInt(i); printString("\n");
 317              		.loc 1 47 14 discriminator 2
 318 0218 93072000 		li	a5,2
 319 021c E3F097FC 		bleu	s1,a5,.L21
  51:test/System_Mode_test.cpp ****     __asm__ ("li t1, 7");
 320              		.loc 1 51 5
  51:test/System_Mode_test.cpp ****     __asm__ ("li t1, 7");
 321              		.loc 1 51 16 is_stmt 0
 322 0220 17050000 		lla	a0,.LC6
 322      13050500 
 323 0228 97000000 		call	_Z11printStringPKc
 323      E7800000 
 324              	.LVL40:
  52:test/System_Mode_test.cpp ****     thread_dispatch();
 325              		.loc 1 52 5 is_stmt 1
 326              	 #APP
 327              	# 52 "test/System_Mode_test.cpp" 1
  53:test/System_Mode_test.cpp **** 
 328              		li t1, 7
 329              	# 0 "" 2
 330              		.loc 1 53 5
  53:test/System_Mode_test.cpp **** 
 331              		.loc 1 53 20 is_stmt 0
 332              	 #NO_APP
 333 0234 97000000 		call	_Z15thread_dispatchv
 333      E7800000 
 334              	.LVL41:
  55:test/System_Mode_test.cpp ****     __asm__ ("mv %[t1], t1" : [t1] "=r"(t1));
 335              		.loc 1 55 5 is_stmt 1
  56:test/System_Mode_test.cpp **** 
 336              		.loc 1 56 5
 337              	 #APP
 338              	# 56 "test/System_Mode_test.cpp" 1
 339              		mv s2, t1
 340              	# 0 "" 2
 341              	.LVL42:
  58:test/System_Mode_test.cpp **** 
 342              		.loc 1 58 5
GAS LISTING C:\msys64\tmp\cc5khA4C.s 			page 10


  58:test/System_Mode_test.cpp **** 
 343              		.loc 1 58 16 is_stmt 0
 344              	 #NO_APP
 345 0240 17050000 		lla	a0,.LC7
 345      13050500 
 346 0248 97000000 		call	_Z11printStringPKc
 346      E7800000 
 347              	.LVL43:
  58:test/System_Mode_test.cpp **** 
 348              		.loc 1 58 28 is_stmt 1
  58:test/System_Mode_test.cpp **** 
 349              		.loc 1 58 36 is_stmt 0
 350 0250 13060000 		li	a2,0
 351 0254 9305A000 		li	a1,10
 352 0258 1B050900 		sext.w	a0,s2
 353 025c 97000000 		call	_Z8printIntiii
 353      E7800000 
 354              	.LVL44:
  58:test/System_Mode_test.cpp **** 
 355              		.loc 1 58 42 is_stmt 1
  58:test/System_Mode_test.cpp **** 
 356              		.loc 1 58 53 is_stmt 0
 357 0264 17050000 		lla	a0,.LC1
 357      13050500 
 358 026c 97000000 		call	_Z11printStringPKc
 358      E7800000 
 359              	.LVL45:
  60:test/System_Mode_test.cpp ****     printString("C: fibonaci="); printInt(result); printString("\n");
 360              		.loc 1 60 5 is_stmt 1
  60:test/System_Mode_test.cpp ****     printString("C: fibonaci="); printInt(result); printString("\n");
 361              		.loc 1 60 30 is_stmt 0
 362 0274 1305C000 		li	a0,12
 363 0278 97000000 		call	_ZL9fibonaccim
 363      E7800000 
 364              	.LVL46:
 365 0280 13090500 		mv	s2,a0
 366              	.LVL47:
  61:test/System_Mode_test.cpp **** 
 367              		.loc 1 61 5 is_stmt 1
  61:test/System_Mode_test.cpp **** 
 368              		.loc 1 61 16 is_stmt 0
 369 0284 17050000 		lla	a0,.LC8
 369      13050500 
 370              	.LVL48:
 371 028c 97000000 		call	_Z11printStringPKc
 371      E7800000 
 372              	.LVL49:
  61:test/System_Mode_test.cpp **** 
 373              		.loc 1 61 34 is_stmt 1
  61:test/System_Mode_test.cpp **** 
 374              		.loc 1 61 42 is_stmt 0
 375 0294 13060000 		li	a2,0
 376 0298 9305A000 		li	a1,10
 377 029c 1B050900 		sext.w	a0,s2
 378 02a0 97000000 		call	_Z8printIntiii
 378      E7800000 
 379              	.LVL50:
GAS LISTING C:\msys64\tmp\cc5khA4C.s 			page 11


  61:test/System_Mode_test.cpp **** 
 380              		.loc 1 61 52 is_stmt 1
  61:test/System_Mode_test.cpp **** 
 381              		.loc 1 61 63 is_stmt 0
 382 02a8 17050000 		lla	a0,.LC1
 382      13050500 
 383 02b0 97000000 		call	_Z11printStringPKc
 383      E7800000 
 384              	.LVL51:
 385 02b8 6F000004 		j	.L19
 386              	.L22:
  64:test/System_Mode_test.cpp ****     }
 387              		.loc 1 64 9 is_stmt 1 discriminator 1
  64:test/System_Mode_test.cpp ****     }
 388              		.loc 1 64 20 is_stmt 0 discriminator 1
 389 02bc 17050000 		lla	a0,.LC5
 389      13050500 
 390 02c4 97000000 		call	_Z11printStringPKc
 390      E7800000 
 391              	.LVL52:
  64:test/System_Mode_test.cpp ****     }
 392              		.loc 1 64 31 is_stmt 1 discriminator 1
  64:test/System_Mode_test.cpp ****     }
 393              		.loc 1 64 39 is_stmt 0 discriminator 1
 394 02cc 13060000 		li	a2,0
 395 02d0 9305A000 		li	a1,10
 396 02d4 13850400 		mv	a0,s1
 397 02d8 97000000 		call	_Z8printIntiii
 397      E7800000 
 398              	.LVL53:
  64:test/System_Mode_test.cpp ****     }
 399              		.loc 1 64 44 is_stmt 1 discriminator 1
  64:test/System_Mode_test.cpp ****     }
 400              		.loc 1 64 55 is_stmt 0 discriminator 1
 401 02e0 17050000 		lla	a0,.LC1
 401      13050500 
 402 02e8 97000000 		call	_Z11printStringPKc
 402      E7800000 
 403              	.LVL54:
  63:test/System_Mode_test.cpp ****         printString("C: i="); printInt(i); printString("\n");
 404              		.loc 1 63 5 is_stmt 1 discriminator 1
 405 02f0 9B841400 		addiw	s1,s1,1
 406              	.LVL55:
 407 02f4 93F4F40F 		andi	s1,s1,0xff
 408              	.LVL56:
 409              	.L19:
  63:test/System_Mode_test.cpp ****         printString("C: i="); printInt(i); printString("\n");
 410              		.loc 1 63 5 discriminator 2
  63:test/System_Mode_test.cpp ****         printString("C: i="); printInt(i); printString("\n");
 411              		.loc 1 63 14 discriminator 2
 412 02f8 93075000 		li	a5,5
 413 02fc E3F097FC 		bleu	s1,a5,.L22
  67:test/System_Mode_test.cpp ****     finishedC = true;
 414              		.loc 1 67 5
  67:test/System_Mode_test.cpp ****     finishedC = true;
 415              		.loc 1 67 16 is_stmt 0
 416 0300 17050000 		lla	a0,.LC9
GAS LISTING C:\msys64\tmp\cc5khA4C.s 			page 12


 416      13050500 
 417 0308 97000000 		call	_Z11printStringPKc
 417      E7800000 
 418              	.LVL57:
  68:test/System_Mode_test.cpp ****     thread_dispatch();
 419              		.loc 1 68 5 is_stmt 1
  68:test/System_Mode_test.cpp ****     thread_dispatch();
 420              		.loc 1 68 15 is_stmt 0
 421 0310 93071000 		li	a5,1
 422 0314 17070000 		sb	a5,_ZL9finishedC,a4
 422      2300F700 
  69:test/System_Mode_test.cpp **** }
 423              		.loc 1 69 5 is_stmt 1
  69:test/System_Mode_test.cpp **** }
 424              		.loc 1 69 20 is_stmt 0
 425 031c 97000000 		call	_Z15thread_dispatchv
 425      E7800000 
 426              	.LVL58:
  70:test/System_Mode_test.cpp **** 
 427              		.loc 1 70 1
 428 0324 83308101 		ld	ra,24(sp)
 429              		.cfi_restore 1
 430 0328 03340101 		ld	s0,16(sp)
 431              		.cfi_restore 8
 432              		.cfi_def_cfa 2, 32
 433 032c 83348100 		ld	s1,8(sp)
 434              		.cfi_restore 9
 435              	.LVL59:
 436 0330 03390100 		ld	s2,0(sp)
 437              		.cfi_restore 18
 438              	.LVL60:
 439 0334 13010102 		addi	sp,sp,32
 440              		.cfi_def_cfa_offset 0
 441 0338 67800000 		jr	ra
 442              		.cfi_endproc
 443              	.LFE3:
 445              		.section	.rodata.str1.8
 446 007d 000000   		.align	3
 447              	.LC10:
 448 0080 423A2069 		.string	"B: i="
 448      3D00
 449 0086 0000     		.align	3
 450              	.LC11:
 451 0088 42206669 		.string	"B finished!\n"
 451      6E697368 
 451      6564210A 
 451      00
 452              		.text
 453              		.align	2
 455              	_ZL11workerBodyBPv:
 456              	.LFB2:
  29:test/System_Mode_test.cpp ****     for (uint64 i = 0; i < 16; i++) {
 457              		.loc 1 29 36 is_stmt 1
 458              		.cfi_startproc
 459              	.LVL61:
 460 033c 130101FE 		addi	sp,sp,-32
 461              		.cfi_def_cfa_offset 32
GAS LISTING C:\msys64\tmp\cc5khA4C.s 			page 13


 462 0340 233C1100 		sd	ra,24(sp)
 463 0344 23388100 		sd	s0,16(sp)
 464 0348 23349100 		sd	s1,8(sp)
 465 034c 23302101 		sd	s2,0(sp)
 466              		.cfi_offset 1, -8
 467              		.cfi_offset 8, -16
 468              		.cfi_offset 9, -24
 469              		.cfi_offset 18, -32
 470 0350 13040102 		addi	s0,sp,32
 471              		.cfi_def_cfa 8, 0
  30:test/System_Mode_test.cpp ****         printString("B: i="); printInt(i); printString("\n");
 472              		.loc 1 30 5
 473              	.LVL62:
 474              	.LBB2:
  30:test/System_Mode_test.cpp ****         printString("B: i="); printInt(i); printString("\n");
 475              		.loc 1 30 17 is_stmt 0
 476 0354 13090000 		li	s2,0
 477 0358 6F000004 		j	.L30
 478              	.LVL63:
 479              	.L32:
 480              	.LBB3:
 481              	.LBB4:
 482              	.LBB5:
 483              	.LBB6:
  33:test/System_Mode_test.cpp ****             thread_dispatch();
 484              		.loc 1 33 13 is_stmt 1 discriminator 2
 485 035c 13071700 		addi	a4,a4,1
 486              	.LVL64:
 487              	.L27:
  33:test/System_Mode_test.cpp ****             thread_dispatch();
 488              		.loc 1 33 34 discriminator 3
 489 0360 B7770000 		li	a5,28672
 490 0364 9387F752 		addi	a5,a5,1327
 491 0368 E3FAE7FE 		bleu	a4,a5,.L32
 492              	.LBE6:
  34:test/System_Mode_test.cpp ****         }
 493              		.loc 1 34 13 discriminator 2
  34:test/System_Mode_test.cpp ****         }
 494              		.loc 1 34 28 is_stmt 0 discriminator 2
 495 036c 97000000 		call	_Z15thread_dispatchv
 495      E7800000 
 496              	.LVL65:
 497              	.LBE5:
  32:test/System_Mode_test.cpp ****             for (uint64 k = 0; k < 30000; k++) { /* busy wait */ }
 498              		.loc 1 32 9 is_stmt 1 discriminator 2
 499 0374 93841400 		addi	s1,s1,1
 500              	.LVL66:
 501              	.L28:
  32:test/System_Mode_test.cpp ****             for (uint64 k = 0; k < 30000; k++) { /* busy wait */ }
 502              		.loc 1 32 30 discriminator 1
 503 0378 B7270000 		li	a5,8192
 504 037c 9387F770 		addi	a5,a5,1807
 505 0380 63E69700 		bgtu	s1,a5,.L25
 506              	.LBB8:
 507              	.LBB7:
  33:test/System_Mode_test.cpp ****             thread_dispatch();
 508              		.loc 1 33 25 is_stmt 0
GAS LISTING C:\msys64\tmp\cc5khA4C.s 			page 14


 509 0384 13070000 		li	a4,0
 510 0388 6FF09FFD 		j	.L27
 511              	.L25:
 512              	.LBE7:
 513              	.LBE8:
 514              	.LBE4:
  36:test/System_Mode_test.cpp ****             asm volatile("csrr t6, sepc");
 515              		.loc 1 36 9 is_stmt 1
 516 038c 9307A000 		li	a5,10
 517 0390 6306F904 		beq	s2,a5,.L33
 518              	.L29:
 519              	.LBE3:
  30:test/System_Mode_test.cpp ****         printString("B: i="); printInt(i); printString("\n");
 520              		.loc 1 30 5 discriminator 2
 521 0394 13091900 		addi	s2,s2,1
 522              	.LVL67:
 523              	.L30:
  30:test/System_Mode_test.cpp ****         printString("B: i="); printInt(i); printString("\n");
 524              		.loc 1 30 26 discriminator 1
 525 0398 9307F000 		li	a5,15
 526 039c 63E42705 		bgtu	s2,a5,.L24
 527              	.LBB10:
  31:test/System_Mode_test.cpp ****         for (uint64 j = 0; j < 10000; j++) {
 528              		.loc 1 31 9
  31:test/System_Mode_test.cpp ****         for (uint64 j = 0; j < 10000; j++) {
 529              		.loc 1 31 20 is_stmt 0
 530 03a0 17050000 		lla	a0,.LC10
 530      13050500 
 531 03a8 97000000 		call	_Z11printStringPKc
 531      E7800000 
 532              	.LVL68:
  31:test/System_Mode_test.cpp ****         for (uint64 j = 0; j < 10000; j++) {
 533              		.loc 1 31 31 is_stmt 1
  31:test/System_Mode_test.cpp ****         for (uint64 j = 0; j < 10000; j++) {
 534              		.loc 1 31 39 is_stmt 0
 535 03b0 13060000 		li	a2,0
 536 03b4 9305A000 		li	a1,10
 537 03b8 1B050900 		sext.w	a0,s2
 538 03bc 97000000 		call	_Z8printIntiii
 538      E7800000 
 539              	.LVL69:
  31:test/System_Mode_test.cpp ****         for (uint64 j = 0; j < 10000; j++) {
 540              		.loc 1 31 44 is_stmt 1
  31:test/System_Mode_test.cpp ****         for (uint64 j = 0; j < 10000; j++) {
 541              		.loc 1 31 55 is_stmt 0
 542 03c4 17050000 		lla	a0,.LC1
 542      13050500 
 543 03cc 97000000 		call	_Z11printStringPKc
 543      E7800000 
 544              	.LVL70:
  32:test/System_Mode_test.cpp ****             for (uint64 k = 0; k < 30000; k++) { /* busy wait */ }
 545              		.loc 1 32 9 is_stmt 1
 546              	.LBB9:
  32:test/System_Mode_test.cpp ****             for (uint64 k = 0; k < 30000; k++) { /* busy wait */ }
 547              		.loc 1 32 21 is_stmt 0
 548 03d4 93040000 		li	s1,0
 549 03d8 6FF01FFA 		j	.L28
GAS LISTING C:\msys64\tmp\cc5khA4C.s 			page 15


 550              	.LVL71:
 551              	.L33:
 552              	.LBE9:
  37:test/System_Mode_test.cpp ****         }
 553              		.loc 1 37 13 is_stmt 1
 554              	 #APP
 555              	# 37 "test/System_Mode_test.cpp" 1
 556              		csrr t6, sepc
 557              	# 0 "" 2
 558              	 #NO_APP
 559 03e0 6FF05FFB 		j	.L29
 560              	.LVL72:
 561              	.L24:
 562              	.LBE10:
 563              	.LBE2:
  40:test/System_Mode_test.cpp ****     finishedB = true;
 564              		.loc 1 40 5
  40:test/System_Mode_test.cpp ****     finishedB = true;
 565              		.loc 1 40 16 is_stmt 0
 566 03e4 17050000 		lla	a0,.LC11
 566      13050500 
 567 03ec 97000000 		call	_Z11printStringPKc
 567      E7800000 
 568              	.LVL73:
  41:test/System_Mode_test.cpp ****     thread_dispatch();
 569              		.loc 1 41 5 is_stmt 1
  41:test/System_Mode_test.cpp ****     thread_dispatch();
 570              		.loc 1 41 15 is_stmt 0
 571 03f4 93071000 		li	a5,1
 572 03f8 17070000 		sb	a5,_ZL9finishedB,a4
 572      2300F700 
  42:test/System_Mode_test.cpp **** }
 573              		.loc 1 42 5 is_stmt 1
  42:test/System_Mode_test.cpp **** }
 574              		.loc 1 42 20 is_stmt 0
 575 0400 97000000 		call	_Z15thread_dispatchv
 575      E7800000 
 576              	.LVL74:
  43:test/System_Mode_test.cpp **** 
 577              		.loc 1 43 1
 578 0408 83308101 		ld	ra,24(sp)
 579              		.cfi_restore 1
 580 040c 03340101 		ld	s0,16(sp)
 581              		.cfi_restore 8
 582              		.cfi_def_cfa 2, 32
 583 0410 83348100 		ld	s1,8(sp)
 584              		.cfi_restore 9
 585 0414 03390100 		ld	s2,0(sp)
 586              		.cfi_restore 18
 587              	.LVL75:
 588 0418 13010102 		addi	sp,sp,32
 589              		.cfi_def_cfa_offset 0
 590 041c 67800000 		jr	ra
 591              		.cfi_endproc
 592              	.LFE2:
 594              		.section	.rodata.str1.8
 595 0095 000000   		.align	3
GAS LISTING C:\msys64\tmp\cc5khA4C.s 			page 16


 596              	.LC12:
 597 0098 413A2069 		.string	"A: i="
 597      3D00
 598              		.text
 599              		.align	2
 601              	_ZL11workerBodyAPv:
 602              	.LFB1:
  17:test/System_Mode_test.cpp ****     for (uint64 i = 0; i < 10; i++) {
 603              		.loc 1 17 36 is_stmt 1
 604              		.cfi_startproc
 605              	.LVL76:
 606 0420 130101FE 		addi	sp,sp,-32
 607              		.cfi_def_cfa_offset 32
 608 0424 233C1100 		sd	ra,24(sp)
 609 0428 23388100 		sd	s0,16(sp)
 610 042c 23349100 		sd	s1,8(sp)
 611 0430 23302101 		sd	s2,0(sp)
 612              		.cfi_offset 1, -8
 613              		.cfi_offset 8, -16
 614              		.cfi_offset 9, -24
 615              		.cfi_offset 18, -32
 616 0434 13040102 		addi	s0,sp,32
 617              		.cfi_def_cfa 8, 0
  18:test/System_Mode_test.cpp ****         printString("A: i="); printInt(i); printString("\n");
 618              		.loc 1 18 5
 619              	.LVL77:
 620              	.LBB11:
  18:test/System_Mode_test.cpp ****         printString("A: i="); printInt(i); printString("\n");
 621              		.loc 1 18 17 is_stmt 0
 622 0438 13090000 		li	s2,0
 623 043c 6F008003 		j	.L40
 624              	.LVL78:
 625              	.L42:
 626              	.LBB12:
 627              	.LBB13:
 628              	.LBB14:
 629              	.LBB15:
  21:test/System_Mode_test.cpp ****             thread_dispatch();
 630              		.loc 1 21 13 is_stmt 1 discriminator 2
 631 0440 13071700 		addi	a4,a4,1
 632              	.LVL79:
 633              	.L38:
  21:test/System_Mode_test.cpp ****             thread_dispatch();
 634              		.loc 1 21 34 discriminator 3
 635 0444 B7770000 		li	a5,28672
 636 0448 9387F752 		addi	a5,a5,1327
 637 044c E3FAE7FE 		bleu	a4,a5,.L42
 638              	.LBE15:
  22:test/System_Mode_test.cpp ****         }
 639              		.loc 1 22 13 discriminator 2
  22:test/System_Mode_test.cpp ****         }
 640              		.loc 1 22 28 is_stmt 0 discriminator 2
 641 0450 97000000 		call	_Z15thread_dispatchv
 641      E7800000 
 642              	.LVL80:
 643              	.LBE14:
  20:test/System_Mode_test.cpp ****             for (uint64 k = 0; k < 30000; k++) { /* busy wait */ }
GAS LISTING C:\msys64\tmp\cc5khA4C.s 			page 17


 644              		.loc 1 20 9 is_stmt 1 discriminator 2
 645 0458 93841400 		addi	s1,s1,1
 646              	.LVL81:
 647              	.L39:
  20:test/System_Mode_test.cpp ****             for (uint64 k = 0; k < 30000; k++) { /* busy wait */ }
 648              		.loc 1 20 30 discriminator 1
 649 045c B7270000 		li	a5,8192
 650 0460 9387F770 		addi	a5,a5,1807
 651 0464 63E69700 		bgtu	s1,a5,.L36
 652              	.LBB17:
 653              	.LBB16:
  21:test/System_Mode_test.cpp ****             thread_dispatch();
 654              		.loc 1 21 25 is_stmt 0
 655 0468 13070000 		li	a4,0
 656 046c 6FF09FFD 		j	.L38
 657              	.L36:
 658              	.LBE16:
 659              	.LBE17:
 660              	.LBE13:
 661              	.LBE12:
  18:test/System_Mode_test.cpp ****         printString("A: i="); printInt(i); printString("\n");
 662              		.loc 1 18 5 is_stmt 1 discriminator 2
 663 0470 13091900 		addi	s2,s2,1
 664              	.LVL82:
 665              	.L40:
  18:test/System_Mode_test.cpp ****         printString("A: i="); printInt(i); printString("\n");
 666              		.loc 1 18 26 discriminator 1
 667 0474 93079000 		li	a5,9
 668 0478 63E02705 		bgtu	s2,a5,.L35
 669              	.LBB19:
  19:test/System_Mode_test.cpp ****         for (uint64 j = 0; j < 10000; j++) {
 670              		.loc 1 19 9
  19:test/System_Mode_test.cpp ****         for (uint64 j = 0; j < 10000; j++) {
 671              		.loc 1 19 20 is_stmt 0
 672 047c 17050000 		lla	a0,.LC12
 672      13050500 
 673 0484 97000000 		call	_Z11printStringPKc
 673      E7800000 
 674              	.LVL83:
  19:test/System_Mode_test.cpp ****         for (uint64 j = 0; j < 10000; j++) {
 675              		.loc 1 19 31 is_stmt 1
  19:test/System_Mode_test.cpp ****         for (uint64 j = 0; j < 10000; j++) {
 676              		.loc 1 19 39 is_stmt 0
 677 048c 13060000 		li	a2,0
 678 0490 9305A000 		li	a1,10
 679 0494 1B050900 		sext.w	a0,s2
 680 0498 97000000 		call	_Z8printIntiii
 680      E7800000 
 681              	.LVL84:
  19:test/System_Mode_test.cpp ****         for (uint64 j = 0; j < 10000; j++) {
 682              		.loc 1 19 44 is_stmt 1
  19:test/System_Mode_test.cpp ****         for (uint64 j = 0; j < 10000; j++) {
 683              		.loc 1 19 55 is_stmt 0
 684 04a0 17050000 		lla	a0,.LC1
 684      13050500 
 685 04a8 97000000 		call	_Z11printStringPKc
 685      E7800000 
GAS LISTING C:\msys64\tmp\cc5khA4C.s 			page 18


 686              	.LVL85:
  20:test/System_Mode_test.cpp ****             for (uint64 k = 0; k < 30000; k++) { /* busy wait */ }
 687              		.loc 1 20 9 is_stmt 1
 688              	.LBB18:
  20:test/System_Mode_test.cpp ****             for (uint64 k = 0; k < 30000; k++) { /* busy wait */ }
 689              		.loc 1 20 21 is_stmt 0
 690 04b0 93040000 		li	s1,0
 691 04b4 6FF09FFA 		j	.L39
 692              	.LVL86:
 693              	.L35:
 694              	.LBE18:
 695              	.LBE19:
 696              	.LBE11:
  25:test/System_Mode_test.cpp ****     finishedA = true;
 697              		.loc 1 25 5 is_stmt 1
  25:test/System_Mode_test.cpp ****     finishedA = true;
 698              		.loc 1 25 16 is_stmt 0
 699 04b8 17050000 		lla	a0,.LC9
 699      13050500 
 700 04c0 97000000 		call	_Z11printStringPKc
 700      E7800000 
 701              	.LVL87:
  26:test/System_Mode_test.cpp **** }
 702              		.loc 1 26 5 is_stmt 1
  26:test/System_Mode_test.cpp **** }
 703              		.loc 1 26 15 is_stmt 0
 704 04c8 93071000 		li	a5,1
 705 04cc 17070000 		sb	a5,_ZL9finishedA,a4
 705      2300F700 
  27:test/System_Mode_test.cpp **** 
 706              		.loc 1 27 1
 707 04d4 83308101 		ld	ra,24(sp)
 708              		.cfi_restore 1
 709 04d8 03340101 		ld	s0,16(sp)
 710              		.cfi_restore 8
 711              		.cfi_def_cfa 2, 32
 712 04dc 83348100 		ld	s1,8(sp)
 713              		.cfi_restore 9
 714 04e0 03390100 		ld	s2,0(sp)
 715              		.cfi_restore 18
 716              	.LVL88:
 717 04e4 13010102 		addi	sp,sp,32
 718              		.cfi_def_cfa_offset 0
 719 04e8 67800000 		jr	ra
 720              		.cfi_endproc
 721              	.LFE1:
 723              		.section	.rodata.str1.8
 724 009e 0000     		.align	3
 725              	.LC13:
 726 00a0 54687265 		.string	"ThreadA created\n"
 726      61644120 
 726      63726561 
 726      7465640A 
 726      00
 727 00b1 00000000 		.align	3
 727      000000
 728              	.LC14:
GAS LISTING C:\msys64\tmp\cc5khA4C.s 			page 19


 729 00b8 54687265 		.string	"ThreadB created\n"
 729      61644220 
 729      63726561 
 729      7465640A 
 729      00
 730 00c9 00000000 		.align	3
 730      000000
 731              	.LC15:
 732 00d0 54687265 		.string	"ThreadC created\n"
 732      61644320 
 732      63726561 
 732      7465640A 
 732      00
 733 00e1 00000000 		.align	3
 733      000000
 734              	.LC16:
 735 00e8 54687265 		.string	"ThreadD created\n"
 735      61644420 
 735      63726561 
 735      7465640A 
 735      00
 736              		.text
 737              		.align	2
 738              		.globl	_Z16System_Mode_testv
 740              	_Z16System_Mode_testv:
 741              	.LFB5:
  93:test/System_Mode_test.cpp **** 
  94:test/System_Mode_test.cpp **** 
  95:test/System_Mode_test.cpp **** void System_Mode_test() {
 742              		.loc 1 95 25 is_stmt 1
 743              		.cfi_startproc
 744 04ec 130101FD 		addi	sp,sp,-48
 745              		.cfi_def_cfa_offset 48
 746 04f0 23341102 		sd	ra,40(sp)
 747 04f4 23308102 		sd	s0,32(sp)
 748              		.cfi_offset 1, -8
 749              		.cfi_offset 8, -16
 750 04f8 13040103 		addi	s0,sp,48
 751              		.cfi_def_cfa 8, 0
  96:test/System_Mode_test.cpp ****     thread_t threads[4];
 752              		.loc 1 96 5
  97:test/System_Mode_test.cpp ****     thread_create(&threads[0], workerBodyA, nullptr);
 753              		.loc 1 97 5
 754              		.loc 1 97 18 is_stmt 0
 755 04fc 13060000 		li	a2,0
 756 0500 97050000 		lla	a1,_ZL11workerBodyAPv
 756      93850500 
 757 0508 130504FD 		addi	a0,s0,-48
 758 050c 97000000 		call	_Z13thread_createPP7_threadPFvPvES2_
 758      E7800000 
 759              	.LVL89:
  98:test/System_Mode_test.cpp ****     printString("ThreadA created\n");
 760              		.loc 1 98 5 is_stmt 1
 761              		.loc 1 98 16 is_stmt 0
 762 0514 17050000 		lla	a0,.LC13
 762      13050500 
 763 051c 97000000 		call	_Z11printStringPKc
GAS LISTING C:\msys64\tmp\cc5khA4C.s 			page 20


 763      E7800000 
 764              	.LVL90:
  99:test/System_Mode_test.cpp **** 
 100:test/System_Mode_test.cpp ****     thread_create(&threads[1], workerBodyB, nullptr);
 765              		.loc 1 100 5 is_stmt 1
 766              		.loc 1 100 18 is_stmt 0
 767 0524 13060000 		li	a2,0
 768 0528 97050000 		lla	a1,_ZL11workerBodyBPv
 768      93850500 
 769 0530 130584FD 		addi	a0,s0,-40
 770 0534 97000000 		call	_Z13thread_createPP7_threadPFvPvES2_
 770      E7800000 
 771              	.LVL91:
 101:test/System_Mode_test.cpp ****     printString("ThreadB created\n");
 772              		.loc 1 101 5 is_stmt 1
 773              		.loc 1 101 16 is_stmt 0
 774 053c 17050000 		lla	a0,.LC14
 774      13050500 
 775 0544 97000000 		call	_Z11printStringPKc
 775      E7800000 
 776              	.LVL92:
 102:test/System_Mode_test.cpp **** 
 103:test/System_Mode_test.cpp ****     thread_create(&threads[2], workerBodyC, nullptr);
 777              		.loc 1 103 5 is_stmt 1
 778              		.loc 1 103 18 is_stmt 0
 779 054c 13060000 		li	a2,0
 780 0550 97050000 		lla	a1,_ZL11workerBodyCPv
 780      93850500 
 781 0558 130504FE 		addi	a0,s0,-32
 782 055c 97000000 		call	_Z13thread_createPP7_threadPFvPvES2_
 782      E7800000 
 783              	.LVL93:
 104:test/System_Mode_test.cpp ****     printString("ThreadC created\n");
 784              		.loc 1 104 5 is_stmt 1
 785              		.loc 1 104 16 is_stmt 0
 786 0564 17050000 		lla	a0,.LC15
 786      13050500 
 787 056c 97000000 		call	_Z11printStringPKc
 787      E7800000 
 788              	.LVL94:
 105:test/System_Mode_test.cpp **** 
 106:test/System_Mode_test.cpp ****     thread_create(&threads[3], workerBodyD, nullptr);
 789              		.loc 1 106 5 is_stmt 1
 790              		.loc 1 106 18 is_stmt 0
 791 0574 13060000 		li	a2,0
 792 0578 97050000 		lla	a1,_ZL11workerBodyDPv
 792      93850500 
 793 0580 130584FE 		addi	a0,s0,-24
 794 0584 97000000 		call	_Z13thread_createPP7_threadPFvPvES2_
 794      E7800000 
 795              	.LVL95:
 107:test/System_Mode_test.cpp ****     printString("ThreadD created\n");
 796              		.loc 1 107 5 is_stmt 1
 797              		.loc 1 107 16 is_stmt 0
 798 058c 17050000 		lla	a0,.LC16
 798      13050500 
 799 0594 97000000 		call	_Z11printStringPKc
GAS LISTING C:\msys64\tmp\cc5khA4C.s 			page 21


 799      E7800000 
 800              	.LVL96:
 801 059c 6F00C000 		j	.L45
 802              	.L44:
 108:test/System_Mode_test.cpp **** 
 109:test/System_Mode_test.cpp ****     while (!(finishedA && finishedB && finishedC && finishedD)) {
 110:test/System_Mode_test.cpp ****         thread_dispatch();
 803              		.loc 1 110 9 is_stmt 1
 804              		.loc 1 110 24 is_stmt 0
 805 05a0 97000000 		call	_Z15thread_dispatchv
 805      E7800000 
 806              	.LVL97:
 807              	.L45:
 109:test/System_Mode_test.cpp ****         thread_dispatch();
 808              		.loc 1 109 5 is_stmt 1
 109:test/System_Mode_test.cpp ****         thread_dispatch();
 809              		.loc 1 109 12
 109:test/System_Mode_test.cpp ****         thread_dispatch();
 810              		.loc 1 109 14 is_stmt 0
 811 05a8 97070000 		lbu	a5,_ZL9finishedA
 811      83C70700 
 109:test/System_Mode_test.cpp ****         thread_dispatch();
 812              		.loc 1 109 12
 813 05b0 E38807FE 		beq	a5,zero,.L44
 109:test/System_Mode_test.cpp ****         thread_dispatch();
 814              		.loc 1 109 27 discriminator 2
 815 05b4 97070000 		lbu	a5,_ZL9finishedB
 815      83C70700 
 109:test/System_Mode_test.cpp ****         thread_dispatch();
 816              		.loc 1 109 24 discriminator 2
 817 05bc E38207FE 		beq	a5,zero,.L44
 109:test/System_Mode_test.cpp ****         thread_dispatch();
 818              		.loc 1 109 40 discriminator 4
 819 05c0 97070000 		lbu	a5,_ZL9finishedC
 819      83C70700 
 109:test/System_Mode_test.cpp ****         thread_dispatch();
 820              		.loc 1 109 37 discriminator 4
 821 05c8 E38C07FC 		beq	a5,zero,.L44
 109:test/System_Mode_test.cpp ****         thread_dispatch();
 822              		.loc 1 109 53 discriminator 6
 823 05cc 97070000 		lbu	a5,_ZL9finishedD
 823      83C70700 
 109:test/System_Mode_test.cpp ****         thread_dispatch();
 824              		.loc 1 109 12 discriminator 6
 825 05d4 E38607FC 		beq	a5,zero,.L44
 111:test/System_Mode_test.cpp ****     }
 112:test/System_Mode_test.cpp **** 
 113:test/System_Mode_test.cpp **** }
 826              		.loc 1 113 1
 827 05d8 83308102 		ld	ra,40(sp)
 828              		.cfi_restore 1
 829 05dc 03340102 		ld	s0,32(sp)
 830              		.cfi_restore 8
 831              		.cfi_def_cfa 2, 48
 832 05e0 13010103 		addi	sp,sp,48
 833              		.cfi_def_cfa_offset 0
 834 05e4 67800000 		jr	ra
GAS LISTING C:\msys64\tmp\cc5khA4C.s 			page 22


 835              		.cfi_endproc
 836              	.LFE5:
 838              		.section	.sbss,"aw",@nobits
 841              	_ZL9finishedD:
 842 0000 00       		.zero	1
 845              	_ZL9finishedC:
 846 0001 00       		.zero	1
 849              	_ZL9finishedB:
 850 0002 00       		.zero	1
 853              	_ZL9finishedA:
 854 0003 00       		.zero	1
 855              		.text
 856              	.Letext0:
 857              		.file 2 "test/../h/../lib/hw.h"
 858              		.file 3 "test/../h/syscall_c.h"
 859              		.file 4 "test/printing.hpp"
GAS LISTING C:\msys64\tmp\cc5khA4C.s 			page 23


DEFINED SYMBOLS
                            *ABS*:0000000000000000 System_Mode_test.cpp
C:\msys64\tmp\cc5khA4C.s:11     .text:0000000000000000 _ZL9fibonaccim
C:\msys64\tmp\cc5khA4C.s:15     .text:0000000000000000 .L0 
C:\msys64\tmp\cc5khA4C.s:17     .text:0000000000000000 .L0 
C:\msys64\tmp\cc5khA4C.s:18     .text:0000000000000004 .L0 
C:\msys64\tmp\cc5khA4C.s:23     .text:0000000000000014 .L0 
C:\msys64\tmp\cc5khA4C.s:24     .text:0000000000000014 .L0 
C:\msys64\tmp\cc5khA4C.s:25     .text:0000000000000014 .L0 
C:\msys64\tmp\cc5khA4C.s:26     .text:0000000000000014 .L0 
C:\msys64\tmp\cc5khA4C.s:28     .text:0000000000000018 .L0 
C:\msys64\tmp\cc5khA4C.s:31     .text:000000000000001c .L0 
C:\msys64\tmp\cc5khA4C.s:34     .text:0000000000000024 .L0 
C:\msys64\tmp\cc5khA4C.s:35     .text:0000000000000024 .L0 
C:\msys64\tmp\cc5khA4C.s:38     .text:000000000000002c .L0 
C:\msys64\tmp\cc5khA4C.s:42     .text:0000000000000030 .L0 
C:\msys64\tmp\cc5khA4C.s:43     .text:0000000000000030 .L0 
C:\msys64\tmp\cc5khA4C.s:48     .text:0000000000000040 .L0 
C:\msys64\tmp\cc5khA4C.s:52     .text:000000000000004c .L0 
C:\msys64\tmp\cc5khA4C.s:55     .text:0000000000000050 .L0 
C:\msys64\tmp\cc5khA4C.s:56     .text:0000000000000054 .L0 
C:\msys64\tmp\cc5khA4C.s:57     .text:0000000000000054 .L0 
C:\msys64\tmp\cc5khA4C.s:59     .text:0000000000000058 .L0 
C:\msys64\tmp\cc5khA4C.s:60     .text:0000000000000058 .L0 
C:\msys64\tmp\cc5khA4C.s:62     .text:000000000000005c .L0 
C:\msys64\tmp\cc5khA4C.s:65     .text:0000000000000060 .L0 
C:\msys64\tmp\cc5khA4C.s:67     .text:0000000000000064 .L0 
C:\msys64\tmp\cc5khA4C.s:71     .text:0000000000000068 .L0 
C:\msys64\tmp\cc5khA4C.s:73     .text:0000000000000068 .L0 
C:\msys64\tmp\cc5khA4C.s:74     .text:0000000000000068 .L0 
C:\msys64\tmp\cc5khA4C.s:77     .text:0000000000000074 .L0 
C:\msys64\tmp\cc5khA4C.s:99     .text:0000000000000074 _ZL11workerBodyDPv
C:\msys64\tmp\cc5khA4C.s:102    .text:0000000000000074 .L0 
C:\msys64\tmp\cc5khA4C.s:104    .text:0000000000000074 .L0 
C:\msys64\tmp\cc5khA4C.s:105    .text:0000000000000078 .L0 
C:\msys64\tmp\cc5khA4C.s:110    .text:0000000000000088 .L0 
C:\msys64\tmp\cc5khA4C.s:111    .text:0000000000000088 .L0 
C:\msys64\tmp\cc5khA4C.s:112    .text:0000000000000088 .L0 
C:\msys64\tmp\cc5khA4C.s:113    .text:0000000000000088 .L0 
C:\msys64\tmp\cc5khA4C.s:115    .text:000000000000008c .L0 
C:\msys64\tmp\cc5khA4C.s:118    .text:000000000000008c .L0 
C:\msys64\tmp\cc5khA4C.s:119    .text:000000000000008c .L0 
C:\msys64\tmp\cc5khA4C.s:124    .text:0000000000000094 .L0 
C:\msys64\tmp\cc5khA4C.s:125    .text:0000000000000094 .L0 
C:\msys64\tmp\cc5khA4C.s:129    .text:00000000000000a4 .L0 
C:\msys64\tmp\cc5khA4C.s:130    .text:00000000000000a4 .L0 
C:\msys64\tmp\cc5khA4C.s:136    .text:00000000000000b8 .L0 
C:\msys64\tmp\cc5khA4C.s:137    .text:00000000000000b8 .L0 
C:\msys64\tmp\cc5khA4C.s:141    .text:00000000000000c8 .L0 
C:\msys64\tmp\cc5khA4C.s:147    .text:00000000000000d0 .L0 
C:\msys64\tmp\cc5khA4C.s:148    .text:00000000000000d0 .L0 
C:\msys64\tmp\cc5khA4C.s:151    .text:00000000000000d8 .L0 
C:\msys64\tmp\cc5khA4C.s:152    .text:00000000000000d8 .L0 
test/System_Mode_test.cpp:79     .text:00000000000000e8 .L0 
C:\msys64\tmp\cc5khA4C.s:161    .text:00000000000000ec .L0 
C:\msys64\tmp\cc5khA4C.s:163    .text:00000000000000ec .L0 
C:\msys64\tmp\cc5khA4C.s:166    .text:00000000000000f4 .L0 
GAS LISTING C:\msys64\tmp\cc5khA4C.s 			page 24


C:\msys64\tmp\cc5khA4C.s:167    .text:00000000000000f4 .L0 
C:\msys64\tmp\cc5khA4C.s:173    .text:0000000000000104 .L0 
C:\msys64\tmp\cc5khA4C.s:174    .text:0000000000000104 .L0 
C:\msys64\tmp\cc5khA4C.s:179    .text:0000000000000114 .L0 
C:\msys64\tmp\cc5khA4C.s:180    .text:0000000000000114 .L0 
C:\msys64\tmp\cc5khA4C.s:186    .text:0000000000000128 .L0 
C:\msys64\tmp\cc5khA4C.s:187    .text:0000000000000128 .L0 
C:\msys64\tmp\cc5khA4C.s:193    .text:000000000000013c .L0 
C:\msys64\tmp\cc5khA4C.s:194    .text:000000000000013c .L0 
C:\msys64\tmp\cc5khA4C.s:198    .text:000000000000014c .L0 
C:\msys64\tmp\cc5khA4C.s:199    .text:000000000000014c .L0 
C:\msys64\tmp\cc5khA4C.s:205    .text:0000000000000160 .L0 
C:\msys64\tmp\cc5khA4C.s:206    .text:0000000000000160 .L0 
C:\msys64\tmp\cc5khA4C.s:210    .text:0000000000000170 .L0 
C:\msys64\tmp\cc5khA4C.s:216    .text:0000000000000178 .L0 
C:\msys64\tmp\cc5khA4C.s:217    .text:0000000000000178 .L0 
C:\msys64\tmp\cc5khA4C.s:220    .text:0000000000000180 .L0 
C:\msys64\tmp\cc5khA4C.s:221    .text:0000000000000180 .L0 
C:\msys64\tmp\cc5khA4C.s:225    .text:0000000000000190 .L0 
C:\msys64\tmp\cc5khA4C.s:226    .text:0000000000000190 .L0 
C:\msys64\tmp\cc5khA4C.s:841    .sbss:0000000000000000 _ZL9finishedD
C:\msys64\tmp\cc5khA4C.s:229    .text:000000000000019c .L0 
C:\msys64\tmp\cc5khA4C.s:230    .text:000000000000019c .L0 
C:\msys64\tmp\cc5khA4C.s:233    .text:00000000000001a4 .L0 
C:\msys64\tmp\cc5khA4C.s:234    .text:00000000000001a8 .L0 
C:\msys64\tmp\cc5khA4C.s:236    .text:00000000000001ac .L0 
C:\msys64\tmp\cc5khA4C.s:237    .text:00000000000001ac .L0 
C:\msys64\tmp\cc5khA4C.s:239    .text:00000000000001b0 .L0 
C:\msys64\tmp\cc5khA4C.s:242    .text:00000000000001b4 .L0 
C:\msys64\tmp\cc5khA4C.s:245    .text:00000000000001b8 .L0 
C:\msys64\tmp\cc5khA4C.s:247    .text:00000000000001bc .L0 
C:\msys64\tmp\cc5khA4C.s:269    .text:00000000000001bc _ZL11workerBodyCPv
C:\msys64\tmp\cc5khA4C.s:272    .text:00000000000001bc .L0 
C:\msys64\tmp\cc5khA4C.s:274    .text:00000000000001bc .L0 
C:\msys64\tmp\cc5khA4C.s:275    .text:00000000000001c0 .L0 
C:\msys64\tmp\cc5khA4C.s:280    .text:00000000000001d0 .L0 
C:\msys64\tmp\cc5khA4C.s:281    .text:00000000000001d0 .L0 
C:\msys64\tmp\cc5khA4C.s:282    .text:00000000000001d0 .L0 
C:\msys64\tmp\cc5khA4C.s:283    .text:00000000000001d0 .L0 
C:\msys64\tmp\cc5khA4C.s:285    .text:00000000000001d4 .L0 
C:\msys64\tmp\cc5khA4C.s:288    .text:00000000000001d4 .L0 
C:\msys64\tmp\cc5khA4C.s:289    .text:00000000000001d4 .L0 
C:\msys64\tmp\cc5khA4C.s:294    .text:00000000000001dc .L0 
C:\msys64\tmp\cc5khA4C.s:295    .text:00000000000001dc .L0 
C:\msys64\tmp\cc5khA4C.s:299    .text:00000000000001ec .L0 
C:\msys64\tmp\cc5khA4C.s:300    .text:00000000000001ec .L0 
C:\msys64\tmp\cc5khA4C.s:306    .text:0000000000000200 .L0 
C:\msys64\tmp\cc5khA4C.s:307    .text:0000000000000200 .L0 
C:\msys64\tmp\cc5khA4C.s:311    .text:0000000000000210 .L0 
C:\msys64\tmp\cc5khA4C.s:317    .text:0000000000000218 .L0 
C:\msys64\tmp\cc5khA4C.s:318    .text:0000000000000218 .L0 
C:\msys64\tmp\cc5khA4C.s:321    .text:0000000000000220 .L0 
C:\msys64\tmp\cc5khA4C.s:322    .text:0000000000000220 .L0 
test/System_Mode_test.cpp:52     .text:0000000000000230 .L0 
C:\msys64\tmp\cc5khA4C.s:331    .text:0000000000000234 .L0 
C:\msys64\tmp\cc5khA4C.s:333    .text:0000000000000234 .L0 
C:\msys64\tmp\cc5khA4C.s:336    .text:000000000000023c .L0 
GAS LISTING C:\msys64\tmp\cc5khA4C.s 			page 25


test/System_Mode_test.cpp:56     .text:000000000000023c .L0 
C:\msys64\tmp\cc5khA4C.s:343    .text:0000000000000240 .L0 
C:\msys64\tmp\cc5khA4C.s:345    .text:0000000000000240 .L0 
C:\msys64\tmp\cc5khA4C.s:349    .text:0000000000000250 .L0 
C:\msys64\tmp\cc5khA4C.s:350    .text:0000000000000250 .L0 
C:\msys64\tmp\cc5khA4C.s:356    .text:0000000000000264 .L0 
C:\msys64\tmp\cc5khA4C.s:357    .text:0000000000000264 .L0 
C:\msys64\tmp\cc5khA4C.s:361    .text:0000000000000274 .L0 
C:\msys64\tmp\cc5khA4C.s:362    .text:0000000000000274 .L0 
C:\msys64\tmp\cc5khA4C.s:368    .text:0000000000000284 .L0 
C:\msys64\tmp\cc5khA4C.s:369    .text:0000000000000284 .L0 
C:\msys64\tmp\cc5khA4C.s:374    .text:0000000000000294 .L0 
C:\msys64\tmp\cc5khA4C.s:375    .text:0000000000000294 .L0 
C:\msys64\tmp\cc5khA4C.s:381    .text:00000000000002a8 .L0 
C:\msys64\tmp\cc5khA4C.s:382    .text:00000000000002a8 .L0 
C:\msys64\tmp\cc5khA4C.s:388    .text:00000000000002bc .L0 
C:\msys64\tmp\cc5khA4C.s:389    .text:00000000000002bc .L0 
C:\msys64\tmp\cc5khA4C.s:393    .text:00000000000002cc .L0 
C:\msys64\tmp\cc5khA4C.s:394    .text:00000000000002cc .L0 
C:\msys64\tmp\cc5khA4C.s:400    .text:00000000000002e0 .L0 
C:\msys64\tmp\cc5khA4C.s:401    .text:00000000000002e0 .L0 
C:\msys64\tmp\cc5khA4C.s:405    .text:00000000000002f0 .L0 
C:\msys64\tmp\cc5khA4C.s:411    .text:00000000000002f8 .L0 
C:\msys64\tmp\cc5khA4C.s:412    .text:00000000000002f8 .L0 
C:\msys64\tmp\cc5khA4C.s:415    .text:0000000000000300 .L0 
C:\msys64\tmp\cc5khA4C.s:416    .text:0000000000000300 .L0 
C:\msys64\tmp\cc5khA4C.s:420    .text:0000000000000310 .L0 
C:\msys64\tmp\cc5khA4C.s:421    .text:0000000000000310 .L0 
C:\msys64\tmp\cc5khA4C.s:845    .sbss:0000000000000001 _ZL9finishedC
C:\msys64\tmp\cc5khA4C.s:424    .text:000000000000031c .L0 
C:\msys64\tmp\cc5khA4C.s:425    .text:000000000000031c .L0 
C:\msys64\tmp\cc5khA4C.s:428    .text:0000000000000324 .L0 
C:\msys64\tmp\cc5khA4C.s:429    .text:0000000000000328 .L0 
C:\msys64\tmp\cc5khA4C.s:431    .text:000000000000032c .L0 
C:\msys64\tmp\cc5khA4C.s:432    .text:000000000000032c .L0 
C:\msys64\tmp\cc5khA4C.s:434    .text:0000000000000330 .L0 
C:\msys64\tmp\cc5khA4C.s:437    .text:0000000000000334 .L0 
C:\msys64\tmp\cc5khA4C.s:440    .text:0000000000000338 .L0 
C:\msys64\tmp\cc5khA4C.s:442    .text:000000000000033c .L0 
C:\msys64\tmp\cc5khA4C.s:455    .text:000000000000033c _ZL11workerBodyBPv
C:\msys64\tmp\cc5khA4C.s:458    .text:000000000000033c .L0 
C:\msys64\tmp\cc5khA4C.s:460    .text:000000000000033c .L0 
C:\msys64\tmp\cc5khA4C.s:461    .text:0000000000000340 .L0 
C:\msys64\tmp\cc5khA4C.s:466    .text:0000000000000350 .L0 
C:\msys64\tmp\cc5khA4C.s:467    .text:0000000000000350 .L0 
C:\msys64\tmp\cc5khA4C.s:468    .text:0000000000000350 .L0 
C:\msys64\tmp\cc5khA4C.s:469    .text:0000000000000350 .L0 
C:\msys64\tmp\cc5khA4C.s:471    .text:0000000000000354 .L0 
C:\msys64\tmp\cc5khA4C.s:475    .text:0000000000000354 .L0 
C:\msys64\tmp\cc5khA4C.s:476    .text:0000000000000354 .L0 
C:\msys64\tmp\cc5khA4C.s:485    .text:000000000000035c .L0 
C:\msys64\tmp\cc5khA4C.s:489    .text:0000000000000360 .L0 
C:\msys64\tmp\cc5khA4C.s:494    .text:000000000000036c .L0 
C:\msys64\tmp\cc5khA4C.s:495    .text:000000000000036c .L0 
C:\msys64\tmp\cc5khA4C.s:499    .text:0000000000000374 .L0 
C:\msys64\tmp\cc5khA4C.s:503    .text:0000000000000378 .L0 
C:\msys64\tmp\cc5khA4C.s:509    .text:0000000000000384 .L0 
GAS LISTING C:\msys64\tmp\cc5khA4C.s 			page 26


C:\msys64\tmp\cc5khA4C.s:516    .text:000000000000038c .L0 
C:\msys64\tmp\cc5khA4C.s:521    .text:0000000000000394 .L0 
C:\msys64\tmp\cc5khA4C.s:525    .text:0000000000000398 .L0 
C:\msys64\tmp\cc5khA4C.s:529    .text:00000000000003a0 .L0 
C:\msys64\tmp\cc5khA4C.s:530    .text:00000000000003a0 .L0 
C:\msys64\tmp\cc5khA4C.s:534    .text:00000000000003b0 .L0 
C:\msys64\tmp\cc5khA4C.s:535    .text:00000000000003b0 .L0 
C:\msys64\tmp\cc5khA4C.s:541    .text:00000000000003c4 .L0 
C:\msys64\tmp\cc5khA4C.s:542    .text:00000000000003c4 .L0 
C:\msys64\tmp\cc5khA4C.s:547    .text:00000000000003d4 .L0 
C:\msys64\tmp\cc5khA4C.s:548    .text:00000000000003d4 .L0 
test/System_Mode_test.cpp:37     .text:00000000000003dc .L0 
C:\msys64\tmp\cc5khA4C.s:565    .text:00000000000003e4 .L0 
C:\msys64\tmp\cc5khA4C.s:566    .text:00000000000003e4 .L0 
C:\msys64\tmp\cc5khA4C.s:570    .text:00000000000003f4 .L0 
C:\msys64\tmp\cc5khA4C.s:571    .text:00000000000003f4 .L0 
C:\msys64\tmp\cc5khA4C.s:849    .sbss:0000000000000002 _ZL9finishedB
C:\msys64\tmp\cc5khA4C.s:574    .text:0000000000000400 .L0 
C:\msys64\tmp\cc5khA4C.s:575    .text:0000000000000400 .L0 
C:\msys64\tmp\cc5khA4C.s:578    .text:0000000000000408 .L0 
C:\msys64\tmp\cc5khA4C.s:579    .text:000000000000040c .L0 
C:\msys64\tmp\cc5khA4C.s:581    .text:0000000000000410 .L0 
C:\msys64\tmp\cc5khA4C.s:582    .text:0000000000000410 .L0 
C:\msys64\tmp\cc5khA4C.s:584    .text:0000000000000414 .L0 
C:\msys64\tmp\cc5khA4C.s:586    .text:0000000000000418 .L0 
C:\msys64\tmp\cc5khA4C.s:589    .text:000000000000041c .L0 
C:\msys64\tmp\cc5khA4C.s:591    .text:0000000000000420 .L0 
C:\msys64\tmp\cc5khA4C.s:601    .text:0000000000000420 _ZL11workerBodyAPv
C:\msys64\tmp\cc5khA4C.s:604    .text:0000000000000420 .L0 
C:\msys64\tmp\cc5khA4C.s:606    .text:0000000000000420 .L0 
C:\msys64\tmp\cc5khA4C.s:607    .text:0000000000000424 .L0 
C:\msys64\tmp\cc5khA4C.s:612    .text:0000000000000434 .L0 
C:\msys64\tmp\cc5khA4C.s:613    .text:0000000000000434 .L0 
C:\msys64\tmp\cc5khA4C.s:614    .text:0000000000000434 .L0 
C:\msys64\tmp\cc5khA4C.s:615    .text:0000000000000434 .L0 
C:\msys64\tmp\cc5khA4C.s:617    .text:0000000000000438 .L0 
C:\msys64\tmp\cc5khA4C.s:621    .text:0000000000000438 .L0 
C:\msys64\tmp\cc5khA4C.s:622    .text:0000000000000438 .L0 
C:\msys64\tmp\cc5khA4C.s:631    .text:0000000000000440 .L0 
C:\msys64\tmp\cc5khA4C.s:635    .text:0000000000000444 .L0 
C:\msys64\tmp\cc5khA4C.s:640    .text:0000000000000450 .L0 
C:\msys64\tmp\cc5khA4C.s:641    .text:0000000000000450 .L0 
C:\msys64\tmp\cc5khA4C.s:645    .text:0000000000000458 .L0 
C:\msys64\tmp\cc5khA4C.s:649    .text:000000000000045c .L0 
C:\msys64\tmp\cc5khA4C.s:655    .text:0000000000000468 .L0 
C:\msys64\tmp\cc5khA4C.s:663    .text:0000000000000470 .L0 
C:\msys64\tmp\cc5khA4C.s:667    .text:0000000000000474 .L0 
C:\msys64\tmp\cc5khA4C.s:671    .text:000000000000047c .L0 
C:\msys64\tmp\cc5khA4C.s:672    .text:000000000000047c .L0 
C:\msys64\tmp\cc5khA4C.s:676    .text:000000000000048c .L0 
C:\msys64\tmp\cc5khA4C.s:677    .text:000000000000048c .L0 
C:\msys64\tmp\cc5khA4C.s:683    .text:00000000000004a0 .L0 
C:\msys64\tmp\cc5khA4C.s:684    .text:00000000000004a0 .L0 
C:\msys64\tmp\cc5khA4C.s:689    .text:00000000000004b0 .L0 
C:\msys64\tmp\cc5khA4C.s:690    .text:00000000000004b0 .L0 
C:\msys64\tmp\cc5khA4C.s:698    .text:00000000000004b8 .L0 
C:\msys64\tmp\cc5khA4C.s:699    .text:00000000000004b8 .L0 
GAS LISTING C:\msys64\tmp\cc5khA4C.s 			page 27


C:\msys64\tmp\cc5khA4C.s:703    .text:00000000000004c8 .L0 
C:\msys64\tmp\cc5khA4C.s:704    .text:00000000000004c8 .L0 
C:\msys64\tmp\cc5khA4C.s:853    .sbss:0000000000000003 _ZL9finishedA
C:\msys64\tmp\cc5khA4C.s:707    .text:00000000000004d4 .L0 
C:\msys64\tmp\cc5khA4C.s:708    .text:00000000000004d8 .L0 
C:\msys64\tmp\cc5khA4C.s:710    .text:00000000000004dc .L0 
C:\msys64\tmp\cc5khA4C.s:711    .text:00000000000004dc .L0 
C:\msys64\tmp\cc5khA4C.s:713    .text:00000000000004e0 .L0 
C:\msys64\tmp\cc5khA4C.s:715    .text:00000000000004e4 .L0 
C:\msys64\tmp\cc5khA4C.s:718    .text:00000000000004e8 .L0 
C:\msys64\tmp\cc5khA4C.s:720    .text:00000000000004ec .L0 
C:\msys64\tmp\cc5khA4C.s:740    .text:00000000000004ec _Z16System_Mode_testv
C:\msys64\tmp\cc5khA4C.s:743    .text:00000000000004ec .L0 
C:\msys64\tmp\cc5khA4C.s:744    .text:00000000000004ec .L0 
C:\msys64\tmp\cc5khA4C.s:745    .text:00000000000004f0 .L0 
C:\msys64\tmp\cc5khA4C.s:748    .text:00000000000004f8 .L0 
C:\msys64\tmp\cc5khA4C.s:749    .text:00000000000004f8 .L0 
C:\msys64\tmp\cc5khA4C.s:751    .text:00000000000004fc .L0 
C:\msys64\tmp\cc5khA4C.s:753    .text:00000000000004fc .L0 
C:\msys64\tmp\cc5khA4C.s:754    .text:00000000000004fc .L0 
C:\msys64\tmp\cc5khA4C.s:755    .text:00000000000004fc .L0 
C:\msys64\tmp\cc5khA4C.s:761    .text:0000000000000514 .L0 
C:\msys64\tmp\cc5khA4C.s:762    .text:0000000000000514 .L0 
C:\msys64\tmp\cc5khA4C.s:766    .text:0000000000000524 .L0 
C:\msys64\tmp\cc5khA4C.s:767    .text:0000000000000524 .L0 
C:\msys64\tmp\cc5khA4C.s:773    .text:000000000000053c .L0 
C:\msys64\tmp\cc5khA4C.s:774    .text:000000000000053c .L0 
C:\msys64\tmp\cc5khA4C.s:778    .text:000000000000054c .L0 
C:\msys64\tmp\cc5khA4C.s:779    .text:000000000000054c .L0 
C:\msys64\tmp\cc5khA4C.s:785    .text:0000000000000564 .L0 
C:\msys64\tmp\cc5khA4C.s:786    .text:0000000000000564 .L0 
C:\msys64\tmp\cc5khA4C.s:790    .text:0000000000000574 .L0 
C:\msys64\tmp\cc5khA4C.s:791    .text:0000000000000574 .L0 
C:\msys64\tmp\cc5khA4C.s:797    .text:000000000000058c .L0 
C:\msys64\tmp\cc5khA4C.s:798    .text:000000000000058c .L0 
C:\msys64\tmp\cc5khA4C.s:804    .text:00000000000005a0 .L0 
C:\msys64\tmp\cc5khA4C.s:805    .text:00000000000005a0 .L0 
C:\msys64\tmp\cc5khA4C.s:809    .text:00000000000005a8 .L0 
C:\msys64\tmp\cc5khA4C.s:810    .text:00000000000005a8 .L0 
C:\msys64\tmp\cc5khA4C.s:811    .text:00000000000005a8 .L0 
C:\msys64\tmp\cc5khA4C.s:813    .text:00000000000005b0 .L0 
C:\msys64\tmp\cc5khA4C.s:815    .text:00000000000005b4 .L0 
C:\msys64\tmp\cc5khA4C.s:817    .text:00000000000005bc .L0 
C:\msys64\tmp\cc5khA4C.s:819    .text:00000000000005c0 .L0 
C:\msys64\tmp\cc5khA4C.s:821    .text:00000000000005c8 .L0 
C:\msys64\tmp\cc5khA4C.s:823    .text:00000000000005cc .L0 
C:\msys64\tmp\cc5khA4C.s:825    .text:00000000000005d4 .L0 
C:\msys64\tmp\cc5khA4C.s:827    .text:00000000000005d8 .L0 
C:\msys64\tmp\cc5khA4C.s:828    .text:00000000000005dc .L0 
C:\msys64\tmp\cc5khA4C.s:830    .text:00000000000005e0 .L0 
C:\msys64\tmp\cc5khA4C.s:831    .text:00000000000005e0 .L0 
C:\msys64\tmp\cc5khA4C.s:833    .text:00000000000005e4 .L0 
C:\msys64\tmp\cc5khA4C.s:835    .text:00000000000005e8 .L0 
C:\msys64\tmp\cc5khA4C.s:860    .text:00000000000005e8 .L0 
C:\msys64\tmp\cc5khA4C.s:82     .rodata.str1.8:0000000000000000 .LC0
C:\msys64\tmp\cc5khA4C.s:125    .text:0000000000000094 .L0 
C:\msys64\tmp\cc5khA4C.s:85     .rodata.str1.8:0000000000000008 .LC1
GAS LISTING C:\msys64\tmp\cc5khA4C.s 			page 28


C:\msys64\tmp\cc5khA4C.s:137    .text:00000000000000b8 .L0 
C:\msys64\tmp\cc5khA4C.s:88     .rodata.str1.8:0000000000000010 .LC2
C:\msys64\tmp\cc5khA4C.s:152    .text:00000000000000d8 .L0 
C:\msys64\tmp\cc5khA4C.s:91     .rodata.str1.8:0000000000000020 .LC3
C:\msys64\tmp\cc5khA4C.s:174    .text:0000000000000104 .L0 
C:\msys64\tmp\cc5khA4C.s:187    .text:0000000000000128 .L0 
C:\msys64\tmp\cc5khA4C.s:194    .text:000000000000013c .L0 
C:\msys64\tmp\cc5khA4C.s:206    .text:0000000000000160 .L0 
C:\msys64\tmp\cc5khA4C.s:94     .rodata.str1.8:0000000000000030 .LC4
C:\msys64\tmp\cc5khA4C.s:221    .text:0000000000000180 .L0 
C:\msys64\tmp\cc5khA4C.s:227    .text:0000000000000194 .L0 
C:\msys64\tmp\cc5khA4C.s:252    .rodata.str1.8:0000000000000040 .LC5
C:\msys64\tmp\cc5khA4C.s:295    .text:00000000000001dc .L0 
C:\msys64\tmp\cc5khA4C.s:307    .text:0000000000000200 .L0 
C:\msys64\tmp\cc5khA4C.s:255    .rodata.str1.8:0000000000000048 .LC6
C:\msys64\tmp\cc5khA4C.s:322    .text:0000000000000220 .L0 
C:\msys64\tmp\cc5khA4C.s:258    .rodata.str1.8:0000000000000058 .LC7
C:\msys64\tmp\cc5khA4C.s:345    .text:0000000000000240 .L0 
C:\msys64\tmp\cc5khA4C.s:357    .text:0000000000000264 .L0 
C:\msys64\tmp\cc5khA4C.s:261    .rodata.str1.8:0000000000000060 .LC8
C:\msys64\tmp\cc5khA4C.s:369    .text:0000000000000284 .L0 
C:\msys64\tmp\cc5khA4C.s:382    .text:00000000000002a8 .L0 
C:\msys64\tmp\cc5khA4C.s:389    .text:00000000000002bc .L0 
C:\msys64\tmp\cc5khA4C.s:401    .text:00000000000002e0 .L0 
C:\msys64\tmp\cc5khA4C.s:264    .rodata.str1.8:0000000000000070 .LC9
C:\msys64\tmp\cc5khA4C.s:416    .text:0000000000000300 .L0 
C:\msys64\tmp\cc5khA4C.s:422    .text:0000000000000314 .L0 
C:\msys64\tmp\cc5khA4C.s:447    .rodata.str1.8:0000000000000080 .LC10
C:\msys64\tmp\cc5khA4C.s:530    .text:00000000000003a0 .L0 
C:\msys64\tmp\cc5khA4C.s:542    .text:00000000000003c4 .L0 
C:\msys64\tmp\cc5khA4C.s:450    .rodata.str1.8:0000000000000088 .LC11
C:\msys64\tmp\cc5khA4C.s:566    .text:00000000000003e4 .L0 
C:\msys64\tmp\cc5khA4C.s:572    .text:00000000000003f8 .L0 
C:\msys64\tmp\cc5khA4C.s:596    .rodata.str1.8:0000000000000098 .LC12
C:\msys64\tmp\cc5khA4C.s:672    .text:000000000000047c .L0 
C:\msys64\tmp\cc5khA4C.s:684    .text:00000000000004a0 .L0 
C:\msys64\tmp\cc5khA4C.s:699    .text:00000000000004b8 .L0 
C:\msys64\tmp\cc5khA4C.s:705    .text:00000000000004cc .L0 
C:\msys64\tmp\cc5khA4C.s:756    .text:0000000000000500 .L0 
C:\msys64\tmp\cc5khA4C.s:725    .rodata.str1.8:00000000000000a0 .LC13
C:\msys64\tmp\cc5khA4C.s:762    .text:0000000000000514 .L0 
C:\msys64\tmp\cc5khA4C.s:768    .text:0000000000000528 .L0 
C:\msys64\tmp\cc5khA4C.s:728    .rodata.str1.8:00000000000000b8 .LC14
C:\msys64\tmp\cc5khA4C.s:774    .text:000000000000053c .L0 
C:\msys64\tmp\cc5khA4C.s:780    .text:0000000000000550 .L0 
C:\msys64\tmp\cc5khA4C.s:731    .rodata.str1.8:00000000000000d0 .LC15
C:\msys64\tmp\cc5khA4C.s:786    .text:0000000000000564 .L0 
C:\msys64\tmp\cc5khA4C.s:792    .text:0000000000000578 .L0 
C:\msys64\tmp\cc5khA4C.s:734    .rodata.str1.8:00000000000000e8 .LC16
C:\msys64\tmp\cc5khA4C.s:798    .text:000000000000058c .L0 
C:\msys64\tmp\cc5khA4C.s:811    .text:00000000000005a8 .L0 
C:\msys64\tmp\cc5khA4C.s:815    .text:00000000000005b4 .L0 
C:\msys64\tmp\cc5khA4C.s:819    .text:00000000000005c0 .L0 
C:\msys64\tmp\cc5khA4C.s:823    .text:00000000000005cc .L0 
C:\msys64\tmp\cc5khA4C.s:53     .text:0000000000000050 .L1
C:\msys64\tmp\cc5khA4C.s:70     .text:0000000000000068 .L6
C:\msys64\tmp\cc5khA4C.s:40     .text:0000000000000030 .L3
GAS LISTING C:\msys64\tmp\cc5khA4C.s 			page 29


C:\msys64\tmp\cc5khA4C.s:145    .text:00000000000000d0 .L9
C:\msys64\tmp\cc5khA4C.s:122    .text:0000000000000094 .L13
C:\msys64\tmp\cc5khA4C.s:214    .text:0000000000000178 .L11
C:\msys64\tmp\cc5khA4C.s:191    .text:000000000000013c .L14
C:\msys64\tmp\cc5khA4C.s:315    .text:0000000000000218 .L17
C:\msys64\tmp\cc5khA4C.s:292    .text:00000000000001dc .L21
C:\msys64\tmp\cc5khA4C.s:409    .text:00000000000002f8 .L19
C:\msys64\tmp\cc5khA4C.s:386    .text:00000000000002bc .L22
C:\msys64\tmp\cc5khA4C.s:523    .text:0000000000000398 .L30
C:\msys64\tmp\cc5khA4C.s:479    .text:000000000000035c .L32
C:\msys64\tmp\cc5khA4C.s:511    .text:000000000000038c .L25
C:\msys64\tmp\cc5khA4C.s:487    .text:0000000000000360 .L27
C:\msys64\tmp\cc5khA4C.s:551    .text:00000000000003dc .L33
C:\msys64\tmp\cc5khA4C.s:561    .text:00000000000003e4 .L24
C:\msys64\tmp\cc5khA4C.s:501    .text:0000000000000378 .L28
C:\msys64\tmp\cc5khA4C.s:518    .text:0000000000000394 .L29
C:\msys64\tmp\cc5khA4C.s:665    .text:0000000000000474 .L40
C:\msys64\tmp\cc5khA4C.s:625    .text:0000000000000440 .L42
C:\msys64\tmp\cc5khA4C.s:657    .text:0000000000000470 .L36
C:\msys64\tmp\cc5khA4C.s:633    .text:0000000000000444 .L38
C:\msys64\tmp\cc5khA4C.s:693    .text:00000000000004b8 .L35
C:\msys64\tmp\cc5khA4C.s:647    .text:000000000000045c .L39
C:\msys64\tmp\cc5khA4C.s:807    .text:00000000000005a8 .L45
C:\msys64\tmp\cc5khA4C.s:802    .text:00000000000005a0 .L44
C:\msys64\tmp\cc5khA4C.s:1921   .debug_abbrev:0000000000000000 .Ldebug_abbrev0
C:\msys64\tmp\cc5khA4C.s:2600   .debug_str:000000000000013d .LASF33
C:\msys64\tmp\cc5khA4C.s:2604   .debug_str:000000000000021c .LASF34
C:\msys64\tmp\cc5khA4C.s:2596   .debug_str:0000000000000101 .LASF35
C:\msys64\tmp\cc5khA4C.s:8      .text:0000000000000000 .Ltext0
C:\msys64\tmp\cc5khA4C.s:856    .text:00000000000005e8 .Letext0
C:\msys64\tmp\cc5khA4C.s:2562   .debug_line:0000000000000000 .Ldebug_line0
C:\msys64\tmp\cc5khA4C.s:2598   .debug_str:0000000000000130 .LASF0
C:\msys64\tmp\cc5khA4C.s:2588   .debug_str:00000000000000c5 .LASF1
C:\msys64\tmp\cc5khA4C.s:2584   .debug_str:00000000000000a5 .LASF2
C:\msys64\tmp\cc5khA4C.s:2636   .debug_str:00000000000002ef .LASF3
C:\msys64\tmp\cc5khA4C.s:2570   .debug_str:0000000000000030 .LASF4
C:\msys64\tmp\cc5khA4C.s:2586   .debug_str:00000000000000b3 .LASF5
C:\msys64\tmp\cc5khA4C.s:2566   .debug_str:0000000000000013 .LASF6
C:\msys64\tmp\cc5khA4C.s:2564   .debug_str:0000000000000000 .LASF7
C:\msys64\tmp\cc5khA4C.s:2580   .debug_str:000000000000007f .LASF8
C:\msys64\tmp\cc5khA4C.s:2642   .debug_str:000000000000030b .LASF9
C:\msys64\tmp\cc5khA4C.s:2592   .debug_str:00000000000000e6 .LASF10
C:\msys64\tmp\cc5khA4C.s:2568   .debug_str:000000000000001a .LASF11
C:\msys64\tmp\cc5khA4C.s:2614   .debug_str:0000000000000266 .LASF12
C:\msys64\tmp\cc5khA4C.s:2616   .debug_str:000000000000027c .LASF13
C:\msys64\tmp\cc5khA4C.s:2634   .debug_str:00000000000002e7 .LASF36
C:\msys64\tmp\cc5khA4C.s:2622   .debug_str:00000000000002ab .LASF14
C:\msys64\tmp\cc5khA4C.s:2572   .debug_str:0000000000000037 .LASF15
C:\msys64\tmp\cc5khA4C.s:2624   .debug_str:00000000000002b5 .LASF16
C:\msys64\tmp\cc5khA4C.s:2626   .debug_str:00000000000002bf .LASF17
C:\msys64\tmp\cc5khA4C.s:2628   .debug_str:00000000000002c9 .LASF18
C:\msys64\tmp\cc5khA4C.s:2610   .debug_str:0000000000000249 .LASF37
C:\msys64\tmp\cc5khA4C.s:2618   .debug_str:0000000000000285 .LASF38
C:\msys64\tmp\cc5khA4C.s:741    .text:00000000000004ec .LFB5
C:\msys64\tmp\cc5khA4C.s:836    .text:00000000000005e8 .LFE5
C:\msys64\tmp\cc5khA4C.s:2630   .debug_str:00000000000002d3 .LASF19
C:\msys64\tmp\cc5khA4C.s:759    .text:0000000000000514 .LVL89
GAS LISTING C:\msys64\tmp\cc5khA4C.s 			page 30


C:\msys64\tmp\cc5khA4C.s:764    .text:0000000000000524 .LVL90
C:\msys64\tmp\cc5khA4C.s:771    .text:000000000000053c .LVL91
C:\msys64\tmp\cc5khA4C.s:776    .text:000000000000054c .LVL92
C:\msys64\tmp\cc5khA4C.s:783    .text:0000000000000564 .LVL93
C:\msys64\tmp\cc5khA4C.s:788    .text:0000000000000574 .LVL94
C:\msys64\tmp\cc5khA4C.s:795    .text:000000000000058c .LVL95
C:\msys64\tmp\cc5khA4C.s:800    .text:000000000000059c .LVL96
C:\msys64\tmp\cc5khA4C.s:806    .text:00000000000005a8 .LVL97
C:\msys64\tmp\cc5khA4C.s:2612   .debug_str:000000000000025a .LASF21
C:\msys64\tmp\cc5khA4C.s:100    .text:0000000000000074 .LFB4
C:\msys64\tmp\cc5khA4C.s:248    .text:00000000000001bc .LFE4
C:\msys64\tmp\cc5khA4C.s:2309   .debug_loc:0000000000000000 .LLST1
C:\msys64\tmp\cc5khA4C.s:2323   .debug_loc:0000000000000039 .LLST2
C:\msys64\tmp\cc5khA4C.s:2606   .debug_str:0000000000000236 .LASF20
C:\msys64\tmp\cc5khA4C.s:2343   .debug_loc:0000000000000096 .LLST3
C:\msys64\tmp\cc5khA4C.s:127    .text:00000000000000a4 .LVL10
C:\msys64\tmp\cc5khA4C.s:134    .text:00000000000000b8 .LVL11
C:\msys64\tmp\cc5khA4C.s:139    .text:00000000000000c8 .LVL12
C:\msys64\tmp\cc5khA4C.s:154    .text:00000000000000e8 .LVL15
C:\msys64\tmp\cc5khA4C.s:164    .text:00000000000000f4 .LVL16
C:\msys64\tmp\cc5khA4C.s:169    .text:0000000000000100 .LVL17
C:\msys64\tmp\cc5khA4C.s:177    .text:0000000000000114 .LVL20
C:\msys64\tmp\cc5khA4C.s:184    .text:0000000000000128 .LVL21
C:\msys64\tmp\cc5khA4C.s:189    .text:0000000000000138 .LVL22
C:\msys64\tmp\cc5khA4C.s:196    .text:000000000000014c .LVL23
C:\msys64\tmp\cc5khA4C.s:203    .text:0000000000000160 .LVL24
C:\msys64\tmp\cc5khA4C.s:208    .text:0000000000000170 .LVL25
C:\msys64\tmp\cc5khA4C.s:223    .text:0000000000000190 .LVL28
C:\msys64\tmp\cc5khA4C.s:231    .text:00000000000001a4 .LVL29
C:\msys64\tmp\cc5khA4C.s:2608   .debug_str:000000000000023d .LASF22
C:\msys64\tmp\cc5khA4C.s:270    .text:00000000000001bc .LFB3
C:\msys64\tmp\cc5khA4C.s:443    .text:000000000000033c .LFE3
C:\msys64\tmp\cc5khA4C.s:2354   .debug_loc:00000000000000cc .LLST4
C:\msys64\tmp\cc5khA4C.s:2368   .debug_loc:0000000000000105 .LLST5
C:\msys64\tmp\cc5khA4C.s:2388   .debug_loc:0000000000000162 .LLST6
C:\msys64\tmp\cc5khA4C.s:2396   .debug_loc:0000000000000186 .LLST7
C:\msys64\tmp\cc5khA4C.s:297    .text:00000000000001ec .LVL35
C:\msys64\tmp\cc5khA4C.s:304    .text:0000000000000200 .LVL36
C:\msys64\tmp\cc5khA4C.s:309    .text:0000000000000210 .LVL37
C:\msys64\tmp\cc5khA4C.s:324    .text:0000000000000230 .LVL40
C:\msys64\tmp\cc5khA4C.s:334    .text:000000000000023c .LVL41
C:\msys64\tmp\cc5khA4C.s:347    .text:0000000000000250 .LVL43
C:\msys64\tmp\cc5khA4C.s:354    .text:0000000000000264 .LVL44
C:\msys64\tmp\cc5khA4C.s:359    .text:0000000000000274 .LVL45
C:\msys64\tmp\cc5khA4C.s:364    .text:0000000000000280 .LVL46
C:\msys64\tmp\cc5khA4C.s:372    .text:0000000000000294 .LVL49
C:\msys64\tmp\cc5khA4C.s:379    .text:00000000000002a8 .LVL50
C:\msys64\tmp\cc5khA4C.s:384    .text:00000000000002b8 .LVL51
C:\msys64\tmp\cc5khA4C.s:391    .text:00000000000002cc .LVL52
C:\msys64\tmp\cc5khA4C.s:398    .text:00000000000002e0 .LVL53
C:\msys64\tmp\cc5khA4C.s:403    .text:00000000000002f0 .LVL54
C:\msys64\tmp\cc5khA4C.s:418    .text:0000000000000310 .LVL57
C:\msys64\tmp\cc5khA4C.s:426    .text:0000000000000324 .LVL58
C:\msys64\tmp\cc5khA4C.s:2632   .debug_str:00000000000002db .LASF23
C:\msys64\tmp\cc5khA4C.s:456    .text:000000000000033c .LFB2
C:\msys64\tmp\cc5khA4C.s:592    .text:0000000000000420 .LFE2
C:\msys64\tmp\cc5khA4C.s:2407   .debug_loc:00000000000001bc .LLST8
GAS LISTING C:\msys64\tmp\cc5khA4C.s 			page 31


C:\msys64\tmp\cc5khA4C.s:474    .text:0000000000000354 .LBB2
C:\msys64\tmp\cc5khA4C.s:563    .text:00000000000003e4 .LBE2
C:\msys64\tmp\cc5khA4C.s:2421   .debug_loc:00000000000001f5 .LLST9
C:\msys64\tmp\cc5khA4C.s:2536   .debug_ranges:0000000000000000 .Ldebug_ranges0
C:\msys64\tmp\cc5khA4C.s:2433   .debug_loc:000000000000022c .LLST10
C:\msys64\tmp\cc5khA4C.s:2449   .debug_loc:0000000000000276 .LLST11
C:\msys64\tmp\cc5khA4C.s:496    .text:0000000000000374 .LVL65
C:\msys64\tmp\cc5khA4C.s:532    .text:00000000000003b0 .LVL68
C:\msys64\tmp\cc5khA4C.s:539    .text:00000000000003c4 .LVL69
C:\msys64\tmp\cc5khA4C.s:544    .text:00000000000003d4 .LVL70
C:\msys64\tmp\cc5khA4C.s:568    .text:00000000000003f4 .LVL73
C:\msys64\tmp\cc5khA4C.s:576    .text:0000000000000408 .LVL74
C:\msys64\tmp\cc5khA4C.s:2602   .debug_str:0000000000000210 .LASF24
C:\msys64\tmp\cc5khA4C.s:602    .text:0000000000000420 .LFB1
C:\msys64\tmp\cc5khA4C.s:721    .text:00000000000004ec .LFE1
C:\msys64\tmp\cc5khA4C.s:2456   .debug_loc:0000000000000299 .LLST12
C:\msys64\tmp\cc5khA4C.s:620    .text:0000000000000438 .LBB11
C:\msys64\tmp\cc5khA4C.s:696    .text:00000000000004b8 .LBE11
C:\msys64\tmp\cc5khA4C.s:2470   .debug_loc:00000000000002d2 .LLST13
C:\msys64\tmp\cc5khA4C.s:2482   .debug_loc:0000000000000309 .LLST14
C:\msys64\tmp\cc5khA4C.s:2494   .debug_loc:0000000000000340 .LLST15
C:\msys64\tmp\cc5khA4C.s:642    .text:0000000000000458 .LVL80
C:\msys64\tmp\cc5khA4C.s:674    .text:000000000000048c .LVL83
C:\msys64\tmp\cc5khA4C.s:681    .text:00000000000004a0 .LVL84
C:\msys64\tmp\cc5khA4C.s:686    .text:00000000000004b0 .LVL85
C:\msys64\tmp\cc5khA4C.s:701    .text:00000000000004c8 .LVL87
C:\msys64\tmp\cc5khA4C.s:2638   .debug_str:00000000000002f5 .LASF39
C:\msys64\tmp\cc5khA4C.s:12     .text:0000000000000000 .LFB0
C:\msys64\tmp\cc5khA4C.s:78     .text:0000000000000074 .LFE0
C:\msys64\tmp\cc5khA4C.s:2501   .debug_loc:0000000000000363 .LLST0
C:\msys64\tmp\cc5khA4C.s:45     .text:000000000000003c .LVL2
C:\msys64\tmp\cc5khA4C.s:50     .text:000000000000004c .LVL3
C:\msys64\tmp\cc5khA4C.s:75     .text:0000000000000070 .LVL6
C:\msys64\tmp\cc5khA4C.s:2576   .debug_str:0000000000000045 .LASF25
C:\msys64\tmp\cc5khA4C.s:2590   .debug_str:00000000000000d8 .LASF27
C:\msys64\tmp\cc5khA4C.s:2582   .debug_str:0000000000000092 .LASF26
C:\msys64\tmp\cc5khA4C.s:2640   .debug_str:00000000000002ff .LASF28
C:\msys64\tmp\cc5khA4C.s:2578   .debug_str:000000000000006a .LASF29
C:\msys64\tmp\cc5khA4C.s:2620   .debug_str:000000000000029b .LASF30
C:\msys64\tmp\cc5khA4C.s:2594   .debug_str:00000000000000f2 .LASF31
C:\msys64\tmp\cc5khA4C.s:2574   .debug_str:000000000000003c .LASF32
C:\msys64\tmp\cc5khA4C.s:103    .text:0000000000000074 .LVL7
C:\msys64\tmp\cc5khA4C.s:121    .text:0000000000000094 .LVL9
C:\msys64\tmp\cc5khA4C.s:117    .text:000000000000008c .LVL8
C:\msys64\tmp\cc5khA4C.s:142    .text:00000000000000cc .LVL13
C:\msys64\tmp\cc5khA4C.s:144    .text:00000000000000d0 .LVL14
C:\msys64\tmp\cc5khA4C.s:211    .text:0000000000000174 .LVL26
C:\msys64\tmp\cc5khA4C.s:213    .text:0000000000000178 .LVL27
C:\msys64\tmp\cc5khA4C.s:240    .text:00000000000001b0 .LVL30
C:\msys64\tmp\cc5khA4C.s:171    .text:0000000000000104 .LVL18
C:\msys64\tmp\cc5khA4C.s:175    .text:000000000000010c .LVL19
C:\msys64\tmp\cc5khA4C.s:243    .text:00000000000001b4 .LVL31
C:\msys64\tmp\cc5khA4C.s:273    .text:00000000000001bc .LVL32
C:\msys64\tmp\cc5khA4C.s:291    .text:00000000000001dc .LVL34
C:\msys64\tmp\cc5khA4C.s:287    .text:00000000000001d4 .LVL33
C:\msys64\tmp\cc5khA4C.s:312    .text:0000000000000214 .LVL38
C:\msys64\tmp\cc5khA4C.s:314    .text:0000000000000218 .LVL39
GAS LISTING C:\msys64\tmp\cc5khA4C.s 			page 32


C:\msys64\tmp\cc5khA4C.s:406    .text:00000000000002f4 .LVL55
C:\msys64\tmp\cc5khA4C.s:408    .text:00000000000002f8 .LVL56
C:\msys64\tmp\cc5khA4C.s:435    .text:0000000000000330 .LVL59
C:\msys64\tmp\cc5khA4C.s:341    .text:0000000000000240 .LVL42
C:\msys64\tmp\cc5khA4C.s:366    .text:0000000000000284 .LVL47
C:\msys64\tmp\cc5khA4C.s:370    .text:000000000000028c .LVL48
C:\msys64\tmp\cc5khA4C.s:438    .text:0000000000000334 .LVL60
C:\msys64\tmp\cc5khA4C.s:459    .text:000000000000033c .LVL61
C:\msys64\tmp\cc5khA4C.s:478    .text:000000000000035c .LVL63
C:\msys64\tmp\cc5khA4C.s:473    .text:0000000000000354 .LVL62
C:\msys64\tmp\cc5khA4C.s:587    .text:0000000000000418 .LVL75
C:\msys64\tmp\cc5khA4C.s:522    .text:0000000000000398 .LVL67
C:\msys64\tmp\cc5khA4C.s:550    .text:00000000000003dc .LVL71
C:\msys64\tmp\cc5khA4C.s:560    .text:00000000000003e4 .LVL72
C:\msys64\tmp\cc5khA4C.s:605    .text:0000000000000420 .LVL76
C:\msys64\tmp\cc5khA4C.s:624    .text:0000000000000440 .LVL78
C:\msys64\tmp\cc5khA4C.s:619    .text:0000000000000438 .LVL77
C:\msys64\tmp\cc5khA4C.s:716    .text:00000000000004e4 .LVL88
C:\msys64\tmp\cc5khA4C.s:664    .text:0000000000000474 .LVL82
C:\msys64\tmp\cc5khA4C.s:692    .text:00000000000004b8 .LVL86
C:\msys64\tmp\cc5khA4C.s:16     .text:0000000000000000 .LVL0
C:\msys64\tmp\cc5khA4C.s:39     .text:0000000000000030 .LVL1
C:\msys64\tmp\cc5khA4C.s:63     .text:000000000000005c .LVL4
C:\msys64\tmp\cc5khA4C.s:69     .text:0000000000000068 .LVL5
C:\msys64\tmp\cc5khA4C.s:861    .debug_info:0000000000000000 .Ldebug_info0
C:\msys64\tmp\cc5khA4C.s:481    .text:000000000000035c .LBB4
C:\msys64\tmp\cc5khA4C.s:514    .text:000000000000038c .LBE4
C:\msys64\tmp\cc5khA4C.s:546    .text:00000000000003d4 .LBB9
C:\msys64\tmp\cc5khA4C.s:552    .text:00000000000003dc .LBE9
C:\msys64\tmp\cc5khA4C.s:483    .text:000000000000035c .LBB6
C:\msys64\tmp\cc5khA4C.s:492    .text:000000000000036c .LBE6
C:\msys64\tmp\cc5khA4C.s:507    .text:0000000000000384 .LBB7
C:\msys64\tmp\cc5khA4C.s:512    .text:000000000000038c .LBE7
C:\msys64\tmp\cc5khA4C.s:627    .text:0000000000000440 .LBB13
C:\msys64\tmp\cc5khA4C.s:660    .text:0000000000000470 .LBE13
C:\msys64\tmp\cc5khA4C.s:688    .text:00000000000004b0 .LBB18
C:\msys64\tmp\cc5khA4C.s:694    .text:00000000000004b8 .LBE18
C:\msys64\tmp\cc5khA4C.s:629    .text:0000000000000440 .LBB15
C:\msys64\tmp\cc5khA4C.s:638    .text:0000000000000450 .LBE15
C:\msys64\tmp\cc5khA4C.s:653    .text:0000000000000468 .LBB16
C:\msys64\tmp\cc5khA4C.s:658    .text:0000000000000470 .LBE16

UNDEFINED SYMBOLS
_Z15thread_dispatchv
_Z11printStringPKc
_Z8printIntiii
_Z13thread_createPP7_threadPFvPvES2_
