GAS LISTING C:\msys64\tmp\ccml88MK.s 			page 1


   1              		.file	"Threads_C_API_test.cpp"
   2              		.option nopic
   3              		.option norelax
   4              		.attribute arch, "rv64i2p0_m2p0_a2p0"
   5              		.attribute unaligned_access, 0
   6              		.attribute stack_align, 16
   7              		.text
   8              	.Ltext0:
   9              		.align	2
  11              	_ZL9fibonaccim:
  12              	.LFB0:
  13              		.file 1 "test/Threads_C_API_test.cpp"
   1:test/Threads_C_API_test.cpp **** 
   2:test/Threads_C_API_test.cpp **** #include "../h/syscall_c.h"
   3:test/Threads_C_API_test.cpp **** #include "Threads_C_API_test.hpp"
   4:test/Threads_C_API_test.cpp **** 
   5:test/Threads_C_API_test.cpp **** #include "printing.hpp"
   6:test/Threads_C_API_test.cpp **** 
   7:test/Threads_C_API_test.cpp **** static volatile bool finishedA = false;
   8:test/Threads_C_API_test.cpp **** static volatile bool finishedB = false;
   9:test/Threads_C_API_test.cpp **** static volatile bool finishedC = false;
  10:test/Threads_C_API_test.cpp **** static volatile bool finishedD = false;
  11:test/Threads_C_API_test.cpp **** 
  12:test/Threads_C_API_test.cpp **** static uint64 fibonacci(uint64 n) {
  14              		.loc 1 12 35
  15              		.cfi_startproc
  16              	.LVL0:
  17 0000 130101FE 		addi	sp,sp,-32
  18              		.cfi_def_cfa_offset 32
  19 0004 233C1100 		sd	ra,24(sp)
  20 0008 23388100 		sd	s0,16(sp)
  21 000c 23349100 		sd	s1,8(sp)
  22 0010 23302101 		sd	s2,0(sp)
  23              		.cfi_offset 1, -8
  24              		.cfi_offset 8, -16
  25              		.cfi_offset 9, -24
  26              		.cfi_offset 18, -32
  27 0014 13040102 		addi	s0,sp,32
  28              		.cfi_def_cfa 8, 0
  29 0018 93040500 		mv	s1,a0
  13:test/Threads_C_API_test.cpp ****     if (n == 0 || n == 1) { return n; }
  30              		.loc 1 13 5
  31 001c 93071000 		li	a5,1
  32 0020 63F8A702 		bleu	a0,a5,.L1
  14:test/Threads_C_API_test.cpp ****     if (n % 10 == 0) { thread_dispatch(); }
  33              		.loc 1 14 5
  34              		.loc 1 14 11 is_stmt 0
  35 0024 9307A000 		li	a5,10
  36 0028 B377F502 		remu	a5,a0,a5
  37              		.loc 1 14 5
  38 002c 638E0702 		beq	a5,zero,.L6
  39              	.LVL1:
  40              	.L3:
  15:test/Threads_C_API_test.cpp ****     return fibonacci(n - 1) + fibonacci(n - 2);
  41              		.loc 1 15 5 is_stmt 1
  42              		.loc 1 15 21 is_stmt 0
  43 0030 1385F4FF 		addi	a0,s1,-1
GAS LISTING C:\msys64\tmp\ccml88MK.s 			page 2


  44 0034 97000000 		call	_ZL9fibonaccim
  44      E7800000 
  45              	.LVL2:
  46 003c 13090500 		mv	s2,a0
  47              		.loc 1 15 40
  48 0040 1385E4FF 		addi	a0,s1,-2
  49 0044 97000000 		call	_ZL9fibonaccim
  49      E7800000 
  50              	.LVL3:
  51              		.loc 1 15 46
  52 004c 3305A900 		add	a0,s2,a0
  53              	.L1:
  16:test/Threads_C_API_test.cpp **** }
  54              		.loc 1 16 1
  55 0050 83308101 		ld	ra,24(sp)
  56              		.cfi_remember_state
  57              		.cfi_restore 1
  58 0054 03340101 		ld	s0,16(sp)
  59              		.cfi_restore 8
  60              		.cfi_def_cfa 2, 32
  61 0058 83348100 		ld	s1,8(sp)
  62              		.cfi_restore 9
  63              	.LVL4:
  64 005c 03390100 		ld	s2,0(sp)
  65              		.cfi_restore 18
  66 0060 13010102 		addi	sp,sp,32
  67              		.cfi_def_cfa_offset 0
  68 0064 67800000 		jr	ra
  69              	.LVL5:
  70              	.L6:
  71              		.cfi_restore_state
  14:test/Threads_C_API_test.cpp ****     if (n % 10 == 0) { thread_dispatch(); }
  72              		.loc 1 14 24 is_stmt 1 discriminator 1
  14:test/Threads_C_API_test.cpp ****     if (n % 10 == 0) { thread_dispatch(); }
  73              		.loc 1 14 39 is_stmt 0 discriminator 1
  74 0068 97000000 		call	_Z15thread_dispatchv
  74      E7800000 
  75              	.LVL6:
  76 0070 6FF01FFC 		j	.L3
  77              		.cfi_endproc
  78              	.LFE0:
  80              		.section	.rodata.str1.8,"aMS",@progbits,1
  81              		.align	3
  82              	.LC0:
  83 0000 443A2069 		.string	"D: i="
  83      3D00
  84 0006 0000     		.align	3
  85              	.LC1:
  86 0008 0A00     		.string	"\n"
  87 000a 00000000 		.align	3
  87      0000
  88              	.LC2:
  89 0010 443A2064 		.string	"D: dispatch\n"
  89      69737061 
  89      7463680A 
  89      00
  90 001d 000000   		.align	3
GAS LISTING C:\msys64\tmp\ccml88MK.s 			page 3


  91              	.LC3:
  92 0020 443A2066 		.string	"D: fibonaci="
  92      69626F6E 
  92      6163693D 
  92      00
  93 002d 000000   		.align	3
  94              	.LC4:
  95 0030 44206669 		.string	"D finished!\n"
  95      6E697368 
  95      6564210A 
  95      00
  96              		.text
  97              		.align	2
  99              	_ZL11workerBodyDPv:
 100              	.LFB4:
  17:test/Threads_C_API_test.cpp **** 
  18:test/Threads_C_API_test.cpp **** static void workerBodyA(void* arg) {
  19:test/Threads_C_API_test.cpp ****     for (uint64 i = 0; i < 10; i++) {
  20:test/Threads_C_API_test.cpp ****         printString("A: i="); printInt(i); printString("\n");
  21:test/Threads_C_API_test.cpp ****         for (uint64 j = 0; j < 10000; j++) {
  22:test/Threads_C_API_test.cpp ****             for (uint64 k = 0; k < 30000; k++) { /* busy wait */ }
  23:test/Threads_C_API_test.cpp ****             thread_dispatch();
  24:test/Threads_C_API_test.cpp ****         }
  25:test/Threads_C_API_test.cpp ****     }
  26:test/Threads_C_API_test.cpp ****     printString("A finished!\n");
  27:test/Threads_C_API_test.cpp ****     finishedA = true;
  28:test/Threads_C_API_test.cpp **** }
  29:test/Threads_C_API_test.cpp **** 
  30:test/Threads_C_API_test.cpp **** static void workerBodyB(void* arg) {
  31:test/Threads_C_API_test.cpp ****     for (uint64 i = 0; i < 16; i++) {
  32:test/Threads_C_API_test.cpp ****         printString("B: i="); printInt(i); printString("\n");
  33:test/Threads_C_API_test.cpp ****         for (uint64 j = 0; j < 10000; j++) {
  34:test/Threads_C_API_test.cpp ****             for (uint64 k = 0; k < 30000; k++) { /* busy wait */ }
  35:test/Threads_C_API_test.cpp ****             thread_dispatch();
  36:test/Threads_C_API_test.cpp ****         }
  37:test/Threads_C_API_test.cpp ****     }
  38:test/Threads_C_API_test.cpp ****     printString("B finished!\n");
  39:test/Threads_C_API_test.cpp ****     finishedB = true;
  40:test/Threads_C_API_test.cpp ****     thread_dispatch();
  41:test/Threads_C_API_test.cpp **** }
  42:test/Threads_C_API_test.cpp **** 
  43:test/Threads_C_API_test.cpp **** static void workerBodyC(void* arg) {
  44:test/Threads_C_API_test.cpp ****     uint8 i = 0;
  45:test/Threads_C_API_test.cpp ****     for (; i < 3; i++) {
  46:test/Threads_C_API_test.cpp ****         printString("C: i="); printInt(i); printString("\n");
  47:test/Threads_C_API_test.cpp ****     }
  48:test/Threads_C_API_test.cpp **** 
  49:test/Threads_C_API_test.cpp ****     printString("C: dispatch\n");
  50:test/Threads_C_API_test.cpp ****     __asm__ ("li t1, 7");
  51:test/Threads_C_API_test.cpp ****     thread_dispatch();
  52:test/Threads_C_API_test.cpp **** 
  53:test/Threads_C_API_test.cpp ****     uint64 t1 = 0;
  54:test/Threads_C_API_test.cpp ****     __asm__ ("mv %[t1], t1" : [t1] "=r"(t1));
  55:test/Threads_C_API_test.cpp **** 
  56:test/Threads_C_API_test.cpp ****     printString("C: t1="); printInt(t1); printString("\n");
  57:test/Threads_C_API_test.cpp **** 
  58:test/Threads_C_API_test.cpp ****     uint64 result = fibonacci(12);
GAS LISTING C:\msys64\tmp\ccml88MK.s 			page 4


  59:test/Threads_C_API_test.cpp ****     printString("C: fibonaci="); printInt(result); printString("\n");
  60:test/Threads_C_API_test.cpp **** 
  61:test/Threads_C_API_test.cpp ****     for (; i < 6; i++) {
  62:test/Threads_C_API_test.cpp ****         printString("C: i="); printInt(i); printString("\n");
  63:test/Threads_C_API_test.cpp ****     }
  64:test/Threads_C_API_test.cpp **** 
  65:test/Threads_C_API_test.cpp ****     printString("A finished!\n");
  66:test/Threads_C_API_test.cpp ****     finishedC = true;
  67:test/Threads_C_API_test.cpp ****     thread_dispatch();
  68:test/Threads_C_API_test.cpp **** }
  69:test/Threads_C_API_test.cpp **** 
  70:test/Threads_C_API_test.cpp **** static void workerBodyD(void* arg) {
 101              		.loc 1 70 36 is_stmt 1
 102              		.cfi_startproc
 103              	.LVL7:
 104 0074 130101FE 		addi	sp,sp,-32
 105              		.cfi_def_cfa_offset 32
 106 0078 233C1100 		sd	ra,24(sp)
 107 007c 23388100 		sd	s0,16(sp)
 108 0080 23349100 		sd	s1,8(sp)
 109 0084 23302101 		sd	s2,0(sp)
 110              		.cfi_offset 1, -8
 111              		.cfi_offset 8, -16
 112              		.cfi_offset 9, -24
 113              		.cfi_offset 18, -32
 114 0088 13040102 		addi	s0,sp,32
 115              		.cfi_def_cfa 8, 0
  71:test/Threads_C_API_test.cpp ****     uint8 i = 10;
 116              		.loc 1 71 5
 117              	.LVL8:
 118              		.loc 1 71 11 is_stmt 0
 119 008c 9304A000 		li	s1,10
 120 0090 6F000004 		j	.L9
 121              	.LVL9:
 122              	.L13:
  72:test/Threads_C_API_test.cpp ****     for (; i < 13; i++) {
  73:test/Threads_C_API_test.cpp ****         printString("D: i="); printInt(i); printString("\n");
 123              		.loc 1 73 9 is_stmt 1 discriminator 1
 124              		.loc 1 73 20 is_stmt 0 discriminator 1
 125 0094 17050000 		lla	a0,.LC0
 125      13050500 
 126 009c 97000000 		call	_Z11printStringPKc
 126      E7800000 
 127              	.LVL10:
 128              		.loc 1 73 31 is_stmt 1 discriminator 1
 129              		.loc 1 73 39 is_stmt 0 discriminator 1
 130 00a4 13060000 		li	a2,0
 131 00a8 9305A000 		li	a1,10
 132 00ac 13850400 		mv	a0,s1
 133 00b0 97000000 		call	_Z8printIntiii
 133      E7800000 
 134              	.LVL11:
 135              		.loc 1 73 44 is_stmt 1 discriminator 1
 136              		.loc 1 73 55 is_stmt 0 discriminator 1
 137 00b8 17050000 		lla	a0,.LC1
 137      13050500 
 138 00c0 97000000 		call	_Z11printStringPKc
GAS LISTING C:\msys64\tmp\ccml88MK.s 			page 5


 138      E7800000 
 139              	.LVL12:
  72:test/Threads_C_API_test.cpp ****     for (; i < 13; i++) {
 140              		.loc 1 72 5 is_stmt 1 discriminator 1
 141 00c8 9B841400 		addiw	s1,s1,1
 142              	.LVL13:
 143 00cc 93F4F40F 		andi	s1,s1,0xff
 144              	.LVL14:
 145              	.L9:
  72:test/Threads_C_API_test.cpp ****     for (; i < 13; i++) {
 146              		.loc 1 72 5 discriminator 2
  72:test/Threads_C_API_test.cpp ****     for (; i < 13; i++) {
 147              		.loc 1 72 14 discriminator 2
 148 00d0 9307C000 		li	a5,12
 149 00d4 E3F097FC 		bleu	s1,a5,.L13
  74:test/Threads_C_API_test.cpp ****     }
  75:test/Threads_C_API_test.cpp **** 
  76:test/Threads_C_API_test.cpp ****     printString("D: dispatch\n");
 150              		.loc 1 76 5
 151              		.loc 1 76 16 is_stmt 0
 152 00d8 17050000 		lla	a0,.LC2
 152      13050500 
 153 00e0 97000000 		call	_Z11printStringPKc
 153      E7800000 
 154              	.LVL15:
  77:test/Threads_C_API_test.cpp ****     __asm__ ("li t1, 5");
 155              		.loc 1 77 5 is_stmt 1
 156              	 #APP
 157              	# 77 "test/Threads_C_API_test.cpp" 1
  78              	    thread_dispatch();
 158              		li t1, 5
 159              	# 0 "" 2
 160              		.loc 1 78 5
 161              		.loc 1 78 20 is_stmt 0
 162              	 #NO_APP
 163 00ec 97000000 		call	_Z15thread_dispatchv
 163      E7800000 
 164              	.LVL16:
  79:test/Threads_C_API_test.cpp **** 
  80:test/Threads_C_API_test.cpp ****     uint64 result = fibonacci(16);
 165              		.loc 1 80 5 is_stmt 1
 166              		.loc 1 80 30 is_stmt 0
 167 00f4 13050001 		li	a0,16
 168 00f8 97000000 		call	_ZL9fibonaccim
 168      E7800000 
 169              	.LVL17:
 170 0100 13090500 		mv	s2,a0
 171              	.LVL18:
  81:test/Threads_C_API_test.cpp ****     printString("D: fibonaci="); printInt(result); printString("\n");
 172              		.loc 1 81 5 is_stmt 1
 173              		.loc 1 81 16 is_stmt 0
 174 0104 17050000 		lla	a0,.LC3
 174      13050500 
 175              	.LVL19:
 176 010c 97000000 		call	_Z11printStringPKc
 176      E7800000 
 177              	.LVL20:
GAS LISTING C:\msys64\tmp\ccml88MK.s 			page 6


 178              		.loc 1 81 34 is_stmt 1
 179              		.loc 1 81 42 is_stmt 0
 180 0114 13060000 		li	a2,0
 181 0118 9305A000 		li	a1,10
 182 011c 1B050900 		sext.w	a0,s2
 183 0120 97000000 		call	_Z8printIntiii
 183      E7800000 
 184              	.LVL21:
 185              		.loc 1 81 52 is_stmt 1
 186              		.loc 1 81 63 is_stmt 0
 187 0128 17050000 		lla	a0,.LC1
 187      13050500 
 188 0130 97000000 		call	_Z11printStringPKc
 188      E7800000 
 189              	.LVL22:
 190 0138 6F000004 		j	.L11
 191              	.L14:
  82:test/Threads_C_API_test.cpp **** 
  83:test/Threads_C_API_test.cpp ****     for (; i < 16; i++) {
  84:test/Threads_C_API_test.cpp ****         printString("D: i="); printInt(i); printString("\n");
 192              		.loc 1 84 9 is_stmt 1 discriminator 1
 193              		.loc 1 84 20 is_stmt 0 discriminator 1
 194 013c 17050000 		lla	a0,.LC0
 194      13050500 
 195 0144 97000000 		call	_Z11printStringPKc
 195      E7800000 
 196              	.LVL23:
 197              		.loc 1 84 31 is_stmt 1 discriminator 1
 198              		.loc 1 84 39 is_stmt 0 discriminator 1
 199 014c 13060000 		li	a2,0
 200 0150 9305A000 		li	a1,10
 201 0154 13850400 		mv	a0,s1
 202 0158 97000000 		call	_Z8printIntiii
 202      E7800000 
 203              	.LVL24:
 204              		.loc 1 84 44 is_stmt 1 discriminator 1
 205              		.loc 1 84 55 is_stmt 0 discriminator 1
 206 0160 17050000 		lla	a0,.LC1
 206      13050500 
 207 0168 97000000 		call	_Z11printStringPKc
 207      E7800000 
 208              	.LVL25:
  83:test/Threads_C_API_test.cpp ****         printString("D: i="); printInt(i); printString("\n");
 209              		.loc 1 83 5 is_stmt 1 discriminator 1
 210 0170 9B841400 		addiw	s1,s1,1
 211              	.LVL26:
 212 0174 93F4F40F 		andi	s1,s1,0xff
 213              	.LVL27:
 214              	.L11:
  83:test/Threads_C_API_test.cpp ****         printString("D: i="); printInt(i); printString("\n");
 215              		.loc 1 83 5 discriminator 2
  83:test/Threads_C_API_test.cpp ****         printString("D: i="); printInt(i); printString("\n");
 216              		.loc 1 83 14 discriminator 2
 217 0178 9307F000 		li	a5,15
 218 017c E3F097FC 		bleu	s1,a5,.L14
  85:test/Threads_C_API_test.cpp ****     }
  86:test/Threads_C_API_test.cpp **** 
GAS LISTING C:\msys64\tmp\ccml88MK.s 			page 7


  87:test/Threads_C_API_test.cpp ****     printString("D finished!\n");
 219              		.loc 1 87 5
 220              		.loc 1 87 16 is_stmt 0
 221 0180 17050000 		lla	a0,.LC4
 221      13050500 
 222 0188 97000000 		call	_Z11printStringPKc
 222      E7800000 
 223              	.LVL28:
  88:test/Threads_C_API_test.cpp ****     finishedD = true;
 224              		.loc 1 88 5 is_stmt 1
 225              		.loc 1 88 15 is_stmt 0
 226 0190 93071000 		li	a5,1
 227 0194 17070000 		sb	a5,_ZL9finishedD,a4
 227      2300F700 
  89:test/Threads_C_API_test.cpp ****     thread_dispatch();
 228              		.loc 1 89 5 is_stmt 1
 229              		.loc 1 89 20 is_stmt 0
 230 019c 97000000 		call	_Z15thread_dispatchv
 230      E7800000 
 231              	.LVL29:
  90:test/Threads_C_API_test.cpp **** }
 232              		.loc 1 90 1
 233 01a4 83308101 		ld	ra,24(sp)
 234              		.cfi_restore 1
 235 01a8 03340101 		ld	s0,16(sp)
 236              		.cfi_restore 8
 237              		.cfi_def_cfa 2, 32
 238 01ac 83348100 		ld	s1,8(sp)
 239              		.cfi_restore 9
 240              	.LVL30:
 241 01b0 03390100 		ld	s2,0(sp)
 242              		.cfi_restore 18
 243              	.LVL31:
 244 01b4 13010102 		addi	sp,sp,32
 245              		.cfi_def_cfa_offset 0
 246 01b8 67800000 		jr	ra
 247              		.cfi_endproc
 248              	.LFE4:
 250              		.section	.rodata.str1.8
 251 003d 000000   		.align	3
 252              	.LC5:
 253 0040 433A2069 		.string	"C: i="
 253      3D00
 254 0046 0000     		.align	3
 255              	.LC6:
 256 0048 433A2064 		.string	"C: dispatch\n"
 256      69737061 
 256      7463680A 
 256      00
 257 0055 000000   		.align	3
 258              	.LC7:
 259 0058 433A2074 		.string	"C: t1="
 259      313D00
 260 005f 00       		.align	3
 261              	.LC8:
 262 0060 433A2066 		.string	"C: fibonaci="
 262      69626F6E 
GAS LISTING C:\msys64\tmp\ccml88MK.s 			page 8


 262      6163693D 
 262      00
 263 006d 000000   		.align	3
 264              	.LC9:
 265 0070 41206669 		.string	"A finished!\n"
 265      6E697368 
 265      6564210A 
 265      00
 266              		.text
 267              		.align	2
 269              	_ZL11workerBodyCPv:
 270              	.LFB3:
  43:test/Threads_C_API_test.cpp ****     uint8 i = 0;
 271              		.loc 1 43 36 is_stmt 1
 272              		.cfi_startproc
 273              	.LVL32:
 274 01bc 130101FE 		addi	sp,sp,-32
 275              		.cfi_def_cfa_offset 32
 276 01c0 233C1100 		sd	ra,24(sp)
 277 01c4 23388100 		sd	s0,16(sp)
 278 01c8 23349100 		sd	s1,8(sp)
 279 01cc 23302101 		sd	s2,0(sp)
 280              		.cfi_offset 1, -8
 281              		.cfi_offset 8, -16
 282              		.cfi_offset 9, -24
 283              		.cfi_offset 18, -32
 284 01d0 13040102 		addi	s0,sp,32
 285              		.cfi_def_cfa 8, 0
  44:test/Threads_C_API_test.cpp ****     for (; i < 3; i++) {
 286              		.loc 1 44 5
 287              	.LVL33:
  44:test/Threads_C_API_test.cpp ****     for (; i < 3; i++) {
 288              		.loc 1 44 11 is_stmt 0
 289 01d4 93040000 		li	s1,0
 290 01d8 6F000004 		j	.L17
 291              	.LVL34:
 292              	.L21:
  46:test/Threads_C_API_test.cpp ****     }
 293              		.loc 1 46 9 is_stmt 1 discriminator 1
  46:test/Threads_C_API_test.cpp ****     }
 294              		.loc 1 46 20 is_stmt 0 discriminator 1
 295 01dc 17050000 		lla	a0,.LC5
 295      13050500 
 296 01e4 97000000 		call	_Z11printStringPKc
 296      E7800000 
 297              	.LVL35:
  46:test/Threads_C_API_test.cpp ****     }
 298              		.loc 1 46 31 is_stmt 1 discriminator 1
  46:test/Threads_C_API_test.cpp ****     }
 299              		.loc 1 46 39 is_stmt 0 discriminator 1
 300 01ec 13060000 		li	a2,0
 301 01f0 9305A000 		li	a1,10
 302 01f4 13850400 		mv	a0,s1
 303 01f8 97000000 		call	_Z8printIntiii
 303      E7800000 
 304              	.LVL36:
  46:test/Threads_C_API_test.cpp ****     }
GAS LISTING C:\msys64\tmp\ccml88MK.s 			page 9


 305              		.loc 1 46 44 is_stmt 1 discriminator 1
  46:test/Threads_C_API_test.cpp ****     }
 306              		.loc 1 46 55 is_stmt 0 discriminator 1
 307 0200 17050000 		lla	a0,.LC1
 307      13050500 
 308 0208 97000000 		call	_Z11printStringPKc
 308      E7800000 
 309              	.LVL37:
  45:test/Threads_C_API_test.cpp ****         printString("C: i="); printInt(i); printString("\n");
 310              		.loc 1 45 5 is_stmt 1 discriminator 1
 311 0210 9B841400 		addiw	s1,s1,1
 312              	.LVL38:
 313 0214 93F4F40F 		andi	s1,s1,0xff
 314              	.LVL39:
 315              	.L17:
  45:test/Threads_C_API_test.cpp ****         printString("C: i="); printInt(i); printString("\n");
 316              		.loc 1 45 5 discriminator 2
  45:test/Threads_C_API_test.cpp ****         printString("C: i="); printInt(i); printString("\n");
 317              		.loc 1 45 14 discriminator 2
 318 0218 93072000 		li	a5,2
 319 021c E3F097FC 		bleu	s1,a5,.L21
  49:test/Threads_C_API_test.cpp ****     __asm__ ("li t1, 7");
 320              		.loc 1 49 5
  49:test/Threads_C_API_test.cpp ****     __asm__ ("li t1, 7");
 321              		.loc 1 49 16 is_stmt 0
 322 0220 17050000 		lla	a0,.LC6
 322      13050500 
 323 0228 97000000 		call	_Z11printStringPKc
 323      E7800000 
 324              	.LVL40:
  50:test/Threads_C_API_test.cpp ****     thread_dispatch();
 325              		.loc 1 50 5 is_stmt 1
 326              	 #APP
 327              	# 50 "test/Threads_C_API_test.cpp" 1
  51:test/Threads_C_API_test.cpp **** 
 328              		li t1, 7
 329              	# 0 "" 2
 330              		.loc 1 51 5
  51:test/Threads_C_API_test.cpp **** 
 331              		.loc 1 51 20 is_stmt 0
 332              	 #NO_APP
 333 0234 97000000 		call	_Z15thread_dispatchv
 333      E7800000 
 334              	.LVL41:
  53:test/Threads_C_API_test.cpp ****     __asm__ ("mv %[t1], t1" : [t1] "=r"(t1));
 335              		.loc 1 53 5 is_stmt 1
  54:test/Threads_C_API_test.cpp **** 
 336              		.loc 1 54 5
 337              	 #APP
 338              	# 54 "test/Threads_C_API_test.cpp" 1
 339              		mv s2, t1
 340              	# 0 "" 2
 341              	.LVL42:
  56:test/Threads_C_API_test.cpp **** 
 342              		.loc 1 56 5
  56:test/Threads_C_API_test.cpp **** 
 343              		.loc 1 56 16 is_stmt 0
GAS LISTING C:\msys64\tmp\ccml88MK.s 			page 10


 344              	 #NO_APP
 345 0240 17050000 		lla	a0,.LC7
 345      13050500 
 346 0248 97000000 		call	_Z11printStringPKc
 346      E7800000 
 347              	.LVL43:
  56:test/Threads_C_API_test.cpp **** 
 348              		.loc 1 56 28 is_stmt 1
  56:test/Threads_C_API_test.cpp **** 
 349              		.loc 1 56 36 is_stmt 0
 350 0250 13060000 		li	a2,0
 351 0254 9305A000 		li	a1,10
 352 0258 1B050900 		sext.w	a0,s2
 353 025c 97000000 		call	_Z8printIntiii
 353      E7800000 
 354              	.LVL44:
  56:test/Threads_C_API_test.cpp **** 
 355              		.loc 1 56 42 is_stmt 1
  56:test/Threads_C_API_test.cpp **** 
 356              		.loc 1 56 53 is_stmt 0
 357 0264 17050000 		lla	a0,.LC1
 357      13050500 
 358 026c 97000000 		call	_Z11printStringPKc
 358      E7800000 
 359              	.LVL45:
  58:test/Threads_C_API_test.cpp ****     printString("C: fibonaci="); printInt(result); printString("\n");
 360              		.loc 1 58 5 is_stmt 1
  58:test/Threads_C_API_test.cpp ****     printString("C: fibonaci="); printInt(result); printString("\n");
 361              		.loc 1 58 30 is_stmt 0
 362 0274 1305C000 		li	a0,12
 363 0278 97000000 		call	_ZL9fibonaccim
 363      E7800000 
 364              	.LVL46:
 365 0280 13090500 		mv	s2,a0
 366              	.LVL47:
  59:test/Threads_C_API_test.cpp **** 
 367              		.loc 1 59 5 is_stmt 1
  59:test/Threads_C_API_test.cpp **** 
 368              		.loc 1 59 16 is_stmt 0
 369 0284 17050000 		lla	a0,.LC8
 369      13050500 
 370              	.LVL48:
 371 028c 97000000 		call	_Z11printStringPKc
 371      E7800000 
 372              	.LVL49:
  59:test/Threads_C_API_test.cpp **** 
 373              		.loc 1 59 34 is_stmt 1
  59:test/Threads_C_API_test.cpp **** 
 374              		.loc 1 59 42 is_stmt 0
 375 0294 13060000 		li	a2,0
 376 0298 9305A000 		li	a1,10
 377 029c 1B050900 		sext.w	a0,s2
 378 02a0 97000000 		call	_Z8printIntiii
 378      E7800000 
 379              	.LVL50:
  59:test/Threads_C_API_test.cpp **** 
 380              		.loc 1 59 52 is_stmt 1
GAS LISTING C:\msys64\tmp\ccml88MK.s 			page 11


  59:test/Threads_C_API_test.cpp **** 
 381              		.loc 1 59 63 is_stmt 0
 382 02a8 17050000 		lla	a0,.LC1
 382      13050500 
 383 02b0 97000000 		call	_Z11printStringPKc
 383      E7800000 
 384              	.LVL51:
 385 02b8 6F000004 		j	.L19
 386              	.L22:
  62:test/Threads_C_API_test.cpp ****     }
 387              		.loc 1 62 9 is_stmt 1 discriminator 1
  62:test/Threads_C_API_test.cpp ****     }
 388              		.loc 1 62 20 is_stmt 0 discriminator 1
 389 02bc 17050000 		lla	a0,.LC5
 389      13050500 
 390 02c4 97000000 		call	_Z11printStringPKc
 390      E7800000 
 391              	.LVL52:
  62:test/Threads_C_API_test.cpp ****     }
 392              		.loc 1 62 31 is_stmt 1 discriminator 1
  62:test/Threads_C_API_test.cpp ****     }
 393              		.loc 1 62 39 is_stmt 0 discriminator 1
 394 02cc 13060000 		li	a2,0
 395 02d0 9305A000 		li	a1,10
 396 02d4 13850400 		mv	a0,s1
 397 02d8 97000000 		call	_Z8printIntiii
 397      E7800000 
 398              	.LVL53:
  62:test/Threads_C_API_test.cpp ****     }
 399              		.loc 1 62 44 is_stmt 1 discriminator 1
  62:test/Threads_C_API_test.cpp ****     }
 400              		.loc 1 62 55 is_stmt 0 discriminator 1
 401 02e0 17050000 		lla	a0,.LC1
 401      13050500 
 402 02e8 97000000 		call	_Z11printStringPKc
 402      E7800000 
 403              	.LVL54:
  61:test/Threads_C_API_test.cpp ****         printString("C: i="); printInt(i); printString("\n");
 404              		.loc 1 61 5 is_stmt 1 discriminator 1
 405 02f0 9B841400 		addiw	s1,s1,1
 406              	.LVL55:
 407 02f4 93F4F40F 		andi	s1,s1,0xff
 408              	.LVL56:
 409              	.L19:
  61:test/Threads_C_API_test.cpp ****         printString("C: i="); printInt(i); printString("\n");
 410              		.loc 1 61 5 discriminator 2
  61:test/Threads_C_API_test.cpp ****         printString("C: i="); printInt(i); printString("\n");
 411              		.loc 1 61 14 discriminator 2
 412 02f8 93075000 		li	a5,5
 413 02fc E3F097FC 		bleu	s1,a5,.L22
  65:test/Threads_C_API_test.cpp ****     finishedC = true;
 414              		.loc 1 65 5
  65:test/Threads_C_API_test.cpp ****     finishedC = true;
 415              		.loc 1 65 16 is_stmt 0
 416 0300 17050000 		lla	a0,.LC9
 416      13050500 
 417 0308 97000000 		call	_Z11printStringPKc
GAS LISTING C:\msys64\tmp\ccml88MK.s 			page 12


 417      E7800000 
 418              	.LVL57:
  66:test/Threads_C_API_test.cpp ****     thread_dispatch();
 419              		.loc 1 66 5 is_stmt 1
  66:test/Threads_C_API_test.cpp ****     thread_dispatch();
 420              		.loc 1 66 15 is_stmt 0
 421 0310 93071000 		li	a5,1
 422 0314 17070000 		sb	a5,_ZL9finishedC,a4
 422      2300F700 
  67:test/Threads_C_API_test.cpp **** }
 423              		.loc 1 67 5 is_stmt 1
  67:test/Threads_C_API_test.cpp **** }
 424              		.loc 1 67 20 is_stmt 0
 425 031c 97000000 		call	_Z15thread_dispatchv
 425      E7800000 
 426              	.LVL58:
  68:test/Threads_C_API_test.cpp **** 
 427              		.loc 1 68 1
 428 0324 83308101 		ld	ra,24(sp)
 429              		.cfi_restore 1
 430 0328 03340101 		ld	s0,16(sp)
 431              		.cfi_restore 8
 432              		.cfi_def_cfa 2, 32
 433 032c 83348100 		ld	s1,8(sp)
 434              		.cfi_restore 9
 435              	.LVL59:
 436 0330 03390100 		ld	s2,0(sp)
 437              		.cfi_restore 18
 438              	.LVL60:
 439 0334 13010102 		addi	sp,sp,32
 440              		.cfi_def_cfa_offset 0
 441 0338 67800000 		jr	ra
 442              		.cfi_endproc
 443              	.LFE3:
 445              		.section	.rodata.str1.8
 446 007d 000000   		.align	3
 447              	.LC10:
 448 0080 423A2069 		.string	"B: i="
 448      3D00
 449 0086 0000     		.align	3
 450              	.LC11:
 451 0088 42206669 		.string	"B finished!\n"
 451      6E697368 
 451      6564210A 
 451      00
 452              		.text
 453              		.align	2
 455              	_ZL11workerBodyBPv:
 456              	.LFB2:
  30:test/Threads_C_API_test.cpp ****     for (uint64 i = 0; i < 16; i++) {
 457              		.loc 1 30 36 is_stmt 1
 458              		.cfi_startproc
 459              	.LVL61:
 460 033c 130101FE 		addi	sp,sp,-32
 461              		.cfi_def_cfa_offset 32
 462 0340 233C1100 		sd	ra,24(sp)
 463 0344 23388100 		sd	s0,16(sp)
GAS LISTING C:\msys64\tmp\ccml88MK.s 			page 13


 464 0348 23349100 		sd	s1,8(sp)
 465 034c 23302101 		sd	s2,0(sp)
 466              		.cfi_offset 1, -8
 467              		.cfi_offset 8, -16
 468              		.cfi_offset 9, -24
 469              		.cfi_offset 18, -32
 470 0350 13040102 		addi	s0,sp,32
 471              		.cfi_def_cfa 8, 0
  31:test/Threads_C_API_test.cpp ****         printString("B: i="); printInt(i); printString("\n");
 472              		.loc 1 31 5
 473              	.LVL62:
 474              	.LBB2:
  31:test/Threads_C_API_test.cpp ****         printString("B: i="); printInt(i); printString("\n");
 475              		.loc 1 31 17 is_stmt 0
 476 0354 13090000 		li	s2,0
 477 0358 6F008003 		j	.L29
 478              	.LVL63:
 479              	.L31:
 480              	.LBB3:
 481              	.LBB4:
 482              	.LBB5:
 483              	.LBB6:
  34:test/Threads_C_API_test.cpp ****             thread_dispatch();
 484              		.loc 1 34 13 is_stmt 1 discriminator 2
 485 035c 13071700 		addi	a4,a4,1
 486              	.LVL64:
 487              	.L27:
  34:test/Threads_C_API_test.cpp ****             thread_dispatch();
 488              		.loc 1 34 34 discriminator 3
 489 0360 B7770000 		li	a5,28672
 490 0364 9387F752 		addi	a5,a5,1327
 491 0368 E3FAE7FE 		bleu	a4,a5,.L31
 492              	.LBE6:
  35:test/Threads_C_API_test.cpp ****         }
 493              		.loc 1 35 13 discriminator 2
  35:test/Threads_C_API_test.cpp ****         }
 494              		.loc 1 35 28 is_stmt 0 discriminator 2
 495 036c 97000000 		call	_Z15thread_dispatchv
 495      E7800000 
 496              	.LVL65:
 497              	.LBE5:
  33:test/Threads_C_API_test.cpp ****             for (uint64 k = 0; k < 30000; k++) { /* busy wait */ }
 498              		.loc 1 33 9 is_stmt 1 discriminator 2
 499 0374 93841400 		addi	s1,s1,1
 500              	.LVL66:
 501              	.L28:
  33:test/Threads_C_API_test.cpp ****             for (uint64 k = 0; k < 30000; k++) { /* busy wait */ }
 502              		.loc 1 33 30 discriminator 1
 503 0378 B7270000 		li	a5,8192
 504 037c 9387F770 		addi	a5,a5,1807
 505 0380 63E69700 		bgtu	s1,a5,.L25
 506              	.LBB8:
 507              	.LBB7:
  34:test/Threads_C_API_test.cpp ****             thread_dispatch();
 508              		.loc 1 34 25 is_stmt 0
 509 0384 13070000 		li	a4,0
 510 0388 6FF09FFD 		j	.L27
GAS LISTING C:\msys64\tmp\ccml88MK.s 			page 14


 511              	.L25:
 512              	.LBE7:
 513              	.LBE8:
 514              	.LBE4:
 515              	.LBE3:
  31:test/Threads_C_API_test.cpp ****         printString("B: i="); printInt(i); printString("\n");
 516              		.loc 1 31 5 is_stmt 1 discriminator 2
 517 038c 13091900 		addi	s2,s2,1
 518              	.LVL67:
 519              	.L29:
  31:test/Threads_C_API_test.cpp ****         printString("B: i="); printInt(i); printString("\n");
 520              		.loc 1 31 26 discriminator 1
 521 0390 9307F000 		li	a5,15
 522 0394 63E02705 		bgtu	s2,a5,.L24
 523              	.LBB10:
  32:test/Threads_C_API_test.cpp ****         for (uint64 j = 0; j < 10000; j++) {
 524              		.loc 1 32 9
  32:test/Threads_C_API_test.cpp ****         for (uint64 j = 0; j < 10000; j++) {
 525              		.loc 1 32 20 is_stmt 0
 526 0398 17050000 		lla	a0,.LC10
 526      13050500 
 527 03a0 97000000 		call	_Z11printStringPKc
 527      E7800000 
 528              	.LVL68:
  32:test/Threads_C_API_test.cpp ****         for (uint64 j = 0; j < 10000; j++) {
 529              		.loc 1 32 31 is_stmt 1
  32:test/Threads_C_API_test.cpp ****         for (uint64 j = 0; j < 10000; j++) {
 530              		.loc 1 32 39 is_stmt 0
 531 03a8 13060000 		li	a2,0
 532 03ac 9305A000 		li	a1,10
 533 03b0 1B050900 		sext.w	a0,s2
 534 03b4 97000000 		call	_Z8printIntiii
 534      E7800000 
 535              	.LVL69:
  32:test/Threads_C_API_test.cpp ****         for (uint64 j = 0; j < 10000; j++) {
 536              		.loc 1 32 44 is_stmt 1
  32:test/Threads_C_API_test.cpp ****         for (uint64 j = 0; j < 10000; j++) {
 537              		.loc 1 32 55 is_stmt 0
 538 03bc 17050000 		lla	a0,.LC1
 538      13050500 
 539 03c4 97000000 		call	_Z11printStringPKc
 539      E7800000 
 540              	.LVL70:
  33:test/Threads_C_API_test.cpp ****             for (uint64 k = 0; k < 30000; k++) { /* busy wait */ }
 541              		.loc 1 33 9 is_stmt 1
 542              	.LBB9:
  33:test/Threads_C_API_test.cpp ****             for (uint64 k = 0; k < 30000; k++) { /* busy wait */ }
 543              		.loc 1 33 21 is_stmt 0
 544 03cc 93040000 		li	s1,0
 545 03d0 6FF09FFA 		j	.L28
 546              	.LVL71:
 547              	.L24:
 548              	.LBE9:
 549              	.LBE10:
 550              	.LBE2:
  38:test/Threads_C_API_test.cpp ****     finishedB = true;
 551              		.loc 1 38 5 is_stmt 1
GAS LISTING C:\msys64\tmp\ccml88MK.s 			page 15


  38:test/Threads_C_API_test.cpp ****     finishedB = true;
 552              		.loc 1 38 16 is_stmt 0
 553 03d4 17050000 		lla	a0,.LC11
 553      13050500 
 554 03dc 97000000 		call	_Z11printStringPKc
 554      E7800000 
 555              	.LVL72:
  39:test/Threads_C_API_test.cpp ****     thread_dispatch();
 556              		.loc 1 39 5 is_stmt 1
  39:test/Threads_C_API_test.cpp ****     thread_dispatch();
 557              		.loc 1 39 15 is_stmt 0
 558 03e4 93071000 		li	a5,1
 559 03e8 17070000 		sb	a5,_ZL9finishedB,a4
 559      2300F700 
  40:test/Threads_C_API_test.cpp **** }
 560              		.loc 1 40 5 is_stmt 1
  40:test/Threads_C_API_test.cpp **** }
 561              		.loc 1 40 20 is_stmt 0
 562 03f0 97000000 		call	_Z15thread_dispatchv
 562      E7800000 
 563              	.LVL73:
  41:test/Threads_C_API_test.cpp **** 
 564              		.loc 1 41 1
 565 03f8 83308101 		ld	ra,24(sp)
 566              		.cfi_restore 1
 567 03fc 03340101 		ld	s0,16(sp)
 568              		.cfi_restore 8
 569              		.cfi_def_cfa 2, 32
 570 0400 83348100 		ld	s1,8(sp)
 571              		.cfi_restore 9
 572 0404 03390100 		ld	s2,0(sp)
 573              		.cfi_restore 18
 574              	.LVL74:
 575 0408 13010102 		addi	sp,sp,32
 576              		.cfi_def_cfa_offset 0
 577 040c 67800000 		jr	ra
 578              		.cfi_endproc
 579              	.LFE2:
 581              		.section	.rodata.str1.8
 582 0095 000000   		.align	3
 583              	.LC12:
 584 0098 413A2069 		.string	"A: i="
 584      3D00
 585              		.text
 586              		.align	2
 588              	_ZL11workerBodyAPv:
 589              	.LFB1:
  18:test/Threads_C_API_test.cpp ****     for (uint64 i = 0; i < 10; i++) {
 590              		.loc 1 18 36 is_stmt 1
 591              		.cfi_startproc
 592              	.LVL75:
 593 0410 130101FE 		addi	sp,sp,-32
 594              		.cfi_def_cfa_offset 32
 595 0414 233C1100 		sd	ra,24(sp)
 596 0418 23388100 		sd	s0,16(sp)
 597 041c 23349100 		sd	s1,8(sp)
 598 0420 23302101 		sd	s2,0(sp)
GAS LISTING C:\msys64\tmp\ccml88MK.s 			page 16


 599              		.cfi_offset 1, -8
 600              		.cfi_offset 8, -16
 601              		.cfi_offset 9, -24
 602              		.cfi_offset 18, -32
 603 0424 13040102 		addi	s0,sp,32
 604              		.cfi_def_cfa 8, 0
  19:test/Threads_C_API_test.cpp ****         printString("A: i="); printInt(i); printString("\n");
 605              		.loc 1 19 5
 606              	.LVL76:
 607              	.LBB11:
  19:test/Threads_C_API_test.cpp ****         printString("A: i="); printInt(i); printString("\n");
 608              		.loc 1 19 17 is_stmt 0
 609 0428 13090000 		li	s2,0
 610 042c 6F008003 		j	.L38
 611              	.LVL77:
 612              	.L40:
 613              	.LBB12:
 614              	.LBB13:
 615              	.LBB14:
 616              	.LBB15:
  22:test/Threads_C_API_test.cpp ****             thread_dispatch();
 617              		.loc 1 22 13 is_stmt 1 discriminator 2
 618 0430 13071700 		addi	a4,a4,1
 619              	.LVL78:
 620              	.L36:
  22:test/Threads_C_API_test.cpp ****             thread_dispatch();
 621              		.loc 1 22 34 discriminator 3
 622 0434 B7770000 		li	a5,28672
 623 0438 9387F752 		addi	a5,a5,1327
 624 043c E3FAE7FE 		bleu	a4,a5,.L40
 625              	.LBE15:
  23:test/Threads_C_API_test.cpp ****         }
 626              		.loc 1 23 13 discriminator 2
  23:test/Threads_C_API_test.cpp ****         }
 627              		.loc 1 23 28 is_stmt 0 discriminator 2
 628 0440 97000000 		call	_Z15thread_dispatchv
 628      E7800000 
 629              	.LVL79:
 630              	.LBE14:
  21:test/Threads_C_API_test.cpp ****             for (uint64 k = 0; k < 30000; k++) { /* busy wait */ }
 631              		.loc 1 21 9 is_stmt 1 discriminator 2
 632 0448 93841400 		addi	s1,s1,1
 633              	.LVL80:
 634              	.L37:
  21:test/Threads_C_API_test.cpp ****             for (uint64 k = 0; k < 30000; k++) { /* busy wait */ }
 635              		.loc 1 21 30 discriminator 1
 636 044c B7270000 		li	a5,8192
 637 0450 9387F770 		addi	a5,a5,1807
 638 0454 63E69700 		bgtu	s1,a5,.L34
 639              	.LBB17:
 640              	.LBB16:
  22:test/Threads_C_API_test.cpp ****             thread_dispatch();
 641              		.loc 1 22 25 is_stmt 0
 642 0458 13070000 		li	a4,0
 643 045c 6FF09FFD 		j	.L36
 644              	.L34:
 645              	.LBE16:
GAS LISTING C:\msys64\tmp\ccml88MK.s 			page 17


 646              	.LBE17:
 647              	.LBE13:
 648              	.LBE12:
  19:test/Threads_C_API_test.cpp ****         printString("A: i="); printInt(i); printString("\n");
 649              		.loc 1 19 5 is_stmt 1 discriminator 2
 650 0460 13091900 		addi	s2,s2,1
 651              	.LVL81:
 652              	.L38:
  19:test/Threads_C_API_test.cpp ****         printString("A: i="); printInt(i); printString("\n");
 653              		.loc 1 19 26 discriminator 1
 654 0464 93079000 		li	a5,9
 655 0468 63E02705 		bgtu	s2,a5,.L33
 656              	.LBB19:
  20:test/Threads_C_API_test.cpp ****         for (uint64 j = 0; j < 10000; j++) {
 657              		.loc 1 20 9
  20:test/Threads_C_API_test.cpp ****         for (uint64 j = 0; j < 10000; j++) {
 658              		.loc 1 20 20 is_stmt 0
 659 046c 17050000 		lla	a0,.LC12
 659      13050500 
 660 0474 97000000 		call	_Z11printStringPKc
 660      E7800000 
 661              	.LVL82:
  20:test/Threads_C_API_test.cpp ****         for (uint64 j = 0; j < 10000; j++) {
 662              		.loc 1 20 31 is_stmt 1
  20:test/Threads_C_API_test.cpp ****         for (uint64 j = 0; j < 10000; j++) {
 663              		.loc 1 20 39 is_stmt 0
 664 047c 13060000 		li	a2,0
 665 0480 9305A000 		li	a1,10
 666 0484 1B050900 		sext.w	a0,s2
 667 0488 97000000 		call	_Z8printIntiii
 667      E7800000 
 668              	.LVL83:
  20:test/Threads_C_API_test.cpp ****         for (uint64 j = 0; j < 10000; j++) {
 669              		.loc 1 20 44 is_stmt 1
  20:test/Threads_C_API_test.cpp ****         for (uint64 j = 0; j < 10000; j++) {
 670              		.loc 1 20 55 is_stmt 0
 671 0490 17050000 		lla	a0,.LC1
 671      13050500 
 672 0498 97000000 		call	_Z11printStringPKc
 672      E7800000 
 673              	.LVL84:
  21:test/Threads_C_API_test.cpp ****             for (uint64 k = 0; k < 30000; k++) { /* busy wait */ }
 674              		.loc 1 21 9 is_stmt 1
 675              	.LBB18:
  21:test/Threads_C_API_test.cpp ****             for (uint64 k = 0; k < 30000; k++) { /* busy wait */ }
 676              		.loc 1 21 21 is_stmt 0
 677 04a0 93040000 		li	s1,0
 678 04a4 6FF09FFA 		j	.L37
 679              	.LVL85:
 680              	.L33:
 681              	.LBE18:
 682              	.LBE19:
 683              	.LBE11:
  26:test/Threads_C_API_test.cpp ****     finishedA = true;
 684              		.loc 1 26 5 is_stmt 1
  26:test/Threads_C_API_test.cpp ****     finishedA = true;
 685              		.loc 1 26 16 is_stmt 0
GAS LISTING C:\msys64\tmp\ccml88MK.s 			page 18


 686 04a8 17050000 		lla	a0,.LC9
 686      13050500 
 687 04b0 97000000 		call	_Z11printStringPKc
 687      E7800000 
 688              	.LVL86:
  27:test/Threads_C_API_test.cpp **** }
 689              		.loc 1 27 5 is_stmt 1
  27:test/Threads_C_API_test.cpp **** }
 690              		.loc 1 27 15 is_stmt 0
 691 04b8 93071000 		li	a5,1
 692 04bc 17070000 		sb	a5,_ZL9finishedA,a4
 692      2300F700 
  28:test/Threads_C_API_test.cpp **** 
 693              		.loc 1 28 1
 694 04c4 83308101 		ld	ra,24(sp)
 695              		.cfi_restore 1
 696 04c8 03340101 		ld	s0,16(sp)
 697              		.cfi_restore 8
 698              		.cfi_def_cfa 2, 32
 699 04cc 83348100 		ld	s1,8(sp)
 700              		.cfi_restore 9
 701 04d0 03390100 		ld	s2,0(sp)
 702              		.cfi_restore 18
 703              	.LVL87:
 704 04d4 13010102 		addi	sp,sp,32
 705              		.cfi_def_cfa_offset 0
 706 04d8 67800000 		jr	ra
 707              		.cfi_endproc
 708              	.LFE1:
 710              		.section	.rodata.str1.8
 711 009e 0000     		.align	3
 712              	.LC13:
 713 00a0 54687265 		.string	"ThreadA created\n"
 713      61644120 
 713      63726561 
 713      7465640A 
 713      00
 714 00b1 00000000 		.align	3
 714      000000
 715              	.LC14:
 716 00b8 54687265 		.string	"ThreadB created\n"
 716      61644220 
 716      63726561 
 716      7465640A 
 716      00
 717 00c9 00000000 		.align	3
 717      000000
 718              	.LC15:
 719 00d0 54687265 		.string	"ThreadC created\n"
 719      61644320 
 719      63726561 
 719      7465640A 
 719      00
 720 00e1 00000000 		.align	3
 720      000000
 721              	.LC16:
 722 00e8 54687265 		.string	"ThreadD created\n"
GAS LISTING C:\msys64\tmp\ccml88MK.s 			page 19


 722      61644420 
 722      63726561 
 722      7465640A 
 722      00
 723              		.text
 724              		.align	2
 725              		.globl	_Z18Threads_C_API_testv
 727              	_Z18Threads_C_API_testv:
 728              	.LFB5:
  91:test/Threads_C_API_test.cpp **** 
  92:test/Threads_C_API_test.cpp **** 
  93:test/Threads_C_API_test.cpp **** void Threads_C_API_test() {
 729              		.loc 1 93 27 is_stmt 1
 730              		.cfi_startproc
 731 04dc 130101FD 		addi	sp,sp,-48
 732              		.cfi_def_cfa_offset 48
 733 04e0 23341102 		sd	ra,40(sp)
 734 04e4 23308102 		sd	s0,32(sp)
 735              		.cfi_offset 1, -8
 736              		.cfi_offset 8, -16
 737 04e8 13040103 		addi	s0,sp,48
 738              		.cfi_def_cfa 8, 0
  94:test/Threads_C_API_test.cpp ****     thread_t threads[4];
 739              		.loc 1 94 5
  95:test/Threads_C_API_test.cpp ****     thread_create(&threads[0], workerBodyA, nullptr);
 740              		.loc 1 95 5
 741              		.loc 1 95 18 is_stmt 0
 742 04ec 13060000 		li	a2,0
 743 04f0 97050000 		lla	a1,_ZL11workerBodyAPv
 743      93850500 
 744 04f8 130504FD 		addi	a0,s0,-48
 745 04fc 97000000 		call	_Z13thread_createPP7_threadPFvPvES2_
 745      E7800000 
 746              	.LVL88:
  96:test/Threads_C_API_test.cpp ****     printString("ThreadA created\n");
 747              		.loc 1 96 5 is_stmt 1
 748              		.loc 1 96 16 is_stmt 0
 749 0504 17050000 		lla	a0,.LC13
 749      13050500 
 750 050c 97000000 		call	_Z11printStringPKc
 750      E7800000 
 751              	.LVL89:
  97:test/Threads_C_API_test.cpp **** 
  98:test/Threads_C_API_test.cpp ****     thread_create(&threads[1], workerBodyB, nullptr);
 752              		.loc 1 98 5 is_stmt 1
 753              		.loc 1 98 18 is_stmt 0
 754 0514 13060000 		li	a2,0
 755 0518 97050000 		lla	a1,_ZL11workerBodyBPv
 755      93850500 
 756 0520 130584FD 		addi	a0,s0,-40
 757 0524 97000000 		call	_Z13thread_createPP7_threadPFvPvES2_
 757      E7800000 
 758              	.LVL90:
  99:test/Threads_C_API_test.cpp ****     printString("ThreadB created\n");
 759              		.loc 1 99 5 is_stmt 1
 760              		.loc 1 99 16 is_stmt 0
 761 052c 17050000 		lla	a0,.LC14
GAS LISTING C:\msys64\tmp\ccml88MK.s 			page 20


 761      13050500 
 762 0534 97000000 		call	_Z11printStringPKc
 762      E7800000 
 763              	.LVL91:
 100:test/Threads_C_API_test.cpp **** 
 101:test/Threads_C_API_test.cpp ****     thread_create(&threads[2], workerBodyC, nullptr);
 764              		.loc 1 101 5 is_stmt 1
 765              		.loc 1 101 18 is_stmt 0
 766 053c 13060000 		li	a2,0
 767 0540 97050000 		lla	a1,_ZL11workerBodyCPv
 767      93850500 
 768 0548 130504FE 		addi	a0,s0,-32
 769 054c 97000000 		call	_Z13thread_createPP7_threadPFvPvES2_
 769      E7800000 
 770              	.LVL92:
 102:test/Threads_C_API_test.cpp ****     printString("ThreadC created\n");
 771              		.loc 1 102 5 is_stmt 1
 772              		.loc 1 102 16 is_stmt 0
 773 0554 17050000 		lla	a0,.LC15
 773      13050500 
 774 055c 97000000 		call	_Z11printStringPKc
 774      E7800000 
 775              	.LVL93:
 103:test/Threads_C_API_test.cpp **** 
 104:test/Threads_C_API_test.cpp ****     thread_create(&threads[3], workerBodyD, nullptr);
 776              		.loc 1 104 5 is_stmt 1
 777              		.loc 1 104 18 is_stmt 0
 778 0564 13060000 		li	a2,0
 779 0568 97050000 		lla	a1,_ZL11workerBodyDPv
 779      93850500 
 780 0570 130584FE 		addi	a0,s0,-24
 781 0574 97000000 		call	_Z13thread_createPP7_threadPFvPvES2_
 781      E7800000 
 782              	.LVL94:
 105:test/Threads_C_API_test.cpp ****     printString("ThreadD created\n");
 783              		.loc 1 105 5 is_stmt 1
 784              		.loc 1 105 16 is_stmt 0
 785 057c 17050000 		lla	a0,.LC16
 785      13050500 
 786 0584 97000000 		call	_Z11printStringPKc
 786      E7800000 
 787              	.LVL95:
 788 058c 6F00C000 		j	.L43
 789              	.L42:
 106:test/Threads_C_API_test.cpp **** 
 107:test/Threads_C_API_test.cpp ****     while (!(finishedA && finishedB && finishedC && finishedD)) {
 108:test/Threads_C_API_test.cpp ****         thread_dispatch();
 790              		.loc 1 108 9 is_stmt 1
 791              		.loc 1 108 24 is_stmt 0
 792 0590 97000000 		call	_Z15thread_dispatchv
 792      E7800000 
 793              	.LVL96:
 794              	.L43:
 107:test/Threads_C_API_test.cpp ****         thread_dispatch();
 795              		.loc 1 107 5 is_stmt 1
 107:test/Threads_C_API_test.cpp ****         thread_dispatch();
 796              		.loc 1 107 12
GAS LISTING C:\msys64\tmp\ccml88MK.s 			page 21


 107:test/Threads_C_API_test.cpp ****         thread_dispatch();
 797              		.loc 1 107 14 is_stmt 0
 798 0598 97070000 		lbu	a5,_ZL9finishedA
 798      83C70700 
 107:test/Threads_C_API_test.cpp ****         thread_dispatch();
 799              		.loc 1 107 12
 800 05a0 E38807FE 		beq	a5,zero,.L42
 107:test/Threads_C_API_test.cpp ****         thread_dispatch();
 801              		.loc 1 107 27 discriminator 2
 802 05a4 97070000 		lbu	a5,_ZL9finishedB
 802      83C70700 
 107:test/Threads_C_API_test.cpp ****         thread_dispatch();
 803              		.loc 1 107 24 discriminator 2
 804 05ac E38207FE 		beq	a5,zero,.L42
 107:test/Threads_C_API_test.cpp ****         thread_dispatch();
 805              		.loc 1 107 40 discriminator 4
 806 05b0 97070000 		lbu	a5,_ZL9finishedC
 806      83C70700 
 107:test/Threads_C_API_test.cpp ****         thread_dispatch();
 807              		.loc 1 107 37 discriminator 4
 808 05b8 E38C07FC 		beq	a5,zero,.L42
 107:test/Threads_C_API_test.cpp ****         thread_dispatch();
 809              		.loc 1 107 53 discriminator 6
 810 05bc 97070000 		lbu	a5,_ZL9finishedD
 810      83C70700 
 107:test/Threads_C_API_test.cpp ****         thread_dispatch();
 811              		.loc 1 107 12 discriminator 6
 812 05c4 E38607FC 		beq	a5,zero,.L42
 109:test/Threads_C_API_test.cpp ****     }
 110:test/Threads_C_API_test.cpp **** 
 111:test/Threads_C_API_test.cpp **** }
 813              		.loc 1 111 1
 814 05c8 83308102 		ld	ra,40(sp)
 815              		.cfi_restore 1
 816 05cc 03340102 		ld	s0,32(sp)
 817              		.cfi_restore 8
 818              		.cfi_def_cfa 2, 48
 819 05d0 13010103 		addi	sp,sp,48
 820              		.cfi_def_cfa_offset 0
 821 05d4 67800000 		jr	ra
 822              		.cfi_endproc
 823              	.LFE5:
 825              		.section	.sbss,"aw",@nobits
 828              	_ZL9finishedD:
 829 0000 00       		.zero	1
 832              	_ZL9finishedC:
 833 0001 00       		.zero	1
 836              	_ZL9finishedB:
 837 0002 00       		.zero	1
 840              	_ZL9finishedA:
 841 0003 00       		.zero	1
 842              		.text
 843              	.Letext0:
 844              		.file 2 "test/../h/../lib/hw.h"
 845              		.file 3 "test/../h/syscall_c.h"
 846              		.file 4 "test/printing.hpp"
GAS LISTING C:\msys64\tmp\ccml88MK.s 			page 22

