GAS LISTING C:\msys64\tmp\ccwMNTRe.s 			page 1


   1              		.file	"Threads_CPP_API_test.cpp"
   2              		.option nopic
   3              		.option norelax
   4              		.attribute arch, "rv64i2p0_m2p0_a2p0"
   5              		.attribute unaligned_access, 0
   6              		.attribute stack_align, 16
   7              		.text
   8              	.Ltext0:
   9              		.align	2
  11              	_ZL9fibonaccim:
  12              	.LFB2:
  13              		.file 1 "test/Threads_CPP_API_test.cpp"
   1:test/Threads_CPP_API_test.cpp **** #include "../h/syscall_cpp.hpp"
   2:test/Threads_CPP_API_test.cpp **** 
   3:test/Threads_CPP_API_test.cpp **** #include "printing.hpp"
   4:test/Threads_CPP_API_test.cpp **** 
   5:test/Threads_CPP_API_test.cpp **** static volatile bool finishedA = false;
   6:test/Threads_CPP_API_test.cpp **** static volatile bool finishedB = false;
   7:test/Threads_CPP_API_test.cpp **** static volatile bool finishedC = false;
   8:test/Threads_CPP_API_test.cpp **** static volatile bool finishedD = false;
   9:test/Threads_CPP_API_test.cpp **** 
  10:test/Threads_CPP_API_test.cpp **** static uint64 fibonacci(uint64 n) {
  14              		.loc 1 10 35
  15              		.cfi_startproc
  16              	.LVL0:
  17 0000 130101FE 		addi	sp,sp,-32
  18              		.cfi_def_cfa_offset 32
  19 0004 233C1100 		sd	ra,24(sp)
  20 0008 23388100 		sd	s0,16(sp)
  21 000c 23349100 		sd	s1,8(sp)
  22 0010 23302101 		sd	s2,0(sp)
  23              		.cfi_offset 1, -8
  24              		.cfi_offset 8, -16
  25              		.cfi_offset 9, -24
  26              		.cfi_offset 18, -32
  27 0014 13040102 		addi	s0,sp,32
  28              		.cfi_def_cfa 8, 0
  29 0018 93040500 		mv	s1,a0
  11:test/Threads_CPP_API_test.cpp ****     if (n == 0 || n == 1) { return n; }
  30              		.loc 1 11 5
  31 001c 93071000 		li	a5,1
  32 0020 63F8A702 		bleu	a0,a5,.L1
  12:test/Threads_CPP_API_test.cpp ****     if (n % 10 == 0) { thread_dispatch(); }
  33              		.loc 1 12 5
  34              		.loc 1 12 11 is_stmt 0
  35 0024 9307A000 		li	a5,10
  36 0028 B377F502 		remu	a5,a0,a5
  37              		.loc 1 12 5
  38 002c 638E0702 		beq	a5,zero,.L6
  39              	.LVL1:
  40              	.L3:
  13:test/Threads_CPP_API_test.cpp ****     return fibonacci(n - 1) + fibonacci(n - 2);
  41              		.loc 1 13 5 is_stmt 1
  42              		.loc 1 13 21 is_stmt 0
  43 0030 1385F4FF 		addi	a0,s1,-1
  44 0034 97000000 		call	_ZL9fibonaccim
  44      E7800000 
GAS LISTING C:\msys64\tmp\ccwMNTRe.s 			page 2


  45              	.LVL2:
  46 003c 13090500 		mv	s2,a0
  47              		.loc 1 13 40
  48 0040 1385E4FF 		addi	a0,s1,-2
  49 0044 97000000 		call	_ZL9fibonaccim
  49      E7800000 
  50              	.LVL3:
  51              		.loc 1 13 46
  52 004c 3305A900 		add	a0,s2,a0
  53              	.L1:
  14:test/Threads_CPP_API_test.cpp **** }
  54              		.loc 1 14 1
  55 0050 83308101 		ld	ra,24(sp)
  56              		.cfi_remember_state
  57              		.cfi_restore 1
  58 0054 03340101 		ld	s0,16(sp)
  59              		.cfi_restore 8
  60              		.cfi_def_cfa 2, 32
  61 0058 83348100 		ld	s1,8(sp)
  62              		.cfi_restore 9
  63              	.LVL4:
  64 005c 03390100 		ld	s2,0(sp)
  65              		.cfi_restore 18
  66 0060 13010102 		addi	sp,sp,32
  67              		.cfi_def_cfa_offset 0
  68 0064 67800000 		jr	ra
  69              	.LVL5:
  70              	.L6:
  71              		.cfi_restore_state
  12:test/Threads_CPP_API_test.cpp ****     if (n % 10 == 0) { thread_dispatch(); }
  72              		.loc 1 12 24 is_stmt 1 discriminator 1
  12:test/Threads_CPP_API_test.cpp ****     if (n % 10 == 0) { thread_dispatch(); }
  73              		.loc 1 12 39 is_stmt 0 discriminator 1
  74 0068 97000000 		call	_Z15thread_dispatchv
  74      E7800000 
  75              	.LVL6:
  76 0070 6FF01FFC 		j	.L3
  77              		.cfi_endproc
  78              	.LFE2:
  80              		.section	.text._ZN7WorkerAD2Ev,"axG",@progbits,_ZN7WorkerAD5Ev,comdat
  81              		.align	2
  82              		.weak	_ZN7WorkerAD2Ev
  84              	_ZN7WorkerAD2Ev:
  85              	.LFB37:
  15:test/Threads_CPP_API_test.cpp **** 
  16:test/Threads_CPP_API_test.cpp **** class WorkerA: public Thread {
  86              		.loc 1 16 7 is_stmt 1
  87              		.cfi_startproc
  88              	.LVL7:
  89 0000 130101FF 		addi	sp,sp,-16
  90              		.cfi_def_cfa_offset 16
  91 0004 23341100 		sd	ra,8(sp)
  92 0008 23308100 		sd	s0,0(sp)
  93              		.cfi_offset 1, -8
  94              		.cfi_offset 8, -16
  95 000c 13040101 		addi	s0,sp,16
  96              		.cfi_def_cfa 8, 0
GAS LISTING C:\msys64\tmp\ccwMNTRe.s 			page 3


  97              	.LBB28:
  98              		.loc 1 16 7 is_stmt 0
  99 0010 97070000 		lla	a5,_ZTV7WorkerA+16
  99      93870700 
 100 0018 2330F500 		sd	a5,0(a0)
 101 001c 97000000 		call	_ZN6ThreadD2Ev
 101      E7800000 
 102              	.LVL8:
 103              	.LBE28:
 104 0024 83308100 		ld	ra,8(sp)
 105              		.cfi_restore 1
 106 0028 03340100 		ld	s0,0(sp)
 107              		.cfi_restore 8
 108              		.cfi_def_cfa 2, 16
 109 002c 13010101 		addi	sp,sp,16
 110              		.cfi_def_cfa_offset 0
 111 0030 67800000 		jr	ra
 112              		.cfi_endproc
 113              	.LFE37:
 115              		.weak	_ZN7WorkerAD1Ev
 116              		.set	_ZN7WorkerAD1Ev,_ZN7WorkerAD2Ev
 117              		.section	.text._ZN7WorkerAD0Ev,"axG",@progbits,_ZN7WorkerAD5Ev,comdat
 118              		.align	2
 119              		.weak	_ZN7WorkerAD0Ev
 121              	_ZN7WorkerAD0Ev:
 122              	.LFB39:
 123              		.loc 1 16 7 is_stmt 1
 124              		.cfi_startproc
 125              	.LVL9:
 126 0000 130101FE 		addi	sp,sp,-32
 127              		.cfi_def_cfa_offset 32
 128 0004 233C1100 		sd	ra,24(sp)
 129 0008 23388100 		sd	s0,16(sp)
 130 000c 23349100 		sd	s1,8(sp)
 131              		.cfi_offset 1, -8
 132              		.cfi_offset 8, -16
 133              		.cfi_offset 9, -24
 134 0010 13040102 		addi	s0,sp,32
 135              		.cfi_def_cfa 8, 0
 136 0014 93040500 		mv	s1,a0
 137              	.LVL10:
 138              	.LBB29:
 139              	.LBB30:
 140              		.loc 1 16 7 is_stmt 0
 141 0018 97070000 		lla	a5,_ZTV7WorkerA+16
 141      93870700 
 142 0020 2330F500 		sd	a5,0(a0)
 143 0024 97000000 		call	_ZN6ThreadD2Ev
 143      E7800000 
 144              	.LVL11:
 145              	.LBE30:
 146              	.LBE29:
 147 002c 13850400 		mv	a0,s1
 148 0030 97000000 		call	_ZdlPv
 148      E7800000 
 149              	.LVL12:
 150 0038 83308101 		ld	ra,24(sp)
GAS LISTING C:\msys64\tmp\ccwMNTRe.s 			page 4


 151              		.cfi_restore 1
 152 003c 03340101 		ld	s0,16(sp)
 153              		.cfi_restore 8
 154              		.cfi_def_cfa 2, 32
 155 0040 83348100 		ld	s1,8(sp)
 156              		.cfi_restore 9
 157              	.LVL13:
 158 0044 13010102 		addi	sp,sp,32
 159              		.cfi_def_cfa_offset 0
 160 0048 67800000 		jr	ra
 161              		.cfi_endproc
 162              	.LFE39:
 164              		.section	.text._ZN7WorkerBD2Ev,"axG",@progbits,_ZN7WorkerBD5Ev,comdat
 165              		.align	2
 166              		.weak	_ZN7WorkerBD2Ev
 168              	_ZN7WorkerBD2Ev:
 169              	.LFB33:
  17:test/Threads_CPP_API_test.cpp ****     void workerBodyA(void* arg);
  18:test/Threads_CPP_API_test.cpp **** public:
  19:test/Threads_CPP_API_test.cpp ****     WorkerA():Thread() {}
  20:test/Threads_CPP_API_test.cpp **** 
  21:test/Threads_CPP_API_test.cpp ****     void run() override {
  22:test/Threads_CPP_API_test.cpp ****         workerBodyA(nullptr);
  23:test/Threads_CPP_API_test.cpp ****     }
  24:test/Threads_CPP_API_test.cpp **** };
  25:test/Threads_CPP_API_test.cpp **** 
  26:test/Threads_CPP_API_test.cpp **** class WorkerB: public Thread {
 170              		.loc 1 26 7 is_stmt 1
 171              		.cfi_startproc
 172              	.LVL14:
 173 0000 130101FF 		addi	sp,sp,-16
 174              		.cfi_def_cfa_offset 16
 175 0004 23341100 		sd	ra,8(sp)
 176 0008 23308100 		sd	s0,0(sp)
 177              		.cfi_offset 1, -8
 178              		.cfi_offset 8, -16
 179 000c 13040101 		addi	s0,sp,16
 180              		.cfi_def_cfa 8, 0
 181              	.LBB31:
 182              		.loc 1 26 7 is_stmt 0
 183 0010 97070000 		lla	a5,_ZTV7WorkerB+16
 183      93870700 
 184 0018 2330F500 		sd	a5,0(a0)
 185 001c 97000000 		call	_ZN6ThreadD2Ev
 185      E7800000 
 186              	.LVL15:
 187              	.LBE31:
 188 0024 83308100 		ld	ra,8(sp)
 189              		.cfi_restore 1
 190 0028 03340100 		ld	s0,0(sp)
 191              		.cfi_restore 8
 192              		.cfi_def_cfa 2, 16
 193 002c 13010101 		addi	sp,sp,16
 194              		.cfi_def_cfa_offset 0
 195 0030 67800000 		jr	ra
 196              		.cfi_endproc
 197              	.LFE33:
GAS LISTING C:\msys64\tmp\ccwMNTRe.s 			page 5


 199              		.weak	_ZN7WorkerBD1Ev
 200              		.set	_ZN7WorkerBD1Ev,_ZN7WorkerBD2Ev
 201              		.section	.text._ZN7WorkerBD0Ev,"axG",@progbits,_ZN7WorkerBD5Ev,comdat
 202              		.align	2
 203              		.weak	_ZN7WorkerBD0Ev
 205              	_ZN7WorkerBD0Ev:
 206              	.LFB35:
 207              		.loc 1 26 7 is_stmt 1
 208              		.cfi_startproc
 209              	.LVL16:
 210 0000 130101FE 		addi	sp,sp,-32
 211              		.cfi_def_cfa_offset 32
 212 0004 233C1100 		sd	ra,24(sp)
 213 0008 23388100 		sd	s0,16(sp)
 214 000c 23349100 		sd	s1,8(sp)
 215              		.cfi_offset 1, -8
 216              		.cfi_offset 8, -16
 217              		.cfi_offset 9, -24
 218 0010 13040102 		addi	s0,sp,32
 219              		.cfi_def_cfa 8, 0
 220 0014 93040500 		mv	s1,a0
 221              	.LVL17:
 222              	.LBB32:
 223              	.LBB33:
 224              		.loc 1 26 7 is_stmt 0
 225 0018 97070000 		lla	a5,_ZTV7WorkerB+16
 225      93870700 
 226 0020 2330F500 		sd	a5,0(a0)
 227 0024 97000000 		call	_ZN6ThreadD2Ev
 227      E7800000 
 228              	.LVL18:
 229              	.LBE33:
 230              	.LBE32:
 231 002c 13850400 		mv	a0,s1
 232 0030 97000000 		call	_ZdlPv
 232      E7800000 
 233              	.LVL19:
 234 0038 83308101 		ld	ra,24(sp)
 235              		.cfi_restore 1
 236 003c 03340101 		ld	s0,16(sp)
 237              		.cfi_restore 8
 238              		.cfi_def_cfa 2, 32
 239 0040 83348100 		ld	s1,8(sp)
 240              		.cfi_restore 9
 241              	.LVL20:
 242 0044 13010102 		addi	sp,sp,32
 243              		.cfi_def_cfa_offset 0
 244 0048 67800000 		jr	ra
 245              		.cfi_endproc
 246              	.LFE35:
 248              		.section	.text._ZN7WorkerCD2Ev,"axG",@progbits,_ZN7WorkerCD5Ev,comdat
 249              		.align	2
 250              		.weak	_ZN7WorkerCD2Ev
 252              	_ZN7WorkerCD2Ev:
 253              	.LFB29:
  27:test/Threads_CPP_API_test.cpp ****     void workerBodyB(void* arg);
  28:test/Threads_CPP_API_test.cpp **** public:
GAS LISTING C:\msys64\tmp\ccwMNTRe.s 			page 6


  29:test/Threads_CPP_API_test.cpp ****     WorkerB():Thread() {}
  30:test/Threads_CPP_API_test.cpp **** 
  31:test/Threads_CPP_API_test.cpp ****     void run() override {
  32:test/Threads_CPP_API_test.cpp ****         workerBodyB(nullptr);
  33:test/Threads_CPP_API_test.cpp ****     }
  34:test/Threads_CPP_API_test.cpp **** };
  35:test/Threads_CPP_API_test.cpp **** 
  36:test/Threads_CPP_API_test.cpp **** class WorkerC: public Thread {
 254              		.loc 1 36 7 is_stmt 1
 255              		.cfi_startproc
 256              	.LVL21:
 257 0000 130101FF 		addi	sp,sp,-16
 258              		.cfi_def_cfa_offset 16
 259 0004 23341100 		sd	ra,8(sp)
 260 0008 23308100 		sd	s0,0(sp)
 261              		.cfi_offset 1, -8
 262              		.cfi_offset 8, -16
 263 000c 13040101 		addi	s0,sp,16
 264              		.cfi_def_cfa 8, 0
 265              	.LBB34:
 266              		.loc 1 36 7 is_stmt 0
 267 0010 97070000 		lla	a5,_ZTV7WorkerC+16
 267      93870700 
 268 0018 2330F500 		sd	a5,0(a0)
 269 001c 97000000 		call	_ZN6ThreadD2Ev
 269      E7800000 
 270              	.LVL22:
 271              	.LBE34:
 272 0024 83308100 		ld	ra,8(sp)
 273              		.cfi_restore 1
 274 0028 03340100 		ld	s0,0(sp)
 275              		.cfi_restore 8
 276              		.cfi_def_cfa 2, 16
 277 002c 13010101 		addi	sp,sp,16
 278              		.cfi_def_cfa_offset 0
 279 0030 67800000 		jr	ra
 280              		.cfi_endproc
 281              	.LFE29:
 283              		.weak	_ZN7WorkerCD1Ev
 284              		.set	_ZN7WorkerCD1Ev,_ZN7WorkerCD2Ev
 285              		.section	.text._ZN7WorkerCD0Ev,"axG",@progbits,_ZN7WorkerCD5Ev,comdat
 286              		.align	2
 287              		.weak	_ZN7WorkerCD0Ev
 289              	_ZN7WorkerCD0Ev:
 290              	.LFB31:
 291              		.loc 1 36 7 is_stmt 1
 292              		.cfi_startproc
 293              	.LVL23:
 294 0000 130101FE 		addi	sp,sp,-32
 295              		.cfi_def_cfa_offset 32
 296 0004 233C1100 		sd	ra,24(sp)
 297 0008 23388100 		sd	s0,16(sp)
 298 000c 23349100 		sd	s1,8(sp)
 299              		.cfi_offset 1, -8
 300              		.cfi_offset 8, -16
 301              		.cfi_offset 9, -24
 302 0010 13040102 		addi	s0,sp,32
GAS LISTING C:\msys64\tmp\ccwMNTRe.s 			page 7


 303              		.cfi_def_cfa 8, 0
 304 0014 93040500 		mv	s1,a0
 305              	.LVL24:
 306              	.LBB35:
 307              	.LBB36:
 308              		.loc 1 36 7 is_stmt 0
 309 0018 97070000 		lla	a5,_ZTV7WorkerC+16
 309      93870700 
 310 0020 2330F500 		sd	a5,0(a0)
 311 0024 97000000 		call	_ZN6ThreadD2Ev
 311      E7800000 
 312              	.LVL25:
 313              	.LBE36:
 314              	.LBE35:
 315 002c 13850400 		mv	a0,s1
 316 0030 97000000 		call	_ZdlPv
 316      E7800000 
 317              	.LVL26:
 318 0038 83308101 		ld	ra,24(sp)
 319              		.cfi_restore 1
 320 003c 03340101 		ld	s0,16(sp)
 321              		.cfi_restore 8
 322              		.cfi_def_cfa 2, 32
 323 0040 83348100 		ld	s1,8(sp)
 324              		.cfi_restore 9
 325              	.LVL27:
 326 0044 13010102 		addi	sp,sp,32
 327              		.cfi_def_cfa_offset 0
 328 0048 67800000 		jr	ra
 329              		.cfi_endproc
 330              	.LFE31:
 332              		.section	.text._ZN7WorkerDD2Ev,"axG",@progbits,_ZN7WorkerDD5Ev,comdat
 333              		.align	2
 334              		.weak	_ZN7WorkerDD2Ev
 336              	_ZN7WorkerDD2Ev:
 337              	.LFB25:
  37:test/Threads_CPP_API_test.cpp ****     void workerBodyC(void* arg);
  38:test/Threads_CPP_API_test.cpp **** public:
  39:test/Threads_CPP_API_test.cpp ****     WorkerC():Thread() {}
  40:test/Threads_CPP_API_test.cpp **** 
  41:test/Threads_CPP_API_test.cpp ****     void run() override {
  42:test/Threads_CPP_API_test.cpp ****         workerBodyC(nullptr);
  43:test/Threads_CPP_API_test.cpp ****     }
  44:test/Threads_CPP_API_test.cpp **** };
  45:test/Threads_CPP_API_test.cpp **** 
  46:test/Threads_CPP_API_test.cpp **** class WorkerD: public Thread {
 338              		.loc 1 46 7 is_stmt 1
 339              		.cfi_startproc
 340              	.LVL28:
 341 0000 130101FF 		addi	sp,sp,-16
 342              		.cfi_def_cfa_offset 16
 343 0004 23341100 		sd	ra,8(sp)
 344 0008 23308100 		sd	s0,0(sp)
 345              		.cfi_offset 1, -8
 346              		.cfi_offset 8, -16
 347 000c 13040101 		addi	s0,sp,16
 348              		.cfi_def_cfa 8, 0
GAS LISTING C:\msys64\tmp\ccwMNTRe.s 			page 8


 349              	.LBB37:
 350              		.loc 1 46 7 is_stmt 0
 351 0010 97070000 		lla	a5,_ZTV7WorkerD+16
 351      93870700 
 352 0018 2330F500 		sd	a5,0(a0)
 353 001c 97000000 		call	_ZN6ThreadD2Ev
 353      E7800000 
 354              	.LVL29:
 355              	.LBE37:
 356 0024 83308100 		ld	ra,8(sp)
 357              		.cfi_restore 1
 358 0028 03340100 		ld	s0,0(sp)
 359              		.cfi_restore 8
 360              		.cfi_def_cfa 2, 16
 361 002c 13010101 		addi	sp,sp,16
 362              		.cfi_def_cfa_offset 0
 363 0030 67800000 		jr	ra
 364              		.cfi_endproc
 365              	.LFE25:
 367              		.weak	_ZN7WorkerDD1Ev
 368              		.set	_ZN7WorkerDD1Ev,_ZN7WorkerDD2Ev
 369              		.section	.text._ZN7WorkerDD0Ev,"axG",@progbits,_ZN7WorkerDD5Ev,comdat
 370              		.align	2
 371              		.weak	_ZN7WorkerDD0Ev
 373              	_ZN7WorkerDD0Ev:
 374              	.LFB27:
 375              		.loc 1 46 7 is_stmt 1
 376              		.cfi_startproc
 377              	.LVL30:
 378 0000 130101FE 		addi	sp,sp,-32
 379              		.cfi_def_cfa_offset 32
 380 0004 233C1100 		sd	ra,24(sp)
 381 0008 23388100 		sd	s0,16(sp)
 382 000c 23349100 		sd	s1,8(sp)
 383              		.cfi_offset 1, -8
 384              		.cfi_offset 8, -16
 385              		.cfi_offset 9, -24
 386 0010 13040102 		addi	s0,sp,32
 387              		.cfi_def_cfa 8, 0
 388 0014 93040500 		mv	s1,a0
 389              	.LVL31:
 390              	.LBB38:
 391              	.LBB39:
 392              		.loc 1 46 7 is_stmt 0
 393 0018 97070000 		lla	a5,_ZTV7WorkerD+16
 393      93870700 
 394 0020 2330F500 		sd	a5,0(a0)
 395 0024 97000000 		call	_ZN6ThreadD2Ev
 395      E7800000 
 396              	.LVL32:
 397              	.LBE39:
 398              	.LBE38:
 399 002c 13850400 		mv	a0,s1
 400 0030 97000000 		call	_ZdlPv
 400      E7800000 
 401              	.LVL33:
 402 0038 83308101 		ld	ra,24(sp)
GAS LISTING C:\msys64\tmp\ccwMNTRe.s 			page 9


 403              		.cfi_restore 1
 404 003c 03340101 		ld	s0,16(sp)
 405              		.cfi_restore 8
 406              		.cfi_def_cfa 2, 32
 407 0040 83348100 		ld	s1,8(sp)
 408              		.cfi_restore 9
 409              	.LVL34:
 410 0044 13010102 		addi	sp,sp,32
 411              		.cfi_def_cfa_offset 0
 412 0048 67800000 		jr	ra
 413              		.cfi_endproc
 414              	.LFE27:
 416              		.section	.rodata.str1.8,"aMS",@progbits,1
 417              		.align	3
 418              	.LC0:
 419 0000 413A2069 		.string	"A: i="
 419      3D00
 420 0006 0000     		.align	3
 421              	.LC1:
 422 0008 0A00     		.string	"\n"
 423 000a 00000000 		.align	3
 423      0000
 424              	.LC2:
 425 0010 41206669 		.string	"A finished!\n"
 425      6E697368 
 425      6564210A 
 425      00
 426              		.text
 427              		.align	2
 428              		.globl	_ZN7WorkerA11workerBodyAEPv
 430              	_ZN7WorkerA11workerBodyAEPv:
 431              	.LFB19:
  47:test/Threads_CPP_API_test.cpp ****     void workerBodyD(void* arg);
  48:test/Threads_CPP_API_test.cpp **** public:
  49:test/Threads_CPP_API_test.cpp ****     WorkerD():Thread() {}
  50:test/Threads_CPP_API_test.cpp **** 
  51:test/Threads_CPP_API_test.cpp ****     void run() override {
  52:test/Threads_CPP_API_test.cpp ****         workerBodyD(nullptr);
  53:test/Threads_CPP_API_test.cpp ****     }
  54:test/Threads_CPP_API_test.cpp **** };
  55:test/Threads_CPP_API_test.cpp **** 
  56:test/Threads_CPP_API_test.cpp **** void WorkerA::workerBodyA(void *arg) {
 432              		.loc 1 56 38 is_stmt 1
 433              		.cfi_startproc
 434              	.LVL35:
 435 0074 130101FE 		addi	sp,sp,-32
 436              		.cfi_def_cfa_offset 32
 437 0078 233C1100 		sd	ra,24(sp)
 438 007c 23388100 		sd	s0,16(sp)
 439 0080 23349100 		sd	s1,8(sp)
 440 0084 23302101 		sd	s2,0(sp)
 441              		.cfi_offset 1, -8
 442              		.cfi_offset 8, -16
 443              		.cfi_offset 9, -24
 444              		.cfi_offset 18, -32
 445 0088 13040102 		addi	s0,sp,32
 446              		.cfi_def_cfa 8, 0
GAS LISTING C:\msys64\tmp\ccwMNTRe.s 			page 10


  57:test/Threads_CPP_API_test.cpp ****     for (uint64 i = 0; i < 10; i++) {
 447              		.loc 1 57 5
 448              	.LVL36:
 449              	.LBB40:
 450              		.loc 1 57 17 is_stmt 0
 451 008c 13090000 		li	s2,0
 452 0090 6F008003 		j	.L29
 453              	.LVL37:
 454              	.L31:
 455              	.LBB41:
 456              	.LBB42:
 457              	.LBB43:
 458              	.LBB44:
  58:test/Threads_CPP_API_test.cpp ****         printString("A: i="); printInt(i); printString("\n");
  59:test/Threads_CPP_API_test.cpp ****         for (uint64 j = 0; j < 10000; j++) {
  60:test/Threads_CPP_API_test.cpp ****             for (uint64 k = 0; k < 30000; k++) { /* busy wait */ }
 459              		.loc 1 60 13 is_stmt 1 discriminator 2
 460 0094 13071700 		addi	a4,a4,1
 461              	.LVL38:
 462              	.L27:
 463              		.loc 1 60 34 discriminator 3
 464 0098 B7770000 		li	a5,28672
 465 009c 9387F752 		addi	a5,a5,1327
 466 00a0 E3FAE7FE 		bleu	a4,a5,.L31
 467              	.LBE44:
  61:test/Threads_CPP_API_test.cpp ****             thread_dispatch();
 468              		.loc 1 61 13 discriminator 2
 469              		.loc 1 61 28 is_stmt 0 discriminator 2
 470 00a4 97000000 		call	_Z15thread_dispatchv
 470      E7800000 
 471              	.LVL39:
 472              	.LBE43:
  59:test/Threads_CPP_API_test.cpp ****             for (uint64 k = 0; k < 30000; k++) { /* busy wait */ }
 473              		.loc 1 59 9 is_stmt 1 discriminator 2
 474 00ac 93841400 		addi	s1,s1,1
 475              	.LVL40:
 476              	.L28:
  59:test/Threads_CPP_API_test.cpp ****             for (uint64 k = 0; k < 30000; k++) { /* busy wait */ }
 477              		.loc 1 59 30 discriminator 1
 478 00b0 B7270000 		li	a5,8192
 479 00b4 9387F770 		addi	a5,a5,1807
 480 00b8 63E69700 		bgtu	s1,a5,.L25
 481              	.LBB46:
 482              	.LBB45:
  60:test/Threads_CPP_API_test.cpp ****             thread_dispatch();
 483              		.loc 1 60 25 is_stmt 0
 484 00bc 13070000 		li	a4,0
 485 00c0 6FF09FFD 		j	.L27
 486              	.L25:
 487              	.LBE45:
 488              	.LBE46:
 489              	.LBE42:
 490              	.LBE41:
  57:test/Threads_CPP_API_test.cpp ****         printString("A: i="); printInt(i); printString("\n");
 491              		.loc 1 57 5 is_stmt 1 discriminator 2
 492 00c4 13091900 		addi	s2,s2,1
 493              	.LVL41:
GAS LISTING C:\msys64\tmp\ccwMNTRe.s 			page 11


 494              	.L29:
  57:test/Threads_CPP_API_test.cpp ****         printString("A: i="); printInt(i); printString("\n");
 495              		.loc 1 57 26 discriminator 1
 496 00c8 93079000 		li	a5,9
 497 00cc 63E02705 		bgtu	s2,a5,.L24
 498              	.LBB48:
  58:test/Threads_CPP_API_test.cpp ****         for (uint64 j = 0; j < 10000; j++) {
 499              		.loc 1 58 9
  58:test/Threads_CPP_API_test.cpp ****         for (uint64 j = 0; j < 10000; j++) {
 500              		.loc 1 58 20 is_stmt 0
 501 00d0 17050000 		lla	a0,.LC0
 501      13050500 
 502 00d8 97000000 		call	_Z11printStringPKc
 502      E7800000 
 503              	.LVL42:
  58:test/Threads_CPP_API_test.cpp ****         for (uint64 j = 0; j < 10000; j++) {
 504              		.loc 1 58 31 is_stmt 1
  58:test/Threads_CPP_API_test.cpp ****         for (uint64 j = 0; j < 10000; j++) {
 505              		.loc 1 58 39 is_stmt 0
 506 00e0 13060000 		li	a2,0
 507 00e4 9305A000 		li	a1,10
 508 00e8 1B050900 		sext.w	a0,s2
 509 00ec 97000000 		call	_Z8printIntiii
 509      E7800000 
 510              	.LVL43:
  58:test/Threads_CPP_API_test.cpp ****         for (uint64 j = 0; j < 10000; j++) {
 511              		.loc 1 58 44 is_stmt 1
  58:test/Threads_CPP_API_test.cpp ****         for (uint64 j = 0; j < 10000; j++) {
 512              		.loc 1 58 55 is_stmt 0
 513 00f4 17050000 		lla	a0,.LC1
 513      13050500 
 514 00fc 97000000 		call	_Z11printStringPKc
 514      E7800000 
 515              	.LVL44:
  59:test/Threads_CPP_API_test.cpp ****             for (uint64 k = 0; k < 30000; k++) { /* busy wait */ }
 516              		.loc 1 59 9 is_stmt 1
 517              	.LBB47:
  59:test/Threads_CPP_API_test.cpp ****             for (uint64 k = 0; k < 30000; k++) { /* busy wait */ }
 518              		.loc 1 59 21 is_stmt 0
 519 0104 93040000 		li	s1,0
 520 0108 6FF09FFA 		j	.L28
 521              	.LVL45:
 522              	.L24:
 523              	.LBE47:
 524              	.LBE48:
 525              	.LBE40:
  62:test/Threads_CPP_API_test.cpp ****         }
  63:test/Threads_CPP_API_test.cpp ****     }
  64:test/Threads_CPP_API_test.cpp ****     printString("A finished!\n");
 526              		.loc 1 64 5 is_stmt 1
 527              		.loc 1 64 16 is_stmt 0
 528 010c 17050000 		lla	a0,.LC2
 528      13050500 
 529 0114 97000000 		call	_Z11printStringPKc
 529      E7800000 
 530              	.LVL46:
  65:test/Threads_CPP_API_test.cpp ****     finishedA = true;
GAS LISTING C:\msys64\tmp\ccwMNTRe.s 			page 12


 531              		.loc 1 65 5 is_stmt 1
 532              		.loc 1 65 15 is_stmt 0
 533 011c 93071000 		li	a5,1
 534 0120 17070000 		sb	a5,_ZL9finishedA,a4
 534      2300F700 
  66:test/Threads_CPP_API_test.cpp **** }
 535              		.loc 1 66 1
 536 0128 83308101 		ld	ra,24(sp)
 537              		.cfi_restore 1
 538 012c 03340101 		ld	s0,16(sp)
 539              		.cfi_restore 8
 540              		.cfi_def_cfa 2, 32
 541 0130 83348100 		ld	s1,8(sp)
 542              		.cfi_restore 9
 543 0134 03390100 		ld	s2,0(sp)
 544              		.cfi_restore 18
 545              	.LVL47:
 546 0138 13010102 		addi	sp,sp,32
 547              		.cfi_def_cfa_offset 0
 548 013c 67800000 		jr	ra
 549              		.cfi_endproc
 550              	.LFE19:
 552              		.section	.text._ZN7WorkerA3runEv,"axG",@progbits,_ZN7WorkerA3runEv,comdat
 553              		.align	2
 554              		.weak	_ZN7WorkerA3runEv
 556              	_ZN7WorkerA3runEv:
 557              	.LFB6:
  21:test/Threads_CPP_API_test.cpp ****         workerBodyA(nullptr);
 558              		.loc 1 21 10 is_stmt 1
 559              		.cfi_startproc
 560              	.LVL48:
 561 0000 130101FF 		addi	sp,sp,-16
 562              		.cfi_def_cfa_offset 16
 563 0004 23341100 		sd	ra,8(sp)
 564 0008 23308100 		sd	s0,0(sp)
 565              		.cfi_offset 1, -8
 566              		.cfi_offset 8, -16
 567 000c 13040101 		addi	s0,sp,16
 568              		.cfi_def_cfa 8, 0
  22:test/Threads_CPP_API_test.cpp ****     }
 569              		.loc 1 22 9
  22:test/Threads_CPP_API_test.cpp ****     }
 570              		.loc 1 22 20 is_stmt 0
 571 0010 93050000 		li	a1,0
 572 0014 97000000 		call	_ZN7WorkerA11workerBodyAEPv
 572      E7800000 
 573              	.LVL49:
  23:test/Threads_CPP_API_test.cpp **** };
 574              		.loc 1 23 5
 575 001c 83308100 		ld	ra,8(sp)
 576              		.cfi_restore 1
 577 0020 03340100 		ld	s0,0(sp)
 578              		.cfi_restore 8
 579              		.cfi_def_cfa 2, 16
 580 0024 13010101 		addi	sp,sp,16
 581              		.cfi_def_cfa_offset 0
 582 0028 67800000 		jr	ra
GAS LISTING C:\msys64\tmp\ccwMNTRe.s 			page 13


 583              		.cfi_endproc
 584              	.LFE6:
 586              		.section	.rodata.str1.8
 587 001d 000000   		.align	3
 588              	.LC3:
 589 0020 423A2069 		.string	"B: i="
 589      3D00
 590 0026 0000     		.align	3
 591              	.LC4:
 592 0028 42206669 		.string	"B finished!\n"
 592      6E697368 
 592      6564210A 
 592      00
 593              		.text
 594              		.align	2
 595              		.globl	_ZN7WorkerB11workerBodyBEPv
 597              	_ZN7WorkerB11workerBodyBEPv:
 598              	.LFB20:
  67:test/Threads_CPP_API_test.cpp **** 
  68:test/Threads_CPP_API_test.cpp **** void WorkerB::workerBodyB(void *arg) {
 599              		.loc 1 68 38 is_stmt 1
 600              		.cfi_startproc
 601              	.LVL50:
 602 0140 130101FE 		addi	sp,sp,-32
 603              		.cfi_def_cfa_offset 32
 604 0144 233C1100 		sd	ra,24(sp)
 605 0148 23388100 		sd	s0,16(sp)
 606 014c 23349100 		sd	s1,8(sp)
 607 0150 23302101 		sd	s2,0(sp)
 608              		.cfi_offset 1, -8
 609              		.cfi_offset 8, -16
 610              		.cfi_offset 9, -24
 611              		.cfi_offset 18, -32
 612 0154 13040102 		addi	s0,sp,32
 613              		.cfi_def_cfa 8, 0
  69:test/Threads_CPP_API_test.cpp ****     for (uint64 i = 0; i < 16; i++) {
 614              		.loc 1 69 5
 615              	.LVL51:
 616              	.LBB49:
 617              		.loc 1 69 17 is_stmt 0
 618 0158 13090000 		li	s2,0
 619 015c 6F008003 		j	.L40
 620              	.LVL52:
 621              	.L42:
 622              	.LBB50:
 623              	.LBB51:
 624              	.LBB52:
 625              	.LBB53:
  70:test/Threads_CPP_API_test.cpp ****         printString("B: i="); printInt(i); printString("\n");
  71:test/Threads_CPP_API_test.cpp ****         for (uint64 j = 0; j < 10000; j++) {
  72:test/Threads_CPP_API_test.cpp ****             for (uint64 k = 0; k < 30000; k++) { /* busy wait */ }
 626              		.loc 1 72 13 is_stmt 1 discriminator 2
 627 0160 13071700 		addi	a4,a4,1
 628              	.LVL53:
 629              	.L38:
 630              		.loc 1 72 34 discriminator 3
 631 0164 B7770000 		li	a5,28672
GAS LISTING C:\msys64\tmp\ccwMNTRe.s 			page 14


 632 0168 9387F752 		addi	a5,a5,1327
 633 016c E3FAE7FE 		bleu	a4,a5,.L42
 634              	.LBE53:
  73:test/Threads_CPP_API_test.cpp ****             thread_dispatch();
 635              		.loc 1 73 13 discriminator 2
 636              		.loc 1 73 28 is_stmt 0 discriminator 2
 637 0170 97000000 		call	_Z15thread_dispatchv
 637      E7800000 
 638              	.LVL54:
 639              	.LBE52:
  71:test/Threads_CPP_API_test.cpp ****             for (uint64 k = 0; k < 30000; k++) { /* busy wait */ }
 640              		.loc 1 71 9 is_stmt 1 discriminator 2
 641 0178 93841400 		addi	s1,s1,1
 642              	.LVL55:
 643              	.L39:
  71:test/Threads_CPP_API_test.cpp ****             for (uint64 k = 0; k < 30000; k++) { /* busy wait */ }
 644              		.loc 1 71 30 discriminator 1
 645 017c B7270000 		li	a5,8192
 646 0180 9387F770 		addi	a5,a5,1807
 647 0184 63E69700 		bgtu	s1,a5,.L36
 648              	.LBB55:
 649              	.LBB54:
  72:test/Threads_CPP_API_test.cpp ****             thread_dispatch();
 650              		.loc 1 72 25 is_stmt 0
 651 0188 13070000 		li	a4,0
 652 018c 6FF09FFD 		j	.L38
 653              	.L36:
 654              	.LBE54:
 655              	.LBE55:
 656              	.LBE51:
 657              	.LBE50:
  69:test/Threads_CPP_API_test.cpp ****         printString("B: i="); printInt(i); printString("\n");
 658              		.loc 1 69 5 is_stmt 1 discriminator 2
 659 0190 13091900 		addi	s2,s2,1
 660              	.LVL56:
 661              	.L40:
  69:test/Threads_CPP_API_test.cpp ****         printString("B: i="); printInt(i); printString("\n");
 662              		.loc 1 69 26 discriminator 1
 663 0194 9307F000 		li	a5,15
 664 0198 63E02705 		bgtu	s2,a5,.L35
 665              	.LBB57:
  70:test/Threads_CPP_API_test.cpp ****         for (uint64 j = 0; j < 10000; j++) {
 666              		.loc 1 70 9
  70:test/Threads_CPP_API_test.cpp ****         for (uint64 j = 0; j < 10000; j++) {
 667              		.loc 1 70 20 is_stmt 0
 668 019c 17050000 		lla	a0,.LC3
 668      13050500 
 669 01a4 97000000 		call	_Z11printStringPKc
 669      E7800000 
 670              	.LVL57:
  70:test/Threads_CPP_API_test.cpp ****         for (uint64 j = 0; j < 10000; j++) {
 671              		.loc 1 70 31 is_stmt 1
  70:test/Threads_CPP_API_test.cpp ****         for (uint64 j = 0; j < 10000; j++) {
 672              		.loc 1 70 39 is_stmt 0
 673 01ac 13060000 		li	a2,0
 674 01b0 9305A000 		li	a1,10
 675 01b4 1B050900 		sext.w	a0,s2
GAS LISTING C:\msys64\tmp\ccwMNTRe.s 			page 15


 676 01b8 97000000 		call	_Z8printIntiii
 676      E7800000 
 677              	.LVL58:
  70:test/Threads_CPP_API_test.cpp ****         for (uint64 j = 0; j < 10000; j++) {
 678              		.loc 1 70 44 is_stmt 1
  70:test/Threads_CPP_API_test.cpp ****         for (uint64 j = 0; j < 10000; j++) {
 679              		.loc 1 70 55 is_stmt 0
 680 01c0 17050000 		lla	a0,.LC1
 680      13050500 
 681 01c8 97000000 		call	_Z11printStringPKc
 681      E7800000 
 682              	.LVL59:
  71:test/Threads_CPP_API_test.cpp ****             for (uint64 k = 0; k < 30000; k++) { /* busy wait */ }
 683              		.loc 1 71 9 is_stmt 1
 684              	.LBB56:
  71:test/Threads_CPP_API_test.cpp ****             for (uint64 k = 0; k < 30000; k++) { /* busy wait */ }
 685              		.loc 1 71 21 is_stmt 0
 686 01d0 93040000 		li	s1,0
 687 01d4 6FF09FFA 		j	.L39
 688              	.LVL60:
 689              	.L35:
 690              	.LBE56:
 691              	.LBE57:
 692              	.LBE49:
  74:test/Threads_CPP_API_test.cpp ****         }
  75:test/Threads_CPP_API_test.cpp ****     }
  76:test/Threads_CPP_API_test.cpp ****     printString("B finished!\n");
 693              		.loc 1 76 5 is_stmt 1
 694              		.loc 1 76 16 is_stmt 0
 695 01d8 17050000 		lla	a0,.LC4
 695      13050500 
 696 01e0 97000000 		call	_Z11printStringPKc
 696      E7800000 
 697              	.LVL61:
  77:test/Threads_CPP_API_test.cpp ****     finishedB = true;
 698              		.loc 1 77 5 is_stmt 1
 699              		.loc 1 77 15 is_stmt 0
 700 01e8 93071000 		li	a5,1
 701 01ec 17070000 		sb	a5,_ZL9finishedB,a4
 701      2300F700 
  78:test/Threads_CPP_API_test.cpp ****     thread_dispatch();
 702              		.loc 1 78 5 is_stmt 1
 703              		.loc 1 78 20 is_stmt 0
 704 01f4 97000000 		call	_Z15thread_dispatchv
 704      E7800000 
 705              	.LVL62:
  79:test/Threads_CPP_API_test.cpp **** }
 706              		.loc 1 79 1
 707 01fc 83308101 		ld	ra,24(sp)
 708              		.cfi_restore 1
 709 0200 03340101 		ld	s0,16(sp)
 710              		.cfi_restore 8
 711              		.cfi_def_cfa 2, 32
 712 0204 83348100 		ld	s1,8(sp)
 713              		.cfi_restore 9
 714 0208 03390100 		ld	s2,0(sp)
 715              		.cfi_restore 18
GAS LISTING C:\msys64\tmp\ccwMNTRe.s 			page 16


 716              	.LVL63:
 717 020c 13010102 		addi	sp,sp,32
 718              		.cfi_def_cfa_offset 0
 719 0210 67800000 		jr	ra
 720              		.cfi_endproc
 721              	.LFE20:
 723              		.section	.text._ZN7WorkerB3runEv,"axG",@progbits,_ZN7WorkerB3runEv,comdat
 724              		.align	2
 725              		.weak	_ZN7WorkerB3runEv
 727              	_ZN7WorkerB3runEv:
 728              	.LFB10:
  31:test/Threads_CPP_API_test.cpp ****         workerBodyB(nullptr);
 729              		.loc 1 31 10 is_stmt 1
 730              		.cfi_startproc
 731              	.LVL64:
 732 0000 130101FF 		addi	sp,sp,-16
 733              		.cfi_def_cfa_offset 16
 734 0004 23341100 		sd	ra,8(sp)
 735 0008 23308100 		sd	s0,0(sp)
 736              		.cfi_offset 1, -8
 737              		.cfi_offset 8, -16
 738 000c 13040101 		addi	s0,sp,16
 739              		.cfi_def_cfa 8, 0
  32:test/Threads_CPP_API_test.cpp ****     }
 740              		.loc 1 32 9
  32:test/Threads_CPP_API_test.cpp ****     }
 741              		.loc 1 32 20 is_stmt 0
 742 0010 93050000 		li	a1,0
 743 0014 97000000 		call	_ZN7WorkerB11workerBodyBEPv
 743      E7800000 
 744              	.LVL65:
  33:test/Threads_CPP_API_test.cpp **** };
 745              		.loc 1 33 5
 746 001c 83308100 		ld	ra,8(sp)
 747              		.cfi_restore 1
 748 0020 03340100 		ld	s0,0(sp)
 749              		.cfi_restore 8
 750              		.cfi_def_cfa 2, 16
 751 0024 13010101 		addi	sp,sp,16
 752              		.cfi_def_cfa_offset 0
 753 0028 67800000 		jr	ra
 754              		.cfi_endproc
 755              	.LFE10:
 757              		.section	.rodata.str1.8
 758 0035 000000   		.align	3
 759              	.LC5:
 760 0038 433A2069 		.string	"C: i="
 760      3D00
 761 003e 0000     		.align	3
 762              	.LC6:
 763 0040 433A2064 		.string	"C: dispatch\n"
 763      69737061 
 763      7463680A 
 763      00
 764 004d 000000   		.align	3
 765              	.LC7:
 766 0050 433A2074 		.string	"C: t1="
GAS LISTING C:\msys64\tmp\ccwMNTRe.s 			page 17


 766      313D00
 767 0057 00       		.align	3
 768              	.LC8:
 769 0058 433A2066 		.string	"C: fibonaci="
 769      69626F6E 
 769      6163693D 
 769      00
 770              		.text
 771              		.align	2
 772              		.globl	_ZN7WorkerC11workerBodyCEPv
 774              	_ZN7WorkerC11workerBodyCEPv:
 775              	.LFB21:
  80:test/Threads_CPP_API_test.cpp **** 
  81:test/Threads_CPP_API_test.cpp **** void WorkerC::workerBodyC(void *arg) {
 776              		.loc 1 81 38 is_stmt 1
 777              		.cfi_startproc
 778              	.LVL66:
 779 0214 130101FE 		addi	sp,sp,-32
 780              		.cfi_def_cfa_offset 32
 781 0218 233C1100 		sd	ra,24(sp)
 782 021c 23388100 		sd	s0,16(sp)
 783 0220 23349100 		sd	s1,8(sp)
 784 0224 23302101 		sd	s2,0(sp)
 785              		.cfi_offset 1, -8
 786              		.cfi_offset 8, -16
 787              		.cfi_offset 9, -24
 788              		.cfi_offset 18, -32
 789 0228 13040102 		addi	s0,sp,32
 790              		.cfi_def_cfa 8, 0
  82:test/Threads_CPP_API_test.cpp ****     uint8 i = 0;
 791              		.loc 1 82 5
 792              	.LVL67:
 793              		.loc 1 82 11 is_stmt 0
 794 022c 93040000 		li	s1,0
 795 0230 6F000004 		j	.L47
 796              	.LVL68:
 797              	.L51:
  83:test/Threads_CPP_API_test.cpp ****     for (; i < 3; i++) {
  84:test/Threads_CPP_API_test.cpp ****         printString("C: i="); printInt(i); printString("\n");
 798              		.loc 1 84 9 is_stmt 1 discriminator 1
 799              		.loc 1 84 20 is_stmt 0 discriminator 1
 800 0234 17050000 		lla	a0,.LC5
 800      13050500 
 801 023c 97000000 		call	_Z11printStringPKc
 801      E7800000 
 802              	.LVL69:
 803              		.loc 1 84 31 is_stmt 1 discriminator 1
 804              		.loc 1 84 39 is_stmt 0 discriminator 1
 805 0244 13060000 		li	a2,0
 806 0248 9305A000 		li	a1,10
 807 024c 13850400 		mv	a0,s1
 808 0250 97000000 		call	_Z8printIntiii
 808      E7800000 
 809              	.LVL70:
 810              		.loc 1 84 44 is_stmt 1 discriminator 1
 811              		.loc 1 84 55 is_stmt 0 discriminator 1
 812 0258 17050000 		lla	a0,.LC1
GAS LISTING C:\msys64\tmp\ccwMNTRe.s 			page 18


 812      13050500 
 813 0260 97000000 		call	_Z11printStringPKc
 813      E7800000 
 814              	.LVL71:
  83:test/Threads_CPP_API_test.cpp ****     for (; i < 3; i++) {
 815              		.loc 1 83 5 is_stmt 1 discriminator 1
 816 0268 9B841400 		addiw	s1,s1,1
 817              	.LVL72:
 818 026c 93F4F40F 		andi	s1,s1,0xff
 819              	.LVL73:
 820              	.L47:
  83:test/Threads_CPP_API_test.cpp ****     for (; i < 3; i++) {
 821              		.loc 1 83 5 discriminator 2
  83:test/Threads_CPP_API_test.cpp ****     for (; i < 3; i++) {
 822              		.loc 1 83 14 discriminator 2
 823 0270 93072000 		li	a5,2
 824 0274 E3F097FC 		bleu	s1,a5,.L51
  85:test/Threads_CPP_API_test.cpp ****     }
  86:test/Threads_CPP_API_test.cpp **** 
  87:test/Threads_CPP_API_test.cpp ****     printString("C: dispatch\n");
 825              		.loc 1 87 5
 826              		.loc 1 87 16 is_stmt 0
 827 0278 17050000 		lla	a0,.LC6
 827      13050500 
 828 0280 97000000 		call	_Z11printStringPKc
 828      E7800000 
 829              	.LVL74:
  88:test/Threads_CPP_API_test.cpp ****     __asm__ ("li t1, 7");
 830              		.loc 1 88 5 is_stmt 1
 831              	 #APP
 832              	# 88 "test/Threads_CPP_API_test.cpp" 1
  89              	    thread_dispatch();
 833              		li t1, 7
 834              	# 0 "" 2
 835              		.loc 1 89 5
 836              		.loc 1 89 20 is_stmt 0
 837              	 #NO_APP
 838 028c 97000000 		call	_Z15thread_dispatchv
 838      E7800000 
 839              	.LVL75:
  90:test/Threads_CPP_API_test.cpp **** 
  91:test/Threads_CPP_API_test.cpp ****     uint64 t1 = 0;
 840              		.loc 1 91 5 is_stmt 1
  92:test/Threads_CPP_API_test.cpp ****     __asm__ ("mv %[t1], t1" : [t1] "=r"(t1));
 841              		.loc 1 92 5
 842              	 #APP
 843              	# 92 "test/Threads_CPP_API_test.cpp" 1
  93              	
 844              		mv s2, t1
 845              	# 0 "" 2
 846              	.LVL76:
  94:test/Threads_CPP_API_test.cpp ****     printString("C: t1="); printInt(t1); printString("\n");
 847              		.loc 1 94 5
 848              		.loc 1 94 16 is_stmt 0
 849              	 #NO_APP
 850 0298 17050000 		lla	a0,.LC7
 850      13050500 
GAS LISTING C:\msys64\tmp\ccwMNTRe.s 			page 19


 851 02a0 97000000 		call	_Z11printStringPKc
 851      E7800000 
 852              	.LVL77:
 853              		.loc 1 94 28 is_stmt 1
 854              		.loc 1 94 36 is_stmt 0
 855 02a8 13060000 		li	a2,0
 856 02ac 9305A000 		li	a1,10
 857 02b0 1B050900 		sext.w	a0,s2
 858 02b4 97000000 		call	_Z8printIntiii
 858      E7800000 
 859              	.LVL78:
 860              		.loc 1 94 42 is_stmt 1
 861              		.loc 1 94 53 is_stmt 0
 862 02bc 17050000 		lla	a0,.LC1
 862      13050500 
 863 02c4 97000000 		call	_Z11printStringPKc
 863      E7800000 
 864              	.LVL79:
  95:test/Threads_CPP_API_test.cpp **** 
  96:test/Threads_CPP_API_test.cpp ****     uint64 result = fibonacci(12);
 865              		.loc 1 96 5 is_stmt 1
 866              		.loc 1 96 30 is_stmt 0
 867 02cc 1305C000 		li	a0,12
 868 02d0 97000000 		call	_ZL9fibonaccim
 868      E7800000 
 869              	.LVL80:
 870 02d8 13090500 		mv	s2,a0
 871              	.LVL81:
  97:test/Threads_CPP_API_test.cpp ****     printString("C: fibonaci="); printInt(result); printString("\n");
 872              		.loc 1 97 5 is_stmt 1
 873              		.loc 1 97 16 is_stmt 0
 874 02dc 17050000 		lla	a0,.LC8
 874      13050500 
 875              	.LVL82:
 876 02e4 97000000 		call	_Z11printStringPKc
 876      E7800000 
 877              	.LVL83:
 878              		.loc 1 97 34 is_stmt 1
 879              		.loc 1 97 42 is_stmt 0
 880 02ec 13060000 		li	a2,0
 881 02f0 9305A000 		li	a1,10
 882 02f4 1B050900 		sext.w	a0,s2
 883 02f8 97000000 		call	_Z8printIntiii
 883      E7800000 
 884              	.LVL84:
 885              		.loc 1 97 52 is_stmt 1
 886              		.loc 1 97 63 is_stmt 0
 887 0300 17050000 		lla	a0,.LC1
 887      13050500 
 888 0308 97000000 		call	_Z11printStringPKc
 888      E7800000 
 889              	.LVL85:
 890 0310 6F000004 		j	.L49
 891              	.L52:
  98:test/Threads_CPP_API_test.cpp **** 
  99:test/Threads_CPP_API_test.cpp ****     for (; i < 6; i++) {
 100:test/Threads_CPP_API_test.cpp ****         printString("C: i="); printInt(i); printString("\n");
GAS LISTING C:\msys64\tmp\ccwMNTRe.s 			page 20


 892              		.loc 1 100 9 is_stmt 1 discriminator 1
 893              		.loc 1 100 20 is_stmt 0 discriminator 1
 894 0314 17050000 		lla	a0,.LC5
 894      13050500 
 895 031c 97000000 		call	_Z11printStringPKc
 895      E7800000 
 896              	.LVL86:
 897              		.loc 1 100 31 is_stmt 1 discriminator 1
 898              		.loc 1 100 39 is_stmt 0 discriminator 1
 899 0324 13060000 		li	a2,0
 900 0328 9305A000 		li	a1,10
 901 032c 13850400 		mv	a0,s1
 902 0330 97000000 		call	_Z8printIntiii
 902      E7800000 
 903              	.LVL87:
 904              		.loc 1 100 44 is_stmt 1 discriminator 1
 905              		.loc 1 100 55 is_stmt 0 discriminator 1
 906 0338 17050000 		lla	a0,.LC1
 906      13050500 
 907 0340 97000000 		call	_Z11printStringPKc
 907      E7800000 
 908              	.LVL88:
  99:test/Threads_CPP_API_test.cpp ****         printString("C: i="); printInt(i); printString("\n");
 909              		.loc 1 99 5 is_stmt 1 discriminator 1
 910 0348 9B841400 		addiw	s1,s1,1
 911              	.LVL89:
 912 034c 93F4F40F 		andi	s1,s1,0xff
 913              	.LVL90:
 914              	.L49:
  99:test/Threads_CPP_API_test.cpp ****         printString("C: i="); printInt(i); printString("\n");
 915              		.loc 1 99 5 discriminator 2
  99:test/Threads_CPP_API_test.cpp ****         printString("C: i="); printInt(i); printString("\n");
 916              		.loc 1 99 14 discriminator 2
 917 0350 93075000 		li	a5,5
 918 0354 E3F097FC 		bleu	s1,a5,.L52
 101:test/Threads_CPP_API_test.cpp ****     }
 102:test/Threads_CPP_API_test.cpp **** 
 103:test/Threads_CPP_API_test.cpp ****     printString("A finished!\n");
 919              		.loc 1 103 5
 920              		.loc 1 103 16 is_stmt 0
 921 0358 17050000 		lla	a0,.LC2
 921      13050500 
 922 0360 97000000 		call	_Z11printStringPKc
 922      E7800000 
 923              	.LVL91:
 104:test/Threads_CPP_API_test.cpp ****     finishedC = true;
 924              		.loc 1 104 5 is_stmt 1
 925              		.loc 1 104 15 is_stmt 0
 926 0368 93071000 		li	a5,1
 927 036c 17070000 		sb	a5,_ZL9finishedC,a4
 927      2300F700 
 105:test/Threads_CPP_API_test.cpp ****     thread_dispatch();
 928              		.loc 1 105 5 is_stmt 1
 929              		.loc 1 105 20 is_stmt 0
 930 0374 97000000 		call	_Z15thread_dispatchv
 930      E7800000 
 931              	.LVL92:
GAS LISTING C:\msys64\tmp\ccwMNTRe.s 			page 21


 106:test/Threads_CPP_API_test.cpp **** }
 932              		.loc 1 106 1
 933 037c 83308101 		ld	ra,24(sp)
 934              		.cfi_restore 1
 935 0380 03340101 		ld	s0,16(sp)
 936              		.cfi_restore 8
 937              		.cfi_def_cfa 2, 32
 938 0384 83348100 		ld	s1,8(sp)
 939              		.cfi_restore 9
 940              	.LVL93:
 941 0388 03390100 		ld	s2,0(sp)
 942              		.cfi_restore 18
 943              	.LVL94:
 944 038c 13010102 		addi	sp,sp,32
 945              		.cfi_def_cfa_offset 0
 946 0390 67800000 		jr	ra
 947              		.cfi_endproc
 948              	.LFE21:
 950              		.section	.text._ZN7WorkerC3runEv,"axG",@progbits,_ZN7WorkerC3runEv,comdat
 951              		.align	2
 952              		.weak	_ZN7WorkerC3runEv
 954              	_ZN7WorkerC3runEv:
 955              	.LFB14:
  41:test/Threads_CPP_API_test.cpp ****         workerBodyC(nullptr);
 956              		.loc 1 41 10 is_stmt 1
 957              		.cfi_startproc
 958              	.LVL95:
 959 0000 130101FF 		addi	sp,sp,-16
 960              		.cfi_def_cfa_offset 16
 961 0004 23341100 		sd	ra,8(sp)
 962 0008 23308100 		sd	s0,0(sp)
 963              		.cfi_offset 1, -8
 964              		.cfi_offset 8, -16
 965 000c 13040101 		addi	s0,sp,16
 966              		.cfi_def_cfa 8, 0
  42:test/Threads_CPP_API_test.cpp ****     }
 967              		.loc 1 42 9
  42:test/Threads_CPP_API_test.cpp ****     }
 968              		.loc 1 42 20 is_stmt 0
 969 0010 93050000 		li	a1,0
 970 0014 97000000 		call	_ZN7WorkerC11workerBodyCEPv
 970      E7800000 
 971              	.LVL96:
  43:test/Threads_CPP_API_test.cpp **** };
 972              		.loc 1 43 5
 973 001c 83308100 		ld	ra,8(sp)
 974              		.cfi_restore 1
 975 0020 03340100 		ld	s0,0(sp)
 976              		.cfi_restore 8
 977              		.cfi_def_cfa 2, 16
 978 0024 13010101 		addi	sp,sp,16
 979              		.cfi_def_cfa_offset 0
 980 0028 67800000 		jr	ra
 981              		.cfi_endproc
 982              	.LFE14:
 984              		.section	.rodata.str1.8
 985 0065 000000   		.align	3
GAS LISTING C:\msys64\tmp\ccwMNTRe.s 			page 22


 986              	.LC9:
 987 0068 443A2069 		.string	"D: i="
 987      3D00
 988 006e 0000     		.align	3
 989              	.LC10:
 990 0070 443A2064 		.string	"D: dispatch\n"
 990      69737061 
 990      7463680A 
 990      00
 991 007d 000000   		.align	3
 992              	.LC11:
 993 0080 443A2066 		.string	"D: fibonaci="
 993      69626F6E 
 993      6163693D 
 993      00
 994 008d 000000   		.align	3
 995              	.LC12:
 996 0090 44206669 		.string	"D finished!\n"
 996      6E697368 
 996      6564210A 
 996      00
 997              		.text
 998              		.align	2
 999              		.globl	_ZN7WorkerD11workerBodyDEPv
 1001              	_ZN7WorkerD11workerBodyDEPv:
 1002              	.LFB22:
 107:test/Threads_CPP_API_test.cpp **** 
 108:test/Threads_CPP_API_test.cpp **** void WorkerD::workerBodyD(void* arg) {
 1003              		.loc 1 108 38 is_stmt 1
 1004              		.cfi_startproc
 1005              	.LVL97:
 1006 0394 130101FE 		addi	sp,sp,-32
 1007              		.cfi_def_cfa_offset 32
 1008 0398 233C1100 		sd	ra,24(sp)
 1009 039c 23388100 		sd	s0,16(sp)
 1010 03a0 23349100 		sd	s1,8(sp)
 1011 03a4 23302101 		sd	s2,0(sp)
 1012              		.cfi_offset 1, -8
 1013              		.cfi_offset 8, -16
 1014              		.cfi_offset 9, -24
 1015              		.cfi_offset 18, -32
 1016 03a8 13040102 		addi	s0,sp,32
 1017              		.cfi_def_cfa 8, 0
 109:test/Threads_CPP_API_test.cpp ****     uint8 i = 10;
 1018              		.loc 1 109 5
 1019              	.LVL98:
 1020              		.loc 1 109 11 is_stmt 0
 1021 03ac 9304A000 		li	s1,10
 1022 03b0 6F000004 		j	.L57
 1023              	.LVL99:
 1024              	.L61:
 110:test/Threads_CPP_API_test.cpp ****     for (; i < 13; i++) {
 111:test/Threads_CPP_API_test.cpp ****         printString("D: i="); printInt(i); printString("\n");
 1025              		.loc 1 111 9 is_stmt 1 discriminator 1
 1026              		.loc 1 111 20 is_stmt 0 discriminator 1
 1027 03b4 17050000 		lla	a0,.LC9
 1027      13050500 
GAS LISTING C:\msys64\tmp\ccwMNTRe.s 			page 23


 1028 03bc 97000000 		call	_Z11printStringPKc
 1028      E7800000 
 1029              	.LVL100:
 1030              		.loc 1 111 31 is_stmt 1 discriminator 1
 1031              		.loc 1 111 39 is_stmt 0 discriminator 1
 1032 03c4 13060000 		li	a2,0
 1033 03c8 9305A000 		li	a1,10
 1034 03cc 13850400 		mv	a0,s1
 1035 03d0 97000000 		call	_Z8printIntiii
 1035      E7800000 
 1036              	.LVL101:
 1037              		.loc 1 111 44 is_stmt 1 discriminator 1
 1038              		.loc 1 111 55 is_stmt 0 discriminator 1
 1039 03d8 17050000 		lla	a0,.LC1
 1039      13050500 
 1040 03e0 97000000 		call	_Z11printStringPKc
 1040      E7800000 
 1041              	.LVL102:
 110:test/Threads_CPP_API_test.cpp ****     for (; i < 13; i++) {
 1042              		.loc 1 110 5 is_stmt 1 discriminator 1
 1043 03e8 9B841400 		addiw	s1,s1,1
 1044              	.LVL103:
 1045 03ec 93F4F40F 		andi	s1,s1,0xff
 1046              	.LVL104:
 1047              	.L57:
 110:test/Threads_CPP_API_test.cpp ****     for (; i < 13; i++) {
 1048              		.loc 1 110 5 discriminator 2
 110:test/Threads_CPP_API_test.cpp ****     for (; i < 13; i++) {
 1049              		.loc 1 110 14 discriminator 2
 1050 03f0 9307C000 		li	a5,12
 1051 03f4 E3F097FC 		bleu	s1,a5,.L61
 112:test/Threads_CPP_API_test.cpp ****     }
 113:test/Threads_CPP_API_test.cpp **** 
 114:test/Threads_CPP_API_test.cpp ****     printString("D: dispatch\n");
 1052              		.loc 1 114 5
 1053              		.loc 1 114 16 is_stmt 0
 1054 03f8 17050000 		lla	a0,.LC10
 1054      13050500 
 1055 0400 97000000 		call	_Z11printStringPKc
 1055      E7800000 
 1056              	.LVL105:
 115:test/Threads_CPP_API_test.cpp ****     __asm__ ("li t1, 5");
 1057              		.loc 1 115 5 is_stmt 1
 1058              	 #APP
 1059              	# 115 "test/Threads_CPP_API_test.cpp" 1
 116              	    thread_dispatch();
 1060              		li t1, 5
 1061              	# 0 "" 2
 1062              		.loc 1 116 5
 1063              		.loc 1 116 20 is_stmt 0
 1064              	 #NO_APP
 1065 040c 97000000 		call	_Z15thread_dispatchv
 1065      E7800000 
 1066              	.LVL106:
 117:test/Threads_CPP_API_test.cpp **** 
 118:test/Threads_CPP_API_test.cpp ****     uint64 result = fibonacci(16);
 1067              		.loc 1 118 5 is_stmt 1
GAS LISTING C:\msys64\tmp\ccwMNTRe.s 			page 24


 1068              		.loc 1 118 30 is_stmt 0
 1069 0414 13050001 		li	a0,16
 1070 0418 97000000 		call	_ZL9fibonaccim
 1070      E7800000 
 1071              	.LVL107:
 1072 0420 13090500 		mv	s2,a0
 1073              	.LVL108:
 119:test/Threads_CPP_API_test.cpp ****     printString("D: fibonaci="); printInt(result); printString("\n");
 1074              		.loc 1 119 5 is_stmt 1
 1075              		.loc 1 119 16 is_stmt 0
 1076 0424 17050000 		lla	a0,.LC11
 1076      13050500 
 1077              	.LVL109:
 1078 042c 97000000 		call	_Z11printStringPKc
 1078      E7800000 
 1079              	.LVL110:
 1080              		.loc 1 119 34 is_stmt 1
 1081              		.loc 1 119 42 is_stmt 0
 1082 0434 13060000 		li	a2,0
 1083 0438 9305A000 		li	a1,10
 1084 043c 1B050900 		sext.w	a0,s2
 1085 0440 97000000 		call	_Z8printIntiii
 1085      E7800000 
 1086              	.LVL111:
 1087              		.loc 1 119 52 is_stmt 1
 1088              		.loc 1 119 63 is_stmt 0
 1089 0448 17050000 		lla	a0,.LC1
 1089      13050500 
 1090 0450 97000000 		call	_Z11printStringPKc
 1090      E7800000 
 1091              	.LVL112:
 1092 0458 6F000004 		j	.L59
 1093              	.L62:
 120:test/Threads_CPP_API_test.cpp **** 
 121:test/Threads_CPP_API_test.cpp ****     for (; i < 16; i++) {
 122:test/Threads_CPP_API_test.cpp ****         printString("D: i="); printInt(i); printString("\n");
 1094              		.loc 1 122 9 is_stmt 1 discriminator 1
 1095              		.loc 1 122 20 is_stmt 0 discriminator 1
 1096 045c 17050000 		lla	a0,.LC9
 1096      13050500 
 1097 0464 97000000 		call	_Z11printStringPKc
 1097      E7800000 
 1098              	.LVL113:
 1099              		.loc 1 122 31 is_stmt 1 discriminator 1
 1100              		.loc 1 122 39 is_stmt 0 discriminator 1
 1101 046c 13060000 		li	a2,0
 1102 0470 9305A000 		li	a1,10
 1103 0474 13850400 		mv	a0,s1
 1104 0478 97000000 		call	_Z8printIntiii
 1104      E7800000 
 1105              	.LVL114:
 1106              		.loc 1 122 44 is_stmt 1 discriminator 1
 1107              		.loc 1 122 55 is_stmt 0 discriminator 1
 1108 0480 17050000 		lla	a0,.LC1
 1108      13050500 
 1109 0488 97000000 		call	_Z11printStringPKc
 1109      E7800000 
GAS LISTING C:\msys64\tmp\ccwMNTRe.s 			page 25


 1110              	.LVL115:
 121:test/Threads_CPP_API_test.cpp ****         printString("D: i="); printInt(i); printString("\n");
 1111              		.loc 1 121 5 is_stmt 1 discriminator 1
 1112 0490 9B841400 		addiw	s1,s1,1
 1113              	.LVL116:
 1114 0494 93F4F40F 		andi	s1,s1,0xff
 1115              	.LVL117:
 1116              	.L59:
 121:test/Threads_CPP_API_test.cpp ****         printString("D: i="); printInt(i); printString("\n");
 1117              		.loc 1 121 5 discriminator 2
 121:test/Threads_CPP_API_test.cpp ****         printString("D: i="); printInt(i); printString("\n");
 1118              		.loc 1 121 14 discriminator 2
 1119 0498 9307F000 		li	a5,15
 1120 049c E3F097FC 		bleu	s1,a5,.L62
 123:test/Threads_CPP_API_test.cpp ****     }
 124:test/Threads_CPP_API_test.cpp **** 
 125:test/Threads_CPP_API_test.cpp ****     printString("D finished!\n");
 1121              		.loc 1 125 5
 1122              		.loc 1 125 16 is_stmt 0
 1123 04a0 17050000 		lla	a0,.LC12
 1123      13050500 
 1124 04a8 97000000 		call	_Z11printStringPKc
 1124      E7800000 
 1125              	.LVL118:
 126:test/Threads_CPP_API_test.cpp ****     finishedD = true;
 1126              		.loc 1 126 5 is_stmt 1
 1127              		.loc 1 126 15 is_stmt 0
 1128 04b0 93071000 		li	a5,1
 1129 04b4 17070000 		sb	a5,_ZL9finishedD,a4
 1129      2300F700 
 127:test/Threads_CPP_API_test.cpp ****     thread_dispatch();
 1130              		.loc 1 127 5 is_stmt 1
 1131              		.loc 1 127 20 is_stmt 0
 1132 04bc 97000000 		call	_Z15thread_dispatchv
 1132      E7800000 
 1133              	.LVL119:
 128:test/Threads_CPP_API_test.cpp **** }
 1134              		.loc 1 128 1
 1135 04c4 83308101 		ld	ra,24(sp)
 1136              		.cfi_restore 1
 1137 04c8 03340101 		ld	s0,16(sp)
 1138              		.cfi_restore 8
 1139              		.cfi_def_cfa 2, 32
 1140 04cc 83348100 		ld	s1,8(sp)
 1141              		.cfi_restore 9
 1142              	.LVL120:
 1143 04d0 03390100 		ld	s2,0(sp)
 1144              		.cfi_restore 18
 1145              	.LVL121:
 1146 04d4 13010102 		addi	sp,sp,32
 1147              		.cfi_def_cfa_offset 0
 1148 04d8 67800000 		jr	ra
 1149              		.cfi_endproc
 1150              	.LFE22:
 1152              		.section	.text._ZN7WorkerD3runEv,"axG",@progbits,_ZN7WorkerD3runEv,comdat
 1153              		.align	2
 1154              		.weak	_ZN7WorkerD3runEv
GAS LISTING C:\msys64\tmp\ccwMNTRe.s 			page 26


 1156              	_ZN7WorkerD3runEv:
 1157              	.LFB18:
  51:test/Threads_CPP_API_test.cpp ****         workerBodyD(nullptr);
 1158              		.loc 1 51 10 is_stmt 1
 1159              		.cfi_startproc
 1160              	.LVL122:
 1161 0000 130101FF 		addi	sp,sp,-16
 1162              		.cfi_def_cfa_offset 16
 1163 0004 23341100 		sd	ra,8(sp)
 1164 0008 23308100 		sd	s0,0(sp)
 1165              		.cfi_offset 1, -8
 1166              		.cfi_offset 8, -16
 1167 000c 13040101 		addi	s0,sp,16
 1168              		.cfi_def_cfa 8, 0
  52:test/Threads_CPP_API_test.cpp ****     }
 1169              		.loc 1 52 9
  52:test/Threads_CPP_API_test.cpp ****     }
 1170              		.loc 1 52 20 is_stmt 0
 1171 0010 93050000 		li	a1,0
 1172 0014 97000000 		call	_ZN7WorkerD11workerBodyDEPv
 1172      E7800000 
 1173              	.LVL123:
  53:test/Threads_CPP_API_test.cpp **** };
 1174              		.loc 1 53 5
 1175 001c 83308100 		ld	ra,8(sp)
 1176              		.cfi_restore 1
 1177 0020 03340100 		ld	s0,0(sp)
 1178              		.cfi_restore 8
 1179              		.cfi_def_cfa 2, 16
 1180 0024 13010101 		addi	sp,sp,16
 1181              		.cfi_def_cfa_offset 0
 1182 0028 67800000 		jr	ra
 1183              		.cfi_endproc
 1184              	.LFE18:
 1186              		.section	.rodata.str1.8
 1187 009d 000000   		.align	3
 1188              	.LC13:
 1189 00a0 54687265 		.string	"ThreadA created\n"
 1189      61644120 
 1189      63726561 
 1189      7465640A 
 1189      00
 1190 00b1 00000000 		.align	3
 1190      000000
 1191              	.LC14:
 1192 00b8 54687265 		.string	"ThreadB created\n"
 1192      61644220 
 1192      63726561 
 1192      7465640A 
 1192      00
 1193 00c9 00000000 		.align	3
 1193      000000
 1194              	.LC15:
 1195 00d0 54687265 		.string	"ThreadC created\n"
 1195      61644320 
 1195      63726561 
 1195      7465640A 
GAS LISTING C:\msys64\tmp\ccwMNTRe.s 			page 27


 1195      00
 1196 00e1 00000000 		.align	3
 1196      000000
 1197              	.LC16:
 1198 00e8 54687265 		.string	"ThreadD created\n"
 1198      61644420 
 1198      63726561 
 1198      7465640A 
 1198      00
 1199              		.text
 1200              		.align	2
 1201              		.globl	_Z20Threads_CPP_API_testv
 1203              	_Z20Threads_CPP_API_testv:
 1204              	.LFB23:
 129:test/Threads_CPP_API_test.cpp **** 
 130:test/Threads_CPP_API_test.cpp **** 
 131:test/Threads_CPP_API_test.cpp **** void Threads_CPP_API_test() {
 1205              		.loc 1 131 29 is_stmt 1
 1206              		.cfi_startproc
 1207              		.cfi_personality 0x9b,DW.ref.__gxx_personality_v0
 1208              		.cfi_lsda 0x1b,.LLSDA23
 1209 04dc 130101FC 		addi	sp,sp,-64
 1210              		.cfi_def_cfa_offset 64
 1211 04e0 233C1102 		sd	ra,56(sp)
 1212 04e4 23388102 		sd	s0,48(sp)
 1213 04e8 23349102 		sd	s1,40(sp)
 1214 04ec 23302103 		sd	s2,32(sp)
 1215              		.cfi_offset 1, -8
 1216              		.cfi_offset 8, -16
 1217              		.cfi_offset 9, -24
 1218              		.cfi_offset 18, -32
 1219 04f0 13040104 		addi	s0,sp,64
 1220              		.cfi_def_cfa 8, 0
 132:test/Threads_CPP_API_test.cpp ****     Thread* threads[4];
 1221              		.loc 1 132 5
 133:test/Threads_CPP_API_test.cpp **** 
 134:test/Threads_CPP_API_test.cpp ****     threads[0] = new WorkerA();
 1222              		.loc 1 134 5
 1223              		.loc 1 134 30 is_stmt 0
 1224 04f4 13050002 		li	a0,32
 1225              	.LEHB0:
 1226 04f8 97000000 		call	_Znwm
 1226      E7800000 
 1227              	.LVL124:
 1228              	.LEHE0:
 1229 0500 93040500 		mv	s1,a0
 1230              	.LVL125:
 1231              	.LEHB1:
 1232              	.LBB58:
 1233              	.LBB59:
  19:test/Threads_CPP_API_test.cpp **** 
 1234              		.loc 1 19 22
 1235 0504 97000000 		call	_ZN6ThreadC2Ev
 1235      E7800000 
 1236              	.LVL126:
 1237              	.LEHE1:
 1238 050c 97070000 		lla	a5,_ZTV7WorkerA+16
GAS LISTING C:\msys64\tmp\ccwMNTRe.s 			page 28


 1238      93870700 
 1239 0514 23B0F400 		sd	a5,0(s1)
 1240              	.LVL127:
 1241              	.LBE59:
 1242              	.LBE58:
 1243              		.loc 1 134 16
 1244 0518 233094FC 		sd	s1,-64(s0)
 135:test/Threads_CPP_API_test.cpp ****     printString("ThreadA created\n");
 1245              		.loc 1 135 5 is_stmt 1
 1246              		.loc 1 135 16 is_stmt 0
 1247 051c 17050000 		lla	a0,.LC13
 1247      13050500 
 1248              	.LEHB2:
 1249 0524 97000000 		call	_Z11printStringPKc
 1249      E7800000 
 1250              	.LVL128:
 136:test/Threads_CPP_API_test.cpp **** 
 137:test/Threads_CPP_API_test.cpp ****     threads[1] = new WorkerB();
 1251              		.loc 1 137 5 is_stmt 1
 1252              		.loc 1 137 30 is_stmt 0
 1253 052c 13050002 		li	a0,32
 1254 0530 97000000 		call	_Znwm
 1254      E7800000 
 1255              	.LVL129:
 1256              	.LEHE2:
 1257 0538 93040500 		mv	s1,a0
 1258              	.LVL130:
 1259              	.LEHB3:
 1260              	.LBB60:
 1261              	.LBB61:
  29:test/Threads_CPP_API_test.cpp **** 
 1262              		.loc 1 29 22
 1263 053c 97000000 		call	_ZN6ThreadC2Ev
 1263      E7800000 
 1264              	.LVL131:
 1265              	.LEHE3:
 1266 0544 97070000 		lla	a5,_ZTV7WorkerB+16
 1266      93870700 
 1267 054c 23B0F400 		sd	a5,0(s1)
 1268              	.LVL132:
 1269              	.LBE61:
 1270              	.LBE60:
 1271              		.loc 1 137 16
 1272 0550 233494FC 		sd	s1,-56(s0)
 138:test/Threads_CPP_API_test.cpp ****     printString("ThreadB created\n");
 1273              		.loc 1 138 5 is_stmt 1
 1274              		.loc 1 138 16 is_stmt 0
 1275 0554 17050000 		lla	a0,.LC14
 1275      13050500 
 1276              	.LEHB4:
 1277 055c 97000000 		call	_Z11printStringPKc
 1277      E7800000 
 1278              	.LVL133:
 139:test/Threads_CPP_API_test.cpp **** 
 140:test/Threads_CPP_API_test.cpp ****     threads[2] = new WorkerC();
 1279              		.loc 1 140 5 is_stmt 1
 1280              		.loc 1 140 30 is_stmt 0
GAS LISTING C:\msys64\tmp\ccwMNTRe.s 			page 29


 1281 0564 13050002 		li	a0,32
 1282 0568 97000000 		call	_Znwm
 1282      E7800000 
 1283              	.LVL134:
 1284              	.LEHE4:
 1285 0570 93040500 		mv	s1,a0
 1286              	.LVL135:
 1287              	.LEHB5:
 1288              	.LBB62:
 1289              	.LBB63:
  39:test/Threads_CPP_API_test.cpp **** 
 1290              		.loc 1 39 22
 1291 0574 97000000 		call	_ZN6ThreadC2Ev
 1291      E7800000 
 1292              	.LVL136:
 1293              	.LEHE5:
 1294 057c 97070000 		lla	a5,_ZTV7WorkerC+16
 1294      93870700 
 1295 0584 23B0F400 		sd	a5,0(s1)
 1296              	.LVL137:
 1297              	.LBE63:
 1298              	.LBE62:
 1299              		.loc 1 140 16
 1300 0588 233894FC 		sd	s1,-48(s0)
 141:test/Threads_CPP_API_test.cpp ****     printString("ThreadC created\n");
 1301              		.loc 1 141 5 is_stmt 1
 1302              		.loc 1 141 16 is_stmt 0
 1303 058c 17050000 		lla	a0,.LC15
 1303      13050500 
 1304              	.LEHB6:
 1305 0594 97000000 		call	_Z11printStringPKc
 1305      E7800000 
 1306              	.LVL138:
 142:test/Threads_CPP_API_test.cpp **** 
 143:test/Threads_CPP_API_test.cpp ****     threads[3] = new WorkerD();
 1307              		.loc 1 143 5 is_stmt 1
 1308              		.loc 1 143 30 is_stmt 0
 1309 059c 13050002 		li	a0,32
 1310 05a0 97000000 		call	_Znwm
 1310      E7800000 
 1311              	.LVL139:
 1312              	.LEHE6:
 1313 05a8 93040500 		mv	s1,a0
 1314              	.LVL140:
 1315              	.LEHB7:
 1316              	.LBB64:
 1317              	.LBB65:
  49:test/Threads_CPP_API_test.cpp **** 
 1318              		.loc 1 49 22
 1319 05ac 97000000 		call	_ZN6ThreadC2Ev
 1319      E7800000 
 1320              	.LVL141:
 1321              	.LEHE7:
 1322 05b4 97070000 		lla	a5,_ZTV7WorkerD+16
 1322      93870700 
 1323 05bc 23B0F400 		sd	a5,0(s1)
 1324              	.LVL142:
GAS LISTING C:\msys64\tmp\ccwMNTRe.s 			page 30


 1325              	.LBE65:
 1326              	.LBE64:
 1327              		.loc 1 143 16
 1328 05c0 233C94FC 		sd	s1,-40(s0)
 144:test/Threads_CPP_API_test.cpp ****     printString("ThreadD created\n");
 1329              		.loc 1 144 5 is_stmt 1
 1330              		.loc 1 144 16 is_stmt 0
 1331 05c4 17050000 		lla	a0,.LC16
 1331      13050500 
 1332              	.LEHB8:
 1333 05cc 97000000 		call	_Z11printStringPKc
 1333      E7800000 
 1334              	.LVL143:
 1335              	.LBB66:
 145:test/Threads_CPP_API_test.cpp **** 
 146:test/Threads_CPP_API_test.cpp ****     for(int i=0; i<4; i++) {
 1336              		.loc 1 146 13
 1337 05d4 93040000 		li	s1,0
 1338              	.L67:
 1339              	.LVL144:
 1340              		.loc 1 146 19 is_stmt 1 discriminator 1
 1341 05d8 93073000 		li	a5,3
 1342 05dc 63C69702 		bgt	s1,a5,.L66
 147:test/Threads_CPP_API_test.cpp ****         threads[i]->start();
 1343              		.loc 1 147 9
 1344              		.loc 1 147 18 is_stmt 0
 1345 05e0 93973400 		slli	a5,s1,3
 1346 05e4 130704FE 		addi	a4,s0,-32
 1347 05e8 B307F700 		add	a5,a4,a5
 1348              		.loc 1 147 26
 1349 05ec 03B507FE 		ld	a0,-32(a5)
 1350 05f0 97000000 		call	_ZN6Thread5startEv
 1350      E7800000 
 1351              	.LVL145:
 146:test/Threads_CPP_API_test.cpp ****         threads[i]->start();
 1352              		.loc 1 146 5 is_stmt 1
 1353 05f8 9B841400 		addiw	s1,s1,1
 1354              	.LVL146:
 1355 05fc 6FF0DFFD 		j	.L67
 1356              	.LVL147:
 1357              	.L68:
 1358              	.LBE66:
 148:test/Threads_CPP_API_test.cpp ****     }
 149:test/Threads_CPP_API_test.cpp **** 
 150:test/Threads_CPP_API_test.cpp ****     while (!(finishedA && finishedB && finishedC && finishedD)) {
 151:test/Threads_CPP_API_test.cpp ****         Thread::dispatch();
 1359              		.loc 1 151 9
 1360              		.loc 1 151 25 is_stmt 0
 1361 0600 97000000 		call	_ZN6Thread8dispatchEv
 1361      E7800000 
 1362              	.LVL148:
 1363              	.LEHE8:
 1364              	.L66:
 150:test/Threads_CPP_API_test.cpp ****         Thread::dispatch();
 1365              		.loc 1 150 5 is_stmt 1
 150:test/Threads_CPP_API_test.cpp ****         Thread::dispatch();
 1366              		.loc 1 150 12
GAS LISTING C:\msys64\tmp\ccwMNTRe.s 			page 31


 150:test/Threads_CPP_API_test.cpp ****         Thread::dispatch();
 1367              		.loc 1 150 14 is_stmt 0
 1368 0608 97070000 		lbu	a5,_ZL9finishedA
 1368      83C70700 
 150:test/Threads_CPP_API_test.cpp ****         Thread::dispatch();
 1369              		.loc 1 150 12
 1370 0610 E38807FE 		beq	a5,zero,.L68
 150:test/Threads_CPP_API_test.cpp ****         Thread::dispatch();
 1371              		.loc 1 150 27 discriminator 2
 1372 0614 97070000 		lbu	a5,_ZL9finishedB
 1372      83C70700 
 150:test/Threads_CPP_API_test.cpp ****         Thread::dispatch();
 1373              		.loc 1 150 24 discriminator 2
 1374 061c E38207FE 		beq	a5,zero,.L68
 150:test/Threads_CPP_API_test.cpp ****         Thread::dispatch();
 1375              		.loc 1 150 40 discriminator 4
 1376 0620 97070000 		lbu	a5,_ZL9finishedC
 1376      83C70700 
 150:test/Threads_CPP_API_test.cpp ****         Thread::dispatch();
 1377              		.loc 1 150 37 discriminator 4
 1378 0628 E38C07FC 		beq	a5,zero,.L68
 150:test/Threads_CPP_API_test.cpp ****         Thread::dispatch();
 1379              		.loc 1 150 53 discriminator 6
 1380 062c 97070000 		lbu	a5,_ZL9finishedD
 1380      83C70700 
 150:test/Threads_CPP_API_test.cpp ****         Thread::dispatch();
 1381              		.loc 1 150 12 discriminator 6
 1382 0634 E38607FC 		beq	a5,zero,.L68
 1383 0638 930404FC 		addi	s1,s0,-64
 1384              	.LVL149:
 1385 063c 6F008000 		j	.L69
 1386              	.LVL150:
 1387              	.L71:
 1388              	.LBB67:
 152:test/Threads_CPP_API_test.cpp ****     }
 153:test/Threads_CPP_API_test.cpp **** 
 154:test/Threads_CPP_API_test.cpp ****     for (auto thread: threads) { delete thread; }
 1389              		.loc 1 154 5 is_stmt 1 discriminator 5
 1390 0640 93848400 		addi	s1,s1,8
 1391              	.LVL151:
 1392              	.L69:
 1393              		.loc 1 154 23 discriminator 6
 1394 0644 930704FE 		addi	a5,s0,-32
 1395 0648 6386F408 		beq	s1,a5,.L65
 1396              		.loc 1 154 15 is_stmt 0 discriminator 2
 1397 064c 03B50400 		ld	a0,0(s1)
 1398              	.LVL152:
 1399              		.loc 1 154 34 is_stmt 1 discriminator 2
 1400 0650 E30805FE 		beq	a0,zero,.L71
 1401              		.loc 1 154 41 is_stmt 0 discriminator 3
 1402 0654 83370500 		ld	a5,0(a0)
 1403 0658 83B78700 		ld	a5,8(a5)
 1404 065c E7800700 		jalr	a5
 1405              	.LVL153:
 1406 0660 6FF01FFE 		j	.L71
 1407              	.LVL154:
 1408              	.L77:
GAS LISTING C:\msys64\tmp\ccwMNTRe.s 			page 32


 1409              	.LBE67:
 134:test/Threads_CPP_API_test.cpp ****     printString("ThreadA created\n");
 1410              		.loc 1 134 30
 1411 0664 13090500 		mv	s2,a0
 1412 0668 13850400 		mv	a0,s1
 1413 066c 97000000 		call	_ZdlPv
 1413      E7800000 
 1414              	.LVL155:
 1415 0674 13050900 		mv	a0,s2
 1416              	.LEHB9:
 1417 0678 97000000 		call	_Unwind_Resume
 1417      E7800000 
 1418              	.LVL156:
 1419              	.LEHE9:
 1420              	.L78:
 137:test/Threads_CPP_API_test.cpp ****     printString("ThreadB created\n");
 1421              		.loc 1 137 30
 1422 0680 13090500 		mv	s2,a0
 1423 0684 13850400 		mv	a0,s1
 1424 0688 97000000 		call	_ZdlPv
 1424      E7800000 
 1425              	.LVL157:
 1426 0690 13050900 		mv	a0,s2
 1427              	.LEHB10:
 1428 0694 97000000 		call	_Unwind_Resume
 1428      E7800000 
 1429              	.LVL158:
 1430              	.LEHE10:
 1431              	.L79:
 140:test/Threads_CPP_API_test.cpp ****     printString("ThreadC created\n");
 1432              		.loc 1 140 30
 1433 069c 13090500 		mv	s2,a0
 1434 06a0 13850400 		mv	a0,s1
 1435 06a4 97000000 		call	_ZdlPv
 1435      E7800000 
 1436              	.LVL159:
 1437 06ac 13050900 		mv	a0,s2
 1438              	.LEHB11:
 1439 06b0 97000000 		call	_Unwind_Resume
 1439      E7800000 
 1440              	.LVL160:
 1441              	.LEHE11:
 1442              	.L80:
 143:test/Threads_CPP_API_test.cpp ****     printString("ThreadD created\n");
 1443              		.loc 1 143 30
 1444 06b8 13090500 		mv	s2,a0
 1445 06bc 13850400 		mv	a0,s1
 1446 06c0 97000000 		call	_ZdlPv
 1446      E7800000 
 1447              	.LVL161:
 1448 06c8 13050900 		mv	a0,s2
 1449              	.LEHB12:
 1450 06cc 97000000 		call	_Unwind_Resume
 1450      E7800000 
 1451              	.LVL162:
 1452              	.LEHE12:
 1453              	.L65:
GAS LISTING C:\msys64\tmp\ccwMNTRe.s 			page 33


 155:test/Threads_CPP_API_test.cpp **** }
 1454              		.loc 1 155 1
 1455 06d4 83308103 		ld	ra,56(sp)
 1456              		.cfi_restore 1
 1457 06d8 03340103 		ld	s0,48(sp)
 1458              		.cfi_restore 8
 1459              		.cfi_def_cfa 2, 64
 1460 06dc 83348102 		ld	s1,40(sp)
 1461              		.cfi_restore 9
 1462              	.LVL163:
 1463 06e0 03390102 		ld	s2,32(sp)
 1464              		.cfi_restore 18
 1465 06e4 13010104 		addi	sp,sp,64
 1466              		.cfi_def_cfa_offset 0
 1467 06e8 67800000 		jr	ra
 1468              		.cfi_endproc
 1469              	.LFE23:
 1470              		.globl	__gxx_personality_v0
 1471              		.section	.gcc_except_table,"aw",@progbits
 1472              	.LLSDA23:
 1473 0000 FF       		.byte	0xff
 1474 0001 FF       		.byte	0xff
 1475 0002 03       		.byte	0x3
 1476 0003 A901     		.byte	0xa9,0x1
 1477 0005 00000000 		.4byte	.LEHB0-.LFB23
 1478 0009 00000000 		.4byte	.LEHE0-.LEHB0
 1479 000d 00000000 		.4byte	0
 1480 0011 00       		.byte	0
 1481 0012 00000000 		.4byte	.LEHB1-.LFB23
 1482 0016 00000000 		.4byte	.LEHE1-.LEHB1
 1483 001a 00000000 		.4byte	.L77-.LFB23
 1484 001e 00       		.byte	0
 1485 001f 00000000 		.4byte	.LEHB2-.LFB23
 1486 0023 00000000 		.4byte	.LEHE2-.LEHB2
 1487 0027 00000000 		.4byte	0
 1488 002b 00       		.byte	0
 1489 002c 00000000 		.4byte	.LEHB3-.LFB23
 1490 0030 00000000 		.4byte	.LEHE3-.LEHB3
 1491 0034 00000000 		.4byte	.L78-.LFB23
 1492 0038 00       		.byte	0
 1493 0039 00000000 		.4byte	.LEHB4-.LFB23
 1494 003d 00000000 		.4byte	.LEHE4-.LEHB4
 1495 0041 00000000 		.4byte	0
 1496 0045 00       		.byte	0
 1497 0046 00000000 		.4byte	.LEHB5-.LFB23
 1498 004a 00000000 		.4byte	.LEHE5-.LEHB5
 1499 004e 00000000 		.4byte	.L79-.LFB23
 1500 0052 00       		.byte	0
 1501 0053 00000000 		.4byte	.LEHB6-.LFB23
 1502 0057 00000000 		.4byte	.LEHE6-.LEHB6
 1503 005b 00000000 		.4byte	0
 1504 005f 00       		.byte	0
 1505 0060 00000000 		.4byte	.LEHB7-.LFB23
 1506 0064 00000000 		.4byte	.LEHE7-.LEHB7
 1507 0068 00000000 		.4byte	.L80-.LFB23
 1508 006c 00       		.byte	0
 1509 006d 00000000 		.4byte	.LEHB8-.LFB23
GAS LISTING C:\msys64\tmp\ccwMNTRe.s 			page 34


 1510 0071 00000000 		.4byte	.LEHE8-.LEHB8
 1511 0075 00000000 		.4byte	0
 1512 0079 00       		.byte	0
 1513 007a 00000000 		.4byte	.LEHB9-.LFB23
 1514 007e 00000000 		.4byte	.LEHE9-.LEHB9
 1515 0082 00000000 		.4byte	0
 1516 0086 00       		.byte	0
 1517 0087 00000000 		.4byte	.LEHB10-.LFB23
 1518 008b 00000000 		.4byte	.LEHE10-.LEHB10
 1519 008f 00000000 		.4byte	0
 1520 0093 00       		.byte	0
 1521 0094 00000000 		.4byte	.LEHB11-.LFB23
 1522 0098 00000000 		.4byte	.LEHE11-.LEHB11
 1523 009c 00000000 		.4byte	0
 1524 00a0 00       		.byte	0
 1525 00a1 00000000 		.4byte	.LEHB12-.LFB23
 1526 00a5 00000000 		.4byte	.LEHE12-.LEHB12
 1527 00a9 00000000 		.4byte	0
 1528 00ad 00       		.byte	0
 1529              		.text
 1531              		.weak	_ZTV7WorkerA
 1532              		.section	.rodata._ZTV7WorkerA,"aG",@progbits,_ZTV7WorkerA,comdat
 1533              		.align	3
 1536              	_ZTV7WorkerA:
 1537 0000 00000000 		.dword	0
 1537      00000000 
 1538 0008 00000000 		.dword	0
 1538      00000000 
 1539 0010 00000000 		.dword	_ZN7WorkerAD1Ev
 1539      00000000 
 1540 0018 00000000 		.dword	_ZN7WorkerAD0Ev
 1540      00000000 
 1541 0020 00000000 		.dword	_ZN7WorkerA3runEv
 1541      00000000 
 1542              		.weak	_ZTV7WorkerB
 1543              		.section	.rodata._ZTV7WorkerB,"aG",@progbits,_ZTV7WorkerB,comdat
 1544              		.align	3
 1547              	_ZTV7WorkerB:
 1548 0000 00000000 		.dword	0
 1548      00000000 
 1549 0008 00000000 		.dword	0
 1549      00000000 
 1550 0010 00000000 		.dword	_ZN7WorkerBD1Ev
 1550      00000000 
 1551 0018 00000000 		.dword	_ZN7WorkerBD0Ev
 1551      00000000 
 1552 0020 00000000 		.dword	_ZN7WorkerB3runEv
 1552      00000000 
 1553              		.weak	_ZTV7WorkerC
 1554              		.section	.rodata._ZTV7WorkerC,"aG",@progbits,_ZTV7WorkerC,comdat
 1555              		.align	3
 1558              	_ZTV7WorkerC:
 1559 0000 00000000 		.dword	0
 1559      00000000 
 1560 0008 00000000 		.dword	0
 1560      00000000 
 1561 0010 00000000 		.dword	_ZN7WorkerCD1Ev
GAS LISTING C:\msys64\tmp\ccwMNTRe.s 			page 35


 1561      00000000 
 1562 0018 00000000 		.dword	_ZN7WorkerCD0Ev
 1562      00000000 
 1563 0020 00000000 		.dword	_ZN7WorkerC3runEv
 1563      00000000 
 1564              		.weak	_ZTV7WorkerD
 1565              		.section	.rodata._ZTV7WorkerD,"aG",@progbits,_ZTV7WorkerD,comdat
 1566              		.align	3
 1569              	_ZTV7WorkerD:
 1570 0000 00000000 		.dword	0
 1570      00000000 
 1571 0008 00000000 		.dword	0
 1571      00000000 
 1572 0010 00000000 		.dword	_ZN7WorkerDD1Ev
 1572      00000000 
 1573 0018 00000000 		.dword	_ZN7WorkerDD0Ev
 1573      00000000 
 1574 0020 00000000 		.dword	_ZN7WorkerD3runEv
 1574      00000000 
 1575              		.section	.sbss,"aw",@nobits
 1578              	_ZL9finishedD:
 1579 0000 00       		.zero	1
 1582              	_ZL9finishedC:
 1583 0001 00       		.zero	1
 1586              	_ZL9finishedB:
 1587 0002 00       		.zero	1
 1590              	_ZL9finishedA:
 1591 0003 00       		.zero	1
 1592              		.text
 1593              	.Letext0:
 1594              		.file 2 "test/../h/../lib/hw.h"
 1595              		.file 3 "test/../h/syscall_cpp.hpp"
 1596              		.file 4 "test/../h/syscall_c.h"
 1597              		.file 5 "test/printing.hpp"
 5379              		.align	3
 5382              	DW.ref.__gxx_personality_v0:
 5383 0000 00000000 		.dword	__gxx_personality_v0
 5383      00000000 
 5384              		.ident	"GCC: (GNU) 10.1.0"
GAS LISTING C:\msys64\tmp\ccwMNTRe.s 			page 36

