GAS LISTING C:\msys64\tmp\cclttYS5.s 			page 1


   1              		.file	"ThreadSleep_C_API_test.cpp"
   2              		.option nopic
   3              		.option norelax
   4              		.attribute arch, "rv64i2p0_m2p0_a2p0"
   5              		.attribute unaligned_access, 0
   6              		.attribute stack_align, 16
   7              		.text
   8              	.Ltext0:
   9              		.section	.rodata.str1.8,"aMS",@progbits,1
  10              		.align	3
  11              	.LC0:
  12 0000 48656C6C 		.string	"Hello "
  12      6F2000
  13 0007 00       		.align	3
  14              	.LC1:
  15 0008 20210A00 		.string	" !\n"
  16              		.text
  17              		.align	2
  19              	_ZL9sleepyRunPv:
  20              	.LFB0:
  21              		.file 1 "test/ThreadSleep_C_API_test.cpp"
   1:test/ThreadSleep_C_API_test.cpp **** #include "../h/syscall_c.h"
   2:test/ThreadSleep_C_API_test.cpp **** 
   3:test/ThreadSleep_C_API_test.cpp **** #include "printing.hpp"
   4:test/ThreadSleep_C_API_test.cpp **** 
   5:test/ThreadSleep_C_API_test.cpp **** static volatile bool finished[2];
   6:test/ThreadSleep_C_API_test.cpp **** 
   7:test/ThreadSleep_C_API_test.cpp **** static void sleepyRun(void *arg) {
  22              		.loc 1 7 34
  23              		.cfi_startproc
  24              	.LVL0:
  25 0000 130101FE 		addi	sp,sp,-32
  26              		.cfi_def_cfa_offset 32
  27 0004 233C1100 		sd	ra,24(sp)
  28 0008 23388100 		sd	s0,16(sp)
  29 000c 23349100 		sd	s1,8(sp)
  30 0010 23302101 		sd	s2,0(sp)
  31              		.cfi_offset 1, -8
  32              		.cfi_offset 8, -16
  33              		.cfi_offset 9, -24
  34              		.cfi_offset 18, -32
  35 0014 13040102 		addi	s0,sp,32
  36              		.cfi_def_cfa 8, 0
   8:test/ThreadSleep_C_API_test.cpp ****     time_t sleep_time = *((time_t *) arg);
  37              		.loc 1 8 5
  38              		.loc 1 8 12 is_stmt 0
  39 0018 03390500 		ld	s2,0(a0)
  40              	.LVL1:
   9:test/ThreadSleep_C_API_test.cpp ****     int i = 6;
  41              		.loc 1 9 5 is_stmt 1
  42              		.loc 1 9 9 is_stmt 0
  43 001c 93046000 		li	s1,6
  44 0020 6F004004 		j	.L3
  45              	.LVL2:
  46              	.L5:
  10:test/ThreadSleep_C_API_test.cpp ****     while (--i > 0) {
  11:test/ThreadSleep_C_API_test.cpp **** 
GAS LISTING C:\msys64\tmp\cclttYS5.s 			page 2


  12:test/ThreadSleep_C_API_test.cpp ****         printString("Hello ");
  47              		.loc 1 12 9 is_stmt 1
  48              		.loc 1 12 20 is_stmt 0
  49 0024 17050000 		lla	a0,.LC0
  49      13050500 
  50 002c 97000000 		call	_Z11printStringPKc
  50      E7800000 
  51              	.LVL3:
  13:test/ThreadSleep_C_API_test.cpp ****         printInt(sleep_time);
  52              		.loc 1 13 9 is_stmt 1
  53              		.loc 1 13 17 is_stmt 0
  54 0034 13060000 		li	a2,0
  55 0038 9305A000 		li	a1,10
  56 003c 1B050900 		sext.w	a0,s2
  57 0040 97000000 		call	_Z8printIntiii
  57      E7800000 
  58              	.LVL4:
  14:test/ThreadSleep_C_API_test.cpp ****         printString(" !\n");
  59              		.loc 1 14 9 is_stmt 1
  60              		.loc 1 14 20 is_stmt 0
  61 0048 17050000 		lla	a0,.LC1
  61      13050500 
  62 0050 97000000 		call	_Z11printStringPKc
  62      E7800000 
  63              	.LVL5:
  15:test/ThreadSleep_C_API_test.cpp ****         time_sleep(sleep_time);
  64              		.loc 1 15 9 is_stmt 1
  65              		.loc 1 15 19 is_stmt 0
  66 0058 13050900 		mv	a0,s2
  67 005c 97000000 		call	_Z10time_sleepm
  67      E7800000 
  68              	.LVL6:
  69              	.L3:
  10:test/ThreadSleep_C_API_test.cpp **** 
  70              		.loc 1 10 5 is_stmt 1
  10:test/ThreadSleep_C_API_test.cpp **** 
  71              		.loc 1 10 16
  72 0064 9B84F4FF 		addiw	s1,s1,-1
  73              	.LVL7:
  74 0068 E34E90FA 		bgt	s1,zero,.L5
  16:test/ThreadSleep_C_API_test.cpp ****     }
  17:test/ThreadSleep_C_API_test.cpp ****     finished[sleep_time/10-1] = true;
  75              		.loc 1 17 5
  76              		.loc 1 17 24 is_stmt 0
  77 006c 9307A000 		li	a5,10
  78 0070 3359F902 		divu	s2,s2,a5
  79              	.LVL8:
  80              		.loc 1 17 27
  81 0074 1309F9FF 		addi	s2,s2,-1
  82              		.loc 1 17 31
  83 0078 97070000 		lla	a5,_ZL8finished
  83      93870700 
  84 0080 33892701 		add	s2,a5,s2
  85 0084 93071000 		li	a5,1
  86 0088 2300F900 		sb	a5,0(s2)
  18:test/ThreadSleep_C_API_test.cpp **** }
  87              		.loc 1 18 1
GAS LISTING C:\msys64\tmp\cclttYS5.s 			page 3


  88 008c 83308101 		ld	ra,24(sp)
  89              		.cfi_restore 1
  90 0090 03340101 		ld	s0,16(sp)
  91              		.cfi_restore 8
  92              		.cfi_def_cfa 2, 32
  93 0094 83348100 		ld	s1,8(sp)
  94              		.cfi_restore 9
  95 0098 03390100 		ld	s2,0(sp)
  96              		.cfi_restore 18
  97 009c 13010102 		addi	sp,sp,32
  98              		.cfi_def_cfa_offset 0
  99 00a0 67800000 		jr	ra
 100              		.cfi_endproc
 101              	.LFE0:
 103              		.align	2
 104              		.globl	_Z12testSleepingv
 106              	_Z12testSleepingv:
 107              	.LFB1:
  19:test/ThreadSleep_C_API_test.cpp **** 
  20:test/ThreadSleep_C_API_test.cpp **** void testSleeping() {
 108              		.loc 1 20 21 is_stmt 1
 109              		.cfi_startproc
 110 00a4 130101FC 		addi	sp,sp,-64
 111              		.cfi_def_cfa_offset 64
 112 00a8 233C1102 		sd	ra,56(sp)
 113 00ac 23388102 		sd	s0,48(sp)
 114 00b0 23349102 		sd	s1,40(sp)
 115              		.cfi_offset 1, -8
 116              		.cfi_offset 8, -16
 117              		.cfi_offset 9, -24
 118 00b4 13040104 		addi	s0,sp,64
 119              		.cfi_def_cfa 8, 0
  21:test/ThreadSleep_C_API_test.cpp ****     const int sleepy_thread_count = 2;
 120              		.loc 1 21 5
 121              	.LVL9:
  22:test/ThreadSleep_C_API_test.cpp ****     time_t sleep_times[sleepy_thread_count] = {10, 20};
 122              		.loc 1 22 5
 123              		.loc 1 22 12 is_stmt 0
 124 00b8 9307A000 		li	a5,10
 125 00bc 2338F4FC 		sd	a5,-48(s0)
 126 00c0 93074001 		li	a5,20
 127 00c4 233CF4FC 		sd	a5,-40(s0)
  23:test/ThreadSleep_C_API_test.cpp ****     thread_t sleepyThread[sleepy_thread_count];
 128              		.loc 1 23 5 is_stmt 1
  24:test/ThreadSleep_C_API_test.cpp **** 
  25:test/ThreadSleep_C_API_test.cpp ****     for (int i = 0; i < sleepy_thread_count; i++) {
 129              		.loc 1 25 5
 130              	.LVL10:
 131              	.LBB2:
 132              		.loc 1 25 14 is_stmt 0
 133 00c8 93040000 		li	s1,0
 134              	.LVL11:
 135              	.L8:
 136              		.loc 1 25 23 is_stmt 1 discriminator 1
 137 00cc 93071000 		li	a5,1
 138 00d0 63C89702 		bgt	s1,a5,.L9
  26:test/ThreadSleep_C_API_test.cpp ****         thread_create(&sleepyThread[i], sleepyRun, sleep_times + i);
GAS LISTING C:\msys64\tmp\cclttYS5.s 			page 4


 139              		.loc 1 26 9
 140              		.loc 1 26 64 is_stmt 0
 141 00d4 13953400 		slli	a0,s1,3
 142              		.loc 1 26 22
 143 00d8 930704FD 		addi	a5,s0,-48
 144 00dc 3386A700 		add	a2,a5,a0
 145 00e0 97050000 		lla	a1,_ZL9sleepyRunPv
 145      93850500 
 146 00e8 930704FC 		addi	a5,s0,-64
 147 00ec 3385A700 		add	a0,a5,a0
 148 00f0 97000000 		call	_Z13thread_createPP7_threadPFvPvES2_
 148      E7800000 
 149              	.LVL12:
  25:test/ThreadSleep_C_API_test.cpp ****         thread_create(&sleepyThread[i], sleepyRun, sleep_times + i);
 150              		.loc 1 25 5 is_stmt 1
 151 00f8 9B841400 		addiw	s1,s1,1
 152              	.LVL13:
 153 00fc 6FF01FFD 		j	.L8
 154              	.LVL14:
 155              	.L9:
 156              	.LBE2:
  27:test/ThreadSleep_C_API_test.cpp ****     }
  28:test/ThreadSleep_C_API_test.cpp **** 
  29:test/ThreadSleep_C_API_test.cpp ****     while (!(finished[0] && finished[1])) {}
 157              		.loc 1 29 5
 158              		.loc 1 29 12
 159              		.loc 1 29 24 is_stmt 0
 160 0100 97070000 		lbu	a5,_ZL8finished
 160      83C70700 
 161              		.loc 1 29 12
 162 0108 E38C07FE 		beq	a5,zero,.L9
 163              		.loc 1 29 39 discriminator 2
 164 010c 97070000 		lbu	a5,_ZL8finished+1
 164      83C70700 
 165              		.loc 1 29 12 discriminator 2
 166 0114 E38607FE 		beq	a5,zero,.L9
  30:test/ThreadSleep_C_API_test.cpp **** }
 167              		.loc 1 30 1
 168 0118 83308103 		ld	ra,56(sp)
 169              		.cfi_restore 1
 170 011c 03340103 		ld	s0,48(sp)
 171              		.cfi_restore 8
 172              		.cfi_def_cfa 2, 64
 173 0120 83348102 		ld	s1,40(sp)
 174              		.cfi_restore 9
 175              	.LVL15:
 176 0124 13010104 		addi	sp,sp,64
 177              		.cfi_def_cfa_offset 0
 178 0128 67800000 		jr	ra
 179              		.cfi_endproc
 180              	.LFE1:
 182              		.section	.sbss,"aw",@nobits
 183              		.align	3
 186              	_ZL8finished:
 187 0000 0000     		.zero	2
 188              		.text
 189              	.Letext0:
GAS LISTING C:\msys64\tmp\cclttYS5.s 			page 5


 190              		.file 2 "test/../h/../lib/hw.h"
 191              		.file 3 "test/../h/syscall_c.h"
 192              		.file 4 "test/printing.hpp"
GAS LISTING C:\msys64\tmp\cclttYS5.s 			page 6

