GAS LISTING C:\msys64\tmp\ccwMNTRe.s 			page 1


   1              		.file	"Threads_CPP_API_test.cpp"
   2              		.option nopic
   3              		.option norelax
   4              		.attribute arch, "rv64i2p0_m2p0_a2p0"
   5              		.attribute unaligned_access, 0
   6              		.attribute stack_align, 16
   7              		.text
   8              	.Ltext0:
   9              		.align	2
  11              	_ZL9fibonaccim:
  12              	.LFB2:
  13              		.file 1 "test/Threads_CPP_API_test.cpp"
   1:test/Threads_CPP_API_test.cpp **** #include "../h/syscall_cpp.hpp"
   2:test/Threads_CPP_API_test.cpp **** 
   3:test/Threads_CPP_API_test.cpp **** #include "printing.hpp"
   4:test/Threads_CPP_API_test.cpp **** 
   5:test/Threads_CPP_API_test.cpp **** static volatile bool finishedA = false;
   6:test/Threads_CPP_API_test.cpp **** static volatile bool finishedB = false;
   7:test/Threads_CPP_API_test.cpp **** static volatile bool finishedC = false;
   8:test/Threads_CPP_API_test.cpp **** static volatile bool finishedD = false;
   9:test/Threads_CPP_API_test.cpp **** 
  10:test/Threads_CPP_API_test.cpp **** static uint64 fibonacci(uint64 n) {
  14              		.loc 1 10 35
  15              		.cfi_startproc
  16              	.LVL0:
  17 0000 130101FE 		addi	sp,sp,-32
  18              		.cfi_def_cfa_offset 32
  19 0004 233C1100 		sd	ra,24(sp)
  20 0008 23388100 		sd	s0,16(sp)
  21 000c 23349100 		sd	s1,8(sp)
  22 0010 23302101 		sd	s2,0(sp)
  23              		.cfi_offset 1, -8
  24              		.cfi_offset 8, -16
  25              		.cfi_offset 9, -24
  26              		.cfi_offset 18, -32
  27 0014 13040102 		addi	s0,sp,32
  28              		.cfi_def_cfa 8, 0
  29 0018 93040500 		mv	s1,a0
  11:test/Threads_CPP_API_test.cpp ****     if (n == 0 || n == 1) { return n; }
  30              		.loc 1 11 5
  31 001c 93071000 		li	a5,1
  32 0020 63F8A702 		bleu	a0,a5,.L1
  12:test/Threads_CPP_API_test.cpp ****     if (n % 10 == 0) { thread_dispatch(); }
  33              		.loc 1 12 5
  34              		.loc 1 12 11 is_stmt 0
  35 0024 9307A000 		li	a5,10
  36 0028 B377F502 		remu	a5,a0,a5
  37              		.loc 1 12 5
  38 002c 638E0702 		beq	a5,zero,.L6
  39              	.LVL1:
  40              	.L3:
  13:test/Threads_CPP_API_test.cpp ****     return fibonacci(n - 1) + fibonacci(n - 2);
  41              		.loc 1 13 5 is_stmt 1
  42              		.loc 1 13 21 is_stmt 0
  43 0030 1385F4FF 		addi	a0,s1,-1
  44 0034 97000000 		call	_ZL9fibonaccim
  44      E7800000 
GAS LISTING C:\msys64\tmp\ccwMNTRe.s 			page 2


  45              	.LVL2:
  46 003c 13090500 		mv	s2,a0
  47              		.loc 1 13 40
  48 0040 1385E4FF 		addi	a0,s1,-2
  49 0044 97000000 		call	_ZL9fibonaccim
  49      E7800000 
  50              	.LVL3:
  51              		.loc 1 13 46
  52 004c 3305A900 		add	a0,s2,a0
  53              	.L1:
  14:test/Threads_CPP_API_test.cpp **** }
  54              		.loc 1 14 1
  55 0050 83308101 		ld	ra,24(sp)
  56              		.cfi_remember_state
  57              		.cfi_restore 1
  58 0054 03340101 		ld	s0,16(sp)
  59              		.cfi_restore 8
  60              		.cfi_def_cfa 2, 32
  61 0058 83348100 		ld	s1,8(sp)
  62              		.cfi_restore 9
  63              	.LVL4:
  64 005c 03390100 		ld	s2,0(sp)
  65              		.cfi_restore 18
  66 0060 13010102 		addi	sp,sp,32
  67              		.cfi_def_cfa_offset 0
  68 0064 67800000 		jr	ra
  69              	.LVL5:
  70              	.L6:
  71              		.cfi_restore_state
  12:test/Threads_CPP_API_test.cpp ****     if (n % 10 == 0) { thread_dispatch(); }
  72              		.loc 1 12 24 is_stmt 1 discriminator 1
  12:test/Threads_CPP_API_test.cpp ****     if (n % 10 == 0) { thread_dispatch(); }
  73              		.loc 1 12 39 is_stmt 0 discriminator 1
  74 0068 97000000 		call	_Z15thread_dispatchv
  74      E7800000 
  75              	.LVL6:
  76 0070 6FF01FFC 		j	.L3
  77              		.cfi_endproc
  78              	.LFE2:
  80              		.section	.text._ZN7WorkerAD2Ev,"axG",@progbits,_ZN7WorkerAD5Ev,comdat
  81              		.align	2
  82              		.weak	_ZN7WorkerAD2Ev
  84              	_ZN7WorkerAD2Ev:
  85              	.LFB37:
  15:test/Threads_CPP_API_test.cpp **** 
  16:test/Threads_CPP_API_test.cpp **** class WorkerA: public Thread {
  86              		.loc 1 16 7 is_stmt 1
  87              		.cfi_startproc
  88              	.LVL7:
  89 0000 130101FF 		addi	sp,sp,-16
  90              		.cfi_def_cfa_offset 16
  91 0004 23341100 		sd	ra,8(sp)
  92 0008 23308100 		sd	s0,0(sp)
  93              		.cfi_offset 1, -8
  94              		.cfi_offset 8, -16
  95 000c 13040101 		addi	s0,sp,16
  96              		.cfi_def_cfa 8, 0
GAS LISTING C:\msys64\tmp\ccwMNTRe.s 			page 3


  97              	.LBB28:
  98              		.loc 1 16 7 is_stmt 0
  99 0010 97070000 		lla	a5,_ZTV7WorkerA+16
  99      93870700 
 100 0018 2330F500 		sd	a5,0(a0)
 101 001c 97000000 		call	_ZN6ThreadD2Ev
 101      E7800000 
 102              	.LVL8:
 103              	.LBE28:
 104 0024 83308100 		ld	ra,8(sp)
 105              		.cfi_restore 1
 106 0028 03340100 		ld	s0,0(sp)
 107              		.cfi_restore 8
 108              		.cfi_def_cfa 2, 16
 109 002c 13010101 		addi	sp,sp,16
 110              		.cfi_def_cfa_offset 0
 111 0030 67800000 		jr	ra
 112              		.cfi_endproc
 113              	.LFE37:
 115              		.weak	_ZN7WorkerAD1Ev
 116              		.set	_ZN7WorkerAD1Ev,_ZN7WorkerAD2Ev
 117              		.section	.text._ZN7WorkerAD0Ev,"axG",@progbits,_ZN7WorkerAD5Ev,comdat
 118              		.align	2
 119              		.weak	_ZN7WorkerAD0Ev
 121              	_ZN7WorkerAD0Ev:
 122              	.LFB39:
 123              		.loc 1 16 7 is_stmt 1
 124              		.cfi_startproc
 125              	.LVL9:
 126 0000 130101FE 		addi	sp,sp,-32
 127              		.cfi_def_cfa_offset 32
 128 0004 233C1100 		sd	ra,24(sp)
 129 0008 23388100 		sd	s0,16(sp)
 130 000c 23349100 		sd	s1,8(sp)
 131              		.cfi_offset 1, -8
 132              		.cfi_offset 8, -16
 133              		.cfi_offset 9, -24
 134 0010 13040102 		addi	s0,sp,32
 135              		.cfi_def_cfa 8, 0
 136 0014 93040500 		mv	s1,a0
 137              	.LVL10:
 138              	.LBB29:
 139              	.LBB30:
 140              		.loc 1 16 7 is_stmt 0
 141 0018 97070000 		lla	a5,_ZTV7WorkerA+16
 141      93870700 
 142 0020 2330F500 		sd	a5,0(a0)
 143 0024 97000000 		call	_ZN6ThreadD2Ev
 143      E7800000 
 144              	.LVL11:
 145              	.LBE30:
 146              	.LBE29:
 147 002c 13850400 		mv	a0,s1
 148 0030 97000000 		call	_ZdlPv
 148      E7800000 
 149              	.LVL12:
 150 0038 83308101 		ld	ra,24(sp)
GAS LISTING C:\msys64\tmp\ccwMNTRe.s 			page 4


 151              		.cfi_restore 1
 152 003c 03340101 		ld	s0,16(sp)
 153              		.cfi_restore 8
 154              		.cfi_def_cfa 2, 32
 155 0040 83348100 		ld	s1,8(sp)
 156              		.cfi_restore 9
 157              	.LVL13:
 158 0044 13010102 		addi	sp,sp,32
 159              		.cfi_def_cfa_offset 0
 160 0048 67800000 		jr	ra
 161              		.cfi_endproc
 162              	.LFE39:
 164              		.section	.text._ZN7WorkerBD2Ev,"axG",@progbits,_ZN7WorkerBD5Ev,comdat
 165              		.align	2
 166              		.weak	_ZN7WorkerBD2Ev
 168              	_ZN7WorkerBD2Ev:
 169              	.LFB33:
  17:test/Threads_CPP_API_test.cpp ****     void workerBodyA(void* arg);
  18:test/Threads_CPP_API_test.cpp **** public:
  19:test/Threads_CPP_API_test.cpp ****     WorkerA():Thread() {}
  20:test/Threads_CPP_API_test.cpp **** 
  21:test/Threads_CPP_API_test.cpp ****     void run() override {
  22:test/Threads_CPP_API_test.cpp ****         workerBodyA(nullptr);
  23:test/Threads_CPP_API_test.cpp ****     }
  24:test/Threads_CPP_API_test.cpp **** };
  25:test/Threads_CPP_API_test.cpp **** 
  26:test/Threads_CPP_API_test.cpp **** class WorkerB: public Thread {
 170              		.loc 1 26 7 is_stmt 1
 171              		.cfi_startproc
 172              	.LVL14:
 173 0000 130101FF 		addi	sp,sp,-16
 174              		.cfi_def_cfa_offset 16
 175 0004 23341100 		sd	ra,8(sp)
 176 0008 23308100 		sd	s0,0(sp)
 177              		.cfi_offset 1, -8
 178              		.cfi_offset 8, -16
 179 000c 13040101 		addi	s0,sp,16
 180              		.cfi_def_cfa 8, 0
 181              	.LBB31:
 182              		.loc 1 26 7 is_stmt 0
 183 0010 97070000 		lla	a5,_ZTV7WorkerB+16
 183      93870700 
 184 0018 2330F500 		sd	a5,0(a0)
 185 001c 97000000 		call	_ZN6ThreadD2Ev
 185      E7800000 
 186              	.LVL15:
 187              	.LBE31:
 188 0024 83308100 		ld	ra,8(sp)
 189              		.cfi_restore 1
 190 0028 03340100 		ld	s0,0(sp)
 191              		.cfi_restore 8
 192              		.cfi_def_cfa 2, 16
 193 002c 13010101 		addi	sp,sp,16
 194              		.cfi_def_cfa_offset 0
 195 0030 67800000 		jr	ra
 196              		.cfi_endproc
 197              	.LFE33:
GAS LISTING C:\msys64\tmp\ccwMNTRe.s 			page 5


 199              		.weak	_ZN7WorkerBD1Ev
 200              		.set	_ZN7WorkerBD1Ev,_ZN7WorkerBD2Ev
 201              		.section	.text._ZN7WorkerBD0Ev,"axG",@progbits,_ZN7WorkerBD5Ev,comdat
 202              		.align	2
 203              		.weak	_ZN7WorkerBD0Ev
 205              	_ZN7WorkerBD0Ev:
 206              	.LFB35:
 207              		.loc 1 26 7 is_stmt 1
 208              		.cfi_startproc
 209              	.LVL16:
 210 0000 130101FE 		addi	sp,sp,-32
 211              		.cfi_def_cfa_offset 32
 212 0004 233C1100 		sd	ra,24(sp)
 213 0008 23388100 		sd	s0,16(sp)
 214 000c 23349100 		sd	s1,8(sp)
 215              		.cfi_offset 1, -8
 216              		.cfi_offset 8, -16
 217              		.cfi_offset 9, -24
 218 0010 13040102 		addi	s0,sp,32
 219              		.cfi_def_cfa 8, 0
 220 0014 93040500 		mv	s1,a0
 221              	.LVL17:
 222              	.LBB32:
 223              	.LBB33:
 224              		.loc 1 26 7 is_stmt 0
 225 0018 97070000 		lla	a5,_ZTV7WorkerB+16
 225      93870700 
 226 0020 2330F500 		sd	a5,0(a0)
 227 0024 97000000 		call	_ZN6ThreadD2Ev
 227      E7800000 
 228              	.LVL18:
 229              	.LBE33:
 230              	.LBE32:
 231 002c 13850400 		mv	a0,s1
 232 0030 97000000 		call	_ZdlPv
 232      E7800000 
 233              	.LVL19:
 234 0038 83308101 		ld	ra,24(sp)
 235              		.cfi_restore 1
 236 003c 03340101 		ld	s0,16(sp)
 237              		.cfi_restore 8
 238              		.cfi_def_cfa 2, 32
 239 0040 83348100 		ld	s1,8(sp)
 240              		.cfi_restore 9
 241              	.LVL20:
 242 0044 13010102 		addi	sp,sp,32
 243              		.cfi_def_cfa_offset 0
 244 0048 67800000 		jr	ra
 245              		.cfi_endproc
 246              	.LFE35:
 248              		.section	.text._ZN7WorkerCD2Ev,"axG",@progbits,_ZN7WorkerCD5Ev,comdat
 249              		.align	2
 250              		.weak	_ZN7WorkerCD2Ev
 252              	_ZN7WorkerCD2Ev:
 253              	.LFB29:
  27:test/Threads_CPP_API_test.cpp ****     void workerBodyB(void* arg);
  28:test/Threads_CPP_API_test.cpp **** public:
GAS LISTING C:\msys64\tmp\ccwMNTRe.s 			page 6


  29:test/Threads_CPP_API_test.cpp ****     WorkerB():Thread() {}
  30:test/Threads_CPP_API_test.cpp **** 
  31:test/Threads_CPP_API_test.cpp ****     void run() override {
  32:test/Threads_CPP_API_test.cpp ****         workerBodyB(nullptr);
  33:test/Threads_CPP_API_test.cpp ****     }
  34:test/Threads_CPP_API_test.cpp **** };
  35:test/Threads_CPP_API_test.cpp **** 
  36:test/Threads_CPP_API_test.cpp **** class WorkerC: public Thread {
 254              		.loc 1 36 7 is_stmt 1
 255              		.cfi_startproc
 256              	.LVL21:
 257 0000 130101FF 		addi	sp,sp,-16
 258              		.cfi_def_cfa_offset 16
 259 0004 23341100 		sd	ra,8(sp)
 260 0008 23308100 		sd	s0,0(sp)
 261              		.cfi_offset 1, -8
 262              		.cfi_offset 8, -16
 263 000c 13040101 		addi	s0,sp,16
 264              		.cfi_def_cfa 8, 0
 265              	.LBB34:
 266              		.loc 1 36 7 is_stmt 0
 267 0010 97070000 		lla	a5,_ZTV7WorkerC+16
 267      93870700 
 268 0018 2330F500 		sd	a5,0(a0)
 269 001c 97000000 		call	_ZN6ThreadD2Ev
 269      E7800000 
 270              	.LVL22:
 271              	.LBE34:
 272 0024 83308100 		ld	ra,8(sp)
 273              		.cfi_restore 1
 274 0028 03340100 		ld	s0,0(sp)
 275              		.cfi_restore 8
 276              		.cfi_def_cfa 2, 16
 277 002c 13010101 		addi	sp,sp,16
 278              		.cfi_def_cfa_offset 0
 279 0030 67800000 		jr	ra
 280              		.cfi_endproc
 281              	.LFE29:
 283              		.weak	_ZN7WorkerCD1Ev
 284              		.set	_ZN7WorkerCD1Ev,_ZN7WorkerCD2Ev
 285              		.section	.text._ZN7WorkerCD0Ev,"axG",@progbits,_ZN7WorkerCD5Ev,comdat
 286              		.align	2
 287              		.weak	_ZN7WorkerCD0Ev
 289              	_ZN7WorkerCD0Ev:
 290              	.LFB31:
 291              		.loc 1 36 7 is_stmt 1
 292              		.cfi_startproc
 293              	.LVL23:
 294 0000 130101FE 		addi	sp,sp,-32
 295              		.cfi_def_cfa_offset 32
 296 0004 233C1100 		sd	ra,24(sp)
 297 0008 23388100 		sd	s0,16(sp)
 298 000c 23349100 		sd	s1,8(sp)
 299              		.cfi_offset 1, -8
 300              		.cfi_offset 8, -16
 301              		.cfi_offset 9, -24
 302 0010 13040102 		addi	s0,sp,32
GAS LISTING C:\msys64\tmp\ccwMNTRe.s 			page 7


 303              		.cfi_def_cfa 8, 0
 304 0014 93040500 		mv	s1,a0
 305              	.LVL24:
 306              	.LBB35:
 307              	.LBB36:
 308              		.loc 1 36 7 is_stmt 0
 309 0018 97070000 		lla	a5,_ZTV7WorkerC+16
 309      93870700 
 310 0020 2330F500 		sd	a5,0(a0)
 311 0024 97000000 		call	_ZN6ThreadD2Ev
 311      E7800000 
 312              	.LVL25:
 313              	.LBE36:
 314              	.LBE35:
 315 002c 13850400 		mv	a0,s1
 316 0030 97000000 		call	_ZdlPv
 316      E7800000 
 317              	.LVL26:
 318 0038 83308101 		ld	ra,24(sp)
 319              		.cfi_restore 1
 320 003c 03340101 		ld	s0,16(sp)
 321              		.cfi_restore 8
 322              		.cfi_def_cfa 2, 32
 323 0040 83348100 		ld	s1,8(sp)
 324              		.cfi_restore 9
 325              	.LVL27:
 326 0044 13010102 		addi	sp,sp,32
 327              		.cfi_def_cfa_offset 0
 328 0048 67800000 		jr	ra
 329              		.cfi_endproc
 330              	.LFE31:
 332              		.section	.text._ZN7WorkerDD2Ev,"axG",@progbits,_ZN7WorkerDD5Ev,comdat
 333              		.align	2
 334              		.weak	_ZN7WorkerDD2Ev
 336              	_ZN7WorkerDD2Ev:
 337              	.LFB25:
  37:test/Threads_CPP_API_test.cpp ****     void workerBodyC(void* arg);
  38:test/Threads_CPP_API_test.cpp **** public:
  39:test/Threads_CPP_API_test.cpp ****     WorkerC():Thread() {}
  40:test/Threads_CPP_API_test.cpp **** 
  41:test/Threads_CPP_API_test.cpp ****     void run() override {
  42:test/Threads_CPP_API_test.cpp ****         workerBodyC(nullptr);
  43:test/Threads_CPP_API_test.cpp ****     }
  44:test/Threads_CPP_API_test.cpp **** };
  45:test/Threads_CPP_API_test.cpp **** 
  46:test/Threads_CPP_API_test.cpp **** class WorkerD: public Thread {
 338              		.loc 1 46 7 is_stmt 1
 339              		.cfi_startproc
 340              	.LVL28:
 341 0000 130101FF 		addi	sp,sp,-16
 342              		.cfi_def_cfa_offset 16
 343 0004 23341100 		sd	ra,8(sp)
 344 0008 23308100 		sd	s0,0(sp)
 345              		.cfi_offset 1, -8
 346              		.cfi_offset 8, -16
 347 000c 13040101 		addi	s0,sp,16
 348              		.cfi_def_cfa 8, 0
GAS LISTING C:\msys64\tmp\ccwMNTRe.s 			page 8


 349              	.LBB37:
 350              		.loc 1 46 7 is_stmt 0
 351 0010 97070000 		lla	a5,_ZTV7WorkerD+16
 351      93870700 
 352 0018 2330F500 		sd	a5,0(a0)
 353 001c 97000000 		call	_ZN6ThreadD2Ev
 353      E7800000 
 354              	.LVL29:
 355              	.LBE37:
 356 0024 83308100 		ld	ra,8(sp)
 357              		.cfi_restore 1
 358 0028 03340100 		ld	s0,0(sp)
 359              		.cfi_restore 8
 360              		.cfi_def_cfa 2, 16
 361 002c 13010101 		addi	sp,sp,16
 362              		.cfi_def_cfa_offset 0
 363 0030 67800000 		jr	ra
 364              		.cfi_endproc
 365              	.LFE25:
 367              		.weak	_ZN7WorkerDD1Ev
 368              		.set	_ZN7WorkerDD1Ev,_ZN7WorkerDD2Ev
 369              		.section	.text._ZN7WorkerDD0Ev,"axG",@progbits,_ZN7WorkerDD5Ev,comdat
 370              		.align	2
 371              		.weak	_ZN7WorkerDD0Ev
 373              	_ZN7WorkerDD0Ev:
 374              	.LFB27:
 375              		.loc 1 46 7 is_stmt 1
 376              		.cfi_startproc
 377              	.LVL30:
 378 0000 130101FE 		addi	sp,sp,-32
 379              		.cfi_def_cfa_offset 32
 380 0004 233C1100 		sd	ra,24(sp)
 381 0008 23388100 		sd	s0,16(sp)
 382 000c 23349100 		sd	s1,8(sp)
 383              		.cfi_offset 1, -8
 384              		.cfi_offset 8, -16
 385              		.cfi_offset 9, -24
 386 0010 13040102 		addi	s0,sp,32
 387              		.cfi_def_cfa 8, 0
 388 0014 93040500 		mv	s1,a0
 389              	.LVL31:
 390              	.LBB38:
 391              	.LBB39:
 392              		.loc 1 46 7 is_stmt 0
 393 0018 97070000 		lla	a5,_ZTV7WorkerD+16
 393      93870700 
 394 0020 2330F500 		sd	a5,0(a0)
 395 0024 97000000 		call	_ZN6ThreadD2Ev
 395      E7800000 
 396              	.LVL32:
 397              	.LBE39:
 398              	.LBE38:
 399 002c 13850400 		mv	a0,s1
 400 0030 97000000 		call	_ZdlPv
 400      E7800000 
 401              	.LVL33:
 402 0038 83308101 		ld	ra,24(sp)
GAS LISTING C:\msys64\tmp\ccwMNTRe.s 			page 9


 403              		.cfi_restore 1
 404 003c 03340101 		ld	s0,16(sp)
 405              		.cfi_restore 8
 406              		.cfi_def_cfa 2, 32
 407 0040 83348100 		ld	s1,8(sp)
 408              		.cfi_restore 9
 409              	.LVL34:
 410 0044 13010102 		addi	sp,sp,32
 411              		.cfi_def_cfa_offset 0
 412 0048 67800000 		jr	ra
 413              		.cfi_endproc
 414              	.LFE27:
 416              		.section	.rodata.str1.8,"aMS",@progbits,1
 417              		.align	3
 418              	.LC0:
 419 0000 413A2069 		.string	"A: i="
 419      3D00
 420 0006 0000     		.align	3
 421              	.LC1:
 422 0008 0A00     		.string	"\n"
 423 000a 00000000 		.align	3
 423      0000
 424              	.LC2:
 425 0010 41206669 		.string	"A finished!\n"
 425      6E697368 
 425      6564210A 
 425      00
 426              		.text
 427              		.align	2
 428              		.globl	_ZN7WorkerA11workerBodyAEPv
 430              	_ZN7WorkerA11workerBodyAEPv:
 431              	.LFB19:
  47:test/Threads_CPP_API_test.cpp ****     void workerBodyD(void* arg);
  48:test/Threads_CPP_API_test.cpp **** public:
  49:test/Threads_CPP_API_test.cpp ****     WorkerD():Thread() {}
  50:test/Threads_CPP_API_test.cpp **** 
  51:test/Threads_CPP_API_test.cpp ****     void run() override {
  52:test/Threads_CPP_API_test.cpp ****         workerBodyD(nullptr);
  53:test/Threads_CPP_API_test.cpp ****     }
  54:test/Threads_CPP_API_test.cpp **** };
  55:test/Threads_CPP_API_test.cpp **** 
  56:test/Threads_CPP_API_test.cpp **** void WorkerA::workerBodyA(void *arg) {
 432              		.loc 1 56 38 is_stmt 1
 433              		.cfi_startproc
 434              	.LVL35:
 435 0074 130101FE 		addi	sp,sp,-32
 436              		.cfi_def_cfa_offset 32
 437 0078 233C1100 		sd	ra,24(sp)
 438 007c 23388100 		sd	s0,16(sp)
 439 0080 23349100 		sd	s1,8(sp)
 440 0084 23302101 		sd	s2,0(sp)
 441              		.cfi_offset 1, -8
 442              		.cfi_offset 8, -16
 443              		.cfi_offset 9, -24
 444              		.cfi_offset 18, -32
 445 0088 13040102 		addi	s0,sp,32
 446              		.cfi_def_cfa 8, 0
GAS LISTING C:\msys64\tmp\ccwMNTRe.s 			page 10


  57:test/Threads_CPP_API_test.cpp ****     for (uint64 i = 0; i < 10; i++) {
 447              		.loc 1 57 5
 448              	.LVL36:
 449              	.LBB40:
 450              		.loc 1 57 17 is_stmt 0
 451 008c 13090000 		li	s2,0
 452 0090 6F008003 		j	.L29
 453              	.LVL37:
 454              	.L31:
 455              	.LBB41:
 456              	.LBB42:
 457              	.LBB43:
 458              	.LBB44:
  58:test/Threads_CPP_API_test.cpp ****         printString("A: i="); printInt(i); printString("\n");
  59:test/Threads_CPP_API_test.cpp ****         for (uint64 j = 0; j < 10000; j++) {
  60:test/Threads_CPP_API_test.cpp ****             for (uint64 k = 0; k < 30000; k++) { /* busy wait */ }
 459              		.loc 1 60 13 is_stmt 1 discriminator 2
 460 0094 13071700 		addi	a4,a4,1
 461              	.LVL38:
 462              	.L27:
 463              		.loc 1 60 34 discriminator 3
 464 0098 B7770000 		li	a5,28672
 465 009c 9387F752 		addi	a5,a5,1327
 466 00a0 E3FAE7FE 		bleu	a4,a5,.L31
 467              	.LBE44:
  61:test/Threads_CPP_API_test.cpp ****             thread_dispatch();
 468              		.loc 1 61 13 discriminator 2
 469              		.loc 1 61 28 is_stmt 0 discriminator 2
 470 00a4 97000000 		call	_Z15thread_dispatchv
 470      E7800000 
 471              	.LVL39:
 472              	.LBE43:
  59:test/Threads_CPP_API_test.cpp ****             for (uint64 k = 0; k < 30000; k++) { /* busy wait */ }
 473              		.loc 1 59 9 is_stmt 1 discriminator 2
 474 00ac 93841400 		addi	s1,s1,1
 475              	.LVL40:
 476              	.L28:
  59:test/Threads_CPP_API_test.cpp ****             for (uint64 k = 0; k < 30000; k++) { /* busy wait */ }
 477              		.loc 1 59 30 discriminator 1
 478 00b0 B7270000 		li	a5,8192
 479 00b4 9387F770 		addi	a5,a5,1807
 480 00b8 63E69700 		bgtu	s1,a5,.L25
 481              	.LBB46:
 482              	.LBB45:
  60:test/Threads_CPP_API_test.cpp ****             thread_dispatch();
 483              		.loc 1 60 25 is_stmt 0
 484 00bc 13070000 		li	a4,0
 485 00c0 6FF09FFD 		j	.L27
 486              	.L25:
 487              	.LBE45:
 488              	.LBE46:
 489              	.LBE42:
 490              	.LBE41:
  57:test/Threads_CPP_API_test.cpp ****         printString("A: i="); printInt(i); printString("\n");
 491              		.loc 1 57 5 is_stmt 1 discriminator 2
 492 00c4 13091900 		addi	s2,s2,1
 493              	.LVL41:
GAS LISTING C:\msys64\tmp\ccwMNTRe.s 			page 11


 494              	.L29:
  57:test/Threads_CPP_API_test.cpp ****         printString("A: i="); printInt(i); printString("\n");
 495              		.loc 1 57 26 discriminator 1
 496 00c8 93079000 		li	a5,9
 497 00cc 63E02705 		bgtu	s2,a5,.L24
 498              	.LBB48:
  58:test/Threads_CPP_API_test.cpp ****         for (uint64 j = 0; j < 10000; j++) {
 499              		.loc 1 58 9
  58:test/Threads_CPP_API_test.cpp ****         for (uint64 j = 0; j < 10000; j++) {
 500              		.loc 1 58 20 is_stmt 0
 501 00d0 17050000 		lla	a0,.LC0
 501      13050500 
 502 00d8 97000000 		call	_Z11printStringPKc
 502      E7800000 
 503              	.LVL42:
  58:test/Threads_CPP_API_test.cpp ****         for (uint64 j = 0; j < 10000; j++) {
 504              		.loc 1 58 31 is_stmt 1
  58:test/Threads_CPP_API_test.cpp ****         for (uint64 j = 0; j < 10000; j++) {
 505              		.loc 1 58 39 is_stmt 0
 506 00e0 13060000 		li	a2,0
 507 00e4 9305A000 		li	a1,10
 508 00e8 1B050900 		sext.w	a0,s2
 509 00ec 97000000 		call	_Z8printIntiii
 509      E7800000 
 510              	.LVL43:
  58:test/Threads_CPP_API_test.cpp ****         for (uint64 j = 0; j < 10000; j++) {
 511              		.loc 1 58 44 is_stmt 1
  58:test/Threads_CPP_API_test.cpp ****         for (uint64 j = 0; j < 10000; j++) {
 512              		.loc 1 58 55 is_stmt 0
 513 00f4 17050000 		lla	a0,.LC1
 513      13050500 
 514 00fc 97000000 		call	_Z11printStringPKc
 514      E7800000 
 515              	.LVL44:
  59:test/Threads_CPP_API_test.cpp ****             for (uint64 k = 0; k < 30000; k++) { /* busy wait */ }
 516              		.loc 1 59 9 is_stmt 1
 517              	.LBB47:
  59:test/Threads_CPP_API_test.cpp ****             for (uint64 k = 0; k < 30000; k++) { /* busy wait */ }
 518              		.loc 1 59 21 is_stmt 0
 519 0104 93040000 		li	s1,0
 520 0108 6FF09FFA 		j	.L28
 521              	.LVL45:
 522              	.L24:
 523              	.LBE47:
 524              	.LBE48:
 525              	.LBE40:
  62:test/Threads_CPP_API_test.cpp ****         }
  63:test/Threads_CPP_API_test.cpp ****     }
  64:test/Threads_CPP_API_test.cpp ****     printString("A finished!\n");
 526              		.loc 1 64 5 is_stmt 1
 527              		.loc 1 64 16 is_stmt 0
 528 010c 17050000 		lla	a0,.LC2
 528      13050500 
 529 0114 97000000 		call	_Z11printStringPKc
 529      E7800000 
 530              	.LVL46:
  65:test/Threads_CPP_API_test.cpp ****     finishedA = true;
GAS LISTING C:\msys64\tmp\ccwMNTRe.s 			page 12


 531              		.loc 1 65 5 is_stmt 1
 532              		.loc 1 65 15 is_stmt 0
 533 011c 93071000 		li	a5,1
 534 0120 17070000 		sb	a5,_ZL9finishedA,a4
 534      2300F700 
  66:test/Threads_CPP_API_test.cpp **** }
 535              		.loc 1 66 1
 536 0128 83308101 		ld	ra,24(sp)
 537              		.cfi_restore 1
 538 012c 03340101 		ld	s0,16(sp)
 539              		.cfi_restore 8
 540              		.cfi_def_cfa 2, 32
 541 0130 83348100 		ld	s1,8(sp)
 542              		.cfi_restore 9
 543 0134 03390100 		ld	s2,0(sp)
 544              		.cfi_restore 18
 545              	.LVL47:
 546 0138 13010102 		addi	sp,sp,32
 547              		.cfi_def_cfa_offset 0
 548 013c 67800000 		jr	ra
 549              		.cfi_endproc
 550              	.LFE19:
 552              		.section	.text._ZN7WorkerA3runEv,"axG",@progbits,_ZN7WorkerA3runEv,comdat
 553              		.align	2
 554              		.weak	_ZN7WorkerA3runEv
 556              	_ZN7WorkerA3runEv:
 557              	.LFB6:
  21:test/Threads_CPP_API_test.cpp ****         workerBodyA(nullptr);
 558              		.loc 1 21 10 is_stmt 1
 559              		.cfi_startproc
 560              	.LVL48:
 561 0000 130101FF 		addi	sp,sp,-16
 562              		.cfi_def_cfa_offset 16
 563 0004 23341100 		sd	ra,8(sp)
 564 0008 23308100 		sd	s0,0(sp)
 565              		.cfi_offset 1, -8
 566              		.cfi_offset 8, -16
 567 000c 13040101 		addi	s0,sp,16
 568              		.cfi_def_cfa 8, 0
  22:test/Threads_CPP_API_test.cpp ****     }
 569              		.loc 1 22 9
  22:test/Threads_CPP_API_test.cpp ****     }
 570              		.loc 1 22 20 is_stmt 0
 571 0010 93050000 		li	a1,0
 572 0014 97000000 		call	_ZN7WorkerA11workerBodyAEPv
 572      E7800000 
 573              	.LVL49:
  23:test/Threads_CPP_API_test.cpp **** };
 574              		.loc 1 23 5
 575 001c 83308100 		ld	ra,8(sp)
 576              		.cfi_restore 1
 577 0020 03340100 		ld	s0,0(sp)
 578              		.cfi_restore 8
 579              		.cfi_def_cfa 2, 16
 580 0024 13010101 		addi	sp,sp,16
 581              		.cfi_def_cfa_offset 0
 582 0028 67800000 		jr	ra
GAS LISTING C:\msys64\tmp\ccwMNTRe.s 			page 13


 583              		.cfi_endproc
 584              	.LFE6:
 586              		.section	.rodata.str1.8
 587 001d 000000   		.align	3
 588              	.LC3:
 589 0020 423A2069 		.string	"B: i="
 589      3D00
 590 0026 0000     		.align	3
 591              	.LC4:
 592 0028 42206669 		.string	"B finished!\n"
 592      6E697368 
 592      6564210A 
 592      00
 593              		.text
 594              		.align	2
 595              		.globl	_ZN7WorkerB11workerBodyBEPv
 597              	_ZN7WorkerB11workerBodyBEPv:
 598              	.LFB20:
  67:test/Threads_CPP_API_test.cpp **** 
  68:test/Threads_CPP_API_test.cpp **** void WorkerB::workerBodyB(void *arg) {
 599              		.loc 1 68 38 is_stmt 1
 600              		.cfi_startproc
 601              	.LVL50:
 602 0140 130101FE 		addi	sp,sp,-32
 603              		.cfi_def_cfa_offset 32
 604 0144 233C1100 		sd	ra,24(sp)
 605 0148 23388100 		sd	s0,16(sp)
 606 014c 23349100 		sd	s1,8(sp)
 607 0150 23302101 		sd	s2,0(sp)
 608              		.cfi_offset 1, -8
 609              		.cfi_offset 8, -16
 610              		.cfi_offset 9, -24
 611              		.cfi_offset 18, -32
 612 0154 13040102 		addi	s0,sp,32
 613              		.cfi_def_cfa 8, 0
  69:test/Threads_CPP_API_test.cpp ****     for (uint64 i = 0; i < 16; i++) {
 614              		.loc 1 69 5
 615              	.LVL51:
 616              	.LBB49:
 617              		.loc 1 69 17 is_stmt 0
 618 0158 13090000 		li	s2,0
 619 015c 6F008003 		j	.L40
 620              	.LVL52:
 621              	.L42:
 622              	.LBB50:
 623              	.LBB51:
 624              	.LBB52:
 625              	.LBB53:
  70:test/Threads_CPP_API_test.cpp ****         printString("B: i="); printInt(i); printString("\n");
  71:test/Threads_CPP_API_test.cpp ****         for (uint64 j = 0; j < 10000; j++) {
  72:test/Threads_CPP_API_test.cpp ****             for (uint64 k = 0; k < 30000; k++) { /* busy wait */ }
 626              		.loc 1 72 13 is_stmt 1 discriminator 2
 627 0160 13071700 		addi	a4,a4,1
 628              	.LVL53:
 629              	.L38:
 630              		.loc 1 72 34 discriminator 3
 631 0164 B7770000 		li	a5,28672
GAS LISTING C:\msys64\tmp\ccwMNTRe.s 			page 14


 632 0168 9387F752 		addi	a5,a5,1327
 633 016c E3FAE7FE 		bleu	a4,a5,.L42
 634              	.LBE53:
  73:test/Threads_CPP_API_test.cpp ****             thread_dispatch();
 635              		.loc 1 73 13 discriminator 2
 636              		.loc 1 73 28 is_stmt 0 discriminator 2
 637 0170 97000000 		call	_Z15thread_dispatchv
 637      E7800000 
 638              	.LVL54:
 639              	.LBE52:
  71:test/Threads_CPP_API_test.cpp ****             for (uint64 k = 0; k < 30000; k++) { /* busy wait */ }
 640              		.loc 1 71 9 is_stmt 1 discriminator 2
 641 0178 93841400 		addi	s1,s1,1
 642              	.LVL55:
 643              	.L39:
  71:test/Threads_CPP_API_test.cpp ****             for (uint64 k = 0; k < 30000; k++) { /* busy wait */ }
 644              		.loc 1 71 30 discriminator 1
 645 017c B7270000 		li	a5,8192
 646 0180 9387F770 		addi	a5,a5,1807
 647 0184 63E69700 		bgtu	s1,a5,.L36
 648              	.LBB55:
 649              	.LBB54:
  72:test/Threads_CPP_API_test.cpp ****             thread_dispatch();
 650              		.loc 1 72 25 is_stmt 0
 651 0188 13070000 		li	a4,0
 652 018c 6FF09FFD 		j	.L38
 653              	.L36:
 654              	.LBE54:
 655              	.LBE55:
 656              	.LBE51:
 657              	.LBE50:
  69:test/Threads_CPP_API_test.cpp ****         printString("B: i="); printInt(i); printString("\n");
 658              		.loc 1 69 5 is_stmt 1 discriminator 2
 659 0190 13091900 		addi	s2,s2,1
 660              	.LVL56:
 661              	.L40:
  69:test/Threads_CPP_API_test.cpp ****         printString("B: i="); printInt(i); printString("\n");
 662              		.loc 1 69 26 discriminator 1
 663 0194 9307F000 		li	a5,15
 664 0198 63E02705 		bgtu	s2,a5,.L35
 665              	.LBB57:
  70:test/Threads_CPP_API_test.cpp ****         for (uint64 j = 0; j < 10000; j++) {
 666              		.loc 1 70 9
  70:test/Threads_CPP_API_test.cpp ****         for (uint64 j = 0; j < 10000; j++) {
 667              		.loc 1 70 20 is_stmt 0
 668 019c 17050000 		lla	a0,.LC3
 668      13050500 
 669 01a4 97000000 		call	_Z11printStringPKc
 669      E7800000 
 670              	.LVL57:
  70:test/Threads_CPP_API_test.cpp ****         for (uint64 j = 0; j < 10000; j++) {
 671              		.loc 1 70 31 is_stmt 1
  70:test/Threads_CPP_API_test.cpp ****         for (uint64 j = 0; j < 10000; j++) {
 672              		.loc 1 70 39 is_stmt 0
 673 01ac 13060000 		li	a2,0
 674 01b0 9305A000 		li	a1,10
 675 01b4 1B050900 		sext.w	a0,s2
GAS LISTING C:\msys64\tmp\ccwMNTRe.s 			page 15


 676 01b8 97000000 		call	_Z8printIntiii
 676      E7800000 
 677              	.LVL58:
  70:test/Threads_CPP_API_test.cpp ****         for (uint64 j = 0; j < 10000; j++) {
 678              		.loc 1 70 44 is_stmt 1
  70:test/Threads_CPP_API_test.cpp ****         for (uint64 j = 0; j < 10000; j++) {
 679              		.loc 1 70 55 is_stmt 0
 680 01c0 17050000 		lla	a0,.LC1
 680      13050500 
 681 01c8 97000000 		call	_Z11printStringPKc
 681      E7800000 
 682              	.LVL59:
  71:test/Threads_CPP_API_test.cpp ****             for (uint64 k = 0; k < 30000; k++) { /* busy wait */ }
 683              		.loc 1 71 9 is_stmt 1
 684              	.LBB56:
  71:test/Threads_CPP_API_test.cpp ****             for (uint64 k = 0; k < 30000; k++) { /* busy wait */ }
 685              		.loc 1 71 21 is_stmt 0
 686 01d0 93040000 		li	s1,0
 687 01d4 6FF09FFA 		j	.L39
 688              	.LVL60:
 689              	.L35:
 690              	.LBE56:
 691              	.LBE57:
 692              	.LBE49:
  74:test/Threads_CPP_API_test.cpp ****         }
  75:test/Threads_CPP_API_test.cpp ****     }
  76:test/Threads_CPP_API_test.cpp ****     printString("B finished!\n");
 693              		.loc 1 76 5 is_stmt 1
 694              		.loc 1 76 16 is_stmt 0
 695 01d8 17050000 		lla	a0,.LC4
 695      13050500 
 696 01e0 97000000 		call	_Z11printStringPKc
 696      E7800000 
 697              	.LVL61:
  77:test/Threads_CPP_API_test.cpp ****     finishedB = true;
 698              		.loc 1 77 5 is_stmt 1
 699              		.loc 1 77 15 is_stmt 0
 700 01e8 93071000 		li	a5,1
 701 01ec 17070000 		sb	a5,_ZL9finishedB,a4
 701      2300F700 
  78:test/Threads_CPP_API_test.cpp ****     thread_dispatch();
 702              		.loc 1 78 5 is_stmt 1
 703              		.loc 1 78 20 is_stmt 0
 704 01f4 97000000 		call	_Z15thread_dispatchv
 704      E7800000 
 705              	.LVL62:
  79:test/Threads_CPP_API_test.cpp **** }
 706              		.loc 1 79 1
 707 01fc 83308101 		ld	ra,24(sp)
 708              		.cfi_restore 1
 709 0200 03340101 		ld	s0,16(sp)
 710              		.cfi_restore 8
 711              		.cfi_def_cfa 2, 32
 712 0204 83348100 		ld	s1,8(sp)
 713              		.cfi_restore 9
 714 0208 03390100 		ld	s2,0(sp)
 715              		.cfi_restore 18
GAS LISTING C:\msys64\tmp\ccwMNTRe.s 			page 16


 716              	.LVL63:
 717 020c 13010102 		addi	sp,sp,32
 718              		.cfi_def_cfa_offset 0
 719 0210 67800000 		jr	ra
 720              		.cfi_endproc
 721              	.LFE20:
 723              		.section	.text._ZN7WorkerB3runEv,"axG",@progbits,_ZN7WorkerB3runEv,comdat
 724              		.align	2
 725              		.weak	_ZN7WorkerB3runEv
 727              	_ZN7WorkerB3runEv:
 728              	.LFB10:
  31:test/Threads_CPP_API_test.cpp ****         workerBodyB(nullptr);
 729              		.loc 1 31 10 is_stmt 1
 730              		.cfi_startproc
 731              	.LVL64:
 732 0000 130101FF 		addi	sp,sp,-16
 733              		.cfi_def_cfa_offset 16
 734 0004 23341100 		sd	ra,8(sp)
 735 0008 23308100 		sd	s0,0(sp)
 736              		.cfi_offset 1, -8
 737              		.cfi_offset 8, -16
 738 000c 13040101 		addi	s0,sp,16
 739              		.cfi_def_cfa 8, 0
  32:test/Threads_CPP_API_test.cpp ****     }
 740              		.loc 1 32 9
  32:test/Threads_CPP_API_test.cpp ****     }
 741              		.loc 1 32 20 is_stmt 0
 742 0010 93050000 		li	a1,0
 743 0014 97000000 		call	_ZN7WorkerB11workerBodyBEPv
 743      E7800000 
 744              	.LVL65:
  33:test/Threads_CPP_API_test.cpp **** };
 745              		.loc 1 33 5
 746 001c 83308100 		ld	ra,8(sp)
 747              		.cfi_restore 1
 748 0020 03340100 		ld	s0,0(sp)
 749              		.cfi_restore 8
 750              		.cfi_def_cfa 2, 16
 751 0024 13010101 		addi	sp,sp,16
 752              		.cfi_def_cfa_offset 0
 753 0028 67800000 		jr	ra
 754              		.cfi_endproc
 755              	.LFE10:
 757              		.section	.rodata.str1.8
 758 0035 000000   		.align	3
 759              	.LC5:
 760 0038 433A2069 		.string	"C: i="
 760      3D00
 761 003e 0000     		.align	3
 762              	.LC6:
 763 0040 433A2064 		.string	"C: dispatch\n"
 763      69737061 
 763      7463680A 
 763      00
 764 004d 000000   		.align	3
 765              	.LC7:
 766 0050 433A2074 		.string	"C: t1="
GAS LISTING C:\msys64\tmp\ccwMNTRe.s 			page 17


 766      313D00
 767 0057 00       		.align	3
 768              	.LC8:
 769 0058 433A2066 		.string	"C: fibonaci="
 769      69626F6E 
 769      6163693D 
 769      00
 770              		.text
 771              		.align	2
 772              		.globl	_ZN7WorkerC11workerBodyCEPv
 774              	_ZN7WorkerC11workerBodyCEPv:
 775              	.LFB21:
  80:test/Threads_CPP_API_test.cpp **** 
  81:test/Threads_CPP_API_test.cpp **** void WorkerC::workerBodyC(void *arg) {
 776              		.loc 1 81 38 is_stmt 1
 777              		.cfi_startproc
 778              	.LVL66:
 779 0214 130101FE 		addi	sp,sp,-32
 780              		.cfi_def_cfa_offset 32
 781 0218 233C1100 		sd	ra,24(sp)
 782 021c 23388100 		sd	s0,16(sp)
 783 0220 23349100 		sd	s1,8(sp)
 784 0224 23302101 		sd	s2,0(sp)
 785              		.cfi_offset 1, -8
 786              		.cfi_offset 8, -16
 787              		.cfi_offset 9, -24
 788              		.cfi_offset 18, -32
 789 0228 13040102 		addi	s0,sp,32
 790              		.cfi_def_cfa 8, 0
  82:test/Threads_CPP_API_test.cpp ****     uint8 i = 0;
 791              		.loc 1 82 5
 792              	.LVL67:
 793              		.loc 1 82 11 is_stmt 0
 794 022c 93040000 		li	s1,0
 795 0230 6F000004 		j	.L47
 796              	.LVL68:
 797              	.L51:
  83:test/Threads_CPP_API_test.cpp ****     for (; i < 3; i++) {
  84:test/Threads_CPP_API_test.cpp ****         printString("C: i="); printInt(i); printString("\n");
 798              		.loc 1 84 9 is_stmt 1 discriminator 1
 799              		.loc 1 84 20 is_stmt 0 discriminator 1
 800 0234 17050000 		lla	a0,.LC5
 800      13050500 
 801 023c 97000000 		call	_Z11printStringPKc
 801      E7800000 
 802              	.LVL69:
 803              		.loc 1 84 31 is_stmt 1 discriminator 1
 804              		.loc 1 84 39 is_stmt 0 discriminator 1
 805 0244 13060000 		li	a2,0
 806 0248 9305A000 		li	a1,10
 807 024c 13850400 		mv	a0,s1
 808 0250 97000000 		call	_Z8printIntiii
 808      E7800000 
 809              	.LVL70:
 810              		.loc 1 84 44 is_stmt 1 discriminator 1
 811              		.loc 1 84 55 is_stmt 0 discriminator 1
 812 0258 17050000 		lla	a0,.LC1
GAS LISTING C:\msys64\tmp\ccwMNTRe.s 			page 18


 812      13050500 
 813 0260 97000000 		call	_Z11printStringPKc
 813      E7800000 
 814              	.LVL71:
  83:test/Threads_CPP_API_test.cpp ****     for (; i < 3; i++) {
 815              		.loc 1 83 5 is_stmt 1 discriminator 1
 816 0268 9B841400 		addiw	s1,s1,1
 817              	.LVL72:
 818 026c 93F4F40F 		andi	s1,s1,0xff
 819              	.LVL73:
 820              	.L47:
  83:test/Threads_CPP_API_test.cpp ****     for (; i < 3; i++) {
 821              		.loc 1 83 5 discriminator 2
  83:test/Threads_CPP_API_test.cpp ****     for (; i < 3; i++) {
 822              		.loc 1 83 14 discriminator 2
 823 0270 93072000 		li	a5,2
 824 0274 E3F097FC 		bleu	s1,a5,.L51
  85:test/Threads_CPP_API_test.cpp ****     }
  86:test/Threads_CPP_API_test.cpp **** 
  87:test/Threads_CPP_API_test.cpp ****     printString("C: dispatch\n");
 825              		.loc 1 87 5
 826              		.loc 1 87 16 is_stmt 0
 827 0278 17050000 		lla	a0,.LC6
 827      13050500 
 828 0280 97000000 		call	_Z11printStringPKc
 828      E7800000 
 829              	.LVL74:
  88:test/Threads_CPP_API_test.cpp ****     __asm__ ("li t1, 7");
 830              		.loc 1 88 5 is_stmt 1
 831              	 #APP
 832              	# 88 "test/Threads_CPP_API_test.cpp" 1
  89              	    thread_dispatch();
 833              		li t1, 7
 834              	# 0 "" 2
 835              		.loc 1 89 5
 836              		.loc 1 89 20 is_stmt 0
 837              	 #NO_APP
 838 028c 97000000 		call	_Z15thread_dispatchv
 838      E7800000 
 839              	.LVL75:
  90:test/Threads_CPP_API_test.cpp **** 
  91:test/Threads_CPP_API_test.cpp ****     uint64 t1 = 0;
 840              		.loc 1 91 5 is_stmt 1
  92:test/Threads_CPP_API_test.cpp ****     __asm__ ("mv %[t1], t1" : [t1] "=r"(t1));
 841              		.loc 1 92 5
 842              	 #APP
 843              	# 92 "test/Threads_CPP_API_test.cpp" 1
  93              	
 844              		mv s2, t1
 845              	# 0 "" 2
 846              	.LVL76:
  94:test/Threads_CPP_API_test.cpp ****     printString("C: t1="); printInt(t1); printString("\n");
 847              		.loc 1 94 5
 848              		.loc 1 94 16 is_stmt 0
 849              	 #NO_APP
 850 0298 17050000 		lla	a0,.LC7
 850      13050500 
GAS LISTING C:\msys64\tmp\ccwMNTRe.s 			page 19


 851 02a0 97000000 		call	_Z11printStringPKc
 851      E7800000 
 852              	.LVL77:
 853              		.loc 1 94 28 is_stmt 1
 854              		.loc 1 94 36 is_stmt 0
 855 02a8 13060000 		li	a2,0
 856 02ac 9305A000 		li	a1,10
 857 02b0 1B050900 		sext.w	a0,s2
 858 02b4 97000000 		call	_Z8printIntiii
 858      E7800000 
 859              	.LVL78:
 860              		.loc 1 94 42 is_stmt 1
 861              		.loc 1 94 53 is_stmt 0
 862 02bc 17050000 		lla	a0,.LC1
 862      13050500 
 863 02c4 97000000 		call	_Z11printStringPKc
 863      E7800000 
 864              	.LVL79:
  95:test/Threads_CPP_API_test.cpp **** 
  96:test/Threads_CPP_API_test.cpp ****     uint64 result = fibonacci(12);
 865              		.loc 1 96 5 is_stmt 1
 866              		.loc 1 96 30 is_stmt 0
 867 02cc 1305C000 		li	a0,12
 868 02d0 97000000 		call	_ZL9fibonaccim
 868      E7800000 
 869              	.LVL80:
 870 02d8 13090500 		mv	s2,a0
 871              	.LVL81:
  97:test/Threads_CPP_API_test.cpp ****     printString("C: fibonaci="); printInt(result); printString("\n");
 872              		.loc 1 97 5 is_stmt 1
 873              		.loc 1 97 16 is_stmt 0
 874 02dc 17050000 		lla	a0,.LC8
 874      13050500 
 875              	.LVL82:
 876 02e4 97000000 		call	_Z11printStringPKc
 876      E7800000 
 877              	.LVL83:
 878              		.loc 1 97 34 is_stmt 1
 879              		.loc 1 97 42 is_stmt 0
 880 02ec 13060000 		li	a2,0
 881 02f0 9305A000 		li	a1,10
 882 02f4 1B050900 		sext.w	a0,s2
 883 02f8 97000000 		call	_Z8printIntiii
 883      E7800000 
 884              	.LVL84:
 885              		.loc 1 97 52 is_stmt 1
 886              		.loc 1 97 63 is_stmt 0
 887 0300 17050000 		lla	a0,.LC1
 887      13050500 
 888 0308 97000000 		call	_Z11printStringPKc
 888      E7800000 
 889              	.LVL85:
 890 0310 6F000004 		j	.L49
 891              	.L52:
  98:test/Threads_CPP_API_test.cpp **** 
  99:test/Threads_CPP_API_test.cpp ****     for (; i < 6; i++) {
 100:test/Threads_CPP_API_test.cpp ****         printString("C: i="); printInt(i); printString("\n");
GAS LISTING C:\msys64\tmp\ccwMNTRe.s 			page 20


 892              		.loc 1 100 9 is_stmt 1 discriminator 1
 893              		.loc 1 100 20 is_stmt 0 discriminator 1
 894 0314 17050000 		lla	a0,.LC5
 894      13050500 
 895 031c 97000000 		call	_Z11printStringPKc
 895      E7800000 
 896              	.LVL86:
 897              		.loc 1 100 31 is_stmt 1 discriminator 1
 898              		.loc 1 100 39 is_stmt 0 discriminator 1
 899 0324 13060000 		li	a2,0
 900 0328 9305A000 		li	a1,10
 901 032c 13850400 		mv	a0,s1
 902 0330 97000000 		call	_Z8printIntiii
 902      E7800000 
 903              	.LVL87:
 904              		.loc 1 100 44 is_stmt 1 discriminator 1
 905              		.loc 1 100 55 is_stmt 0 discriminator 1
 906 0338 17050000 		lla	a0,.LC1
 906      13050500 
 907 0340 97000000 		call	_Z11printStringPKc
 907      E7800000 
 908              	.LVL88:
  99:test/Threads_CPP_API_test.cpp ****         printString("C: i="); printInt(i); printString("\n");
 909              		.loc 1 99 5 is_stmt 1 discriminator 1
 910 0348 9B841400 		addiw	s1,s1,1
 911              	.LVL89:
 912 034c 93F4F40F 		andi	s1,s1,0xff
 913              	.LVL90:
 914              	.L49:
  99:test/Threads_CPP_API_test.cpp ****         printString("C: i="); printInt(i); printString("\n");
 915              		.loc 1 99 5 discriminator 2
  99:test/Threads_CPP_API_test.cpp ****         printString("C: i="); printInt(i); printString("\n");
 916              		.loc 1 99 14 discriminator 2
 917 0350 93075000 		li	a5,5
 918 0354 E3F097FC 		bleu	s1,a5,.L52
 101:test/Threads_CPP_API_test.cpp ****     }
 102:test/Threads_CPP_API_test.cpp **** 
 103:test/Threads_CPP_API_test.cpp ****     printString("A finished!\n");
 919              		.loc 1 103 5
 920              		.loc 1 103 16 is_stmt 0
 921 0358 17050000 		lla	a0,.LC2
 921      13050500 
 922 0360 97000000 		call	_Z11printStringPKc
 922      E7800000 
 923              	.LVL91:
 104:test/Threads_CPP_API_test.cpp ****     finishedC = true;
 924              		.loc 1 104 5 is_stmt 1
 925              		.loc 1 104 15 is_stmt 0
 926 0368 93071000 		li	a5,1
 927 036c 17070000 		sb	a5,_ZL9finishedC,a4
 927      2300F700 
 105:test/Threads_CPP_API_test.cpp ****     thread_dispatch();
 928              		.loc 1 105 5 is_stmt 1
 929              		.loc 1 105 20 is_stmt 0
 930 0374 97000000 		call	_Z15thread_dispatchv
 930      E7800000 
 931              	.LVL92:
GAS LISTING C:\msys64\tmp\ccwMNTRe.s 			page 21


 106:test/Threads_CPP_API_test.cpp **** }
 932              		.loc 1 106 1
 933 037c 83308101 		ld	ra,24(sp)
 934              		.cfi_restore 1
 935 0380 03340101 		ld	s0,16(sp)
 936              		.cfi_restore 8
 937              		.cfi_def_cfa 2, 32
 938 0384 83348100 		ld	s1,8(sp)
 939              		.cfi_restore 9
 940              	.LVL93:
 941 0388 03390100 		ld	s2,0(sp)
 942              		.cfi_restore 18
 943              	.LVL94:
 944 038c 13010102 		addi	sp,sp,32
 945              		.cfi_def_cfa_offset 0
 946 0390 67800000 		jr	ra
 947              		.cfi_endproc
 948              	.LFE21:
 950              		.section	.text._ZN7WorkerC3runEv,"axG",@progbits,_ZN7WorkerC3runEv,comdat
 951              		.align	2
 952              		.weak	_ZN7WorkerC3runEv
 954              	_ZN7WorkerC3runEv:
 955              	.LFB14:
  41:test/Threads_CPP_API_test.cpp ****         workerBodyC(nullptr);
 956              		.loc 1 41 10 is_stmt 1
 957              		.cfi_startproc
 958              	.LVL95:
 959 0000 130101FF 		addi	sp,sp,-16
 960              		.cfi_def_cfa_offset 16
 961 0004 23341100 		sd	ra,8(sp)
 962 0008 23308100 		sd	s0,0(sp)
 963              		.cfi_offset 1, -8
 964              		.cfi_offset 8, -16
 965 000c 13040101 		addi	s0,sp,16
 966              		.cfi_def_cfa 8, 0
  42:test/Threads_CPP_API_test.cpp ****     }
 967              		.loc 1 42 9
  42:test/Threads_CPP_API_test.cpp ****     }
 968              		.loc 1 42 20 is_stmt 0
 969 0010 93050000 		li	a1,0
 970 0014 97000000 		call	_ZN7WorkerC11workerBodyCEPv
 970      E7800000 
 971              	.LVL96:
  43:test/Threads_CPP_API_test.cpp **** };
 972              		.loc 1 43 5
 973 001c 83308100 		ld	ra,8(sp)
 974              		.cfi_restore 1
 975 0020 03340100 		ld	s0,0(sp)
 976              		.cfi_restore 8
 977              		.cfi_def_cfa 2, 16
 978 0024 13010101 		addi	sp,sp,16
 979              		.cfi_def_cfa_offset 0
 980 0028 67800000 		jr	ra
 981              		.cfi_endproc
 982              	.LFE14:
 984              		.section	.rodata.str1.8
 985 0065 000000   		.align	3
GAS LISTING C:\msys64\tmp\ccwMNTRe.s 			page 22


 986              	.LC9:
 987 0068 443A2069 		.string	"D: i="
 987      3D00
 988 006e 0000     		.align	3
 989              	.LC10:
 990 0070 443A2064 		.string	"D: dispatch\n"
 990      69737061 
 990      7463680A 
 990      00
 991 007d 000000   		.align	3
 992              	.LC11:
 993 0080 443A2066 		.string	"D: fibonaci="
 993      69626F6E 
 993      6163693D 
 993      00
 994 008d 000000   		.align	3
 995              	.LC12:
 996 0090 44206669 		.string	"D finished!\n"
 996      6E697368 
 996      6564210A 
 996      00
 997              		.text
 998              		.align	2
 999              		.globl	_ZN7WorkerD11workerBodyDEPv
 1001              	_ZN7WorkerD11workerBodyDEPv:
 1002              	.LFB22:
 107:test/Threads_CPP_API_test.cpp **** 
 108:test/Threads_CPP_API_test.cpp **** void WorkerD::workerBodyD(void* arg) {
 1003              		.loc 1 108 38 is_stmt 1
 1004              		.cfi_startproc
 1005              	.LVL97:
 1006 0394 130101FE 		addi	sp,sp,-32
 1007              		.cfi_def_cfa_offset 32
 1008 0398 233C1100 		sd	ra,24(sp)
 1009 039c 23388100 		sd	s0,16(sp)
 1010 03a0 23349100 		sd	s1,8(sp)
 1011 03a4 23302101 		sd	s2,0(sp)
 1012              		.cfi_offset 1, -8
 1013              		.cfi_offset 8, -16
 1014              		.cfi_offset 9, -24
 1015              		.cfi_offset 18, -32
 1016 03a8 13040102 		addi	s0,sp,32
 1017              		.cfi_def_cfa 8, 0
 109:test/Threads_CPP_API_test.cpp ****     uint8 i = 10;
 1018              		.loc 1 109 5
 1019              	.LVL98:
 1020              		.loc 1 109 11 is_stmt 0
 1021 03ac 9304A000 		li	s1,10
 1022 03b0 6F000004 		j	.L57
 1023              	.LVL99:
 1024              	.L61:
 110:test/Threads_CPP_API_test.cpp ****     for (; i < 13; i++) {
 111:test/Threads_CPP_API_test.cpp ****         printString("D: i="); printInt(i); printString("\n");
 1025              		.loc 1 111 9 is_stmt 1 discriminator 1
 1026              		.loc 1 111 20 is_stmt 0 discriminator 1
 1027 03b4 17050000 		lla	a0,.LC9
 1027      13050500 
GAS LISTING C:\msys64\tmp\ccwMNTRe.s 			page 23


 1028 03bc 97000000 		call	_Z11printStringPKc
 1028      E7800000 
 1029              	.LVL100:
 1030              		.loc 1 111 31 is_stmt 1 discriminator 1
 1031              		.loc 1 111 39 is_stmt 0 discriminator 1
 1032 03c4 13060000 		li	a2,0
 1033 03c8 9305A000 		li	a1,10
 1034 03cc 13850400 		mv	a0,s1
 1035 03d0 97000000 		call	_Z8printIntiii
 1035      E7800000 
 1036              	.LVL101:
 1037              		.loc 1 111 44 is_stmt 1 discriminator 1
 1038              		.loc 1 111 55 is_stmt 0 discriminator 1
 1039 03d8 17050000 		lla	a0,.LC1
 1039      13050500 
 1040 03e0 97000000 		call	_Z11printStringPKc
 1040      E7800000 
 1041              	.LVL102:
 110:test/Threads_CPP_API_test.cpp ****     for (; i < 13; i++) {
 1042              		.loc 1 110 5 is_stmt 1 discriminator 1
 1043 03e8 9B841400 		addiw	s1,s1,1
 1044              	.LVL103:
 1045 03ec 93F4F40F 		andi	s1,s1,0xff
 1046              	.LVL104:
 1047              	.L57:
 110:test/Threads_CPP_API_test.cpp ****     for (; i < 13; i++) {
 1048              		.loc 1 110 5 discriminator 2
 110:test/Threads_CPP_API_test.cpp ****     for (; i < 13; i++) {
 1049              		.loc 1 110 14 discriminator 2
 1050 03f0 9307C000 		li	a5,12
 1051 03f4 E3F097FC 		bleu	s1,a5,.L61
 112:test/Threads_CPP_API_test.cpp ****     }
 113:test/Threads_CPP_API_test.cpp **** 
 114:test/Threads_CPP_API_test.cpp ****     printString("D: dispatch\n");
 1052              		.loc 1 114 5
 1053              		.loc 1 114 16 is_stmt 0
 1054 03f8 17050000 		lla	a0,.LC10
 1054      13050500 
 1055 0400 97000000 		call	_Z11printStringPKc
 1055      E7800000 
 1056              	.LVL105:
 115:test/Threads_CPP_API_test.cpp ****     __asm__ ("li t1, 5");
 1057              		.loc 1 115 5 is_stmt 1
 1058              	 #APP
 1059              	# 115 "test/Threads_CPP_API_test.cpp" 1
 116              	    thread_dispatch();
 1060              		li t1, 5
 1061              	# 0 "" 2
 1062              		.loc 1 116 5
 1063              		.loc 1 116 20 is_stmt 0
 1064              	 #NO_APP
 1065 040c 97000000 		call	_Z15thread_dispatchv
 1065      E7800000 
 1066              	.LVL106:
 117:test/Threads_CPP_API_test.cpp **** 
 118:test/Threads_CPP_API_test.cpp ****     uint64 result = fibonacci(16);
 1067              		.loc 1 118 5 is_stmt 1
GAS LISTING C:\msys64\tmp\ccwMNTRe.s 			page 24


 1068              		.loc 1 118 30 is_stmt 0
 1069 0414 13050001 		li	a0,16
 1070 0418 97000000 		call	_ZL9fibonaccim
 1070      E7800000 
 1071              	.LVL107:
 1072 0420 13090500 		mv	s2,a0
 1073              	.LVL108:
 119:test/Threads_CPP_API_test.cpp ****     printString("D: fibonaci="); printInt(result); printString("\n");
 1074              		.loc 1 119 5 is_stmt 1
 1075              		.loc 1 119 16 is_stmt 0
 1076 0424 17050000 		lla	a0,.LC11
 1076      13050500 
 1077              	.LVL109:
 1078 042c 97000000 		call	_Z11printStringPKc
 1078      E7800000 
 1079              	.LVL110:
 1080              		.loc 1 119 34 is_stmt 1
 1081              		.loc 1 119 42 is_stmt 0
 1082 0434 13060000 		li	a2,0
 1083 0438 9305A000 		li	a1,10
 1084 043c 1B050900 		sext.w	a0,s2
 1085 0440 97000000 		call	_Z8printIntiii
 1085      E7800000 
 1086              	.LVL111:
 1087              		.loc 1 119 52 is_stmt 1
 1088              		.loc 1 119 63 is_stmt 0
 1089 0448 17050000 		lla	a0,.LC1
 1089      13050500 
 1090 0450 97000000 		call	_Z11printStringPKc
 1090      E7800000 
 1091              	.LVL112:
 1092 0458 6F000004 		j	.L59
 1093              	.L62:
 120:test/Threads_CPP_API_test.cpp **** 
 121:test/Threads_CPP_API_test.cpp ****     for (; i < 16; i++) {
 122:test/Threads_CPP_API_test.cpp ****         printString("D: i="); printInt(i); printString("\n");
 1094              		.loc 1 122 9 is_stmt 1 discriminator 1
 1095              		.loc 1 122 20 is_stmt 0 discriminator 1
 1096 045c 17050000 		lla	a0,.LC9
 1096      13050500 
 1097 0464 97000000 		call	_Z11printStringPKc
 1097      E7800000 
 1098              	.LVL113:
 1099              		.loc 1 122 31 is_stmt 1 discriminator 1
 1100              		.loc 1 122 39 is_stmt 0 discriminator 1
 1101 046c 13060000 		li	a2,0
 1102 0470 9305A000 		li	a1,10
 1103 0474 13850400 		mv	a0,s1
 1104 0478 97000000 		call	_Z8printIntiii
 1104      E7800000 
 1105              	.LVL114:
 1106              		.loc 1 122 44 is_stmt 1 discriminator 1
 1107              		.loc 1 122 55 is_stmt 0 discriminator 1
 1108 0480 17050000 		lla	a0,.LC1
 1108      13050500 
 1109 0488 97000000 		call	_Z11printStringPKc
 1109      E7800000 
GAS LISTING C:\msys64\tmp\ccwMNTRe.s 			page 25


 1110              	.LVL115:
 121:test/Threads_CPP_API_test.cpp ****         printString("D: i="); printInt(i); printString("\n");
 1111              		.loc 1 121 5 is_stmt 1 discriminator 1
 1112 0490 9B841400 		addiw	s1,s1,1
 1113              	.LVL116:
 1114 0494 93F4F40F 		andi	s1,s1,0xff
 1115              	.LVL117:
 1116              	.L59:
 121:test/Threads_CPP_API_test.cpp ****         printString("D: i="); printInt(i); printString("\n");
 1117              		.loc 1 121 5 discriminator 2
 121:test/Threads_CPP_API_test.cpp ****         printString("D: i="); printInt(i); printString("\n");
 1118              		.loc 1 121 14 discriminator 2
 1119 0498 9307F000 		li	a5,15
 1120 049c E3F097FC 		bleu	s1,a5,.L62
 123:test/Threads_CPP_API_test.cpp ****     }
 124:test/Threads_CPP_API_test.cpp **** 
 125:test/Threads_CPP_API_test.cpp ****     printString("D finished!\n");
 1121              		.loc 1 125 5
 1122              		.loc 1 125 16 is_stmt 0
 1123 04a0 17050000 		lla	a0,.LC12
 1123      13050500 
 1124 04a8 97000000 		call	_Z11printStringPKc
 1124      E7800000 
 1125              	.LVL118:
 126:test/Threads_CPP_API_test.cpp ****     finishedD = true;
 1126              		.loc 1 126 5 is_stmt 1
 1127              		.loc 1 126 15 is_stmt 0
 1128 04b0 93071000 		li	a5,1
 1129 04b4 17070000 		sb	a5,_ZL9finishedD,a4
 1129      2300F700 
 127:test/Threads_CPP_API_test.cpp ****     thread_dispatch();
 1130              		.loc 1 127 5 is_stmt 1
 1131              		.loc 1 127 20 is_stmt 0
 1132 04bc 97000000 		call	_Z15thread_dispatchv
 1132      E7800000 
 1133              	.LVL119:
 128:test/Threads_CPP_API_test.cpp **** }
 1134              		.loc 1 128 1
 1135 04c4 83308101 		ld	ra,24(sp)
 1136              		.cfi_restore 1
 1137 04c8 03340101 		ld	s0,16(sp)
 1138              		.cfi_restore 8
 1139              		.cfi_def_cfa 2, 32
 1140 04cc 83348100 		ld	s1,8(sp)
 1141              		.cfi_restore 9
 1142              	.LVL120:
 1143 04d0 03390100 		ld	s2,0(sp)
 1144              		.cfi_restore 18
 1145              	.LVL121:
 1146 04d4 13010102 		addi	sp,sp,32
 1147              		.cfi_def_cfa_offset 0
 1148 04d8 67800000 		jr	ra
 1149              		.cfi_endproc
 1150              	.LFE22:
 1152              		.section	.text._ZN7WorkerD3runEv,"axG",@progbits,_ZN7WorkerD3runEv,comdat
 1153              		.align	2
 1154              		.weak	_ZN7WorkerD3runEv
GAS LISTING C:\msys64\tmp\ccwMNTRe.s 			page 26


 1156              	_ZN7WorkerD3runEv:
 1157              	.LFB18:
  51:test/Threads_CPP_API_test.cpp ****         workerBodyD(nullptr);
 1158              		.loc 1 51 10 is_stmt 1
 1159              		.cfi_startproc
 1160              	.LVL122:
 1161 0000 130101FF 		addi	sp,sp,-16
 1162              		.cfi_def_cfa_offset 16
 1163 0004 23341100 		sd	ra,8(sp)
 1164 0008 23308100 		sd	s0,0(sp)
 1165              		.cfi_offset 1, -8
 1166              		.cfi_offset 8, -16
 1167 000c 13040101 		addi	s0,sp,16
 1168              		.cfi_def_cfa 8, 0
  52:test/Threads_CPP_API_test.cpp ****     }
 1169              		.loc 1 52 9
  52:test/Threads_CPP_API_test.cpp ****     }
 1170              		.loc 1 52 20 is_stmt 0
 1171 0010 93050000 		li	a1,0
 1172 0014 97000000 		call	_ZN7WorkerD11workerBodyDEPv
 1172      E7800000 
 1173              	.LVL123:
  53:test/Threads_CPP_API_test.cpp **** };
 1174              		.loc 1 53 5
 1175 001c 83308100 		ld	ra,8(sp)
 1176              		.cfi_restore 1
 1177 0020 03340100 		ld	s0,0(sp)
 1178              		.cfi_restore 8
 1179              		.cfi_def_cfa 2, 16
 1180 0024 13010101 		addi	sp,sp,16
 1181              		.cfi_def_cfa_offset 0
 1182 0028 67800000 		jr	ra
 1183              		.cfi_endproc
 1184              	.LFE18:
 1186              		.section	.rodata.str1.8
 1187 009d 000000   		.align	3
 1188              	.LC13:
 1189 00a0 54687265 		.string	"ThreadA created\n"
 1189      61644120 
 1189      63726561 
 1189      7465640A 
 1189      00
 1190 00b1 00000000 		.align	3
 1190      000000
 1191              	.LC14:
 1192 00b8 54687265 		.string	"ThreadB created\n"
 1192      61644220 
 1192      63726561 
 1192      7465640A 
 1192      00
 1193 00c9 00000000 		.align	3
 1193      000000
 1194              	.LC15:
 1195 00d0 54687265 		.string	"ThreadC created\n"
 1195      61644320 
 1195      63726561 
 1195      7465640A 
GAS LISTING C:\msys64\tmp\ccwMNTRe.s 			page 27


 1195      00
 1196 00e1 00000000 		.align	3
 1196      000000
 1197              	.LC16:
 1198 00e8 54687265 		.string	"ThreadD created\n"
 1198      61644420 
 1198      63726561 
 1198      7465640A 
 1198      00
 1199              		.text
 1200              		.align	2
 1201              		.globl	_Z20Threads_CPP_API_testv
 1203              	_Z20Threads_CPP_API_testv:
 1204              	.LFB23:
 129:test/Threads_CPP_API_test.cpp **** 
 130:test/Threads_CPP_API_test.cpp **** 
 131:test/Threads_CPP_API_test.cpp **** void Threads_CPP_API_test() {
 1205              		.loc 1 131 29 is_stmt 1
 1206              		.cfi_startproc
 1207              		.cfi_personality 0x9b,DW.ref.__gxx_personality_v0
 1208              		.cfi_lsda 0x1b,.LLSDA23
 1209 04dc 130101FC 		addi	sp,sp,-64
 1210              		.cfi_def_cfa_offset 64
 1211 04e0 233C1102 		sd	ra,56(sp)
 1212 04e4 23388102 		sd	s0,48(sp)
 1213 04e8 23349102 		sd	s1,40(sp)
 1214 04ec 23302103 		sd	s2,32(sp)
 1215              		.cfi_offset 1, -8
 1216              		.cfi_offset 8, -16
 1217              		.cfi_offset 9, -24
 1218              		.cfi_offset 18, -32
 1219 04f0 13040104 		addi	s0,sp,64
 1220              		.cfi_def_cfa 8, 0
 132:test/Threads_CPP_API_test.cpp ****     Thread* threads[4];
 1221              		.loc 1 132 5
 133:test/Threads_CPP_API_test.cpp **** 
 134:test/Threads_CPP_API_test.cpp ****     threads[0] = new WorkerA();
 1222              		.loc 1 134 5
 1223              		.loc 1 134 30 is_stmt 0
 1224 04f4 13050002 		li	a0,32
 1225              	.LEHB0:
 1226 04f8 97000000 		call	_Znwm
 1226      E7800000 
 1227              	.LVL124:
 1228              	.LEHE0:
 1229 0500 93040500 		mv	s1,a0
 1230              	.LVL125:
 1231              	.LEHB1:
 1232              	.LBB58:
 1233              	.LBB59:
  19:test/Threads_CPP_API_test.cpp **** 
 1234              		.loc 1 19 22
 1235 0504 97000000 		call	_ZN6ThreadC2Ev
 1235      E7800000 
 1236              	.LVL126:
 1237              	.LEHE1:
 1238 050c 97070000 		lla	a5,_ZTV7WorkerA+16
GAS LISTING C:\msys64\tmp\ccwMNTRe.s 			page 28


 1238      93870700 
 1239 0514 23B0F400 		sd	a5,0(s1)
 1240              	.LVL127:
 1241              	.LBE59:
 1242              	.LBE58:
 1243              		.loc 1 134 16
 1244 0518 233094FC 		sd	s1,-64(s0)
 135:test/Threads_CPP_API_test.cpp ****     printString("ThreadA created\n");
 1245              		.loc 1 135 5 is_stmt 1
 1246              		.loc 1 135 16 is_stmt 0
 1247 051c 17050000 		lla	a0,.LC13
 1247      13050500 
 1248              	.LEHB2:
 1249 0524 97000000 		call	_Z11printStringPKc
 1249      E7800000 
 1250              	.LVL128:
 136:test/Threads_CPP_API_test.cpp **** 
 137:test/Threads_CPP_API_test.cpp ****     threads[1] = new WorkerB();
 1251              		.loc 1 137 5 is_stmt 1
 1252              		.loc 1 137 30 is_stmt 0
 1253 052c 13050002 		li	a0,32
 1254 0530 97000000 		call	_Znwm
 1254      E7800000 
 1255              	.LVL129:
 1256              	.LEHE2:
 1257 0538 93040500 		mv	s1,a0
 1258              	.LVL130:
 1259              	.LEHB3:
 1260              	.LBB60:
 1261              	.LBB61:
  29:test/Threads_CPP_API_test.cpp **** 
 1262              		.loc 1 29 22
 1263 053c 97000000 		call	_ZN6ThreadC2Ev
 1263      E7800000 
 1264              	.LVL131:
 1265              	.LEHE3:
 1266 0544 97070000 		lla	a5,_ZTV7WorkerB+16
 1266      93870700 
 1267 054c 23B0F400 		sd	a5,0(s1)
 1268              	.LVL132:
 1269              	.LBE61:
 1270              	.LBE60:
 1271              		.loc 1 137 16
 1272 0550 233494FC 		sd	s1,-56(s0)
 138:test/Threads_CPP_API_test.cpp ****     printString("ThreadB created\n");
 1273              		.loc 1 138 5 is_stmt 1
 1274              		.loc 1 138 16 is_stmt 0
 1275 0554 17050000 		lla	a0,.LC14
 1275      13050500 
 1276              	.LEHB4:
 1277 055c 97000000 		call	_Z11printStringPKc
 1277      E7800000 
 1278              	.LVL133:
 139:test/Threads_CPP_API_test.cpp **** 
 140:test/Threads_CPP_API_test.cpp ****     threads[2] = new WorkerC();
 1279              		.loc 1 140 5 is_stmt 1
 1280              		.loc 1 140 30 is_stmt 0
GAS LISTING C:\msys64\tmp\ccwMNTRe.s 			page 29


 1281 0564 13050002 		li	a0,32
 1282 0568 97000000 		call	_Znwm
 1282      E7800000 
 1283              	.LVL134:
 1284              	.LEHE4:
 1285 0570 93040500 		mv	s1,a0
 1286              	.LVL135:
 1287              	.LEHB5:
 1288              	.LBB62:
 1289              	.LBB63:
  39:test/Threads_CPP_API_test.cpp **** 
 1290              		.loc 1 39 22
 1291 0574 97000000 		call	_ZN6ThreadC2Ev
 1291      E7800000 
 1292              	.LVL136:
 1293              	.LEHE5:
 1294 057c 97070000 		lla	a5,_ZTV7WorkerC+16
 1294      93870700 
 1295 0584 23B0F400 		sd	a5,0(s1)
 1296              	.LVL137:
 1297              	.LBE63:
 1298              	.LBE62:
 1299              		.loc 1 140 16
 1300 0588 233894FC 		sd	s1,-48(s0)
 141:test/Threads_CPP_API_test.cpp ****     printString("ThreadC created\n");
 1301              		.loc 1 141 5 is_stmt 1
 1302              		.loc 1 141 16 is_stmt 0
 1303 058c 17050000 		lla	a0,.LC15
 1303      13050500 
 1304              	.LEHB6:
 1305 0594 97000000 		call	_Z11printStringPKc
 1305      E7800000 
 1306              	.LVL138:
 142:test/Threads_CPP_API_test.cpp **** 
 143:test/Threads_CPP_API_test.cpp ****     threads[3] = new WorkerD();
 1307              		.loc 1 143 5 is_stmt 1
 1308              		.loc 1 143 30 is_stmt 0
 1309 059c 13050002 		li	a0,32
 1310 05a0 97000000 		call	_Znwm
 1310      E7800000 
 1311              	.LVL139:
 1312              	.LEHE6:
 1313 05a8 93040500 		mv	s1,a0
 1314              	.LVL140:
 1315              	.LEHB7:
 1316              	.LBB64:
 1317              	.LBB65:
  49:test/Threads_CPP_API_test.cpp **** 
 1318              		.loc 1 49 22
 1319 05ac 97000000 		call	_ZN6ThreadC2Ev
 1319      E7800000 
 1320              	.LVL141:
 1321              	.LEHE7:
 1322 05b4 97070000 		lla	a5,_ZTV7WorkerD+16
 1322      93870700 
 1323 05bc 23B0F400 		sd	a5,0(s1)
 1324              	.LVL142:
GAS LISTING C:\msys64\tmp\ccwMNTRe.s 			page 30


 1325              	.LBE65:
 1326              	.LBE64:
 1327              		.loc 1 143 16
 1328 05c0 233C94FC 		sd	s1,-40(s0)
 144:test/Threads_CPP_API_test.cpp ****     printString("ThreadD created\n");
 1329              		.loc 1 144 5 is_stmt 1
 1330              		.loc 1 144 16 is_stmt 0
 1331 05c4 17050000 		lla	a0,.LC16
 1331      13050500 
 1332              	.LEHB8:
 1333 05cc 97000000 		call	_Z11printStringPKc
 1333      E7800000 
 1334              	.LVL143:
 1335              	.LBB66:
 145:test/Threads_CPP_API_test.cpp **** 
 146:test/Threads_CPP_API_test.cpp ****     for(int i=0; i<4; i++) {
 1336              		.loc 1 146 13
 1337 05d4 93040000 		li	s1,0
 1338              	.L67:
 1339              	.LVL144:
 1340              		.loc 1 146 19 is_stmt 1 discriminator 1
 1341 05d8 93073000 		li	a5,3
 1342 05dc 63C69702 		bgt	s1,a5,.L66
 147:test/Threads_CPP_API_test.cpp ****         threads[i]->start();
 1343              		.loc 1 147 9
 1344              		.loc 1 147 18 is_stmt 0
 1345 05e0 93973400 		slli	a5,s1,3
 1346 05e4 130704FE 		addi	a4,s0,-32
 1347 05e8 B307F700 		add	a5,a4,a5
 1348              		.loc 1 147 26
 1349 05ec 03B507FE 		ld	a0,-32(a5)
 1350 05f0 97000000 		call	_ZN6Thread5startEv
 1350      E7800000 
 1351              	.LVL145:
 146:test/Threads_CPP_API_test.cpp ****         threads[i]->start();
 1352              		.loc 1 146 5 is_stmt 1
 1353 05f8 9B841400 		addiw	s1,s1,1
 1354              	.LVL146:
 1355 05fc 6FF0DFFD 		j	.L67
 1356              	.LVL147:
 1357              	.L68:
 1358              	.LBE66:
 148:test/Threads_CPP_API_test.cpp ****     }
 149:test/Threads_CPP_API_test.cpp **** 
 150:test/Threads_CPP_API_test.cpp ****     while (!(finishedA && finishedB && finishedC && finishedD)) {
 151:test/Threads_CPP_API_test.cpp ****         Thread::dispatch();
 1359              		.loc 1 151 9
 1360              		.loc 1 151 25 is_stmt 0
 1361 0600 97000000 		call	_ZN6Thread8dispatchEv
 1361      E7800000 
 1362              	.LVL148:
 1363              	.LEHE8:
 1364              	.L66:
 150:test/Threads_CPP_API_test.cpp ****         Thread::dispatch();
 1365              		.loc 1 150 5 is_stmt 1
 150:test/Threads_CPP_API_test.cpp ****         Thread::dispatch();
 1366              		.loc 1 150 12
GAS LISTING C:\msys64\tmp\ccwMNTRe.s 			page 31


 150:test/Threads_CPP_API_test.cpp ****         Thread::dispatch();
 1367              		.loc 1 150 14 is_stmt 0
 1368 0608 97070000 		lbu	a5,_ZL9finishedA
 1368      83C70700 
 150:test/Threads_CPP_API_test.cpp ****         Thread::dispatch();
 1369              		.loc 1 150 12
 1370 0610 E38807FE 		beq	a5,zero,.L68
 150:test/Threads_CPP_API_test.cpp ****         Thread::dispatch();
 1371              		.loc 1 150 27 discriminator 2
 1372 0614 97070000 		lbu	a5,_ZL9finishedB
 1372      83C70700 
 150:test/Threads_CPP_API_test.cpp ****         Thread::dispatch();
 1373              		.loc 1 150 24 discriminator 2
 1374 061c E38207FE 		beq	a5,zero,.L68
 150:test/Threads_CPP_API_test.cpp ****         Thread::dispatch();
 1375              		.loc 1 150 40 discriminator 4
 1376 0620 97070000 		lbu	a5,_ZL9finishedC
 1376      83C70700 
 150:test/Threads_CPP_API_test.cpp ****         Thread::dispatch();
 1377              		.loc 1 150 37 discriminator 4
 1378 0628 E38C07FC 		beq	a5,zero,.L68
 150:test/Threads_CPP_API_test.cpp ****         Thread::dispatch();
 1379              		.loc 1 150 53 discriminator 6
 1380 062c 97070000 		lbu	a5,_ZL9finishedD
 1380      83C70700 
 150:test/Threads_CPP_API_test.cpp ****         Thread::dispatch();
 1381              		.loc 1 150 12 discriminator 6
 1382 0634 E38607FC 		beq	a5,zero,.L68
 1383 0638 930404FC 		addi	s1,s0,-64
 1384              	.LVL149:
 1385 063c 6F008000 		j	.L69
 1386              	.LVL150:
 1387              	.L71:
 1388              	.LBB67:
 152:test/Threads_CPP_API_test.cpp ****     }
 153:test/Threads_CPP_API_test.cpp **** 
 154:test/Threads_CPP_API_test.cpp ****     for (auto thread: threads) { delete thread; }
 1389              		.loc 1 154 5 is_stmt 1 discriminator 5
 1390 0640 93848400 		addi	s1,s1,8
 1391              	.LVL151:
 1392              	.L69:
 1393              		.loc 1 154 23 discriminator 6
 1394 0644 930704FE 		addi	a5,s0,-32
 1395 0648 6386F408 		beq	s1,a5,.L65
 1396              		.loc 1 154 15 is_stmt 0 discriminator 2
 1397 064c 03B50400 		ld	a0,0(s1)
 1398              	.LVL152:
 1399              		.loc 1 154 34 is_stmt 1 discriminator 2
 1400 0650 E30805FE 		beq	a0,zero,.L71
 1401              		.loc 1 154 41 is_stmt 0 discriminator 3
 1402 0654 83370500 		ld	a5,0(a0)
 1403 0658 83B78700 		ld	a5,8(a5)
 1404 065c E7800700 		jalr	a5
 1405              	.LVL153:
 1406 0660 6FF01FFE 		j	.L71
 1407              	.LVL154:
 1408              	.L77:
GAS LISTING C:\msys64\tmp\ccwMNTRe.s 			page 32


 1409              	.LBE67:
 134:test/Threads_CPP_API_test.cpp ****     printString("ThreadA created\n");
 1410              		.loc 1 134 30
 1411 0664 13090500 		mv	s2,a0
 1412 0668 13850400 		mv	a0,s1
 1413 066c 97000000 		call	_ZdlPv
 1413      E7800000 
 1414              	.LVL155:
 1415 0674 13050900 		mv	a0,s2
 1416              	.LEHB9:
 1417 0678 97000000 		call	_Unwind_Resume
 1417      E7800000 
 1418              	.LVL156:
 1419              	.LEHE9:
 1420              	.L78:
 137:test/Threads_CPP_API_test.cpp ****     printString("ThreadB created\n");
 1421              		.loc 1 137 30
 1422 0680 13090500 		mv	s2,a0
 1423 0684 13850400 		mv	a0,s1
 1424 0688 97000000 		call	_ZdlPv
 1424      E7800000 
 1425              	.LVL157:
 1426 0690 13050900 		mv	a0,s2
 1427              	.LEHB10:
 1428 0694 97000000 		call	_Unwind_Resume
 1428      E7800000 
 1429              	.LVL158:
 1430              	.LEHE10:
 1431              	.L79:
 140:test/Threads_CPP_API_test.cpp ****     printString("ThreadC created\n");
 1432              		.loc 1 140 30
 1433 069c 13090500 		mv	s2,a0
 1434 06a0 13850400 		mv	a0,s1
 1435 06a4 97000000 		call	_ZdlPv
 1435      E7800000 
 1436              	.LVL159:
 1437 06ac 13050900 		mv	a0,s2
 1438              	.LEHB11:
 1439 06b0 97000000 		call	_Unwind_Resume
 1439      E7800000 
 1440              	.LVL160:
 1441              	.LEHE11:
 1442              	.L80:
 143:test/Threads_CPP_API_test.cpp ****     printString("ThreadD created\n");
 1443              		.loc 1 143 30
 1444 06b8 13090500 		mv	s2,a0
 1445 06bc 13850400 		mv	a0,s1
 1446 06c0 97000000 		call	_ZdlPv
 1446      E7800000 
 1447              	.LVL161:
 1448 06c8 13050900 		mv	a0,s2
 1449              	.LEHB12:
 1450 06cc 97000000 		call	_Unwind_Resume
 1450      E7800000 
 1451              	.LVL162:
 1452              	.LEHE12:
 1453              	.L65:
GAS LISTING C:\msys64\tmp\ccwMNTRe.s 			page 33


 155:test/Threads_CPP_API_test.cpp **** }
 1454              		.loc 1 155 1
 1455 06d4 83308103 		ld	ra,56(sp)
 1456              		.cfi_restore 1
 1457 06d8 03340103 		ld	s0,48(sp)
 1458              		.cfi_restore 8
 1459              		.cfi_def_cfa 2, 64
 1460 06dc 83348102 		ld	s1,40(sp)
 1461              		.cfi_restore 9
 1462              	.LVL163:
 1463 06e0 03390102 		ld	s2,32(sp)
 1464              		.cfi_restore 18
 1465 06e4 13010104 		addi	sp,sp,64
 1466              		.cfi_def_cfa_offset 0
 1467 06e8 67800000 		jr	ra
 1468              		.cfi_endproc
 1469              	.LFE23:
 1470              		.globl	__gxx_personality_v0
 1471              		.section	.gcc_except_table,"aw",@progbits
 1472              	.LLSDA23:
 1473 0000 FF       		.byte	0xff
 1474 0001 FF       		.byte	0xff
 1475 0002 03       		.byte	0x3
 1476 0003 A901     		.byte	0xa9,0x1
 1477 0005 00000000 		.4byte	.LEHB0-.LFB23
 1478 0009 00000000 		.4byte	.LEHE0-.LEHB0
 1479 000d 00000000 		.4byte	0
 1480 0011 00       		.byte	0
 1481 0012 00000000 		.4byte	.LEHB1-.LFB23
 1482 0016 00000000 		.4byte	.LEHE1-.LEHB1
 1483 001a 00000000 		.4byte	.L77-.LFB23
 1484 001e 00       		.byte	0
 1485 001f 00000000 		.4byte	.LEHB2-.LFB23
 1486 0023 00000000 		.4byte	.LEHE2-.LEHB2
 1487 0027 00000000 		.4byte	0
 1488 002b 00       		.byte	0
 1489 002c 00000000 		.4byte	.LEHB3-.LFB23
 1490 0030 00000000 		.4byte	.LEHE3-.LEHB3
 1491 0034 00000000 		.4byte	.L78-.LFB23
 1492 0038 00       		.byte	0
 1493 0039 00000000 		.4byte	.LEHB4-.LFB23
 1494 003d 00000000 		.4byte	.LEHE4-.LEHB4
 1495 0041 00000000 		.4byte	0
 1496 0045 00       		.byte	0
 1497 0046 00000000 		.4byte	.LEHB5-.LFB23
 1498 004a 00000000 		.4byte	.LEHE5-.LEHB5
 1499 004e 00000000 		.4byte	.L79-.LFB23
 1500 0052 00       		.byte	0
 1501 0053 00000000 		.4byte	.LEHB6-.LFB23
 1502 0057 00000000 		.4byte	.LEHE6-.LEHB6
 1503 005b 00000000 		.4byte	0
 1504 005f 00       		.byte	0
 1505 0060 00000000 		.4byte	.LEHB7-.LFB23
 1506 0064 00000000 		.4byte	.LEHE7-.LEHB7
 1507 0068 00000000 		.4byte	.L80-.LFB23
 1508 006c 00       		.byte	0
 1509 006d 00000000 		.4byte	.LEHB8-.LFB23
GAS LISTING C:\msys64\tmp\ccwMNTRe.s 			page 34


 1510 0071 00000000 		.4byte	.LEHE8-.LEHB8
 1511 0075 00000000 		.4byte	0
 1512 0079 00       		.byte	0
 1513 007a 00000000 		.4byte	.LEHB9-.LFB23
 1514 007e 00000000 		.4byte	.LEHE9-.LEHB9
 1515 0082 00000000 		.4byte	0
 1516 0086 00       		.byte	0
 1517 0087 00000000 		.4byte	.LEHB10-.LFB23
 1518 008b 00000000 		.4byte	.LEHE10-.LEHB10
 1519 008f 00000000 		.4byte	0
 1520 0093 00       		.byte	0
 1521 0094 00000000 		.4byte	.LEHB11-.LFB23
 1522 0098 00000000 		.4byte	.LEHE11-.LEHB11
 1523 009c 00000000 		.4byte	0
 1524 00a0 00       		.byte	0
 1525 00a1 00000000 		.4byte	.LEHB12-.LFB23
 1526 00a5 00000000 		.4byte	.LEHE12-.LEHB12
 1527 00a9 00000000 		.4byte	0
 1528 00ad 00       		.byte	0
 1529              		.text
 1531              		.weak	_ZTV7WorkerA
 1532              		.section	.rodata._ZTV7WorkerA,"aG",@progbits,_ZTV7WorkerA,comdat
 1533              		.align	3
 1536              	_ZTV7WorkerA:
 1537 0000 00000000 		.dword	0
 1537      00000000 
 1538 0008 00000000 		.dword	0
 1538      00000000 
 1539 0010 00000000 		.dword	_ZN7WorkerAD1Ev
 1539      00000000 
 1540 0018 00000000 		.dword	_ZN7WorkerAD0Ev
 1540      00000000 
 1541 0020 00000000 		.dword	_ZN7WorkerA3runEv
 1541      00000000 
 1542              		.weak	_ZTV7WorkerB
 1543              		.section	.rodata._ZTV7WorkerB,"aG",@progbits,_ZTV7WorkerB,comdat
 1544              		.align	3
 1547              	_ZTV7WorkerB:
 1548 0000 00000000 		.dword	0
 1548      00000000 
 1549 0008 00000000 		.dword	0
 1549      00000000 
 1550 0010 00000000 		.dword	_ZN7WorkerBD1Ev
 1550      00000000 
 1551 0018 00000000 		.dword	_ZN7WorkerBD0Ev
 1551      00000000 
 1552 0020 00000000 		.dword	_ZN7WorkerB3runEv
 1552      00000000 
 1553              		.weak	_ZTV7WorkerC
 1554              		.section	.rodata._ZTV7WorkerC,"aG",@progbits,_ZTV7WorkerC,comdat
 1555              		.align	3
 1558              	_ZTV7WorkerC:
 1559 0000 00000000 		.dword	0
 1559      00000000 
 1560 0008 00000000 		.dword	0
 1560      00000000 
 1561 0010 00000000 		.dword	_ZN7WorkerCD1Ev
GAS LISTING C:\msys64\tmp\ccwMNTRe.s 			page 35


 1561      00000000 
 1562 0018 00000000 		.dword	_ZN7WorkerCD0Ev
 1562      00000000 
 1563 0020 00000000 		.dword	_ZN7WorkerC3runEv
 1563      00000000 
 1564              		.weak	_ZTV7WorkerD
 1565              		.section	.rodata._ZTV7WorkerD,"aG",@progbits,_ZTV7WorkerD,comdat
 1566              		.align	3
 1569              	_ZTV7WorkerD:
 1570 0000 00000000 		.dword	0
 1570      00000000 
 1571 0008 00000000 		.dword	0
 1571      00000000 
 1572 0010 00000000 		.dword	_ZN7WorkerDD1Ev
 1572      00000000 
 1573 0018 00000000 		.dword	_ZN7WorkerDD0Ev
 1573      00000000 
 1574 0020 00000000 		.dword	_ZN7WorkerD3runEv
 1574      00000000 
 1575              		.section	.sbss,"aw",@nobits
 1578              	_ZL9finishedD:
 1579 0000 00       		.zero	1
 1582              	_ZL9finishedC:
 1583 0001 00       		.zero	1
 1586              	_ZL9finishedB:
 1587 0002 00       		.zero	1
 1590              	_ZL9finishedA:
 1591 0003 00       		.zero	1
 1592              		.text
 1593              	.Letext0:
 1594              		.file 2 "test/../h/../lib/hw.h"
 1595              		.file 3 "test/../h/syscall_cpp.hpp"
 1596              		.file 4 "test/../h/syscall_c.h"
 1597              		.file 5 "test/printing.hpp"
 5379              		.align	3
 5382              	DW.ref.__gxx_personality_v0:
 5383 0000 00000000 		.dword	__gxx_personality_v0
 5383      00000000 
 5384              		.ident	"GCC: (GNU) 10.1.0"
GAS LISTING C:\msys64\tmp\ccwMNTRe.s 			page 36


DEFINED SYMBOLS
                            *ABS*:0000000000000000 Threads_CPP_API_test.cpp
C:\msys64\tmp\ccwMNTRe.s:11     .text:0000000000000000 _ZL9fibonaccim
C:\msys64\tmp\ccwMNTRe.s:15     .text:0000000000000000 .L0 
C:\msys64\tmp\ccwMNTRe.s:17     .text:0000000000000000 .L0 
C:\msys64\tmp\ccwMNTRe.s:18     .text:0000000000000004 .L0 
C:\msys64\tmp\ccwMNTRe.s:23     .text:0000000000000014 .L0 
C:\msys64\tmp\ccwMNTRe.s:24     .text:0000000000000014 .L0 
C:\msys64\tmp\ccwMNTRe.s:25     .text:0000000000000014 .L0 
C:\msys64\tmp\ccwMNTRe.s:26     .text:0000000000000014 .L0 
C:\msys64\tmp\ccwMNTRe.s:28     .text:0000000000000018 .L0 
C:\msys64\tmp\ccwMNTRe.s:31     .text:000000000000001c .L0 
C:\msys64\tmp\ccwMNTRe.s:34     .text:0000000000000024 .L0 
C:\msys64\tmp\ccwMNTRe.s:35     .text:0000000000000024 .L0 
C:\msys64\tmp\ccwMNTRe.s:38     .text:000000000000002c .L0 
C:\msys64\tmp\ccwMNTRe.s:42     .text:0000000000000030 .L0 
C:\msys64\tmp\ccwMNTRe.s:43     .text:0000000000000030 .L0 
C:\msys64\tmp\ccwMNTRe.s:48     .text:0000000000000040 .L0 
C:\msys64\tmp\ccwMNTRe.s:52     .text:000000000000004c .L0 
C:\msys64\tmp\ccwMNTRe.s:55     .text:0000000000000050 .L0 
C:\msys64\tmp\ccwMNTRe.s:56     .text:0000000000000054 .L0 
C:\msys64\tmp\ccwMNTRe.s:57     .text:0000000000000054 .L0 
C:\msys64\tmp\ccwMNTRe.s:59     .text:0000000000000058 .L0 
C:\msys64\tmp\ccwMNTRe.s:60     .text:0000000000000058 .L0 
C:\msys64\tmp\ccwMNTRe.s:62     .text:000000000000005c .L0 
C:\msys64\tmp\ccwMNTRe.s:65     .text:0000000000000060 .L0 
C:\msys64\tmp\ccwMNTRe.s:67     .text:0000000000000064 .L0 
C:\msys64\tmp\ccwMNTRe.s:71     .text:0000000000000068 .L0 
C:\msys64\tmp\ccwMNTRe.s:73     .text:0000000000000068 .L0 
C:\msys64\tmp\ccwMNTRe.s:74     .text:0000000000000068 .L0 
C:\msys64\tmp\ccwMNTRe.s:77     .text:0000000000000074 .L0 
C:\msys64\tmp\ccwMNTRe.s:84     .text._ZN7WorkerAD2Ev:0000000000000000 _ZN7WorkerAD2Ev
C:\msys64\tmp\ccwMNTRe.s:87     .text._ZN7WorkerAD2Ev:0000000000000000 .L0 
C:\msys64\tmp\ccwMNTRe.s:89     .text._ZN7WorkerAD2Ev:0000000000000000 .L0 
C:\msys64\tmp\ccwMNTRe.s:90     .text._ZN7WorkerAD2Ev:0000000000000004 .L0 
C:\msys64\tmp\ccwMNTRe.s:93     .text._ZN7WorkerAD2Ev:000000000000000c .L0 
C:\msys64\tmp\ccwMNTRe.s:94     .text._ZN7WorkerAD2Ev:000000000000000c .L0 
C:\msys64\tmp\ccwMNTRe.s:96     .text._ZN7WorkerAD2Ev:0000000000000010 .L0 
C:\msys64\tmp\ccwMNTRe.s:1536   .rodata._ZTV7WorkerA:0000000000000000 _ZTV7WorkerA
C:\msys64\tmp\ccwMNTRe.s:99     .text._ZN7WorkerAD2Ev:0000000000000010 .L0 
C:\msys64\tmp\ccwMNTRe.s:105    .text._ZN7WorkerAD2Ev:0000000000000028 .L0 
C:\msys64\tmp\ccwMNTRe.s:107    .text._ZN7WorkerAD2Ev:000000000000002c .L0 
C:\msys64\tmp\ccwMNTRe.s:108    .text._ZN7WorkerAD2Ev:000000000000002c .L0 
C:\msys64\tmp\ccwMNTRe.s:110    .text._ZN7WorkerAD2Ev:0000000000000030 .L0 
C:\msys64\tmp\ccwMNTRe.s:112    .text._ZN7WorkerAD2Ev:0000000000000034 .L0 
C:\msys64\tmp\ccwMNTRe.s:84     .text._ZN7WorkerAD2Ev:0000000000000000 _ZN7WorkerAD1Ev
C:\msys64\tmp\ccwMNTRe.s:121    .text._ZN7WorkerAD0Ev:0000000000000000 _ZN7WorkerAD0Ev
C:\msys64\tmp\ccwMNTRe.s:124    .text._ZN7WorkerAD0Ev:0000000000000000 .L0 
C:\msys64\tmp\ccwMNTRe.s:126    .text._ZN7WorkerAD0Ev:0000000000000000 .L0 
C:\msys64\tmp\ccwMNTRe.s:127    .text._ZN7WorkerAD0Ev:0000000000000004 .L0 
C:\msys64\tmp\ccwMNTRe.s:131    .text._ZN7WorkerAD0Ev:0000000000000010 .L0 
C:\msys64\tmp\ccwMNTRe.s:132    .text._ZN7WorkerAD0Ev:0000000000000010 .L0 
C:\msys64\tmp\ccwMNTRe.s:133    .text._ZN7WorkerAD0Ev:0000000000000010 .L0 
C:\msys64\tmp\ccwMNTRe.s:135    .text._ZN7WorkerAD0Ev:0000000000000014 .L0 
C:\msys64\tmp\ccwMNTRe.s:141    .text._ZN7WorkerAD0Ev:0000000000000018 .L0 
C:\msys64\tmp\ccwMNTRe.s:151    .text._ZN7WorkerAD0Ev:000000000000003c .L0 
C:\msys64\tmp\ccwMNTRe.s:153    .text._ZN7WorkerAD0Ev:0000000000000040 .L0 
GAS LISTING C:\msys64\tmp\ccwMNTRe.s 			page 37


C:\msys64\tmp\ccwMNTRe.s:154    .text._ZN7WorkerAD0Ev:0000000000000040 .L0 
C:\msys64\tmp\ccwMNTRe.s:156    .text._ZN7WorkerAD0Ev:0000000000000044 .L0 
C:\msys64\tmp\ccwMNTRe.s:159    .text._ZN7WorkerAD0Ev:0000000000000048 .L0 
C:\msys64\tmp\ccwMNTRe.s:161    .text._ZN7WorkerAD0Ev:000000000000004c .L0 
C:\msys64\tmp\ccwMNTRe.s:168    .text._ZN7WorkerBD2Ev:0000000000000000 _ZN7WorkerBD2Ev
C:\msys64\tmp\ccwMNTRe.s:171    .text._ZN7WorkerBD2Ev:0000000000000000 .L0 
C:\msys64\tmp\ccwMNTRe.s:173    .text._ZN7WorkerBD2Ev:0000000000000000 .L0 
C:\msys64\tmp\ccwMNTRe.s:174    .text._ZN7WorkerBD2Ev:0000000000000004 .L0 
C:\msys64\tmp\ccwMNTRe.s:177    .text._ZN7WorkerBD2Ev:000000000000000c .L0 
C:\msys64\tmp\ccwMNTRe.s:178    .text._ZN7WorkerBD2Ev:000000000000000c .L0 
C:\msys64\tmp\ccwMNTRe.s:180    .text._ZN7WorkerBD2Ev:0000000000000010 .L0 
C:\msys64\tmp\ccwMNTRe.s:1547   .rodata._ZTV7WorkerB:0000000000000000 _ZTV7WorkerB
C:\msys64\tmp\ccwMNTRe.s:183    .text._ZN7WorkerBD2Ev:0000000000000010 .L0 
C:\msys64\tmp\ccwMNTRe.s:189    .text._ZN7WorkerBD2Ev:0000000000000028 .L0 
C:\msys64\tmp\ccwMNTRe.s:191    .text._ZN7WorkerBD2Ev:000000000000002c .L0 
C:\msys64\tmp\ccwMNTRe.s:192    .text._ZN7WorkerBD2Ev:000000000000002c .L0 
C:\msys64\tmp\ccwMNTRe.s:194    .text._ZN7WorkerBD2Ev:0000000000000030 .L0 
C:\msys64\tmp\ccwMNTRe.s:196    .text._ZN7WorkerBD2Ev:0000000000000034 .L0 
C:\msys64\tmp\ccwMNTRe.s:168    .text._ZN7WorkerBD2Ev:0000000000000000 _ZN7WorkerBD1Ev
C:\msys64\tmp\ccwMNTRe.s:205    .text._ZN7WorkerBD0Ev:0000000000000000 _ZN7WorkerBD0Ev
C:\msys64\tmp\ccwMNTRe.s:208    .text._ZN7WorkerBD0Ev:0000000000000000 .L0 
C:\msys64\tmp\ccwMNTRe.s:210    .text._ZN7WorkerBD0Ev:0000000000000000 .L0 
C:\msys64\tmp\ccwMNTRe.s:211    .text._ZN7WorkerBD0Ev:0000000000000004 .L0 
C:\msys64\tmp\ccwMNTRe.s:215    .text._ZN7WorkerBD0Ev:0000000000000010 .L0 
C:\msys64\tmp\ccwMNTRe.s:216    .text._ZN7WorkerBD0Ev:0000000000000010 .L0 
C:\msys64\tmp\ccwMNTRe.s:217    .text._ZN7WorkerBD0Ev:0000000000000010 .L0 
C:\msys64\tmp\ccwMNTRe.s:219    .text._ZN7WorkerBD0Ev:0000000000000014 .L0 
C:\msys64\tmp\ccwMNTRe.s:225    .text._ZN7WorkerBD0Ev:0000000000000018 .L0 
C:\msys64\tmp\ccwMNTRe.s:235    .text._ZN7WorkerBD0Ev:000000000000003c .L0 
C:\msys64\tmp\ccwMNTRe.s:237    .text._ZN7WorkerBD0Ev:0000000000000040 .L0 
C:\msys64\tmp\ccwMNTRe.s:238    .text._ZN7WorkerBD0Ev:0000000000000040 .L0 
C:\msys64\tmp\ccwMNTRe.s:240    .text._ZN7WorkerBD0Ev:0000000000000044 .L0 
C:\msys64\tmp\ccwMNTRe.s:243    .text._ZN7WorkerBD0Ev:0000000000000048 .L0 
C:\msys64\tmp\ccwMNTRe.s:245    .text._ZN7WorkerBD0Ev:000000000000004c .L0 
C:\msys64\tmp\ccwMNTRe.s:252    .text._ZN7WorkerCD2Ev:0000000000000000 _ZN7WorkerCD2Ev
C:\msys64\tmp\ccwMNTRe.s:255    .text._ZN7WorkerCD2Ev:0000000000000000 .L0 
C:\msys64\tmp\ccwMNTRe.s:257    .text._ZN7WorkerCD2Ev:0000000000000000 .L0 
C:\msys64\tmp\ccwMNTRe.s:258    .text._ZN7WorkerCD2Ev:0000000000000004 .L0 
C:\msys64\tmp\ccwMNTRe.s:261    .text._ZN7WorkerCD2Ev:000000000000000c .L0 
C:\msys64\tmp\ccwMNTRe.s:262    .text._ZN7WorkerCD2Ev:000000000000000c .L0 
C:\msys64\tmp\ccwMNTRe.s:264    .text._ZN7WorkerCD2Ev:0000000000000010 .L0 
C:\msys64\tmp\ccwMNTRe.s:1558   .rodata._ZTV7WorkerC:0000000000000000 _ZTV7WorkerC
C:\msys64\tmp\ccwMNTRe.s:267    .text._ZN7WorkerCD2Ev:0000000000000010 .L0 
C:\msys64\tmp\ccwMNTRe.s:273    .text._ZN7WorkerCD2Ev:0000000000000028 .L0 
C:\msys64\tmp\ccwMNTRe.s:275    .text._ZN7WorkerCD2Ev:000000000000002c .L0 
C:\msys64\tmp\ccwMNTRe.s:276    .text._ZN7WorkerCD2Ev:000000000000002c .L0 
C:\msys64\tmp\ccwMNTRe.s:278    .text._ZN7WorkerCD2Ev:0000000000000030 .L0 
C:\msys64\tmp\ccwMNTRe.s:280    .text._ZN7WorkerCD2Ev:0000000000000034 .L0 
C:\msys64\tmp\ccwMNTRe.s:252    .text._ZN7WorkerCD2Ev:0000000000000000 _ZN7WorkerCD1Ev
C:\msys64\tmp\ccwMNTRe.s:289    .text._ZN7WorkerCD0Ev:0000000000000000 _ZN7WorkerCD0Ev
C:\msys64\tmp\ccwMNTRe.s:292    .text._ZN7WorkerCD0Ev:0000000000000000 .L0 
C:\msys64\tmp\ccwMNTRe.s:294    .text._ZN7WorkerCD0Ev:0000000000000000 .L0 
C:\msys64\tmp\ccwMNTRe.s:295    .text._ZN7WorkerCD0Ev:0000000000000004 .L0 
C:\msys64\tmp\ccwMNTRe.s:299    .text._ZN7WorkerCD0Ev:0000000000000010 .L0 
C:\msys64\tmp\ccwMNTRe.s:300    .text._ZN7WorkerCD0Ev:0000000000000010 .L0 
C:\msys64\tmp\ccwMNTRe.s:301    .text._ZN7WorkerCD0Ev:0000000000000010 .L0 
C:\msys64\tmp\ccwMNTRe.s:303    .text._ZN7WorkerCD0Ev:0000000000000014 .L0 
GAS LISTING C:\msys64\tmp\ccwMNTRe.s 			page 38


C:\msys64\tmp\ccwMNTRe.s:309    .text._ZN7WorkerCD0Ev:0000000000000018 .L0 
C:\msys64\tmp\ccwMNTRe.s:319    .text._ZN7WorkerCD0Ev:000000000000003c .L0 
C:\msys64\tmp\ccwMNTRe.s:321    .text._ZN7WorkerCD0Ev:0000000000000040 .L0 
C:\msys64\tmp\ccwMNTRe.s:322    .text._ZN7WorkerCD0Ev:0000000000000040 .L0 
C:\msys64\tmp\ccwMNTRe.s:324    .text._ZN7WorkerCD0Ev:0000000000000044 .L0 
C:\msys64\tmp\ccwMNTRe.s:327    .text._ZN7WorkerCD0Ev:0000000000000048 .L0 
C:\msys64\tmp\ccwMNTRe.s:329    .text._ZN7WorkerCD0Ev:000000000000004c .L0 
C:\msys64\tmp\ccwMNTRe.s:336    .text._ZN7WorkerDD2Ev:0000000000000000 _ZN7WorkerDD2Ev
C:\msys64\tmp\ccwMNTRe.s:339    .text._ZN7WorkerDD2Ev:0000000000000000 .L0 
C:\msys64\tmp\ccwMNTRe.s:341    .text._ZN7WorkerDD2Ev:0000000000000000 .L0 
C:\msys64\tmp\ccwMNTRe.s:342    .text._ZN7WorkerDD2Ev:0000000000000004 .L0 
C:\msys64\tmp\ccwMNTRe.s:345    .text._ZN7WorkerDD2Ev:000000000000000c .L0 
C:\msys64\tmp\ccwMNTRe.s:346    .text._ZN7WorkerDD2Ev:000000000000000c .L0 
C:\msys64\tmp\ccwMNTRe.s:348    .text._ZN7WorkerDD2Ev:0000000000000010 .L0 
C:\msys64\tmp\ccwMNTRe.s:1569   .rodata._ZTV7WorkerD:0000000000000000 _ZTV7WorkerD
C:\msys64\tmp\ccwMNTRe.s:351    .text._ZN7WorkerDD2Ev:0000000000000010 .L0 
C:\msys64\tmp\ccwMNTRe.s:357    .text._ZN7WorkerDD2Ev:0000000000000028 .L0 
C:\msys64\tmp\ccwMNTRe.s:359    .text._ZN7WorkerDD2Ev:000000000000002c .L0 
C:\msys64\tmp\ccwMNTRe.s:360    .text._ZN7WorkerDD2Ev:000000000000002c .L0 
C:\msys64\tmp\ccwMNTRe.s:362    .text._ZN7WorkerDD2Ev:0000000000000030 .L0 
C:\msys64\tmp\ccwMNTRe.s:364    .text._ZN7WorkerDD2Ev:0000000000000034 .L0 
C:\msys64\tmp\ccwMNTRe.s:336    .text._ZN7WorkerDD2Ev:0000000000000000 _ZN7WorkerDD1Ev
C:\msys64\tmp\ccwMNTRe.s:373    .text._ZN7WorkerDD0Ev:0000000000000000 _ZN7WorkerDD0Ev
C:\msys64\tmp\ccwMNTRe.s:376    .text._ZN7WorkerDD0Ev:0000000000000000 .L0 
C:\msys64\tmp\ccwMNTRe.s:378    .text._ZN7WorkerDD0Ev:0000000000000000 .L0 
C:\msys64\tmp\ccwMNTRe.s:379    .text._ZN7WorkerDD0Ev:0000000000000004 .L0 
C:\msys64\tmp\ccwMNTRe.s:383    .text._ZN7WorkerDD0Ev:0000000000000010 .L0 
C:\msys64\tmp\ccwMNTRe.s:384    .text._ZN7WorkerDD0Ev:0000000000000010 .L0 
C:\msys64\tmp\ccwMNTRe.s:385    .text._ZN7WorkerDD0Ev:0000000000000010 .L0 
C:\msys64\tmp\ccwMNTRe.s:387    .text._ZN7WorkerDD0Ev:0000000000000014 .L0 
C:\msys64\tmp\ccwMNTRe.s:393    .text._ZN7WorkerDD0Ev:0000000000000018 .L0 
C:\msys64\tmp\ccwMNTRe.s:403    .text._ZN7WorkerDD0Ev:000000000000003c .L0 
C:\msys64\tmp\ccwMNTRe.s:405    .text._ZN7WorkerDD0Ev:0000000000000040 .L0 
C:\msys64\tmp\ccwMNTRe.s:406    .text._ZN7WorkerDD0Ev:0000000000000040 .L0 
C:\msys64\tmp\ccwMNTRe.s:408    .text._ZN7WorkerDD0Ev:0000000000000044 .L0 
C:\msys64\tmp\ccwMNTRe.s:411    .text._ZN7WorkerDD0Ev:0000000000000048 .L0 
C:\msys64\tmp\ccwMNTRe.s:413    .text._ZN7WorkerDD0Ev:000000000000004c .L0 
C:\msys64\tmp\ccwMNTRe.s:430    .text:0000000000000074 _ZN7WorkerA11workerBodyAEPv
C:\msys64\tmp\ccwMNTRe.s:433    .text:0000000000000074 .L0 
C:\msys64\tmp\ccwMNTRe.s:435    .text:0000000000000074 .L0 
C:\msys64\tmp\ccwMNTRe.s:436    .text:0000000000000078 .L0 
C:\msys64\tmp\ccwMNTRe.s:441    .text:0000000000000088 .L0 
C:\msys64\tmp\ccwMNTRe.s:442    .text:0000000000000088 .L0 
C:\msys64\tmp\ccwMNTRe.s:443    .text:0000000000000088 .L0 
C:\msys64\tmp\ccwMNTRe.s:444    .text:0000000000000088 .L0 
C:\msys64\tmp\ccwMNTRe.s:446    .text:000000000000008c .L0 
C:\msys64\tmp\ccwMNTRe.s:450    .text:000000000000008c .L0 
C:\msys64\tmp\ccwMNTRe.s:451    .text:000000000000008c .L0 
C:\msys64\tmp\ccwMNTRe.s:460    .text:0000000000000094 .L0 
C:\msys64\tmp\ccwMNTRe.s:464    .text:0000000000000098 .L0 
C:\msys64\tmp\ccwMNTRe.s:469    .text:00000000000000a4 .L0 
C:\msys64\tmp\ccwMNTRe.s:470    .text:00000000000000a4 .L0 
C:\msys64\tmp\ccwMNTRe.s:474    .text:00000000000000ac .L0 
C:\msys64\tmp\ccwMNTRe.s:478    .text:00000000000000b0 .L0 
C:\msys64\tmp\ccwMNTRe.s:484    .text:00000000000000bc .L0 
C:\msys64\tmp\ccwMNTRe.s:492    .text:00000000000000c4 .L0 
C:\msys64\tmp\ccwMNTRe.s:496    .text:00000000000000c8 .L0 
GAS LISTING C:\msys64\tmp\ccwMNTRe.s 			page 39


C:\msys64\tmp\ccwMNTRe.s:500    .text:00000000000000d0 .L0 
C:\msys64\tmp\ccwMNTRe.s:501    .text:00000000000000d0 .L0 
C:\msys64\tmp\ccwMNTRe.s:505    .text:00000000000000e0 .L0 
C:\msys64\tmp\ccwMNTRe.s:506    .text:00000000000000e0 .L0 
C:\msys64\tmp\ccwMNTRe.s:512    .text:00000000000000f4 .L0 
C:\msys64\tmp\ccwMNTRe.s:513    .text:00000000000000f4 .L0 
C:\msys64\tmp\ccwMNTRe.s:518    .text:0000000000000104 .L0 
C:\msys64\tmp\ccwMNTRe.s:519    .text:0000000000000104 .L0 
C:\msys64\tmp\ccwMNTRe.s:527    .text:000000000000010c .L0 
C:\msys64\tmp\ccwMNTRe.s:528    .text:000000000000010c .L0 
C:\msys64\tmp\ccwMNTRe.s:532    .text:000000000000011c .L0 
C:\msys64\tmp\ccwMNTRe.s:533    .text:000000000000011c .L0 
C:\msys64\tmp\ccwMNTRe.s:1590   .sbss:0000000000000003 _ZL9finishedA
C:\msys64\tmp\ccwMNTRe.s:536    .text:0000000000000128 .L0 
C:\msys64\tmp\ccwMNTRe.s:537    .text:000000000000012c .L0 
C:\msys64\tmp\ccwMNTRe.s:539    .text:0000000000000130 .L0 
C:\msys64\tmp\ccwMNTRe.s:540    .text:0000000000000130 .L0 
C:\msys64\tmp\ccwMNTRe.s:542    .text:0000000000000134 .L0 
C:\msys64\tmp\ccwMNTRe.s:544    .text:0000000000000138 .L0 
C:\msys64\tmp\ccwMNTRe.s:547    .text:000000000000013c .L0 
C:\msys64\tmp\ccwMNTRe.s:549    .text:0000000000000140 .L0 
C:\msys64\tmp\ccwMNTRe.s:556    .text._ZN7WorkerA3runEv:0000000000000000 _ZN7WorkerA3runEv
C:\msys64\tmp\ccwMNTRe.s:559    .text._ZN7WorkerA3runEv:0000000000000000 .L0 
C:\msys64\tmp\ccwMNTRe.s:561    .text._ZN7WorkerA3runEv:0000000000000000 .L0 
C:\msys64\tmp\ccwMNTRe.s:562    .text._ZN7WorkerA3runEv:0000000000000004 .L0 
C:\msys64\tmp\ccwMNTRe.s:565    .text._ZN7WorkerA3runEv:000000000000000c .L0 
C:\msys64\tmp\ccwMNTRe.s:566    .text._ZN7WorkerA3runEv:000000000000000c .L0 
C:\msys64\tmp\ccwMNTRe.s:568    .text._ZN7WorkerA3runEv:0000000000000010 .L0 
C:\msys64\tmp\ccwMNTRe.s:570    .text._ZN7WorkerA3runEv:0000000000000010 .L0 
C:\msys64\tmp\ccwMNTRe.s:571    .text._ZN7WorkerA3runEv:0000000000000010 .L0 
C:\msys64\tmp\ccwMNTRe.s:575    .text._ZN7WorkerA3runEv:000000000000001c .L0 
C:\msys64\tmp\ccwMNTRe.s:576    .text._ZN7WorkerA3runEv:0000000000000020 .L0 
C:\msys64\tmp\ccwMNTRe.s:578    .text._ZN7WorkerA3runEv:0000000000000024 .L0 
C:\msys64\tmp\ccwMNTRe.s:579    .text._ZN7WorkerA3runEv:0000000000000024 .L0 
C:\msys64\tmp\ccwMNTRe.s:581    .text._ZN7WorkerA3runEv:0000000000000028 .L0 
C:\msys64\tmp\ccwMNTRe.s:583    .text._ZN7WorkerA3runEv:000000000000002c .L0 
C:\msys64\tmp\ccwMNTRe.s:597    .text:0000000000000140 _ZN7WorkerB11workerBodyBEPv
C:\msys64\tmp\ccwMNTRe.s:600    .text:0000000000000140 .L0 
C:\msys64\tmp\ccwMNTRe.s:602    .text:0000000000000140 .L0 
C:\msys64\tmp\ccwMNTRe.s:603    .text:0000000000000144 .L0 
C:\msys64\tmp\ccwMNTRe.s:608    .text:0000000000000154 .L0 
C:\msys64\tmp\ccwMNTRe.s:609    .text:0000000000000154 .L0 
C:\msys64\tmp\ccwMNTRe.s:610    .text:0000000000000154 .L0 
C:\msys64\tmp\ccwMNTRe.s:611    .text:0000000000000154 .L0 
C:\msys64\tmp\ccwMNTRe.s:613    .text:0000000000000158 .L0 
C:\msys64\tmp\ccwMNTRe.s:617    .text:0000000000000158 .L0 
C:\msys64\tmp\ccwMNTRe.s:618    .text:0000000000000158 .L0 
C:\msys64\tmp\ccwMNTRe.s:627    .text:0000000000000160 .L0 
C:\msys64\tmp\ccwMNTRe.s:631    .text:0000000000000164 .L0 
C:\msys64\tmp\ccwMNTRe.s:636    .text:0000000000000170 .L0 
C:\msys64\tmp\ccwMNTRe.s:637    .text:0000000000000170 .L0 
C:\msys64\tmp\ccwMNTRe.s:641    .text:0000000000000178 .L0 
C:\msys64\tmp\ccwMNTRe.s:645    .text:000000000000017c .L0 
C:\msys64\tmp\ccwMNTRe.s:651    .text:0000000000000188 .L0 
C:\msys64\tmp\ccwMNTRe.s:659    .text:0000000000000190 .L0 
C:\msys64\tmp\ccwMNTRe.s:663    .text:0000000000000194 .L0 
C:\msys64\tmp\ccwMNTRe.s:667    .text:000000000000019c .L0 
GAS LISTING C:\msys64\tmp\ccwMNTRe.s 			page 40


C:\msys64\tmp\ccwMNTRe.s:668    .text:000000000000019c .L0 
C:\msys64\tmp\ccwMNTRe.s:672    .text:00000000000001ac .L0 
C:\msys64\tmp\ccwMNTRe.s:673    .text:00000000000001ac .L0 
C:\msys64\tmp\ccwMNTRe.s:679    .text:00000000000001c0 .L0 
C:\msys64\tmp\ccwMNTRe.s:680    .text:00000000000001c0 .L0 
C:\msys64\tmp\ccwMNTRe.s:685    .text:00000000000001d0 .L0 
C:\msys64\tmp\ccwMNTRe.s:686    .text:00000000000001d0 .L0 
C:\msys64\tmp\ccwMNTRe.s:694    .text:00000000000001d8 .L0 
C:\msys64\tmp\ccwMNTRe.s:695    .text:00000000000001d8 .L0 
C:\msys64\tmp\ccwMNTRe.s:699    .text:00000000000001e8 .L0 
C:\msys64\tmp\ccwMNTRe.s:700    .text:00000000000001e8 .L0 
C:\msys64\tmp\ccwMNTRe.s:1586   .sbss:0000000000000002 _ZL9finishedB
C:\msys64\tmp\ccwMNTRe.s:703    .text:00000000000001f4 .L0 
C:\msys64\tmp\ccwMNTRe.s:704    .text:00000000000001f4 .L0 
C:\msys64\tmp\ccwMNTRe.s:707    .text:00000000000001fc .L0 
C:\msys64\tmp\ccwMNTRe.s:708    .text:0000000000000200 .L0 
C:\msys64\tmp\ccwMNTRe.s:710    .text:0000000000000204 .L0 
C:\msys64\tmp\ccwMNTRe.s:711    .text:0000000000000204 .L0 
C:\msys64\tmp\ccwMNTRe.s:713    .text:0000000000000208 .L0 
C:\msys64\tmp\ccwMNTRe.s:715    .text:000000000000020c .L0 
C:\msys64\tmp\ccwMNTRe.s:718    .text:0000000000000210 .L0 
C:\msys64\tmp\ccwMNTRe.s:720    .text:0000000000000214 .L0 
C:\msys64\tmp\ccwMNTRe.s:727    .text._ZN7WorkerB3runEv:0000000000000000 _ZN7WorkerB3runEv
C:\msys64\tmp\ccwMNTRe.s:730    .text._ZN7WorkerB3runEv:0000000000000000 .L0 
C:\msys64\tmp\ccwMNTRe.s:732    .text._ZN7WorkerB3runEv:0000000000000000 .L0 
C:\msys64\tmp\ccwMNTRe.s:733    .text._ZN7WorkerB3runEv:0000000000000004 .L0 
C:\msys64\tmp\ccwMNTRe.s:736    .text._ZN7WorkerB3runEv:000000000000000c .L0 
C:\msys64\tmp\ccwMNTRe.s:737    .text._ZN7WorkerB3runEv:000000000000000c .L0 
C:\msys64\tmp\ccwMNTRe.s:739    .text._ZN7WorkerB3runEv:0000000000000010 .L0 
C:\msys64\tmp\ccwMNTRe.s:741    .text._ZN7WorkerB3runEv:0000000000000010 .L0 
C:\msys64\tmp\ccwMNTRe.s:742    .text._ZN7WorkerB3runEv:0000000000000010 .L0 
C:\msys64\tmp\ccwMNTRe.s:746    .text._ZN7WorkerB3runEv:000000000000001c .L0 
C:\msys64\tmp\ccwMNTRe.s:747    .text._ZN7WorkerB3runEv:0000000000000020 .L0 
C:\msys64\tmp\ccwMNTRe.s:749    .text._ZN7WorkerB3runEv:0000000000000024 .L0 
C:\msys64\tmp\ccwMNTRe.s:750    .text._ZN7WorkerB3runEv:0000000000000024 .L0 
C:\msys64\tmp\ccwMNTRe.s:752    .text._ZN7WorkerB3runEv:0000000000000028 .L0 
C:\msys64\tmp\ccwMNTRe.s:754    .text._ZN7WorkerB3runEv:000000000000002c .L0 
C:\msys64\tmp\ccwMNTRe.s:774    .text:0000000000000214 _ZN7WorkerC11workerBodyCEPv
C:\msys64\tmp\ccwMNTRe.s:777    .text:0000000000000214 .L0 
C:\msys64\tmp\ccwMNTRe.s:779    .text:0000000000000214 .L0 
C:\msys64\tmp\ccwMNTRe.s:780    .text:0000000000000218 .L0 
C:\msys64\tmp\ccwMNTRe.s:785    .text:0000000000000228 .L0 
C:\msys64\tmp\ccwMNTRe.s:786    .text:0000000000000228 .L0 
C:\msys64\tmp\ccwMNTRe.s:787    .text:0000000000000228 .L0 
C:\msys64\tmp\ccwMNTRe.s:788    .text:0000000000000228 .L0 
C:\msys64\tmp\ccwMNTRe.s:790    .text:000000000000022c .L0 
C:\msys64\tmp\ccwMNTRe.s:793    .text:000000000000022c .L0 
C:\msys64\tmp\ccwMNTRe.s:794    .text:000000000000022c .L0 
C:\msys64\tmp\ccwMNTRe.s:799    .text:0000000000000234 .L0 
C:\msys64\tmp\ccwMNTRe.s:800    .text:0000000000000234 .L0 
C:\msys64\tmp\ccwMNTRe.s:804    .text:0000000000000244 .L0 
C:\msys64\tmp\ccwMNTRe.s:805    .text:0000000000000244 .L0 
C:\msys64\tmp\ccwMNTRe.s:811    .text:0000000000000258 .L0 
C:\msys64\tmp\ccwMNTRe.s:812    .text:0000000000000258 .L0 
C:\msys64\tmp\ccwMNTRe.s:816    .text:0000000000000268 .L0 
C:\msys64\tmp\ccwMNTRe.s:822    .text:0000000000000270 .L0 
C:\msys64\tmp\ccwMNTRe.s:823    .text:0000000000000270 .L0 
GAS LISTING C:\msys64\tmp\ccwMNTRe.s 			page 41


C:\msys64\tmp\ccwMNTRe.s:826    .text:0000000000000278 .L0 
C:\msys64\tmp\ccwMNTRe.s:827    .text:0000000000000278 .L0 
test/Threads_CPP_API_test.cpp:88     .text:0000000000000288 .L0 
C:\msys64\tmp\ccwMNTRe.s:836    .text:000000000000028c .L0 
C:\msys64\tmp\ccwMNTRe.s:838    .text:000000000000028c .L0 
C:\msys64\tmp\ccwMNTRe.s:841    .text:0000000000000294 .L0 
test/Threads_CPP_API_test.cpp:92     .text:0000000000000294 .L0 
C:\msys64\tmp\ccwMNTRe.s:848    .text:0000000000000298 .L0 
C:\msys64\tmp\ccwMNTRe.s:850    .text:0000000000000298 .L0 
C:\msys64\tmp\ccwMNTRe.s:854    .text:00000000000002a8 .L0 
C:\msys64\tmp\ccwMNTRe.s:855    .text:00000000000002a8 .L0 
C:\msys64\tmp\ccwMNTRe.s:861    .text:00000000000002bc .L0 
C:\msys64\tmp\ccwMNTRe.s:862    .text:00000000000002bc .L0 
C:\msys64\tmp\ccwMNTRe.s:866    .text:00000000000002cc .L0 
C:\msys64\tmp\ccwMNTRe.s:867    .text:00000000000002cc .L0 
C:\msys64\tmp\ccwMNTRe.s:873    .text:00000000000002dc .L0 
C:\msys64\tmp\ccwMNTRe.s:874    .text:00000000000002dc .L0 
C:\msys64\tmp\ccwMNTRe.s:879    .text:00000000000002ec .L0 
C:\msys64\tmp\ccwMNTRe.s:880    .text:00000000000002ec .L0 
C:\msys64\tmp\ccwMNTRe.s:886    .text:0000000000000300 .L0 
C:\msys64\tmp\ccwMNTRe.s:887    .text:0000000000000300 .L0 
C:\msys64\tmp\ccwMNTRe.s:893    .text:0000000000000314 .L0 
C:\msys64\tmp\ccwMNTRe.s:894    .text:0000000000000314 .L0 
C:\msys64\tmp\ccwMNTRe.s:898    .text:0000000000000324 .L0 
C:\msys64\tmp\ccwMNTRe.s:899    .text:0000000000000324 .L0 
C:\msys64\tmp\ccwMNTRe.s:905    .text:0000000000000338 .L0 
C:\msys64\tmp\ccwMNTRe.s:906    .text:0000000000000338 .L0 
C:\msys64\tmp\ccwMNTRe.s:910    .text:0000000000000348 .L0 
C:\msys64\tmp\ccwMNTRe.s:916    .text:0000000000000350 .L0 
C:\msys64\tmp\ccwMNTRe.s:917    .text:0000000000000350 .L0 
C:\msys64\tmp\ccwMNTRe.s:920    .text:0000000000000358 .L0 
C:\msys64\tmp\ccwMNTRe.s:921    .text:0000000000000358 .L0 
C:\msys64\tmp\ccwMNTRe.s:925    .text:0000000000000368 .L0 
C:\msys64\tmp\ccwMNTRe.s:926    .text:0000000000000368 .L0 
C:\msys64\tmp\ccwMNTRe.s:1582   .sbss:0000000000000001 _ZL9finishedC
C:\msys64\tmp\ccwMNTRe.s:929    .text:0000000000000374 .L0 
C:\msys64\tmp\ccwMNTRe.s:930    .text:0000000000000374 .L0 
C:\msys64\tmp\ccwMNTRe.s:933    .text:000000000000037c .L0 
C:\msys64\tmp\ccwMNTRe.s:934    .text:0000000000000380 .L0 
C:\msys64\tmp\ccwMNTRe.s:936    .text:0000000000000384 .L0 
C:\msys64\tmp\ccwMNTRe.s:937    .text:0000000000000384 .L0 
C:\msys64\tmp\ccwMNTRe.s:939    .text:0000000000000388 .L0 
C:\msys64\tmp\ccwMNTRe.s:942    .text:000000000000038c .L0 
C:\msys64\tmp\ccwMNTRe.s:945    .text:0000000000000390 .L0 
C:\msys64\tmp\ccwMNTRe.s:947    .text:0000000000000394 .L0 
C:\msys64\tmp\ccwMNTRe.s:954    .text._ZN7WorkerC3runEv:0000000000000000 _ZN7WorkerC3runEv
C:\msys64\tmp\ccwMNTRe.s:957    .text._ZN7WorkerC3runEv:0000000000000000 .L0 
C:\msys64\tmp\ccwMNTRe.s:959    .text._ZN7WorkerC3runEv:0000000000000000 .L0 
C:\msys64\tmp\ccwMNTRe.s:960    .text._ZN7WorkerC3runEv:0000000000000004 .L0 
C:\msys64\tmp\ccwMNTRe.s:963    .text._ZN7WorkerC3runEv:000000000000000c .L0 
C:\msys64\tmp\ccwMNTRe.s:964    .text._ZN7WorkerC3runEv:000000000000000c .L0 
C:\msys64\tmp\ccwMNTRe.s:966    .text._ZN7WorkerC3runEv:0000000000000010 .L0 
C:\msys64\tmp\ccwMNTRe.s:968    .text._ZN7WorkerC3runEv:0000000000000010 .L0 
C:\msys64\tmp\ccwMNTRe.s:969    .text._ZN7WorkerC3runEv:0000000000000010 .L0 
C:\msys64\tmp\ccwMNTRe.s:973    .text._ZN7WorkerC3runEv:000000000000001c .L0 
C:\msys64\tmp\ccwMNTRe.s:974    .text._ZN7WorkerC3runEv:0000000000000020 .L0 
C:\msys64\tmp\ccwMNTRe.s:976    .text._ZN7WorkerC3runEv:0000000000000024 .L0 
GAS LISTING C:\msys64\tmp\ccwMNTRe.s 			page 42


C:\msys64\tmp\ccwMNTRe.s:977    .text._ZN7WorkerC3runEv:0000000000000024 .L0 
C:\msys64\tmp\ccwMNTRe.s:979    .text._ZN7WorkerC3runEv:0000000000000028 .L0 
C:\msys64\tmp\ccwMNTRe.s:981    .text._ZN7WorkerC3runEv:000000000000002c .L0 
C:\msys64\tmp\ccwMNTRe.s:1001   .text:0000000000000394 _ZN7WorkerD11workerBodyDEPv
C:\msys64\tmp\ccwMNTRe.s:1004   .text:0000000000000394 .L0 
C:\msys64\tmp\ccwMNTRe.s:1006   .text:0000000000000394 .L0 
C:\msys64\tmp\ccwMNTRe.s:1007   .text:0000000000000398 .L0 
C:\msys64\tmp\ccwMNTRe.s:1012   .text:00000000000003a8 .L0 
C:\msys64\tmp\ccwMNTRe.s:1013   .text:00000000000003a8 .L0 
C:\msys64\tmp\ccwMNTRe.s:1014   .text:00000000000003a8 .L0 
C:\msys64\tmp\ccwMNTRe.s:1015   .text:00000000000003a8 .L0 
C:\msys64\tmp\ccwMNTRe.s:1017   .text:00000000000003ac .L0 
C:\msys64\tmp\ccwMNTRe.s:1020   .text:00000000000003ac .L0 
C:\msys64\tmp\ccwMNTRe.s:1021   .text:00000000000003ac .L0 
C:\msys64\tmp\ccwMNTRe.s:1026   .text:00000000000003b4 .L0 
C:\msys64\tmp\ccwMNTRe.s:1027   .text:00000000000003b4 .L0 
C:\msys64\tmp\ccwMNTRe.s:1031   .text:00000000000003c4 .L0 
C:\msys64\tmp\ccwMNTRe.s:1032   .text:00000000000003c4 .L0 
C:\msys64\tmp\ccwMNTRe.s:1038   .text:00000000000003d8 .L0 
C:\msys64\tmp\ccwMNTRe.s:1039   .text:00000000000003d8 .L0 
C:\msys64\tmp\ccwMNTRe.s:1043   .text:00000000000003e8 .L0 
C:\msys64\tmp\ccwMNTRe.s:1049   .text:00000000000003f0 .L0 
C:\msys64\tmp\ccwMNTRe.s:1050   .text:00000000000003f0 .L0 
C:\msys64\tmp\ccwMNTRe.s:1053   .text:00000000000003f8 .L0 
C:\msys64\tmp\ccwMNTRe.s:1054   .text:00000000000003f8 .L0 
test/Threads_CPP_API_test.cpp:115    .text:0000000000000408 .L0 
C:\msys64\tmp\ccwMNTRe.s:1063   .text:000000000000040c .L0 
C:\msys64\tmp\ccwMNTRe.s:1065   .text:000000000000040c .L0 
C:\msys64\tmp\ccwMNTRe.s:1068   .text:0000000000000414 .L0 
C:\msys64\tmp\ccwMNTRe.s:1069   .text:0000000000000414 .L0 
C:\msys64\tmp\ccwMNTRe.s:1075   .text:0000000000000424 .L0 
C:\msys64\tmp\ccwMNTRe.s:1076   .text:0000000000000424 .L0 
C:\msys64\tmp\ccwMNTRe.s:1081   .text:0000000000000434 .L0 
C:\msys64\tmp\ccwMNTRe.s:1082   .text:0000000000000434 .L0 
C:\msys64\tmp\ccwMNTRe.s:1088   .text:0000000000000448 .L0 
C:\msys64\tmp\ccwMNTRe.s:1089   .text:0000000000000448 .L0 
C:\msys64\tmp\ccwMNTRe.s:1095   .text:000000000000045c .L0 
C:\msys64\tmp\ccwMNTRe.s:1096   .text:000000000000045c .L0 
C:\msys64\tmp\ccwMNTRe.s:1100   .text:000000000000046c .L0 
C:\msys64\tmp\ccwMNTRe.s:1101   .text:000000000000046c .L0 
C:\msys64\tmp\ccwMNTRe.s:1107   .text:0000000000000480 .L0 
C:\msys64\tmp\ccwMNTRe.s:1108   .text:0000000000000480 .L0 
C:\msys64\tmp\ccwMNTRe.s:1112   .text:0000000000000490 .L0 
C:\msys64\tmp\ccwMNTRe.s:1118   .text:0000000000000498 .L0 
C:\msys64\tmp\ccwMNTRe.s:1119   .text:0000000000000498 .L0 
C:\msys64\tmp\ccwMNTRe.s:1122   .text:00000000000004a0 .L0 
C:\msys64\tmp\ccwMNTRe.s:1123   .text:00000000000004a0 .L0 
C:\msys64\tmp\ccwMNTRe.s:1127   .text:00000000000004b0 .L0 
C:\msys64\tmp\ccwMNTRe.s:1128   .text:00000000000004b0 .L0 
C:\msys64\tmp\ccwMNTRe.s:1578   .sbss:0000000000000000 _ZL9finishedD
C:\msys64\tmp\ccwMNTRe.s:1131   .text:00000000000004bc .L0 
C:\msys64\tmp\ccwMNTRe.s:1132   .text:00000000000004bc .L0 
C:\msys64\tmp\ccwMNTRe.s:1135   .text:00000000000004c4 .L0 
C:\msys64\tmp\ccwMNTRe.s:1136   .text:00000000000004c8 .L0 
C:\msys64\tmp\ccwMNTRe.s:1138   .text:00000000000004cc .L0 
C:\msys64\tmp\ccwMNTRe.s:1139   .text:00000000000004cc .L0 
C:\msys64\tmp\ccwMNTRe.s:1141   .text:00000000000004d0 .L0 
GAS LISTING C:\msys64\tmp\ccwMNTRe.s 			page 43


C:\msys64\tmp\ccwMNTRe.s:1144   .text:00000000000004d4 .L0 
C:\msys64\tmp\ccwMNTRe.s:1147   .text:00000000000004d8 .L0 
C:\msys64\tmp\ccwMNTRe.s:1149   .text:00000000000004dc .L0 
C:\msys64\tmp\ccwMNTRe.s:1156   .text._ZN7WorkerD3runEv:0000000000000000 _ZN7WorkerD3runEv
C:\msys64\tmp\ccwMNTRe.s:1159   .text._ZN7WorkerD3runEv:0000000000000000 .L0 
C:\msys64\tmp\ccwMNTRe.s:1161   .text._ZN7WorkerD3runEv:0000000000000000 .L0 
C:\msys64\tmp\ccwMNTRe.s:1162   .text._ZN7WorkerD3runEv:0000000000000004 .L0 
C:\msys64\tmp\ccwMNTRe.s:1165   .text._ZN7WorkerD3runEv:000000000000000c .L0 
C:\msys64\tmp\ccwMNTRe.s:1166   .text._ZN7WorkerD3runEv:000000000000000c .L0 
C:\msys64\tmp\ccwMNTRe.s:1168   .text._ZN7WorkerD3runEv:0000000000000010 .L0 
C:\msys64\tmp\ccwMNTRe.s:1170   .text._ZN7WorkerD3runEv:0000000000000010 .L0 
C:\msys64\tmp\ccwMNTRe.s:1171   .text._ZN7WorkerD3runEv:0000000000000010 .L0 
C:\msys64\tmp\ccwMNTRe.s:1175   .text._ZN7WorkerD3runEv:000000000000001c .L0 
C:\msys64\tmp\ccwMNTRe.s:1176   .text._ZN7WorkerD3runEv:0000000000000020 .L0 
C:\msys64\tmp\ccwMNTRe.s:1178   .text._ZN7WorkerD3runEv:0000000000000024 .L0 
C:\msys64\tmp\ccwMNTRe.s:1179   .text._ZN7WorkerD3runEv:0000000000000024 .L0 
C:\msys64\tmp\ccwMNTRe.s:1181   .text._ZN7WorkerD3runEv:0000000000000028 .L0 
C:\msys64\tmp\ccwMNTRe.s:1183   .text._ZN7WorkerD3runEv:000000000000002c .L0 
C:\msys64\tmp\ccwMNTRe.s:1203   .text:00000000000004dc _Z20Threads_CPP_API_testv
C:\msys64\tmp\ccwMNTRe.s:1206   .text:00000000000004dc .L0 
C:\msys64\tmp\ccwMNTRe.s:5382   .sdata.DW.ref.__gxx_personality_v0:0000000000000000 DW.ref.__gxx_personality_v0
C:\msys64\tmp\ccwMNTRe.s:1209   .text:00000000000004dc .L0 
C:\msys64\tmp\ccwMNTRe.s:1210   .text:00000000000004e0 .L0 
C:\msys64\tmp\ccwMNTRe.s:1215   .text:00000000000004f0 .L0 
C:\msys64\tmp\ccwMNTRe.s:1216   .text:00000000000004f0 .L0 
C:\msys64\tmp\ccwMNTRe.s:1217   .text:00000000000004f0 .L0 
C:\msys64\tmp\ccwMNTRe.s:1218   .text:00000000000004f0 .L0 
C:\msys64\tmp\ccwMNTRe.s:1220   .text:00000000000004f4 .L0 
C:\msys64\tmp\ccwMNTRe.s:1222   .text:00000000000004f4 .L0 
C:\msys64\tmp\ccwMNTRe.s:1223   .text:00000000000004f4 .L0 
C:\msys64\tmp\ccwMNTRe.s:1224   .text:00000000000004f4 .L0 
C:\msys64\tmp\ccwMNTRe.s:1235   .text:0000000000000504 .L0 
C:\msys64\tmp\ccwMNTRe.s:1244   .text:0000000000000518 .L0 
C:\msys64\tmp\ccwMNTRe.s:1246   .text:000000000000051c .L0 
C:\msys64\tmp\ccwMNTRe.s:1247   .text:000000000000051c .L0 
C:\msys64\tmp\ccwMNTRe.s:1252   .text:000000000000052c .L0 
C:\msys64\tmp\ccwMNTRe.s:1253   .text:000000000000052c .L0 
C:\msys64\tmp\ccwMNTRe.s:1263   .text:000000000000053c .L0 
C:\msys64\tmp\ccwMNTRe.s:1272   .text:0000000000000550 .L0 
C:\msys64\tmp\ccwMNTRe.s:1274   .text:0000000000000554 .L0 
C:\msys64\tmp\ccwMNTRe.s:1275   .text:0000000000000554 .L0 
C:\msys64\tmp\ccwMNTRe.s:1280   .text:0000000000000564 .L0 
C:\msys64\tmp\ccwMNTRe.s:1281   .text:0000000000000564 .L0 
C:\msys64\tmp\ccwMNTRe.s:1291   .text:0000000000000574 .L0 
C:\msys64\tmp\ccwMNTRe.s:1300   .text:0000000000000588 .L0 
C:\msys64\tmp\ccwMNTRe.s:1302   .text:000000000000058c .L0 
C:\msys64\tmp\ccwMNTRe.s:1303   .text:000000000000058c .L0 
C:\msys64\tmp\ccwMNTRe.s:1308   .text:000000000000059c .L0 
C:\msys64\tmp\ccwMNTRe.s:1309   .text:000000000000059c .L0 
C:\msys64\tmp\ccwMNTRe.s:1319   .text:00000000000005ac .L0 
C:\msys64\tmp\ccwMNTRe.s:1328   .text:00000000000005c0 .L0 
C:\msys64\tmp\ccwMNTRe.s:1330   .text:00000000000005c4 .L0 
C:\msys64\tmp\ccwMNTRe.s:1331   .text:00000000000005c4 .L0 
C:\msys64\tmp\ccwMNTRe.s:1337   .text:00000000000005d4 .L0 
C:\msys64\tmp\ccwMNTRe.s:1341   .text:00000000000005d8 .L0 
C:\msys64\tmp\ccwMNTRe.s:1344   .text:00000000000005e0 .L0 
C:\msys64\tmp\ccwMNTRe.s:1345   .text:00000000000005e0 .L0 
GAS LISTING C:\msys64\tmp\ccwMNTRe.s 			page 44


C:\msys64\tmp\ccwMNTRe.s:1349   .text:00000000000005ec .L0 
C:\msys64\tmp\ccwMNTRe.s:1353   .text:00000000000005f8 .L0 
C:\msys64\tmp\ccwMNTRe.s:1360   .text:0000000000000600 .L0 
C:\msys64\tmp\ccwMNTRe.s:1361   .text:0000000000000600 .L0 
C:\msys64\tmp\ccwMNTRe.s:1366   .text:0000000000000608 .L0 
C:\msys64\tmp\ccwMNTRe.s:1367   .text:0000000000000608 .L0 
C:\msys64\tmp\ccwMNTRe.s:1368   .text:0000000000000608 .L0 
C:\msys64\tmp\ccwMNTRe.s:1370   .text:0000000000000610 .L0 
C:\msys64\tmp\ccwMNTRe.s:1372   .text:0000000000000614 .L0 
C:\msys64\tmp\ccwMNTRe.s:1374   .text:000000000000061c .L0 
C:\msys64\tmp\ccwMNTRe.s:1376   .text:0000000000000620 .L0 
C:\msys64\tmp\ccwMNTRe.s:1378   .text:0000000000000628 .L0 
C:\msys64\tmp\ccwMNTRe.s:1380   .text:000000000000062c .L0 
C:\msys64\tmp\ccwMNTRe.s:1382   .text:0000000000000634 .L0 
C:\msys64\tmp\ccwMNTRe.s:1390   .text:0000000000000640 .L0 
C:\msys64\tmp\ccwMNTRe.s:1394   .text:0000000000000644 .L0 
C:\msys64\tmp\ccwMNTRe.s:1397   .text:000000000000064c .L0 
C:\msys64\tmp\ccwMNTRe.s:1400   .text:0000000000000650 .L0 
C:\msys64\tmp\ccwMNTRe.s:1402   .text:0000000000000654 .L0 
C:\msys64\tmp\ccwMNTRe.s:1411   .text:0000000000000664 .L0 
C:\msys64\tmp\ccwMNTRe.s:1422   .text:0000000000000680 .L0 
C:\msys64\tmp\ccwMNTRe.s:1433   .text:000000000000069c .L0 
C:\msys64\tmp\ccwMNTRe.s:1444   .text:00000000000006b8 .L0 
C:\msys64\tmp\ccwMNTRe.s:1455   .text:00000000000006d4 .L0 
C:\msys64\tmp\ccwMNTRe.s:1456   .text:00000000000006d8 .L0 
C:\msys64\tmp\ccwMNTRe.s:1458   .text:00000000000006dc .L0 
C:\msys64\tmp\ccwMNTRe.s:1459   .text:00000000000006dc .L0 
C:\msys64\tmp\ccwMNTRe.s:1461   .text:00000000000006e0 .L0 
C:\msys64\tmp\ccwMNTRe.s:1464   .text:00000000000006e4 .L0 
C:\msys64\tmp\ccwMNTRe.s:1466   .text:00000000000006e8 .L0 
C:\msys64\tmp\ccwMNTRe.s:1468   .text:00000000000006ec .L0 
C:\msys64\tmp\ccwMNTRe.s:1598   .text:00000000000006ec .L0 
C:\msys64\tmp\ccwMNTRe.s:117    .text._ZN7WorkerAD2Ev:0000000000000034 .L0 
C:\msys64\tmp\ccwMNTRe.s:164    .text._ZN7WorkerAD0Ev:000000000000004c .L0 
C:\msys64\tmp\ccwMNTRe.s:201    .text._ZN7WorkerBD2Ev:0000000000000034 .L0 
C:\msys64\tmp\ccwMNTRe.s:248    .text._ZN7WorkerBD0Ev:000000000000004c .L0 
C:\msys64\tmp\ccwMNTRe.s:285    .text._ZN7WorkerCD2Ev:0000000000000034 .L0 
C:\msys64\tmp\ccwMNTRe.s:332    .text._ZN7WorkerCD0Ev:000000000000004c .L0 
C:\msys64\tmp\ccwMNTRe.s:369    .text._ZN7WorkerDD2Ev:0000000000000034 .L0 
C:\msys64\tmp\ccwMNTRe.s:416    .text._ZN7WorkerDD0Ev:000000000000004c .L0 
C:\msys64\tmp\ccwMNTRe.s:586    .text._ZN7WorkerA3runEv:000000000000002c .L0 
C:\msys64\tmp\ccwMNTRe.s:757    .text._ZN7WorkerB3runEv:000000000000002c .L0 
C:\msys64\tmp\ccwMNTRe.s:984    .text._ZN7WorkerC3runEv:000000000000002c .L0 
C:\msys64\tmp\ccwMNTRe.s:1186   .text._ZN7WorkerD3runEv:000000000000002c .L0 
C:\msys64\tmp\ccwMNTRe.s:418    .rodata.str1.8:0000000000000000 .LC0
C:\msys64\tmp\ccwMNTRe.s:501    .text:00000000000000d0 .L0 
C:\msys64\tmp\ccwMNTRe.s:421    .rodata.str1.8:0000000000000008 .LC1
C:\msys64\tmp\ccwMNTRe.s:513    .text:00000000000000f4 .L0 
C:\msys64\tmp\ccwMNTRe.s:424    .rodata.str1.8:0000000000000010 .LC2
C:\msys64\tmp\ccwMNTRe.s:528    .text:000000000000010c .L0 
C:\msys64\tmp\ccwMNTRe.s:534    .text:0000000000000120 .L0 
C:\msys64\tmp\ccwMNTRe.s:588    .rodata.str1.8:0000000000000020 .LC3
C:\msys64\tmp\ccwMNTRe.s:668    .text:000000000000019c .L0 
C:\msys64\tmp\ccwMNTRe.s:680    .text:00000000000001c0 .L0 
C:\msys64\tmp\ccwMNTRe.s:591    .rodata.str1.8:0000000000000028 .LC4
C:\msys64\tmp\ccwMNTRe.s:695    .text:00000000000001d8 .L0 
C:\msys64\tmp\ccwMNTRe.s:701    .text:00000000000001ec .L0 
GAS LISTING C:\msys64\tmp\ccwMNTRe.s 			page 45


C:\msys64\tmp\ccwMNTRe.s:759    .rodata.str1.8:0000000000000038 .LC5
C:\msys64\tmp\ccwMNTRe.s:800    .text:0000000000000234 .L0 
C:\msys64\tmp\ccwMNTRe.s:812    .text:0000000000000258 .L0 
C:\msys64\tmp\ccwMNTRe.s:762    .rodata.str1.8:0000000000000040 .LC6
C:\msys64\tmp\ccwMNTRe.s:827    .text:0000000000000278 .L0 
C:\msys64\tmp\ccwMNTRe.s:765    .rodata.str1.8:0000000000000050 .LC7
C:\msys64\tmp\ccwMNTRe.s:850    .text:0000000000000298 .L0 
C:\msys64\tmp\ccwMNTRe.s:862    .text:00000000000002bc .L0 
C:\msys64\tmp\ccwMNTRe.s:768    .rodata.str1.8:0000000000000058 .LC8
C:\msys64\tmp\ccwMNTRe.s:874    .text:00000000000002dc .L0 
C:\msys64\tmp\ccwMNTRe.s:887    .text:0000000000000300 .L0 
C:\msys64\tmp\ccwMNTRe.s:894    .text:0000000000000314 .L0 
C:\msys64\tmp\ccwMNTRe.s:906    .text:0000000000000338 .L0 
C:\msys64\tmp\ccwMNTRe.s:921    .text:0000000000000358 .L0 
C:\msys64\tmp\ccwMNTRe.s:927    .text:000000000000036c .L0 
C:\msys64\tmp\ccwMNTRe.s:986    .rodata.str1.8:0000000000000068 .LC9
C:\msys64\tmp\ccwMNTRe.s:1027   .text:00000000000003b4 .L0 
C:\msys64\tmp\ccwMNTRe.s:1039   .text:00000000000003d8 .L0 
C:\msys64\tmp\ccwMNTRe.s:989    .rodata.str1.8:0000000000000070 .LC10
C:\msys64\tmp\ccwMNTRe.s:1054   .text:00000000000003f8 .L0 
C:\msys64\tmp\ccwMNTRe.s:992    .rodata.str1.8:0000000000000080 .LC11
C:\msys64\tmp\ccwMNTRe.s:1076   .text:0000000000000424 .L0 
C:\msys64\tmp\ccwMNTRe.s:1089   .text:0000000000000448 .L0 
C:\msys64\tmp\ccwMNTRe.s:1096   .text:000000000000045c .L0 
C:\msys64\tmp\ccwMNTRe.s:1108   .text:0000000000000480 .L0 
C:\msys64\tmp\ccwMNTRe.s:995    .rodata.str1.8:0000000000000090 .LC12
C:\msys64\tmp\ccwMNTRe.s:1123   .text:00000000000004a0 .L0 
C:\msys64\tmp\ccwMNTRe.s:1129   .text:00000000000004b4 .L0 
C:\msys64\tmp\ccwMNTRe.s:1238   .text:000000000000050c .L0 
C:\msys64\tmp\ccwMNTRe.s:1188   .rodata.str1.8:00000000000000a0 .LC13
C:\msys64\tmp\ccwMNTRe.s:1247   .text:000000000000051c .L0 
C:\msys64\tmp\ccwMNTRe.s:1266   .text:0000000000000544 .L0 
C:\msys64\tmp\ccwMNTRe.s:1191   .rodata.str1.8:00000000000000b8 .LC14
C:\msys64\tmp\ccwMNTRe.s:1275   .text:0000000000000554 .L0 
C:\msys64\tmp\ccwMNTRe.s:1294   .text:000000000000057c .L0 
C:\msys64\tmp\ccwMNTRe.s:1194   .rodata.str1.8:00000000000000d0 .LC15
C:\msys64\tmp\ccwMNTRe.s:1303   .text:000000000000058c .L0 
C:\msys64\tmp\ccwMNTRe.s:1322   .text:00000000000005b4 .L0 
C:\msys64\tmp\ccwMNTRe.s:1197   .rodata.str1.8:00000000000000e8 .LC16
C:\msys64\tmp\ccwMNTRe.s:1331   .text:00000000000005c4 .L0 
C:\msys64\tmp\ccwMNTRe.s:1368   .text:0000000000000608 .L0 
C:\msys64\tmp\ccwMNTRe.s:1372   .text:0000000000000614 .L0 
C:\msys64\tmp\ccwMNTRe.s:1376   .text:0000000000000620 .L0 
C:\msys64\tmp\ccwMNTRe.s:1380   .text:000000000000062c .L0 
C:\msys64\tmp\ccwMNTRe.s:53     .text:0000000000000050 .L1
C:\msys64\tmp\ccwMNTRe.s:70     .text:0000000000000068 .L6
C:\msys64\tmp\ccwMNTRe.s:40     .text:0000000000000030 .L3
C:\msys64\tmp\ccwMNTRe.s:494    .text:00000000000000c8 .L29
C:\msys64\tmp\ccwMNTRe.s:454    .text:0000000000000094 .L31
C:\msys64\tmp\ccwMNTRe.s:486    .text:00000000000000c4 .L25
C:\msys64\tmp\ccwMNTRe.s:462    .text:0000000000000098 .L27
C:\msys64\tmp\ccwMNTRe.s:522    .text:000000000000010c .L24
C:\msys64\tmp\ccwMNTRe.s:476    .text:00000000000000b0 .L28
C:\msys64\tmp\ccwMNTRe.s:661    .text:0000000000000194 .L40
C:\msys64\tmp\ccwMNTRe.s:621    .text:0000000000000160 .L42
C:\msys64\tmp\ccwMNTRe.s:653    .text:0000000000000190 .L36
C:\msys64\tmp\ccwMNTRe.s:629    .text:0000000000000164 .L38
GAS LISTING C:\msys64\tmp\ccwMNTRe.s 			page 46


C:\msys64\tmp\ccwMNTRe.s:689    .text:00000000000001d8 .L35
C:\msys64\tmp\ccwMNTRe.s:643    .text:000000000000017c .L39
C:\msys64\tmp\ccwMNTRe.s:820    .text:0000000000000270 .L47
C:\msys64\tmp\ccwMNTRe.s:797    .text:0000000000000234 .L51
C:\msys64\tmp\ccwMNTRe.s:914    .text:0000000000000350 .L49
C:\msys64\tmp\ccwMNTRe.s:891    .text:0000000000000314 .L52
C:\msys64\tmp\ccwMNTRe.s:1047   .text:00000000000003f0 .L57
C:\msys64\tmp\ccwMNTRe.s:1024   .text:00000000000003b4 .L61
C:\msys64\tmp\ccwMNTRe.s:1116   .text:0000000000000498 .L59
C:\msys64\tmp\ccwMNTRe.s:1093   .text:000000000000045c .L62
C:\msys64\tmp\ccwMNTRe.s:1364   .text:0000000000000608 .L66
C:\msys64\tmp\ccwMNTRe.s:1338   .text:00000000000005d8 .L67
C:\msys64\tmp\ccwMNTRe.s:1357   .text:0000000000000600 .L68
C:\msys64\tmp\ccwMNTRe.s:1392   .text:0000000000000644 .L69
C:\msys64\tmp\ccwMNTRe.s:1453   .text:00000000000006d4 .L65
C:\msys64\tmp\ccwMNTRe.s:1387   .text:0000000000000640 .L71
C:\msys64\tmp\ccwMNTRe.s:99     .text._ZN7WorkerAD2Ev:0000000000000010 .L0 
C:\msys64\tmp\ccwMNTRe.s:141    .text._ZN7WorkerAD0Ev:0000000000000018 .L0 
C:\msys64\tmp\ccwMNTRe.s:183    .text._ZN7WorkerBD2Ev:0000000000000010 .L0 
C:\msys64\tmp\ccwMNTRe.s:225    .text._ZN7WorkerBD0Ev:0000000000000018 .L0 
C:\msys64\tmp\ccwMNTRe.s:267    .text._ZN7WorkerCD2Ev:0000000000000010 .L0 
C:\msys64\tmp\ccwMNTRe.s:309    .text._ZN7WorkerCD0Ev:0000000000000018 .L0 
C:\msys64\tmp\ccwMNTRe.s:351    .text._ZN7WorkerDD2Ev:0000000000000010 .L0 
C:\msys64\tmp\ccwMNTRe.s:393    .text._ZN7WorkerDD0Ev:0000000000000018 .L0 
C:\msys64\tmp\ccwMNTRe.s:1225   .text:00000000000004f8 .LEHB0
C:\msys64\tmp\ccwMNTRe.s:1204   .text:00000000000004dc .LFB23
C:\msys64\tmp\ccwMNTRe.s:1228   .text:0000000000000500 .LEHE0
C:\msys64\tmp\ccwMNTRe.s:1231   .text:0000000000000504 .LEHB1
C:\msys64\tmp\ccwMNTRe.s:1237   .text:000000000000050c .LEHE1
C:\msys64\tmp\ccwMNTRe.s:1408   .text:0000000000000664 .L77
C:\msys64\tmp\ccwMNTRe.s:1248   .text:0000000000000524 .LEHB2
C:\msys64\tmp\ccwMNTRe.s:1256   .text:0000000000000538 .LEHE2
C:\msys64\tmp\ccwMNTRe.s:1259   .text:000000000000053c .LEHB3
C:\msys64\tmp\ccwMNTRe.s:1265   .text:0000000000000544 .LEHE3
C:\msys64\tmp\ccwMNTRe.s:1420   .text:0000000000000680 .L78
C:\msys64\tmp\ccwMNTRe.s:1276   .text:000000000000055c .LEHB4
C:\msys64\tmp\ccwMNTRe.s:1284   .text:0000000000000570 .LEHE4
C:\msys64\tmp\ccwMNTRe.s:1287   .text:0000000000000574 .LEHB5
C:\msys64\tmp\ccwMNTRe.s:1293   .text:000000000000057c .LEHE5
C:\msys64\tmp\ccwMNTRe.s:1431   .text:000000000000069c .L79
C:\msys64\tmp\ccwMNTRe.s:1304   .text:0000000000000594 .LEHB6
C:\msys64\tmp\ccwMNTRe.s:1312   .text:00000000000005a8 .LEHE6
C:\msys64\tmp\ccwMNTRe.s:1315   .text:00000000000005ac .LEHB7
C:\msys64\tmp\ccwMNTRe.s:1321   .text:00000000000005b4 .LEHE7
C:\msys64\tmp\ccwMNTRe.s:1442   .text:00000000000006b8 .L80
C:\msys64\tmp\ccwMNTRe.s:1332   .text:00000000000005cc .LEHB8
C:\msys64\tmp\ccwMNTRe.s:1363   .text:0000000000000608 .LEHE8
C:\msys64\tmp\ccwMNTRe.s:1416   .text:0000000000000678 .LEHB9
C:\msys64\tmp\ccwMNTRe.s:1419   .text:0000000000000680 .LEHE9
C:\msys64\tmp\ccwMNTRe.s:1427   .text:0000000000000694 .LEHB10
C:\msys64\tmp\ccwMNTRe.s:1430   .text:000000000000069c .LEHE10
C:\msys64\tmp\ccwMNTRe.s:1438   .text:00000000000006b0 .LEHB11
C:\msys64\tmp\ccwMNTRe.s:1441   .text:00000000000006b8 .LEHE11
C:\msys64\tmp\ccwMNTRe.s:1449   .text:00000000000006cc .LEHB12
C:\msys64\tmp\ccwMNTRe.s:1452   .text:00000000000006d4 .LEHE12
C:\msys64\tmp\ccwMNTRe.s:3778   .debug_abbrev:0000000000000000 .Ldebug_abbrev0
C:\msys64\tmp\ccwMNTRe.s:5218   .debug_str:0000000000000109 .LASF88
GAS LISTING C:\msys64\tmp\ccwMNTRe.s 			page 47


C:\msys64\tmp\ccwMNTRe.s:5202   .debug_str:00000000000000a2 .LASF89
C:\msys64\tmp\ccwMNTRe.s:5318   .debug_str:00000000000004bf .LASF90
C:\msys64\tmp\ccwMNTRe.s:5124   .debug_ranges:0000000000000000 .Ldebug_ranges0
C:\msys64\tmp\ccwMNTRe.s:5178   .debug_line:0000000000000000 .Ldebug_line0
C:\msys64\tmp\ccwMNTRe.s:5292   .debug_str:000000000000040d .LASF0
C:\msys64\tmp\ccwMNTRe.s:5300   .debug_str:000000000000043a .LASF1
C:\msys64\tmp\ccwMNTRe.s:5282   .debug_str:00000000000003b8 .LASF2
C:\msys64\tmp\ccwMNTRe.s:5226   .debug_str:000000000000021a .LASF3
C:\msys64\tmp\ccwMNTRe.s:5260   .debug_str:0000000000000322 .LASF4
C:\msys64\tmp\ccwMNTRe.s:5332   .debug_str:0000000000000548 .LASF5
C:\msys64\tmp\ccwMNTRe.s:5200   .debug_str:000000000000009b .LASF6
C:\msys64\tmp\ccwMNTRe.s:5304   .debug_str:000000000000045c .LASF7
C:\msys64\tmp\ccwMNTRe.s:5290   .debug_str:00000000000003fa .LASF8
C:\msys64\tmp\ccwMNTRe.s:5316   .debug_str:00000000000004b0 .LASF9
C:\msys64\tmp\ccwMNTRe.s:5214   .debug_str:00000000000000ed .LASF10
C:\msys64\tmp\ccwMNTRe.s:5326   .debug_str:0000000000000516 .LASF11
C:\msys64\tmp\ccwMNTRe.s:5224   .debug_str:0000000000000204 .LASF12
C:\msys64\tmp\ccwMNTRe.s:5306   .debug_str:000000000000046f .LASF13
C:\msys64\tmp\ccwMNTRe.s:5256   .debug_str:000000000000030e .LASF14
C:\msys64\tmp\ccwMNTRe.s:5234   .debug_str:000000000000025c .LASF15
C:\msys64\tmp\ccwMNTRe.s:5258   .debug_str:0000000000000318 .LASF16
C:\msys64\tmp\ccwMNTRe.s:5190   .debug_str:0000000000000047 .LASF17
C:\msys64\tmp\ccwMNTRe.s:5262   .debug_str:0000000000000329 .LASF18
C:\msys64\tmp\ccwMNTRe.s:5356   .debug_str:00000000000005e4 .LASF19
C:\msys64\tmp\ccwMNTRe.s:5286   .debug_str:00000000000003d6 .LASF20
C:\msys64\tmp\ccwMNTRe.s:5252   .debug_str:00000000000002f1 .LASF21
C:\msys64\tmp\ccwMNTRe.s:5188   .debug_str:000000000000003b .LASF22
C:\msys64\tmp\ccwMNTRe.s:5192   .debug_str:0000000000000051 .LASF32
C:\msys64\tmp\ccwMNTRe.s:5228   .debug_str:0000000000000220 .LASF34
C:\msys64\tmp\ccwMNTRe.s:5194   .debug_str:000000000000006d .LASF36
C:\msys64\tmp\ccwMNTRe.s:5210   .debug_str:00000000000000db .LASF23
C:\msys64\tmp\ccwMNTRe.s:5284   .debug_str:00000000000003c6 .LASF39
C:\msys64\tmp\ccwMNTRe.s:5344   .debug_str:00000000000005a1 .LASF91
C:\msys64\tmp\ccwMNTRe.s:5242   .debug_str:00000000000002a6 .LASF24
C:\msys64\tmp\ccwMNTRe.s:5248   .debug_str:00000000000002dc .LASF26
C:\msys64\tmp\ccwMNTRe.s:5238   .debug_str:0000000000000276 .LASF25
C:\msys64\tmp\ccwMNTRe.s:5296   .debug_str:000000000000042a .LASF27
C:\msys64\tmp\ccwMNTRe.s:5352   .debug_str:00000000000005cc .LASF28
C:\msys64\tmp\ccwMNTRe.s:5370   .debug_str:0000000000000654 .LASF29
C:\msys64\tmp\ccwMNTRe.s:5186   .debug_str:0000000000000028 .LASF30
C:\msys64\tmp\ccwMNTRe.s:5196   .debug_str:000000000000007f .LASF31
C:\msys64\tmp\ccwMNTRe.s:5230   .debug_str:0000000000000230 .LASF33
C:\msys64\tmp\ccwMNTRe.s:5354   .debug_str:00000000000005d4 .LASF35
C:\msys64\tmp\ccwMNTRe.s:5288   .debug_str:00000000000003e8 .LASF37
C:\msys64\tmp\ccwMNTRe.s:5208   .debug_str:00000000000000d2 .LASF38
C:\msys64\tmp\ccwMNTRe.s:5216   .debug_str:00000000000000f9 .LASF40
C:\msys64\tmp\ccwMNTRe.s:5314   .debug_str:00000000000004a8 .LASF41
C:\msys64\tmp\ccwMNTRe.s:5272   .debug_str:0000000000000369 .LASF42
C:\msys64\tmp\ccwMNTRe.s:5320   .debug_str:00000000000004ee .LASF43
C:\msys64\tmp\ccwMNTRe.s:5184   .debug_str:000000000000001c .LASF44
C:\msys64\tmp\ccwMNTRe.s:5368   .debug_str:0000000000000638 .LASF45
C:\msys64\tmp\ccwMNTRe.s:5294   .debug_str:000000000000041a .LASF46
C:\msys64\tmp\ccwMNTRe.s:5372   .debug_str:0000000000000666 .LASF47
C:\msys64\tmp\ccwMNTRe.s:5206   .debug_str:00000000000000c9 .LASF48
C:\msys64\tmp\ccwMNTRe.s:5340   .debug_str:0000000000000581 .LASF49
C:\msys64\tmp\ccwMNTRe.s:5312   .debug_str:00000000000004a0 .LASF50
C:\msys64\tmp\ccwMNTRe.s:5350   .debug_str:00000000000005ba .LASF51
GAS LISTING C:\msys64\tmp\ccwMNTRe.s 			page 48


C:\msys64\tmp\ccwMNTRe.s:5246   .debug_str:00000000000002c9 .LASF52
C:\msys64\tmp\ccwMNTRe.s:5182   .debug_str:0000000000000010 .LASF53
C:\msys64\tmp\ccwMNTRe.s:5310   .debug_str:0000000000000484 .LASF54
C:\msys64\tmp\ccwMNTRe.s:5342   .debug_str:0000000000000591 .LASF55
C:\msys64\tmp\ccwMNTRe.s:5274   .debug_str:000000000000037b .LASF56
C:\msys64\tmp\ccwMNTRe.s:5204   .debug_str:00000000000000c0 .LASF57
C:\msys64\tmp\ccwMNTRe.s:5280   .debug_str:00000000000003a8 .LASF58
C:\msys64\tmp\ccwMNTRe.s:5322   .debug_str:0000000000000501 .LASF59
C:\msys64\tmp\ccwMNTRe.s:5254   .debug_str:0000000000000304 .LASF60
C:\msys64\tmp\ccwMNTRe.s:5360   .debug_str:00000000000005f9 .LASF61
C:\msys64\tmp\ccwMNTRe.s:122    .text._ZN7WorkerAD0Ev:0000000000000000 .LFB39
C:\msys64\tmp\ccwMNTRe.s:162    .text._ZN7WorkerAD0Ev:000000000000004c .LFE39
C:\msys64\tmp\ccwMNTRe.s:4520   .debug_loc:0000000000000000 .LLST2
C:\msys64\tmp\ccwMNTRe.s:138    .text._ZN7WorkerAD0Ev:0000000000000018 .LBB29
C:\msys64\tmp\ccwMNTRe.s:146    .text._ZN7WorkerAD0Ev:000000000000002c .LBE29
C:\msys64\tmp\ccwMNTRe.s:4538   .debug_loc:000000000000004c .LLST3
C:\msys64\tmp\ccwMNTRe.s:144    .text._ZN7WorkerAD0Ev:000000000000002c .LVL11
C:\msys64\tmp\ccwMNTRe.s:149    .text._ZN7WorkerAD0Ev:0000000000000038 .LVL12
C:\msys64\tmp\ccwMNTRe.s:5324   .debug_str:0000000000000506 .LASF62
C:\msys64\tmp\ccwMNTRe.s:85     .text._ZN7WorkerAD2Ev:0000000000000000 .LFB37
C:\msys64\tmp\ccwMNTRe.s:113    .text._ZN7WorkerAD2Ev:0000000000000034 .LFE37
C:\msys64\tmp\ccwMNTRe.s:4549   .debug_loc:0000000000000082 .LLST1
C:\msys64\tmp\ccwMNTRe.s:102    .text._ZN7WorkerAD2Ev:0000000000000024 .LVL8
C:\msys64\tmp\ccwMNTRe.s:5232   .debug_str:000000000000024c .LASF63
C:\msys64\tmp\ccwMNTRe.s:206    .text._ZN7WorkerBD0Ev:0000000000000000 .LFB35
C:\msys64\tmp\ccwMNTRe.s:246    .text._ZN7WorkerBD0Ev:000000000000004c .LFE35
C:\msys64\tmp\ccwMNTRe.s:4563   .debug_loc:00000000000000bb .LLST5
C:\msys64\tmp\ccwMNTRe.s:222    .text._ZN7WorkerBD0Ev:0000000000000018 .LBB32
C:\msys64\tmp\ccwMNTRe.s:230    .text._ZN7WorkerBD0Ev:000000000000002c .LBE32
C:\msys64\tmp\ccwMNTRe.s:4581   .debug_loc:0000000000000107 .LLST6
C:\msys64\tmp\ccwMNTRe.s:228    .text._ZN7WorkerBD0Ev:000000000000002c .LVL18
C:\msys64\tmp\ccwMNTRe.s:233    .text._ZN7WorkerBD0Ev:0000000000000038 .LVL19
C:\msys64\tmp\ccwMNTRe.s:5244   .debug_str:00000000000002b9 .LASF64
C:\msys64\tmp\ccwMNTRe.s:169    .text._ZN7WorkerBD2Ev:0000000000000000 .LFB33
C:\msys64\tmp\ccwMNTRe.s:197    .text._ZN7WorkerBD2Ev:0000000000000034 .LFE33
C:\msys64\tmp\ccwMNTRe.s:4592   .debug_loc:000000000000013d .LLST4
C:\msys64\tmp\ccwMNTRe.s:186    .text._ZN7WorkerBD2Ev:0000000000000024 .LVL15
C:\msys64\tmp\ccwMNTRe.s:5268   .debug_str:000000000000034f .LASF65
C:\msys64\tmp\ccwMNTRe.s:290    .text._ZN7WorkerCD0Ev:0000000000000000 .LFB31
C:\msys64\tmp\ccwMNTRe.s:330    .text._ZN7WorkerCD0Ev:000000000000004c .LFE31
C:\msys64\tmp\ccwMNTRe.s:4606   .debug_loc:0000000000000176 .LLST8
C:\msys64\tmp\ccwMNTRe.s:306    .text._ZN7WorkerCD0Ev:0000000000000018 .LBB35
C:\msys64\tmp\ccwMNTRe.s:314    .text._ZN7WorkerCD0Ev:000000000000002c .LBE35
C:\msys64\tmp\ccwMNTRe.s:4624   .debug_loc:00000000000001c2 .LLST9
C:\msys64\tmp\ccwMNTRe.s:312    .text._ZN7WorkerCD0Ev:000000000000002c .LVL25
C:\msys64\tmp\ccwMNTRe.s:317    .text._ZN7WorkerCD0Ev:0000000000000038 .LVL26
C:\msys64\tmp\ccwMNTRe.s:5264   .debug_str:0000000000000333 .LASF66
C:\msys64\tmp\ccwMNTRe.s:253    .text._ZN7WorkerCD2Ev:0000000000000000 .LFB29
C:\msys64\tmp\ccwMNTRe.s:281    .text._ZN7WorkerCD2Ev:0000000000000034 .LFE29
C:\msys64\tmp\ccwMNTRe.s:4635   .debug_loc:00000000000001f8 .LLST7
C:\msys64\tmp\ccwMNTRe.s:270    .text._ZN7WorkerCD2Ev:0000000000000024 .LVL22
C:\msys64\tmp\ccwMNTRe.s:5366   .debug_str:0000000000000628 .LASF67
C:\msys64\tmp\ccwMNTRe.s:374    .text._ZN7WorkerDD0Ev:0000000000000000 .LFB27
C:\msys64\tmp\ccwMNTRe.s:414    .text._ZN7WorkerDD0Ev:000000000000004c .LFE27
C:\msys64\tmp\ccwMNTRe.s:4649   .debug_loc:0000000000000231 .LLST11
C:\msys64\tmp\ccwMNTRe.s:390    .text._ZN7WorkerDD0Ev:0000000000000018 .LBB38
C:\msys64\tmp\ccwMNTRe.s:398    .text._ZN7WorkerDD0Ev:000000000000002c .LBE38
GAS LISTING C:\msys64\tmp\ccwMNTRe.s 			page 49


C:\msys64\tmp\ccwMNTRe.s:4667   .debug_loc:000000000000027d .LLST12
C:\msys64\tmp\ccwMNTRe.s:396    .text._ZN7WorkerDD0Ev:000000000000002c .LVL32
C:\msys64\tmp\ccwMNTRe.s:401    .text._ZN7WorkerDD0Ev:0000000000000038 .LVL33
C:\msys64\tmp\ccwMNTRe.s:5330   .debug_str:0000000000000538 .LASF68
C:\msys64\tmp\ccwMNTRe.s:337    .text._ZN7WorkerDD2Ev:0000000000000000 .LFB25
C:\msys64\tmp\ccwMNTRe.s:365    .text._ZN7WorkerDD2Ev:0000000000000034 .LFE25
C:\msys64\tmp\ccwMNTRe.s:4678   .debug_loc:00000000000002b3 .LLST10
C:\msys64\tmp\ccwMNTRe.s:354    .text._ZN7WorkerDD2Ev:0000000000000024 .LVL29
C:\msys64\tmp\ccwMNTRe.s:5278   .debug_str:0000000000000393 .LASF92
C:\msys64\tmp\ccwMNTRe.s:5240   .debug_str:000000000000028c .LASF93
C:\msys64\tmp\ccwMNTRe.s:1469   .text:00000000000006ec .LFE23
C:\msys64\tmp\ccwMNTRe.s:5348   .debug_str:00000000000005b2 .LASF69
C:\msys64\tmp\ccwMNTRe.s:1335   .text:00000000000005d4 .LBB66
C:\msys64\tmp\ccwMNTRe.s:1358   .text:0000000000000600 .LBE66
C:\msys64\tmp\ccwMNTRe.s:4692   .debug_loc:00000000000002ec .LLST40
C:\msys64\tmp\ccwMNTRe.s:1351   .text:00000000000005f8 .LVL145
C:\msys64\tmp\ccwMNTRe.s:1388   .text:0000000000000640 .LBB67
C:\msys64\tmp\ccwMNTRe.s:1409   .text:0000000000000664 .LBE67
C:\msys64\tmp\ccwMNTRe.s:5298   .debug_str:0000000000000433 .LASF70
C:\msys64\tmp\ccwMNTRe.s:4703   .debug_loc:0000000000000322 .LLST41
C:\msys64\tmp\ccwMNTRe.s:5362   .debug_str:0000000000000609 .LASF71
C:\msys64\tmp\ccwMNTRe.s:5328   .debug_str:000000000000052c .LASF94
C:\msys64\tmp\ccwMNTRe.s:4710   .debug_loc:0000000000000345 .LLST42
C:\msys64\tmp\ccwMNTRe.s:5270   .debug_str:000000000000035f .LASF72
C:\msys64\tmp\ccwMNTRe.s:1232   .text:0000000000000504 .LBB58
C:\msys64\tmp\ccwMNTRe.s:1242   .text:0000000000000518 .LBE58
C:\msys64\tmp\ccwMNTRe.s:4721   .debug_loc:000000000000037b .LLST36
C:\msys64\tmp\ccwMNTRe.s:1236   .text:000000000000050c .LVL126
C:\msys64\tmp\ccwMNTRe.s:1260   .text:000000000000053c .LBB60
C:\msys64\tmp\ccwMNTRe.s:1270   .text:0000000000000550 .LBE60
C:\msys64\tmp\ccwMNTRe.s:4732   .debug_loc:00000000000003b1 .LLST37
C:\msys64\tmp\ccwMNTRe.s:1264   .text:0000000000000544 .LVL131
C:\msys64\tmp\ccwMNTRe.s:1288   .text:0000000000000574 .LBB62
C:\msys64\tmp\ccwMNTRe.s:1298   .text:0000000000000588 .LBE62
C:\msys64\tmp\ccwMNTRe.s:4743   .debug_loc:00000000000003e7 .LLST38
C:\msys64\tmp\ccwMNTRe.s:1292   .text:000000000000057c .LVL136
C:\msys64\tmp\ccwMNTRe.s:1316   .text:00000000000005ac .LBB64
C:\msys64\tmp\ccwMNTRe.s:1326   .text:00000000000005c0 .LBE64
C:\msys64\tmp\ccwMNTRe.s:4754   .debug_loc:000000000000041d .LLST39
C:\msys64\tmp\ccwMNTRe.s:1320   .text:00000000000005b4 .LVL141
C:\msys64\tmp\ccwMNTRe.s:1227   .text:0000000000000500 .LVL124
C:\msys64\tmp\ccwMNTRe.s:1250   .text:000000000000052c .LVL128
C:\msys64\tmp\ccwMNTRe.s:1255   .text:0000000000000538 .LVL129
C:\msys64\tmp\ccwMNTRe.s:1278   .text:0000000000000564 .LVL133
C:\msys64\tmp\ccwMNTRe.s:1283   .text:0000000000000570 .LVL134
C:\msys64\tmp\ccwMNTRe.s:1306   .text:000000000000059c .LVL138
C:\msys64\tmp\ccwMNTRe.s:1311   .text:00000000000005a8 .LVL139
C:\msys64\tmp\ccwMNTRe.s:1334   .text:00000000000005d4 .LVL143
C:\msys64\tmp\ccwMNTRe.s:1362   .text:0000000000000608 .LVL148
C:\msys64\tmp\ccwMNTRe.s:1414   .text:0000000000000674 .LVL155
C:\msys64\tmp\ccwMNTRe.s:1418   .text:0000000000000680 .LVL156
C:\msys64\tmp\ccwMNTRe.s:1425   .text:0000000000000690 .LVL157
C:\msys64\tmp\ccwMNTRe.s:1429   .text:000000000000069c .LVL158
C:\msys64\tmp\ccwMNTRe.s:1436   .text:00000000000006ac .LVL159
C:\msys64\tmp\ccwMNTRe.s:1440   .text:00000000000006b8 .LVL160
C:\msys64\tmp\ccwMNTRe.s:1447   .text:00000000000006c8 .LVL161
C:\msys64\tmp\ccwMNTRe.s:1451   .text:00000000000006d4 .LVL162
GAS LISTING C:\msys64\tmp\ccwMNTRe.s 			page 50


C:\msys64\tmp\ccwMNTRe.s:1002   .text:0000000000000394 .LFB22
C:\msys64\tmp\ccwMNTRe.s:1150   .text:00000000000004dc .LFE22
C:\msys64\tmp\ccwMNTRe.s:4765   .debug_loc:0000000000000453 .LLST31
C:\msys64\tmp\ccwMNTRe.s:4779   .debug_loc:000000000000048c .LLST32
C:\msys64\tmp\ccwMNTRe.s:4793   .debug_loc:00000000000004c5 .LLST33
C:\msys64\tmp\ccwMNTRe.s:5334   .debug_str:000000000000055a .LASF73
C:\msys64\tmp\ccwMNTRe.s:4813   .debug_loc:0000000000000522 .LLST34
C:\msys64\tmp\ccwMNTRe.s:1029   .text:00000000000003c4 .LVL100
C:\msys64\tmp\ccwMNTRe.s:1036   .text:00000000000003d8 .LVL101
C:\msys64\tmp\ccwMNTRe.s:1041   .text:00000000000003e8 .LVL102
C:\msys64\tmp\ccwMNTRe.s:1056   .text:0000000000000408 .LVL105
C:\msys64\tmp\ccwMNTRe.s:1066   .text:0000000000000414 .LVL106
C:\msys64\tmp\ccwMNTRe.s:1071   .text:0000000000000420 .LVL107
C:\msys64\tmp\ccwMNTRe.s:1079   .text:0000000000000434 .LVL110
C:\msys64\tmp\ccwMNTRe.s:1086   .text:0000000000000448 .LVL111
C:\msys64\tmp\ccwMNTRe.s:1091   .text:0000000000000458 .LVL112
C:\msys64\tmp\ccwMNTRe.s:1098   .text:000000000000046c .LVL113
C:\msys64\tmp\ccwMNTRe.s:1105   .text:0000000000000480 .LVL114
C:\msys64\tmp\ccwMNTRe.s:1110   .text:0000000000000490 .LVL115
C:\msys64\tmp\ccwMNTRe.s:1125   .text:00000000000004b0 .LVL118
C:\msys64\tmp\ccwMNTRe.s:1133   .text:00000000000004c4 .LVL119
C:\msys64\tmp\ccwMNTRe.s:775    .text:0000000000000214 .LFB21
C:\msys64\tmp\ccwMNTRe.s:948    .text:0000000000000394 .LFE21
C:\msys64\tmp\ccwMNTRe.s:4824   .debug_loc:0000000000000558 .LLST25
C:\msys64\tmp\ccwMNTRe.s:4838   .debug_loc:0000000000000591 .LLST26
C:\msys64\tmp\ccwMNTRe.s:4852   .debug_loc:00000000000005ca .LLST27
C:\msys64\tmp\ccwMNTRe.s:4872   .debug_loc:0000000000000627 .LLST28
C:\msys64\tmp\ccwMNTRe.s:4880   .debug_loc:000000000000064b .LLST29
C:\msys64\tmp\ccwMNTRe.s:802    .text:0000000000000244 .LVL69
C:\msys64\tmp\ccwMNTRe.s:809    .text:0000000000000258 .LVL70
C:\msys64\tmp\ccwMNTRe.s:814    .text:0000000000000268 .LVL71
C:\msys64\tmp\ccwMNTRe.s:829    .text:0000000000000288 .LVL74
C:\msys64\tmp\ccwMNTRe.s:839    .text:0000000000000294 .LVL75
C:\msys64\tmp\ccwMNTRe.s:852    .text:00000000000002a8 .LVL77
C:\msys64\tmp\ccwMNTRe.s:859    .text:00000000000002bc .LVL78
C:\msys64\tmp\ccwMNTRe.s:864    .text:00000000000002cc .LVL79
C:\msys64\tmp\ccwMNTRe.s:869    .text:00000000000002d8 .LVL80
C:\msys64\tmp\ccwMNTRe.s:877    .text:00000000000002ec .LVL83
C:\msys64\tmp\ccwMNTRe.s:884    .text:0000000000000300 .LVL84
C:\msys64\tmp\ccwMNTRe.s:889    .text:0000000000000310 .LVL85
C:\msys64\tmp\ccwMNTRe.s:896    .text:0000000000000324 .LVL86
C:\msys64\tmp\ccwMNTRe.s:903    .text:0000000000000338 .LVL87
C:\msys64\tmp\ccwMNTRe.s:908    .text:0000000000000348 .LVL88
C:\msys64\tmp\ccwMNTRe.s:923    .text:0000000000000368 .LVL91
C:\msys64\tmp\ccwMNTRe.s:931    .text:000000000000037c .LVL92
C:\msys64\tmp\ccwMNTRe.s:598    .text:0000000000000140 .LFB20
C:\msys64\tmp\ccwMNTRe.s:721    .text:0000000000000214 .LFE20
C:\msys64\tmp\ccwMNTRe.s:4891   .debug_loc:0000000000000681 .LLST19
C:\msys64\tmp\ccwMNTRe.s:4905   .debug_loc:00000000000006ba .LLST20
C:\msys64\tmp\ccwMNTRe.s:616    .text:0000000000000158 .LBB49
C:\msys64\tmp\ccwMNTRe.s:692    .text:00000000000001d8 .LBE49
C:\msys64\tmp\ccwMNTRe.s:4919   .debug_loc:00000000000006f3 .LLST21
C:\msys64\tmp\ccwMNTRe.s:4931   .debug_loc:000000000000072a .LLST22
C:\msys64\tmp\ccwMNTRe.s:4943   .debug_loc:0000000000000761 .LLST23
C:\msys64\tmp\ccwMNTRe.s:638    .text:0000000000000178 .LVL54
C:\msys64\tmp\ccwMNTRe.s:670    .text:00000000000001ac .LVL57
C:\msys64\tmp\ccwMNTRe.s:677    .text:00000000000001c0 .LVL58
GAS LISTING C:\msys64\tmp\ccwMNTRe.s 			page 51


C:\msys64\tmp\ccwMNTRe.s:682    .text:00000000000001d0 .LVL59
C:\msys64\tmp\ccwMNTRe.s:697    .text:00000000000001e8 .LVL61
C:\msys64\tmp\ccwMNTRe.s:705    .text:00000000000001fc .LVL62
C:\msys64\tmp\ccwMNTRe.s:431    .text:0000000000000074 .LFB19
C:\msys64\tmp\ccwMNTRe.s:550    .text:0000000000000140 .LFE19
C:\msys64\tmp\ccwMNTRe.s:4950   .debug_loc:0000000000000784 .LLST13
C:\msys64\tmp\ccwMNTRe.s:4964   .debug_loc:00000000000007bd .LLST14
C:\msys64\tmp\ccwMNTRe.s:449    .text:000000000000008c .LBB40
C:\msys64\tmp\ccwMNTRe.s:525    .text:000000000000010c .LBE40
C:\msys64\tmp\ccwMNTRe.s:4978   .debug_loc:00000000000007f6 .LLST15
C:\msys64\tmp\ccwMNTRe.s:4990   .debug_loc:000000000000082d .LLST16
C:\msys64\tmp\ccwMNTRe.s:5002   .debug_loc:0000000000000864 .LLST17
C:\msys64\tmp\ccwMNTRe.s:471    .text:00000000000000ac .LVL39
C:\msys64\tmp\ccwMNTRe.s:503    .text:00000000000000e0 .LVL42
C:\msys64\tmp\ccwMNTRe.s:510    .text:00000000000000f4 .LVL43
C:\msys64\tmp\ccwMNTRe.s:515    .text:0000000000000104 .LVL44
C:\msys64\tmp\ccwMNTRe.s:530    .text:000000000000011c .LVL46
C:\msys64\tmp\ccwMNTRe.s:1157   .text._ZN7WorkerD3runEv:0000000000000000 .LFB18
C:\msys64\tmp\ccwMNTRe.s:1184   .text._ZN7WorkerD3runEv:000000000000002c .LFE18
C:\msys64\tmp\ccwMNTRe.s:5009   .debug_loc:0000000000000887 .LLST35
C:\msys64\tmp\ccwMNTRe.s:1173   .text._ZN7WorkerD3runEv:000000000000001c .LVL123
C:\msys64\tmp\ccwMNTRe.s:5308   .debug_str:0000000000000474 .LASF74
C:\msys64\tmp\ccwMNTRe.s:955    .text._ZN7WorkerC3runEv:0000000000000000 .LFB14
C:\msys64\tmp\ccwMNTRe.s:982    .text._ZN7WorkerC3runEv:000000000000002c .LFE14
C:\msys64\tmp\ccwMNTRe.s:5023   .debug_loc:00000000000008c0 .LLST30
C:\msys64\tmp\ccwMNTRe.s:971    .text._ZN7WorkerC3runEv:000000000000001c .LVL96
C:\msys64\tmp\ccwMNTRe.s:5198   .debug_str:000000000000008b .LASF75
C:\msys64\tmp\ccwMNTRe.s:728    .text._ZN7WorkerB3runEv:0000000000000000 .LFB10
C:\msys64\tmp\ccwMNTRe.s:755    .text._ZN7WorkerB3runEv:000000000000002c .LFE10
C:\msys64\tmp\ccwMNTRe.s:5037   .debug_loc:00000000000008f9 .LLST24
C:\msys64\tmp\ccwMNTRe.s:744    .text._ZN7WorkerB3runEv:000000000000001c .LVL65
C:\msys64\tmp\ccwMNTRe.s:5338   .debug_str:0000000000000571 .LASF76
C:\msys64\tmp\ccwMNTRe.s:557    .text._ZN7WorkerA3runEv:0000000000000000 .LFB6
C:\msys64\tmp\ccwMNTRe.s:584    .text._ZN7WorkerA3runEv:000000000000002c .LFE6
C:\msys64\tmp\ccwMNTRe.s:5051   .debug_loc:0000000000000932 .LLST18
C:\msys64\tmp\ccwMNTRe.s:573    .text._ZN7WorkerA3runEv:000000000000001c .LVL49
C:\msys64\tmp\ccwMNTRe.s:5180   .debug_str:0000000000000000 .LASF77
C:\msys64\tmp\ccwMNTRe.s:5346   .debug_str:00000000000005a8 .LASF95
C:\msys64\tmp\ccwMNTRe.s:12     .text:0000000000000000 .LFB2
C:\msys64\tmp\ccwMNTRe.s:78     .text:0000000000000074 .LFE2
C:\msys64\tmp\ccwMNTRe.s:5065   .debug_loc:000000000000096b .LLST0
C:\msys64\tmp\ccwMNTRe.s:45     .text:000000000000003c .LVL2
C:\msys64\tmp\ccwMNTRe.s:50     .text:000000000000004c .LVL3
C:\msys64\tmp\ccwMNTRe.s:75     .text:0000000000000070 .LVL6
C:\msys64\tmp\ccwMNTRe.s:5374   .debug_str:0000000000000678 .LASF78
C:\msys64\tmp\ccwMNTRe.s:5336   .debug_str:0000000000000561 .LASF79
C:\msys64\tmp\ccwMNTRe.s:5276   .debug_str:000000000000038d .LASF80
C:\msys64\tmp\ccwMNTRe.s:5358   .debug_str:00000000000005ec .LASF81
C:\msys64\tmp\ccwMNTRe.s:5364   .debug_str:0000000000000615 .LASF82
C:\msys64\tmp\ccwMNTRe.s:5266   .debug_str:0000000000000343 .LASF83
C:\msys64\tmp\ccwMNTRe.s:5250   .debug_str:00000000000002e2 .LASF96
C:\msys64\tmp\ccwMNTRe.s:5222   .debug_str:00000000000001ec .LASF97
C:\msys64\tmp\ccwMNTRe.s:5302   .debug_str:000000000000044d .LASF84
C:\msys64\tmp\ccwMNTRe.s:5212   .debug_str:00000000000000e4 .LASF85
C:\msys64\tmp\ccwMNTRe.s:5236   .debug_str:0000000000000261 .LASF86
C:\msys64\tmp\ccwMNTRe.s:5220   .debug_str:00000000000001dc .LASF87
C:\msys64\tmp\ccwMNTRe.s:125    .text._ZN7WorkerAD0Ev:0000000000000000 .LVL9
GAS LISTING C:\msys64\tmp\ccwMNTRe.s 			page 52


C:\msys64\tmp\ccwMNTRe.s:157    .text._ZN7WorkerAD0Ev:0000000000000044 .LVL13
C:\msys64\tmp\ccwMNTRe.s:137    .text._ZN7WorkerAD0Ev:0000000000000018 .LVL10
C:\msys64\tmp\ccwMNTRe.s:88     .text._ZN7WorkerAD2Ev:0000000000000000 .LVL7
C:\msys64\tmp\ccwMNTRe.s:209    .text._ZN7WorkerBD0Ev:0000000000000000 .LVL16
C:\msys64\tmp\ccwMNTRe.s:241    .text._ZN7WorkerBD0Ev:0000000000000044 .LVL20
C:\msys64\tmp\ccwMNTRe.s:221    .text._ZN7WorkerBD0Ev:0000000000000018 .LVL17
C:\msys64\tmp\ccwMNTRe.s:172    .text._ZN7WorkerBD2Ev:0000000000000000 .LVL14
C:\msys64\tmp\ccwMNTRe.s:293    .text._ZN7WorkerCD0Ev:0000000000000000 .LVL23
C:\msys64\tmp\ccwMNTRe.s:325    .text._ZN7WorkerCD0Ev:0000000000000044 .LVL27
C:\msys64\tmp\ccwMNTRe.s:305    .text._ZN7WorkerCD0Ev:0000000000000018 .LVL24
C:\msys64\tmp\ccwMNTRe.s:256    .text._ZN7WorkerCD2Ev:0000000000000000 .LVL21
C:\msys64\tmp\ccwMNTRe.s:377    .text._ZN7WorkerDD0Ev:0000000000000000 .LVL30
C:\msys64\tmp\ccwMNTRe.s:409    .text._ZN7WorkerDD0Ev:0000000000000044 .LVL34
C:\msys64\tmp\ccwMNTRe.s:389    .text._ZN7WorkerDD0Ev:0000000000000018 .LVL31
C:\msys64\tmp\ccwMNTRe.s:340    .text._ZN7WorkerDD2Ev:0000000000000000 .LVL28
C:\msys64\tmp\ccwMNTRe.s:1339   .text:00000000000005d8 .LVL144
C:\msys64\tmp\ccwMNTRe.s:1354   .text:00000000000005fc .LVL146
C:\msys64\tmp\ccwMNTRe.s:1356   .text:0000000000000600 .LVL147
C:\msys64\tmp\ccwMNTRe.s:1384   .text:000000000000063c .LVL149
C:\msys64\tmp\ccwMNTRe.s:1398   .text:0000000000000650 .LVL152
C:\msys64\tmp\ccwMNTRe.s:1405   .text:0000000000000660 .LVL153
C:\msys64\tmp\ccwMNTRe.s:1386   .text:0000000000000640 .LVL150
C:\msys64\tmp\ccwMNTRe.s:1407   .text:0000000000000664 .LVL154
C:\msys64\tmp\ccwMNTRe.s:1462   .text:00000000000006e0 .LVL163
C:\msys64\tmp\ccwMNTRe.s:1230   .text:0000000000000504 .LVL125
C:\msys64\tmp\ccwMNTRe.s:1240   .text:0000000000000518 .LVL127
C:\msys64\tmp\ccwMNTRe.s:1258   .text:000000000000053c .LVL130
C:\msys64\tmp\ccwMNTRe.s:1268   .text:0000000000000550 .LVL132
C:\msys64\tmp\ccwMNTRe.s:1286   .text:0000000000000574 .LVL135
C:\msys64\tmp\ccwMNTRe.s:1296   .text:0000000000000588 .LVL137
C:\msys64\tmp\ccwMNTRe.s:1314   .text:00000000000005ac .LVL140
C:\msys64\tmp\ccwMNTRe.s:1324   .text:00000000000005c0 .LVL142
C:\msys64\tmp\ccwMNTRe.s:1005   .text:0000000000000394 .LVL97
C:\msys64\tmp\ccwMNTRe.s:1023   .text:00000000000003b4 .LVL99
C:\msys64\tmp\ccwMNTRe.s:1019   .text:00000000000003ac .LVL98
C:\msys64\tmp\ccwMNTRe.s:1044   .text:00000000000003ec .LVL103
C:\msys64\tmp\ccwMNTRe.s:1046   .text:00000000000003f0 .LVL104
C:\msys64\tmp\ccwMNTRe.s:1113   .text:0000000000000494 .LVL116
C:\msys64\tmp\ccwMNTRe.s:1115   .text:0000000000000498 .LVL117
C:\msys64\tmp\ccwMNTRe.s:1142   .text:00000000000004d0 .LVL120
C:\msys64\tmp\ccwMNTRe.s:1073   .text:0000000000000424 .LVL108
C:\msys64\tmp\ccwMNTRe.s:1077   .text:000000000000042c .LVL109
C:\msys64\tmp\ccwMNTRe.s:1145   .text:00000000000004d4 .LVL121
C:\msys64\tmp\ccwMNTRe.s:778    .text:0000000000000214 .LVL66
C:\msys64\tmp\ccwMNTRe.s:796    .text:0000000000000234 .LVL68
C:\msys64\tmp\ccwMNTRe.s:792    .text:000000000000022c .LVL67
C:\msys64\tmp\ccwMNTRe.s:817    .text:000000000000026c .LVL72
C:\msys64\tmp\ccwMNTRe.s:819    .text:0000000000000270 .LVL73
C:\msys64\tmp\ccwMNTRe.s:911    .text:000000000000034c .LVL89
C:\msys64\tmp\ccwMNTRe.s:913    .text:0000000000000350 .LVL90
C:\msys64\tmp\ccwMNTRe.s:940    .text:0000000000000388 .LVL93
C:\msys64\tmp\ccwMNTRe.s:846    .text:0000000000000298 .LVL76
C:\msys64\tmp\ccwMNTRe.s:871    .text:00000000000002dc .LVL81
C:\msys64\tmp\ccwMNTRe.s:875    .text:00000000000002e4 .LVL82
C:\msys64\tmp\ccwMNTRe.s:943    .text:000000000000038c .LVL94
C:\msys64\tmp\ccwMNTRe.s:601    .text:0000000000000140 .LVL50
C:\msys64\tmp\ccwMNTRe.s:620    .text:0000000000000160 .LVL52
GAS LISTING C:\msys64\tmp\ccwMNTRe.s 			page 53


C:\msys64\tmp\ccwMNTRe.s:615    .text:0000000000000158 .LVL51
C:\msys64\tmp\ccwMNTRe.s:716    .text:000000000000020c .LVL63
C:\msys64\tmp\ccwMNTRe.s:660    .text:0000000000000194 .LVL56
C:\msys64\tmp\ccwMNTRe.s:688    .text:00000000000001d8 .LVL60
C:\msys64\tmp\ccwMNTRe.s:434    .text:0000000000000074 .LVL35
C:\msys64\tmp\ccwMNTRe.s:453    .text:0000000000000094 .LVL37
C:\msys64\tmp\ccwMNTRe.s:448    .text:000000000000008c .LVL36
C:\msys64\tmp\ccwMNTRe.s:545    .text:0000000000000138 .LVL47
C:\msys64\tmp\ccwMNTRe.s:493    .text:00000000000000c8 .LVL41
C:\msys64\tmp\ccwMNTRe.s:521    .text:000000000000010c .LVL45
C:\msys64\tmp\ccwMNTRe.s:1160   .text._ZN7WorkerD3runEv:0000000000000000 .LVL122
C:\msys64\tmp\ccwMNTRe.s:958    .text._ZN7WorkerC3runEv:0000000000000000 .LVL95
C:\msys64\tmp\ccwMNTRe.s:731    .text._ZN7WorkerB3runEv:0000000000000000 .LVL64
C:\msys64\tmp\ccwMNTRe.s:560    .text._ZN7WorkerA3runEv:0000000000000000 .LVL48
C:\msys64\tmp\ccwMNTRe.s:16     .text:0000000000000000 .LVL0
C:\msys64\tmp\ccwMNTRe.s:39     .text:0000000000000030 .LVL1
C:\msys64\tmp\ccwMNTRe.s:63     .text:000000000000005c .LVL4
C:\msys64\tmp\ccwMNTRe.s:69     .text:0000000000000068 .LVL5
C:\msys64\tmp\ccwMNTRe.s:1599   .debug_info:0000000000000000 .Ldebug_info0
C:\msys64\tmp\ccwMNTRe.s:8      .text:0000000000000000 .Ltext0
C:\msys64\tmp\ccwMNTRe.s:1593   .text:00000000000006ec .Letext0
C:\msys64\tmp\ccwMNTRe.s:456    .text:0000000000000094 .LBB42
C:\msys64\tmp\ccwMNTRe.s:489    .text:00000000000000c4 .LBE42
C:\msys64\tmp\ccwMNTRe.s:517    .text:0000000000000104 .LBB47
C:\msys64\tmp\ccwMNTRe.s:523    .text:000000000000010c .LBE47
C:\msys64\tmp\ccwMNTRe.s:458    .text:0000000000000094 .LBB44
C:\msys64\tmp\ccwMNTRe.s:467    .text:00000000000000a4 .LBE44
C:\msys64\tmp\ccwMNTRe.s:482    .text:00000000000000bc .LBB45
C:\msys64\tmp\ccwMNTRe.s:487    .text:00000000000000c4 .LBE45
C:\msys64\tmp\ccwMNTRe.s:623    .text:0000000000000160 .LBB51
C:\msys64\tmp\ccwMNTRe.s:656    .text:0000000000000190 .LBE51
C:\msys64\tmp\ccwMNTRe.s:684    .text:00000000000001d0 .LBB56
C:\msys64\tmp\ccwMNTRe.s:690    .text:00000000000001d8 .LBE56
C:\msys64\tmp\ccwMNTRe.s:625    .text:0000000000000160 .LBB53
C:\msys64\tmp\ccwMNTRe.s:634    .text:0000000000000170 .LBE53
C:\msys64\tmp\ccwMNTRe.s:649    .text:0000000000000188 .LBB54
C:\msys64\tmp\ccwMNTRe.s:654    .text:0000000000000190 .LBE54
C:\msys64\tmp\ccwMNTRe.s:1472   .gcc_except_table:0000000000000000 .LLSDA23
                           .group:0000000000000000 _ZN7WorkerAD5Ev
                           .group:0000000000000000 _ZN7WorkerBD5Ev
                           .group:0000000000000000 _ZN7WorkerCD5Ev
                           .group:0000000000000000 _ZN7WorkerDD5Ev

UNDEFINED SYMBOLS
_Z15thread_dispatchv
_ZN6ThreadD2Ev
_ZdlPv
_Z11printStringPKc
_Z8printIntiii
_Znwm
_ZN6ThreadC2Ev
_ZN6Thread5startEv
_ZN6Thread8dispatchEv
_Unwind_Resume
__gxx_personality_v0
